ARM GAS  C:\Users\GLENNL~1\AppData\Local\Temp\ccD4vWH1.s 			page 1


   1              		.cpu cortex-m0
   2              		.fpu softvfp
   3              		.eabi_attribute 20, 1
   4              		.eabi_attribute 21, 1
   5              		.eabi_attribute 23, 3
   6              		.eabi_attribute 24, 1
   7              		.eabi_attribute 25, 1
   8              		.eabi_attribute 26, 1
   9              		.eabi_attribute 30, 6
  10              		.eabi_attribute 34, 0
  11              		.eabi_attribute 18, 4
  12              		.code	16
  13              		.file	"UART_UART.c"
  14              		.text
  15              	.Ltext0:
  16              		.cfi_sections	.debug_frame
  17              		.section	.text.UART_UartInit,"ax",%progbits
  18              		.align	2
  19              		.global	UART_UartInit
  20              		.code	16
  21              		.thumb_func
  22              		.type	UART_UartInit, %function
  23              	UART_UartInit:
  24              	.LFB2:
  25              		.file 1 ".\\Generated_Source\\PSoC4\\UART_UART.c"
   1:.\Generated_Source\PSoC4/UART_UART.c **** /*******************************************************************************
   2:.\Generated_Source\PSoC4/UART_UART.c **** * File Name: UART_UART.c
   3:.\Generated_Source\PSoC4/UART_UART.c **** * Version 2.0
   4:.\Generated_Source\PSoC4/UART_UART.c **** *
   5:.\Generated_Source\PSoC4/UART_UART.c **** * Description:
   6:.\Generated_Source\PSoC4/UART_UART.c **** *  This file provides the source code to the API for the SCB Component in
   7:.\Generated_Source\PSoC4/UART_UART.c **** *  UART mode.
   8:.\Generated_Source\PSoC4/UART_UART.c **** *
   9:.\Generated_Source\PSoC4/UART_UART.c **** * Note:
  10:.\Generated_Source\PSoC4/UART_UART.c **** *
  11:.\Generated_Source\PSoC4/UART_UART.c **** *******************************************************************************
  12:.\Generated_Source\PSoC4/UART_UART.c **** * Copyright 2013-2014, Cypress Semiconductor Corporation.  All rights reserved.
  13:.\Generated_Source\PSoC4/UART_UART.c **** * You may use this file only in accordance with the license, terms, conditions,
  14:.\Generated_Source\PSoC4/UART_UART.c **** * disclaimers, and limitations in the end user license agreement accompanying
  15:.\Generated_Source\PSoC4/UART_UART.c **** * the software package with which this file was provided.
  16:.\Generated_Source\PSoC4/UART_UART.c **** *******************************************************************************/
  17:.\Generated_Source\PSoC4/UART_UART.c **** 
  18:.\Generated_Source\PSoC4/UART_UART.c **** #include "UART_PVT.h"
  19:.\Generated_Source\PSoC4/UART_UART.c **** #include "UART_SPI_UART_PVT.h"
  20:.\Generated_Source\PSoC4/UART_UART.c **** 
  21:.\Generated_Source\PSoC4/UART_UART.c **** 
  22:.\Generated_Source\PSoC4/UART_UART.c **** #if(UART_SCB_MODE_UNCONFIG_CONST_CFG)
  23:.\Generated_Source\PSoC4/UART_UART.c **** 
  24:.\Generated_Source\PSoC4/UART_UART.c ****     /***************************************
  25:.\Generated_Source\PSoC4/UART_UART.c ****     *  Configuration Structure Initialization
  26:.\Generated_Source\PSoC4/UART_UART.c ****     ***************************************/
  27:.\Generated_Source\PSoC4/UART_UART.c **** 
  28:.\Generated_Source\PSoC4/UART_UART.c ****     const UART_UART_INIT_STRUCT UART_configUart =
  29:.\Generated_Source\PSoC4/UART_UART.c ****     {
  30:.\Generated_Source\PSoC4/UART_UART.c ****         UART_UART_SUB_MODE,
  31:.\Generated_Source\PSoC4/UART_UART.c ****         UART_UART_DIRECTION,
  32:.\Generated_Source\PSoC4/UART_UART.c ****         UART_UART_DATA_BITS_NUM,
ARM GAS  C:\Users\GLENNL~1\AppData\Local\Temp\ccD4vWH1.s 			page 2


  33:.\Generated_Source\PSoC4/UART_UART.c ****         UART_UART_PARITY_TYPE,
  34:.\Generated_Source\PSoC4/UART_UART.c ****         UART_UART_STOP_BITS_NUM,
  35:.\Generated_Source\PSoC4/UART_UART.c ****         UART_UART_OVS_FACTOR,
  36:.\Generated_Source\PSoC4/UART_UART.c ****         UART_UART_IRDA_LOW_POWER,
  37:.\Generated_Source\PSoC4/UART_UART.c ****         UART_UART_MEDIAN_FILTER_ENABLE,
  38:.\Generated_Source\PSoC4/UART_UART.c ****         UART_UART_RETRY_ON_NACK,
  39:.\Generated_Source\PSoC4/UART_UART.c ****         UART_UART_IRDA_POLARITY,
  40:.\Generated_Source\PSoC4/UART_UART.c ****         UART_UART_DROP_ON_PARITY_ERR,
  41:.\Generated_Source\PSoC4/UART_UART.c ****         UART_UART_DROP_ON_FRAME_ERR,
  42:.\Generated_Source\PSoC4/UART_UART.c ****         UART_UART_WAKE_ENABLE,
  43:.\Generated_Source\PSoC4/UART_UART.c ****         0u,
  44:.\Generated_Source\PSoC4/UART_UART.c ****         NULL,
  45:.\Generated_Source\PSoC4/UART_UART.c ****         0u,
  46:.\Generated_Source\PSoC4/UART_UART.c ****         NULL,
  47:.\Generated_Source\PSoC4/UART_UART.c ****         UART_UART_MP_MODE_ENABLE,
  48:.\Generated_Source\PSoC4/UART_UART.c ****         UART_UART_MP_ACCEPT_ADDRESS,
  49:.\Generated_Source\PSoC4/UART_UART.c ****         UART_UART_MP_RX_ADDRESS,
  50:.\Generated_Source\PSoC4/UART_UART.c ****         UART_UART_MP_RX_ADDRESS_MASK,
  51:.\Generated_Source\PSoC4/UART_UART.c ****         (uint32) UART_SCB_IRQ_INTERNAL,
  52:.\Generated_Source\PSoC4/UART_UART.c ****         UART_UART_INTR_RX_MASK,
  53:.\Generated_Source\PSoC4/UART_UART.c ****         UART_UART_RX_TRIGGER_LEVEL,
  54:.\Generated_Source\PSoC4/UART_UART.c ****         UART_UART_INTR_TX_MASK,
  55:.\Generated_Source\PSoC4/UART_UART.c ****         UART_UART_TX_TRIGGER_LEVEL,
  56:.\Generated_Source\PSoC4/UART_UART.c ****         (uint8) UART_UART_BYTE_MODE_ENABLE,
  57:.\Generated_Source\PSoC4/UART_UART.c ****         (uint8) UART_UART_CTS_ENABLE,
  58:.\Generated_Source\PSoC4/UART_UART.c ****         (uint8) UART_UART_CTS_POLARITY,
  59:.\Generated_Source\PSoC4/UART_UART.c ****         (uint8) UART_UART_RTS_POLARITY,
  60:.\Generated_Source\PSoC4/UART_UART.c ****         (uint8) UART_UART_RTS_FIFO_LEVEL
  61:.\Generated_Source\PSoC4/UART_UART.c ****     };
  62:.\Generated_Source\PSoC4/UART_UART.c **** 
  63:.\Generated_Source\PSoC4/UART_UART.c **** 
  64:.\Generated_Source\PSoC4/UART_UART.c ****     /*******************************************************************************
  65:.\Generated_Source\PSoC4/UART_UART.c ****     * Function Name: UART_UartInit
  66:.\Generated_Source\PSoC4/UART_UART.c ****     ********************************************************************************
  67:.\Generated_Source\PSoC4/UART_UART.c ****     *
  68:.\Generated_Source\PSoC4/UART_UART.c ****     * Summary:
  69:.\Generated_Source\PSoC4/UART_UART.c ****     *  Configures the SCB for the UART operation.
  70:.\Generated_Source\PSoC4/UART_UART.c ****     *
  71:.\Generated_Source\PSoC4/UART_UART.c ****     * Parameters:
  72:.\Generated_Source\PSoC4/UART_UART.c ****     *  config:  Pointer to a structure that contains the following ordered list of
  73:.\Generated_Source\PSoC4/UART_UART.c ****     *           fields. These fields match the selections available in the
  74:.\Generated_Source\PSoC4/UART_UART.c ****     *           customizer.
  75:.\Generated_Source\PSoC4/UART_UART.c ****     *
  76:.\Generated_Source\PSoC4/UART_UART.c ****     * Return:
  77:.\Generated_Source\PSoC4/UART_UART.c ****     *  None
  78:.\Generated_Source\PSoC4/UART_UART.c ****     *
  79:.\Generated_Source\PSoC4/UART_UART.c ****     *******************************************************************************/
  80:.\Generated_Source\PSoC4/UART_UART.c ****     void UART_UartInit(const UART_UART_INIT_STRUCT *config)
  81:.\Generated_Source\PSoC4/UART_UART.c ****     {
  82:.\Generated_Source\PSoC4/UART_UART.c ****         uint32 pinsConfig;
  83:.\Generated_Source\PSoC4/UART_UART.c **** 
  84:.\Generated_Source\PSoC4/UART_UART.c ****         if(NULL == config)
  85:.\Generated_Source\PSoC4/UART_UART.c ****         {
  86:.\Generated_Source\PSoC4/UART_UART.c ****             CYASSERT(0u != 0u); /* Halt execution due to bad function parameter */
  87:.\Generated_Source\PSoC4/UART_UART.c ****         }
  88:.\Generated_Source\PSoC4/UART_UART.c ****         else
  89:.\Generated_Source\PSoC4/UART_UART.c ****         {
ARM GAS  C:\Users\GLENNL~1\AppData\Local\Temp\ccD4vWH1.s 			page 3


  90:.\Generated_Source\PSoC4/UART_UART.c ****             /* Get direction to configure UART pins: TX, RX or TX+RX */
  91:.\Generated_Source\PSoC4/UART_UART.c ****             pinsConfig  = config->direction;
  92:.\Generated_Source\PSoC4/UART_UART.c **** 
  93:.\Generated_Source\PSoC4/UART_UART.c ****         #if !(UART_CY_SCBIP_V0 || UART_CY_SCBIP_V1)
  94:.\Generated_Source\PSoC4/UART_UART.c ****             /* Add RTS and CTS pins to configure */
  95:.\Generated_Source\PSoC4/UART_UART.c ****             pinsConfig |= (0u != config->rtsRxFifoLevel) ? (UART_UART_RTS_PIN_ENABLE) : (0u);
  96:.\Generated_Source\PSoC4/UART_UART.c ****             pinsConfig |= (0u != config->enableCts)         ? (UART_UART_CTS_PIN_ENABLE) : (0u);
  97:.\Generated_Source\PSoC4/UART_UART.c ****         #endif /* !(UART_CY_SCBIP_V0 || UART_CY_SCBIP_V1) */
  98:.\Generated_Source\PSoC4/UART_UART.c **** 
  99:.\Generated_Source\PSoC4/UART_UART.c ****             /* Configure pins */
 100:.\Generated_Source\PSoC4/UART_UART.c ****             UART_SetPins(UART_SCB_MODE_UART, config->mode, pinsConfig);
 101:.\Generated_Source\PSoC4/UART_UART.c **** 
 102:.\Generated_Source\PSoC4/UART_UART.c ****             /* Store internal configuration */
 103:.\Generated_Source\PSoC4/UART_UART.c ****             UART_scbMode       = (uint8) UART_SCB_MODE_UART;
 104:.\Generated_Source\PSoC4/UART_UART.c ****             UART_scbEnableWake = (uint8) config->enableWake;
 105:.\Generated_Source\PSoC4/UART_UART.c ****             UART_scbEnableIntr = (uint8) config->enableInterrupt;
 106:.\Generated_Source\PSoC4/UART_UART.c **** 
 107:.\Generated_Source\PSoC4/UART_UART.c ****             /* Set RX direction internal variables */
 108:.\Generated_Source\PSoC4/UART_UART.c ****             UART_rxBuffer      =         config->rxBuffer;
 109:.\Generated_Source\PSoC4/UART_UART.c ****             UART_rxDataBits    = (uint8) config->dataBits;
 110:.\Generated_Source\PSoC4/UART_UART.c ****             UART_rxBufferSize  = (uint8) config->rxBufferSize;
 111:.\Generated_Source\PSoC4/UART_UART.c **** 
 112:.\Generated_Source\PSoC4/UART_UART.c ****             /* Set TX direction internal variables */
 113:.\Generated_Source\PSoC4/UART_UART.c ****             UART_txBuffer      =         config->txBuffer;
 114:.\Generated_Source\PSoC4/UART_UART.c ****             UART_txDataBits    = (uint8) config->dataBits;
 115:.\Generated_Source\PSoC4/UART_UART.c ****             UART_txBufferSize  = (uint8) config->txBufferSize;
 116:.\Generated_Source\PSoC4/UART_UART.c **** 
 117:.\Generated_Source\PSoC4/UART_UART.c ****             /* Configure UART interface */
 118:.\Generated_Source\PSoC4/UART_UART.c ****             if(UART_UART_MODE_IRDA == config->mode)
 119:.\Generated_Source\PSoC4/UART_UART.c ****             {
 120:.\Generated_Source\PSoC4/UART_UART.c ****                 /* OVS settings: IrDA */
 121:.\Generated_Source\PSoC4/UART_UART.c ****                 UART_CTRL_REG  = ((0u != config->enableIrdaLowPower) ?
 122:.\Generated_Source\PSoC4/UART_UART.c ****                                                 (UART_UART_GET_CTRL_OVS_IRDA_LP(config->oversample)
 123:.\Generated_Source\PSoC4/UART_UART.c ****                                                 (UART_CTRL_OVS_IRDA_OVS16));
 124:.\Generated_Source\PSoC4/UART_UART.c ****             }
 125:.\Generated_Source\PSoC4/UART_UART.c ****             else
 126:.\Generated_Source\PSoC4/UART_UART.c ****             {
 127:.\Generated_Source\PSoC4/UART_UART.c ****                 /* OVS settings: UART and SmartCard */
 128:.\Generated_Source\PSoC4/UART_UART.c ****                 UART_CTRL_REG  = UART_GET_CTRL_OVS(config->oversample);
 129:.\Generated_Source\PSoC4/UART_UART.c ****             }
 130:.\Generated_Source\PSoC4/UART_UART.c **** 
 131:.\Generated_Source\PSoC4/UART_UART.c ****             UART_CTRL_REG     |= UART_GET_CTRL_BYTE_MODE  (config->enableByteMode)      |
 132:.\Generated_Source\PSoC4/UART_UART.c ****                                              UART_GET_CTRL_ADDR_ACCEPT(config->multiprocAcceptAddr)
 133:.\Generated_Source\PSoC4/UART_UART.c ****                                              UART_CTRL_UART;
 134:.\Generated_Source\PSoC4/UART_UART.c **** 
 135:.\Generated_Source\PSoC4/UART_UART.c ****             /* Configure sub-mode: UART, SmartCard or IrDA */
 136:.\Generated_Source\PSoC4/UART_UART.c ****             UART_UART_CTRL_REG = UART_GET_UART_CTRL_MODE(config->mode);
 137:.\Generated_Source\PSoC4/UART_UART.c **** 
 138:.\Generated_Source\PSoC4/UART_UART.c ****             /* Configure RX direction */
 139:.\Generated_Source\PSoC4/UART_UART.c ****             UART_UART_RX_CTRL_REG = UART_GET_UART_RX_CTRL_MODE(config->stopBits)              |
 140:.\Generated_Source\PSoC4/UART_UART.c ****                                         UART_GET_UART_RX_CTRL_POLARITY(config->enableInvertedRx)   
 141:.\Generated_Source\PSoC4/UART_UART.c ****                                         UART_GET_UART_RX_CTRL_MP_MODE(config->enableMultiproc)     
 142:.\Generated_Source\PSoC4/UART_UART.c ****                                         UART_GET_UART_RX_CTRL_DROP_ON_PARITY_ERR(config->dropOnPari
 143:.\Generated_Source\PSoC4/UART_UART.c ****                                         UART_GET_UART_RX_CTRL_DROP_ON_FRAME_ERR(config->dropOnFrame
 144:.\Generated_Source\PSoC4/UART_UART.c **** 
 145:.\Generated_Source\PSoC4/UART_UART.c ****             if(UART_UART_PARITY_NONE != config->parity)
 146:.\Generated_Source\PSoC4/UART_UART.c ****             {
ARM GAS  C:\Users\GLENNL~1\AppData\Local\Temp\ccD4vWH1.s 			page 4


 147:.\Generated_Source\PSoC4/UART_UART.c ****                UART_UART_RX_CTRL_REG |= UART_GET_UART_RX_CTRL_PARITY(config->parity) |
 148:.\Generated_Source\PSoC4/UART_UART.c ****                                                     UART_UART_RX_CTRL_PARITY_ENABLED;
 149:.\Generated_Source\PSoC4/UART_UART.c ****             }
 150:.\Generated_Source\PSoC4/UART_UART.c **** 
 151:.\Generated_Source\PSoC4/UART_UART.c ****             UART_RX_CTRL_REG      = UART_GET_RX_CTRL_DATA_WIDTH(config->dataBits)       |
 152:.\Generated_Source\PSoC4/UART_UART.c ****                                                 UART_GET_RX_CTRL_MEDIAN(config->enableMedianFilter)
 153:.\Generated_Source\PSoC4/UART_UART.c ****                                                 UART_GET_UART_RX_CTRL_ENABLED(config->direction);
 154:.\Generated_Source\PSoC4/UART_UART.c **** 
 155:.\Generated_Source\PSoC4/UART_UART.c ****             UART_RX_FIFO_CTRL_REG = UART_GET_RX_FIFO_CTRL_TRIGGER_LEVEL(config->rxTriggerLevel);
 156:.\Generated_Source\PSoC4/UART_UART.c **** 
 157:.\Generated_Source\PSoC4/UART_UART.c ****             /* Configure MP address */
 158:.\Generated_Source\PSoC4/UART_UART.c ****             UART_RX_MATCH_REG     = UART_GET_RX_MATCH_ADDR(config->multiprocAddr) |
 159:.\Generated_Source\PSoC4/UART_UART.c ****                                                 UART_GET_RX_MATCH_MASK(config->multiprocAddrMask);
 160:.\Generated_Source\PSoC4/UART_UART.c **** 
 161:.\Generated_Source\PSoC4/UART_UART.c ****             /* Configure RX direction */
 162:.\Generated_Source\PSoC4/UART_UART.c ****             UART_UART_TX_CTRL_REG = UART_GET_UART_TX_CTRL_MODE(config->stopBits) |
 163:.\Generated_Source\PSoC4/UART_UART.c ****                                                 UART_GET_UART_TX_CTRL_RETRY_NACK(config->enableRetr
 164:.\Generated_Source\PSoC4/UART_UART.c **** 
 165:.\Generated_Source\PSoC4/UART_UART.c ****             if(UART_UART_PARITY_NONE != config->parity)
 166:.\Generated_Source\PSoC4/UART_UART.c ****             {
 167:.\Generated_Source\PSoC4/UART_UART.c ****                UART_UART_TX_CTRL_REG |= UART_GET_UART_TX_CTRL_PARITY(config->parity) |
 168:.\Generated_Source\PSoC4/UART_UART.c ****                                                     UART_UART_TX_CTRL_PARITY_ENABLED;
 169:.\Generated_Source\PSoC4/UART_UART.c ****             }
 170:.\Generated_Source\PSoC4/UART_UART.c **** 
 171:.\Generated_Source\PSoC4/UART_UART.c ****             UART_TX_CTRL_REG      = UART_GET_TX_CTRL_DATA_WIDTH(config->dataBits)    |
 172:.\Generated_Source\PSoC4/UART_UART.c ****                                                 UART_GET_UART_TX_CTRL_ENABLED(config->direction);
 173:.\Generated_Source\PSoC4/UART_UART.c **** 
 174:.\Generated_Source\PSoC4/UART_UART.c ****             UART_TX_FIFO_CTRL_REG = UART_GET_TX_FIFO_CTRL_TRIGGER_LEVEL(config->txTriggerLevel);
 175:.\Generated_Source\PSoC4/UART_UART.c **** 
 176:.\Generated_Source\PSoC4/UART_UART.c ****         #if !(UART_CY_SCBIP_V0 || UART_CY_SCBIP_V1)
 177:.\Generated_Source\PSoC4/UART_UART.c ****             UART_UART_FLOW_CTRL_REG = UART_GET_UART_FLOW_CTRL_CTS_ENABLE(config->enableCts) | \
 178:.\Generated_Source\PSoC4/UART_UART.c ****                                             UART_GET_UART_FLOW_CTRL_CTS_POLARITY (config->ctsPolari
 179:.\Generated_Source\PSoC4/UART_UART.c ****                                             UART_GET_UART_FLOW_CTRL_RTS_POLARITY(config->rtsPolarit
 180:.\Generated_Source\PSoC4/UART_UART.c ****                                             UART_GET_UART_FLOW_CTRL_TRIGGER_LEVEL(config->rtsRxFifo
 181:.\Generated_Source\PSoC4/UART_UART.c ****         #endif /* !(UART_CY_SCBIP_V0 || UART_CY_SCBIP_V1) */
 182:.\Generated_Source\PSoC4/UART_UART.c **** 
 183:.\Generated_Source\PSoC4/UART_UART.c ****             /* Configure interrupt with UART handler but do not enable it */
 184:.\Generated_Source\PSoC4/UART_UART.c ****             CyIntDisable    (UART_ISR_NUMBER);
 185:.\Generated_Source\PSoC4/UART_UART.c ****             CyIntSetPriority(UART_ISR_NUMBER, UART_ISR_PRIORITY);
 186:.\Generated_Source\PSoC4/UART_UART.c ****             (void) CyIntSetVector(UART_ISR_NUMBER, &UART_SPI_UART_ISR);
 187:.\Generated_Source\PSoC4/UART_UART.c **** 
 188:.\Generated_Source\PSoC4/UART_UART.c ****             /* Configure WAKE interrupt */
 189:.\Generated_Source\PSoC4/UART_UART.c ****         #if(UART_UART_RX_WAKEUP_IRQ)
 190:.\Generated_Source\PSoC4/UART_UART.c ****             CyIntDisable    (UART_RX_WAKE_ISR_NUMBER);
 191:.\Generated_Source\PSoC4/UART_UART.c ****             CyIntSetPriority(UART_RX_WAKE_ISR_NUMBER, UART_RX_WAKE_ISR_PRIORITY);
 192:.\Generated_Source\PSoC4/UART_UART.c ****             (void) CyIntSetVector(UART_RX_WAKE_ISR_NUMBER, &UART_UART_WAKEUP_ISR);
 193:.\Generated_Source\PSoC4/UART_UART.c ****         #endif /* (UART_UART_RX_WAKEUP_IRQ) */
 194:.\Generated_Source\PSoC4/UART_UART.c **** 
 195:.\Generated_Source\PSoC4/UART_UART.c ****             /* Configure interrupt sources */
 196:.\Generated_Source\PSoC4/UART_UART.c ****             UART_INTR_I2C_EC_MASK_REG = UART_NO_INTR_SOURCES;
 197:.\Generated_Source\PSoC4/UART_UART.c ****             UART_INTR_SPI_EC_MASK_REG = UART_NO_INTR_SOURCES;
 198:.\Generated_Source\PSoC4/UART_UART.c ****             UART_INTR_SLAVE_MASK_REG  = UART_NO_INTR_SOURCES;
 199:.\Generated_Source\PSoC4/UART_UART.c ****             UART_INTR_MASTER_MASK_REG = UART_NO_INTR_SOURCES;
 200:.\Generated_Source\PSoC4/UART_UART.c ****             UART_INTR_RX_MASK_REG     = config->rxInterruptMask;
 201:.\Generated_Source\PSoC4/UART_UART.c ****             UART_INTR_TX_MASK_REG     = config->txInterruptMask;
 202:.\Generated_Source\PSoC4/UART_UART.c **** 
 203:.\Generated_Source\PSoC4/UART_UART.c ****             /* Clear RX buffer indexes */
ARM GAS  C:\Users\GLENNL~1\AppData\Local\Temp\ccD4vWH1.s 			page 5


 204:.\Generated_Source\PSoC4/UART_UART.c ****             UART_rxBufferHead     = 0u;
 205:.\Generated_Source\PSoC4/UART_UART.c ****             UART_rxBufferTail     = 0u;
 206:.\Generated_Source\PSoC4/UART_UART.c ****             UART_rxBufferOverflow = 0u;
 207:.\Generated_Source\PSoC4/UART_UART.c **** 
 208:.\Generated_Source\PSoC4/UART_UART.c ****             /* Clear TX buffer indexes */
 209:.\Generated_Source\PSoC4/UART_UART.c ****             UART_txBufferHead = 0u;
 210:.\Generated_Source\PSoC4/UART_UART.c ****             UART_txBufferTail = 0u;
 211:.\Generated_Source\PSoC4/UART_UART.c ****         }
 212:.\Generated_Source\PSoC4/UART_UART.c ****     }
 213:.\Generated_Source\PSoC4/UART_UART.c **** 
 214:.\Generated_Source\PSoC4/UART_UART.c **** #else
 215:.\Generated_Source\PSoC4/UART_UART.c **** 
 216:.\Generated_Source\PSoC4/UART_UART.c ****     /*******************************************************************************
 217:.\Generated_Source\PSoC4/UART_UART.c ****     * Function Name: UART_UartInit
 218:.\Generated_Source\PSoC4/UART_UART.c ****     ********************************************************************************
 219:.\Generated_Source\PSoC4/UART_UART.c ****     *
 220:.\Generated_Source\PSoC4/UART_UART.c ****     * Summary:
 221:.\Generated_Source\PSoC4/UART_UART.c ****     *  Configures the SCB for the UART operation.
 222:.\Generated_Source\PSoC4/UART_UART.c ****     *
 223:.\Generated_Source\PSoC4/UART_UART.c ****     * Parameters:
 224:.\Generated_Source\PSoC4/UART_UART.c ****     *  None
 225:.\Generated_Source\PSoC4/UART_UART.c ****     *
 226:.\Generated_Source\PSoC4/UART_UART.c ****     * Return:
 227:.\Generated_Source\PSoC4/UART_UART.c ****     *  None
 228:.\Generated_Source\PSoC4/UART_UART.c ****     *
 229:.\Generated_Source\PSoC4/UART_UART.c ****     *******************************************************************************/
 230:.\Generated_Source\PSoC4/UART_UART.c ****     void UART_UartInit(void)
 231:.\Generated_Source\PSoC4/UART_UART.c ****     {
  26              		.loc 1 231 0
  27              		.cfi_startproc
  28 0000 80B5     		push	{r7, lr}
  29              		.cfi_def_cfa_offset 8
  30              		.cfi_offset 7, -8
  31              		.cfi_offset 14, -4
  32 0002 00AF     		add	r7, sp, #0
  33              		.cfi_def_cfa_register 7
 232:.\Generated_Source\PSoC4/UART_UART.c ****         /* Configure UART interface */
 233:.\Generated_Source\PSoC4/UART_UART.c ****         UART_CTRL_REG = UART_UART_DEFAULT_CTRL;
  34              		.loc 1 233 0
  35 0004 184B     		ldr	r3, .L2
  36 0006 194A     		ldr	r2, .L2+4
  37 0008 1A60     		str	r2, [r3]
 234:.\Generated_Source\PSoC4/UART_UART.c **** 
 235:.\Generated_Source\PSoC4/UART_UART.c ****         /* Configure sub-mode: UART, SmartCard or IrDA */
 236:.\Generated_Source\PSoC4/UART_UART.c ****         UART_UART_CTRL_REG = UART_UART_DEFAULT_UART_CTRL;
  38              		.loc 1 236 0
  39 000a 194B     		ldr	r3, .L2+8
  40 000c 0022     		mov	r2, #0
  41 000e 1A60     		str	r2, [r3]
 237:.\Generated_Source\PSoC4/UART_UART.c **** 
 238:.\Generated_Source\PSoC4/UART_UART.c ****         /* Configure RX direction */
 239:.\Generated_Source\PSoC4/UART_UART.c ****         UART_UART_RX_CTRL_REG = UART_UART_DEFAULT_UART_RX_CTRL;
  42              		.loc 1 239 0
  43 0010 184B     		ldr	r3, .L2+12
  44 0012 0122     		mov	r2, #1
  45 0014 1A60     		str	r2, [r3]
 240:.\Generated_Source\PSoC4/UART_UART.c ****         UART_RX_CTRL_REG      = UART_UART_DEFAULT_RX_CTRL;
ARM GAS  C:\Users\GLENNL~1\AppData\Local\Temp\ccD4vWH1.s 			page 6


  46              		.loc 1 240 0
  47 0016 184B     		ldr	r3, .L2+16
  48 0018 184A     		ldr	r2, .L2+20
  49 001a 1A60     		str	r2, [r3]
 241:.\Generated_Source\PSoC4/UART_UART.c ****         UART_RX_FIFO_CTRL_REG = UART_UART_DEFAULT_RX_FIFO_CTRL;
  50              		.loc 1 241 0
  51 001c 184B     		ldr	r3, .L2+24
  52 001e 0722     		mov	r2, #7
  53 0020 1A60     		str	r2, [r3]
 242:.\Generated_Source\PSoC4/UART_UART.c ****         UART_RX_MATCH_REG     = UART_UART_DEFAULT_RX_MATCH_REG;
  54              		.loc 1 242 0
  55 0022 184B     		ldr	r3, .L2+28
  56 0024 0022     		mov	r2, #0
  57 0026 1A60     		str	r2, [r3]
 243:.\Generated_Source\PSoC4/UART_UART.c **** 
 244:.\Generated_Source\PSoC4/UART_UART.c ****         /* Configure TX direction */
 245:.\Generated_Source\PSoC4/UART_UART.c ****         UART_UART_TX_CTRL_REG = UART_UART_DEFAULT_UART_TX_CTRL;
  58              		.loc 1 245 0
  59 0028 174B     		ldr	r3, .L2+32
  60 002a 0122     		mov	r2, #1
  61 002c 1A60     		str	r2, [r3]
 246:.\Generated_Source\PSoC4/UART_UART.c ****         UART_TX_CTRL_REG      = UART_UART_DEFAULT_TX_CTRL;
  62              		.loc 1 246 0
  63 002e 174B     		ldr	r3, .L2+36
  64 0030 124A     		ldr	r2, .L2+20
  65 0032 1A60     		str	r2, [r3]
 247:.\Generated_Source\PSoC4/UART_UART.c ****         UART_TX_FIFO_CTRL_REG = UART_UART_DEFAULT_TX_FIFO_CTRL;
  66              		.loc 1 247 0
  67 0034 164B     		ldr	r3, .L2+40
  68 0036 0022     		mov	r2, #0
  69 0038 1A60     		str	r2, [r3]
 248:.\Generated_Source\PSoC4/UART_UART.c **** 
 249:.\Generated_Source\PSoC4/UART_UART.c ****     #if !(UART_CY_SCBIP_V0 || UART_CY_SCBIP_V1)
 250:.\Generated_Source\PSoC4/UART_UART.c ****         UART_UART_FLOW_CTRL_REG = UART_UART_DEFAULT_FLOW_CTRL;
  70              		.loc 1 250 0
  71 003a 164B     		ldr	r3, .L2+44
  72 003c 0422     		mov	r2, #4
  73 003e 1A60     		str	r2, [r3]
 251:.\Generated_Source\PSoC4/UART_UART.c ****     #endif /* !(UART_CY_SCBIP_V0 || UART_CY_SCBIP_V1) */
 252:.\Generated_Source\PSoC4/UART_UART.c **** 
 253:.\Generated_Source\PSoC4/UART_UART.c ****         /* Configure interrupt with UART handler but do not enable it */
 254:.\Generated_Source\PSoC4/UART_UART.c ****     #if(UART_SCB_IRQ_INTERNAL)
 255:.\Generated_Source\PSoC4/UART_UART.c ****         CyIntDisable    (UART_ISR_NUMBER);
 256:.\Generated_Source\PSoC4/UART_UART.c ****         CyIntSetPriority(UART_ISR_NUMBER, UART_ISR_PRIORITY);
 257:.\Generated_Source\PSoC4/UART_UART.c ****         (void) CyIntSetVector(UART_ISR_NUMBER, &UART_SPI_UART_ISR);
 258:.\Generated_Source\PSoC4/UART_UART.c ****     #endif /* (UART_SCB_IRQ_INTERNAL) */
 259:.\Generated_Source\PSoC4/UART_UART.c **** 
 260:.\Generated_Source\PSoC4/UART_UART.c ****         /* Configure WAKE interrupt */
 261:.\Generated_Source\PSoC4/UART_UART.c ****     #if(UART_UART_RX_WAKEUP_IRQ)
 262:.\Generated_Source\PSoC4/UART_UART.c ****         CyIntDisable    (UART_RX_WAKE_ISR_NUMBER);
 263:.\Generated_Source\PSoC4/UART_UART.c ****         CyIntSetPriority(UART_RX_WAKE_ISR_NUMBER, UART_RX_WAKE_ISR_PRIORITY);
 264:.\Generated_Source\PSoC4/UART_UART.c ****         (void) CyIntSetVector(UART_RX_WAKE_ISR_NUMBER, &UART_UART_WAKEUP_ISR);
 265:.\Generated_Source\PSoC4/UART_UART.c ****     #endif /* (UART_UART_RX_WAKEUP_IRQ) */
 266:.\Generated_Source\PSoC4/UART_UART.c **** 
 267:.\Generated_Source\PSoC4/UART_UART.c ****         /* Configure interrupt sources */
 268:.\Generated_Source\PSoC4/UART_UART.c ****         UART_INTR_I2C_EC_MASK_REG = UART_UART_DEFAULT_INTR_I2C_EC_MASK;
  74              		.loc 1 268 0
ARM GAS  C:\Users\GLENNL~1\AppData\Local\Temp\ccD4vWH1.s 			page 7


  75 0040 154B     		ldr	r3, .L2+48
  76 0042 0022     		mov	r2, #0
  77 0044 1A60     		str	r2, [r3]
 269:.\Generated_Source\PSoC4/UART_UART.c ****         UART_INTR_SPI_EC_MASK_REG = UART_UART_DEFAULT_INTR_SPI_EC_MASK;
  78              		.loc 1 269 0
  79 0046 154B     		ldr	r3, .L2+52
  80 0048 0022     		mov	r2, #0
  81 004a 1A60     		str	r2, [r3]
 270:.\Generated_Source\PSoC4/UART_UART.c ****         UART_INTR_SLAVE_MASK_REG  = UART_UART_DEFAULT_INTR_SLAVE_MASK;
  82              		.loc 1 270 0
  83 004c 144B     		ldr	r3, .L2+56
  84 004e 0022     		mov	r2, #0
  85 0050 1A60     		str	r2, [r3]
 271:.\Generated_Source\PSoC4/UART_UART.c ****         UART_INTR_MASTER_MASK_REG = UART_UART_DEFAULT_INTR_MASTER_MASK;
  86              		.loc 1 271 0
  87 0052 144B     		ldr	r3, .L2+60
  88 0054 0022     		mov	r2, #0
  89 0056 1A60     		str	r2, [r3]
 272:.\Generated_Source\PSoC4/UART_UART.c ****         UART_INTR_RX_MASK_REG     = UART_UART_DEFAULT_INTR_RX_MASK;
  90              		.loc 1 272 0
  91 0058 134B     		ldr	r3, .L2+64
  92 005a 0422     		mov	r2, #4
  93 005c 1A60     		str	r2, [r3]
 273:.\Generated_Source\PSoC4/UART_UART.c ****         UART_INTR_TX_MASK_REG     = UART_UART_DEFAULT_INTR_TX_MASK;
  94              		.loc 1 273 0
  95 005e 134B     		ldr	r3, .L2+68
  96 0060 0022     		mov	r2, #0
  97 0062 1A60     		str	r2, [r3]
 274:.\Generated_Source\PSoC4/UART_UART.c **** 
 275:.\Generated_Source\PSoC4/UART_UART.c ****     #if(UART_INTERNAL_RX_SW_BUFFER_CONST)
 276:.\Generated_Source\PSoC4/UART_UART.c ****         UART_rxBufferHead     = 0u;
 277:.\Generated_Source\PSoC4/UART_UART.c ****         UART_rxBufferTail     = 0u;
 278:.\Generated_Source\PSoC4/UART_UART.c ****         UART_rxBufferOverflow = 0u;
 279:.\Generated_Source\PSoC4/UART_UART.c ****     #endif /* (UART_INTERNAL_RX_SW_BUFFER_CONST) */
 280:.\Generated_Source\PSoC4/UART_UART.c **** 
 281:.\Generated_Source\PSoC4/UART_UART.c ****     #if(UART_INTERNAL_TX_SW_BUFFER_CONST)
 282:.\Generated_Source\PSoC4/UART_UART.c ****         UART_txBufferHead = 0u;
 283:.\Generated_Source\PSoC4/UART_UART.c ****         UART_txBufferTail = 0u;
 284:.\Generated_Source\PSoC4/UART_UART.c ****     #endif /* (UART_INTERNAL_TX_SW_BUFFER_CONST) */
 285:.\Generated_Source\PSoC4/UART_UART.c ****     }
  98              		.loc 1 285 0
  99 0064 BD46     		mov	sp, r7
 100              		@ sp needed
 101 0066 80BD     		pop	{r7, pc}
 102              	.L3:
 103              		.align	2
 104              	.L2:
 105 0068 00002540 		.word	1076166656
 106 006c 0B000002 		.word	33554443
 107 0070 40002540 		.word	1076166720
 108 0074 48002540 		.word	1076166728
 109 0078 00032540 		.word	1076167424
 110 007c 07000080 		.word	-2147483641
 111 0080 04032540 		.word	1076167428
 112 0084 10032540 		.word	1076167440
 113 0088 44002540 		.word	1076166724
 114 008c 00022540 		.word	1076167168
ARM GAS  C:\Users\GLENNL~1\AppData\Local\Temp\ccD4vWH1.s 			page 8


 115 0090 04022540 		.word	1076167172
 116 0094 50002540 		.word	1076166736
 117 0098 880E2540 		.word	1076170376
 118 009c C80E2540 		.word	1076170440
 119 00a0 480F2540 		.word	1076170568
 120 00a4 080F2540 		.word	1076170504
 121 00a8 C80F2540 		.word	1076170696
 122 00ac 880F2540 		.word	1076170632
 123              		.cfi_endproc
 124              	.LFE2:
 125              		.size	UART_UartInit, .-UART_UartInit
 126              		.section	.text.UART_UartSetRxAddress,"ax",%progbits
 127              		.align	2
 128              		.global	UART_UartSetRxAddress
 129              		.code	16
 130              		.thumb_func
 131              		.type	UART_UartSetRxAddress, %function
 132              	UART_UartSetRxAddress:
 133              	.LFB3:
 286:.\Generated_Source\PSoC4/UART_UART.c **** #endif /* (UART_SCB_MODE_UNCONFIG_CONST_CFG) */
 287:.\Generated_Source\PSoC4/UART_UART.c **** 
 288:.\Generated_Source\PSoC4/UART_UART.c **** 
 289:.\Generated_Source\PSoC4/UART_UART.c **** /*******************************************************************************
 290:.\Generated_Source\PSoC4/UART_UART.c **** * Function Name: UART_UartSetRxAddress
 291:.\Generated_Source\PSoC4/UART_UART.c **** ********************************************************************************
 292:.\Generated_Source\PSoC4/UART_UART.c **** *
 293:.\Generated_Source\PSoC4/UART_UART.c **** * Summary:
 294:.\Generated_Source\PSoC4/UART_UART.c **** *  Sets the hardware detectable receiver address for the UART in the
 295:.\Generated_Source\PSoC4/UART_UART.c **** *  Multiprocessor mode.
 296:.\Generated_Source\PSoC4/UART_UART.c **** *
 297:.\Generated_Source\PSoC4/UART_UART.c **** * Parameters:
 298:.\Generated_Source\PSoC4/UART_UART.c **** *  address: Address for hardware address detection.
 299:.\Generated_Source\PSoC4/UART_UART.c **** *
 300:.\Generated_Source\PSoC4/UART_UART.c **** * Return:
 301:.\Generated_Source\PSoC4/UART_UART.c **** *  None
 302:.\Generated_Source\PSoC4/UART_UART.c **** *
 303:.\Generated_Source\PSoC4/UART_UART.c **** *******************************************************************************/
 304:.\Generated_Source\PSoC4/UART_UART.c **** void UART_UartSetRxAddress(uint32 address)
 305:.\Generated_Source\PSoC4/UART_UART.c **** {
 134              		.loc 1 305 0
 135              		.cfi_startproc
 136 0000 80B5     		push	{r7, lr}
 137              		.cfi_def_cfa_offset 8
 138              		.cfi_offset 7, -8
 139              		.cfi_offset 14, -4
 140 0002 84B0     		sub	sp, sp, #16
 141              		.cfi_def_cfa_offset 24
 142 0004 00AF     		add	r7, sp, #0
 143              		.cfi_def_cfa_register 7
 144 0006 7860     		str	r0, [r7, #4]
 306:.\Generated_Source\PSoC4/UART_UART.c ****      uint32 matchReg;
 307:.\Generated_Source\PSoC4/UART_UART.c **** 
 308:.\Generated_Source\PSoC4/UART_UART.c ****     matchReg = UART_RX_MATCH_REG;
 145              		.loc 1 308 0
 146 0008 094B     		ldr	r3, .L5
 147 000a 1B68     		ldr	r3, [r3]
 148 000c FB60     		str	r3, [r7, #12]
ARM GAS  C:\Users\GLENNL~1\AppData\Local\Temp\ccD4vWH1.s 			page 9


 309:.\Generated_Source\PSoC4/UART_UART.c **** 
 310:.\Generated_Source\PSoC4/UART_UART.c ****     matchReg &= ((uint32) ~UART_RX_MATCH_ADDR_MASK); /* Clear address bits */
 149              		.loc 1 310 0
 150 000e FB68     		ldr	r3, [r7, #12]
 151 0010 FF22     		mov	r2, #255
 152 0012 9343     		bic	r3, r2
 153 0014 FB60     		str	r3, [r7, #12]
 311:.\Generated_Source\PSoC4/UART_UART.c ****     matchReg |= ((uint32)  (address & UART_RX_MATCH_ADDR_MASK)); /* Set address  */
 154              		.loc 1 311 0
 155 0016 7A68     		ldr	r2, [r7, #4]
 156 0018 FF23     		mov	r3, #255
 157 001a 1340     		and	r3, r2
 158 001c FA68     		ldr	r2, [r7, #12]
 159 001e 1343     		orr	r3, r2
 160 0020 FB60     		str	r3, [r7, #12]
 312:.\Generated_Source\PSoC4/UART_UART.c **** 
 313:.\Generated_Source\PSoC4/UART_UART.c ****     UART_RX_MATCH_REG = matchReg;
 161              		.loc 1 313 0
 162 0022 034B     		ldr	r3, .L5
 163 0024 FA68     		ldr	r2, [r7, #12]
 164 0026 1A60     		str	r2, [r3]
 314:.\Generated_Source\PSoC4/UART_UART.c **** }
 165              		.loc 1 314 0
 166 0028 BD46     		mov	sp, r7
 167 002a 04B0     		add	sp, sp, #16
 168              		@ sp needed
 169 002c 80BD     		pop	{r7, pc}
 170              	.L6:
 171 002e C046     		.align	2
 172              	.L5:
 173 0030 10032540 		.word	1076167440
 174              		.cfi_endproc
 175              	.LFE3:
 176              		.size	UART_UartSetRxAddress, .-UART_UartSetRxAddress
 177              		.section	.text.UART_UartSetRxAddressMask,"ax",%progbits
 178              		.align	2
 179              		.global	UART_UartSetRxAddressMask
 180              		.code	16
 181              		.thumb_func
 182              		.type	UART_UartSetRxAddressMask, %function
 183              	UART_UartSetRxAddressMask:
 184              	.LFB4:
 315:.\Generated_Source\PSoC4/UART_UART.c **** 
 316:.\Generated_Source\PSoC4/UART_UART.c **** 
 317:.\Generated_Source\PSoC4/UART_UART.c **** /*******************************************************************************
 318:.\Generated_Source\PSoC4/UART_UART.c **** * Function Name: UART_UartSetRxAddressMask
 319:.\Generated_Source\PSoC4/UART_UART.c **** ********************************************************************************
 320:.\Generated_Source\PSoC4/UART_UART.c **** *
 321:.\Generated_Source\PSoC4/UART_UART.c **** * Summary:
 322:.\Generated_Source\PSoC4/UART_UART.c **** *  Sets the hardware address mask for the UART in the Multiprocessor mode.
 323:.\Generated_Source\PSoC4/UART_UART.c **** *
 324:.\Generated_Source\PSoC4/UART_UART.c **** * Parameters:
 325:.\Generated_Source\PSoC4/UART_UART.c **** *  addressMask: Address mask.
 326:.\Generated_Source\PSoC4/UART_UART.c **** *   0 - address bit does not care while comparison.
 327:.\Generated_Source\PSoC4/UART_UART.c **** *   1 - address bit is significant while comparison.
 328:.\Generated_Source\PSoC4/UART_UART.c **** *
 329:.\Generated_Source\PSoC4/UART_UART.c **** * Return:
ARM GAS  C:\Users\GLENNL~1\AppData\Local\Temp\ccD4vWH1.s 			page 10


 330:.\Generated_Source\PSoC4/UART_UART.c **** *  None
 331:.\Generated_Source\PSoC4/UART_UART.c **** *
 332:.\Generated_Source\PSoC4/UART_UART.c **** *******************************************************************************/
 333:.\Generated_Source\PSoC4/UART_UART.c **** void UART_UartSetRxAddressMask(uint32 addressMask)
 334:.\Generated_Source\PSoC4/UART_UART.c **** {
 185              		.loc 1 334 0
 186              		.cfi_startproc
 187 0000 80B5     		push	{r7, lr}
 188              		.cfi_def_cfa_offset 8
 189              		.cfi_offset 7, -8
 190              		.cfi_offset 14, -4
 191 0002 84B0     		sub	sp, sp, #16
 192              		.cfi_def_cfa_offset 24
 193 0004 00AF     		add	r7, sp, #0
 194              		.cfi_def_cfa_register 7
 195 0006 7860     		str	r0, [r7, #4]
 335:.\Generated_Source\PSoC4/UART_UART.c ****     uint32 matchReg;
 336:.\Generated_Source\PSoC4/UART_UART.c **** 
 337:.\Generated_Source\PSoC4/UART_UART.c ****     matchReg = UART_RX_MATCH_REG;
 196              		.loc 1 337 0
 197 0008 084B     		ldr	r3, .L8
 198 000a 1B68     		ldr	r3, [r3]
 199 000c FB60     		str	r3, [r7, #12]
 338:.\Generated_Source\PSoC4/UART_UART.c **** 
 339:.\Generated_Source\PSoC4/UART_UART.c ****     matchReg &= ((uint32) ~UART_RX_MATCH_MASK_MASK); /* Clear address mask bits */
 200              		.loc 1 339 0
 201 000e FA68     		ldr	r2, [r7, #12]
 202 0010 074B     		ldr	r3, .L8+4
 203 0012 1340     		and	r3, r2
 204 0014 FB60     		str	r3, [r7, #12]
 340:.\Generated_Source\PSoC4/UART_UART.c ****     matchReg |= ((uint32) (addressMask << UART_RX_MATCH_MASK_POS));
 205              		.loc 1 340 0
 206 0016 7B68     		ldr	r3, [r7, #4]
 207 0018 1B04     		lsl	r3, r3, #16
 208 001a FA68     		ldr	r2, [r7, #12]
 209 001c 1343     		orr	r3, r2
 210 001e FB60     		str	r3, [r7, #12]
 341:.\Generated_Source\PSoC4/UART_UART.c **** 
 342:.\Generated_Source\PSoC4/UART_UART.c ****     UART_RX_MATCH_REG = matchReg;
 211              		.loc 1 342 0
 212 0020 024B     		ldr	r3, .L8
 213 0022 FA68     		ldr	r2, [r7, #12]
 214 0024 1A60     		str	r2, [r3]
 343:.\Generated_Source\PSoC4/UART_UART.c **** }
 215              		.loc 1 343 0
 216 0026 BD46     		mov	sp, r7
 217 0028 04B0     		add	sp, sp, #16
 218              		@ sp needed
 219 002a 80BD     		pop	{r7, pc}
 220              	.L9:
 221              		.align	2
 222              	.L8:
 223 002c 10032540 		.word	1076167440
 224 0030 FFFF00FF 		.word	-16711681
 225              		.cfi_endproc
 226              	.LFE4:
 227              		.size	UART_UartSetRxAddressMask, .-UART_UartSetRxAddressMask
ARM GAS  C:\Users\GLENNL~1\AppData\Local\Temp\ccD4vWH1.s 			page 11


 228              		.section	.text.UART_UartGetChar,"ax",%progbits
 229              		.align	2
 230              		.global	UART_UartGetChar
 231              		.code	16
 232              		.thumb_func
 233              		.type	UART_UartGetChar, %function
 234              	UART_UartGetChar:
 235              	.LFB5:
 344:.\Generated_Source\PSoC4/UART_UART.c **** 
 345:.\Generated_Source\PSoC4/UART_UART.c **** 
 346:.\Generated_Source\PSoC4/UART_UART.c **** #if(UART_UART_RX_DIRECTION)
 347:.\Generated_Source\PSoC4/UART_UART.c ****     /*******************************************************************************
 348:.\Generated_Source\PSoC4/UART_UART.c ****     * Function Name: UART_UartGetChar
 349:.\Generated_Source\PSoC4/UART_UART.c ****     ********************************************************************************
 350:.\Generated_Source\PSoC4/UART_UART.c ****     *
 351:.\Generated_Source\PSoC4/UART_UART.c ****     * Summary:
 352:.\Generated_Source\PSoC4/UART_UART.c ****     *  Retrieves the next data element from the receive buffer.
 353:.\Generated_Source\PSoC4/UART_UART.c ****     *  This function is designed for ASCII characters and returns a char
 354:.\Generated_Source\PSoC4/UART_UART.c ****     *  where 1 to 255 are valid characters and 0 indicates an error occurred or
 355:.\Generated_Source\PSoC4/UART_UART.c ****     *  no data present.
 356:.\Generated_Source\PSoC4/UART_UART.c ****     *  - The RX software buffer is disabled: returns the data element
 357:.\Generated_Source\PSoC4/UART_UART.c ****     *    retrieved from the RX FIFO.
 358:.\Generated_Source\PSoC4/UART_UART.c ****     *    Undefined data will be returned if the RX FIFO is empty.
 359:.\Generated_Source\PSoC4/UART_UART.c ****     *  - The RX software buffer is enabled: returns the data element from
 360:.\Generated_Source\PSoC4/UART_UART.c ****     *    the software receive buffer.
 361:.\Generated_Source\PSoC4/UART_UART.c ****     *
 362:.\Generated_Source\PSoC4/UART_UART.c ****     * Parameters:
 363:.\Generated_Source\PSoC4/UART_UART.c ****     *  None
 364:.\Generated_Source\PSoC4/UART_UART.c ****     *
 365:.\Generated_Source\PSoC4/UART_UART.c ****     * Return:
 366:.\Generated_Source\PSoC4/UART_UART.c ****     *  The next data element from the receive buffer.
 367:.\Generated_Source\PSoC4/UART_UART.c ****     *  ASCII character values from 1 to 255 are valid.
 368:.\Generated_Source\PSoC4/UART_UART.c ****     *  A returned zero signifies an error condition or no data available.
 369:.\Generated_Source\PSoC4/UART_UART.c ****     *
 370:.\Generated_Source\PSoC4/UART_UART.c ****     * Side Effects:
 371:.\Generated_Source\PSoC4/UART_UART.c ****     *  The errors bits may not correspond with reading characters due to RX FIFO
 372:.\Generated_Source\PSoC4/UART_UART.c ****     *  and software buffer usage.
 373:.\Generated_Source\PSoC4/UART_UART.c ****     *  RX software buffer is enabled: The internal software buffer overflow
 374:.\Generated_Source\PSoC4/UART_UART.c ****     *  does not treat as an error condition.
 375:.\Generated_Source\PSoC4/UART_UART.c ****     *  Check SCB_rxBufferOverflow to capture that error condition.
 376:.\Generated_Source\PSoC4/UART_UART.c ****     *
 377:.\Generated_Source\PSoC4/UART_UART.c ****     *******************************************************************************/
 378:.\Generated_Source\PSoC4/UART_UART.c ****     uint32 UART_UartGetChar(void)
 379:.\Generated_Source\PSoC4/UART_UART.c ****     {
 236              		.loc 1 379 0
 237              		.cfi_startproc
 238 0000 80B5     		push	{r7, lr}
 239              		.cfi_def_cfa_offset 8
 240              		.cfi_offset 7, -8
 241              		.cfi_offset 14, -4
 242 0002 82B0     		sub	sp, sp, #8
 243              		.cfi_def_cfa_offset 16
 244 0004 00AF     		add	r7, sp, #0
 245              		.cfi_def_cfa_register 7
 380:.\Generated_Source\PSoC4/UART_UART.c ****         uint32 rxData = 0u;
 246              		.loc 1 380 0
 247 0006 0023     		mov	r3, #0
ARM GAS  C:\Users\GLENNL~1\AppData\Local\Temp\ccD4vWH1.s 			page 12


 248 0008 7B60     		str	r3, [r7, #4]
 381:.\Generated_Source\PSoC4/UART_UART.c **** 
 382:.\Generated_Source\PSoC4/UART_UART.c ****         /* Reads data only if there is data to read */
 383:.\Generated_Source\PSoC4/UART_UART.c ****         if(0u != UART_SpiUartGetRxBufferSize())
 249              		.loc 1 383 0
 250 000a FFF7FEFF 		bl	UART_SpiUartGetRxBufferSize
 251 000e 031C     		mov	r3, r0
 252 0010 002B     		cmp	r3, #0
 253 0012 03D0     		beq	.L11
 384:.\Generated_Source\PSoC4/UART_UART.c ****         {
 385:.\Generated_Source\PSoC4/UART_UART.c ****             rxData = UART_SpiUartReadRxData();
 254              		.loc 1 385 0
 255 0014 FFF7FEFF 		bl	UART_SpiUartReadRxData
 256 0018 031C     		mov	r3, r0
 257 001a 7B60     		str	r3, [r7, #4]
 258              	.L11:
 386:.\Generated_Source\PSoC4/UART_UART.c ****         }
 387:.\Generated_Source\PSoC4/UART_UART.c **** 
 388:.\Generated_Source\PSoC4/UART_UART.c ****         if(UART_CHECK_INTR_RX(UART_INTR_RX_ERR))
 259              		.loc 1 388 0
 260 001c 084B     		ldr	r3, .L14
 261 001e 1A68     		ldr	r2, [r3]
 262 0020 D823     		mov	r3, #216
 263 0022 9B00     		lsl	r3, r3, #2
 264 0024 1340     		and	r3, r2
 265 0026 05D0     		beq	.L12
 389:.\Generated_Source\PSoC4/UART_UART.c ****         {
 390:.\Generated_Source\PSoC4/UART_UART.c ****             rxData = 0u; /* Error occurred: returns zero */
 266              		.loc 1 390 0
 267 0028 0023     		mov	r3, #0
 268 002a 7B60     		str	r3, [r7, #4]
 391:.\Generated_Source\PSoC4/UART_UART.c ****             UART_ClearRxInterruptSource(UART_INTR_RX_ERR);
 269              		.loc 1 391 0
 270 002c 044B     		ldr	r3, .L14
 271 002e D822     		mov	r2, #216
 272 0030 9200     		lsl	r2, r2, #2
 273 0032 1A60     		str	r2, [r3]
 274              	.L12:
 392:.\Generated_Source\PSoC4/UART_UART.c ****         }
 393:.\Generated_Source\PSoC4/UART_UART.c **** 
 394:.\Generated_Source\PSoC4/UART_UART.c ****         return(rxData);
 275              		.loc 1 394 0
 276 0034 7B68     		ldr	r3, [r7, #4]
 395:.\Generated_Source\PSoC4/UART_UART.c ****     }
 277              		.loc 1 395 0
 278 0036 181C     		mov	r0, r3
 279 0038 BD46     		mov	sp, r7
 280 003a 02B0     		add	sp, sp, #8
 281              		@ sp needed
 282 003c 80BD     		pop	{r7, pc}
 283              	.L15:
 284 003e C046     		.align	2
 285              	.L14:
 286 0040 C00F2540 		.word	1076170688
 287              		.cfi_endproc
 288              	.LFE5:
 289              		.size	UART_UartGetChar, .-UART_UartGetChar
ARM GAS  C:\Users\GLENNL~1\AppData\Local\Temp\ccD4vWH1.s 			page 13


 290              		.section	.text.UART_UartGetByte,"ax",%progbits
 291              		.align	2
 292              		.global	UART_UartGetByte
 293              		.code	16
 294              		.thumb_func
 295              		.type	UART_UartGetByte, %function
 296              	UART_UartGetByte:
 297              	.LFB6:
 396:.\Generated_Source\PSoC4/UART_UART.c **** 
 397:.\Generated_Source\PSoC4/UART_UART.c **** 
 398:.\Generated_Source\PSoC4/UART_UART.c ****     /*******************************************************************************
 399:.\Generated_Source\PSoC4/UART_UART.c ****     * Function Name: UART_UartGetByte
 400:.\Generated_Source\PSoC4/UART_UART.c ****     ********************************************************************************
 401:.\Generated_Source\PSoC4/UART_UART.c ****     *
 402:.\Generated_Source\PSoC4/UART_UART.c ****     * Summary:
 403:.\Generated_Source\PSoC4/UART_UART.c ****     *  Retrieves the next data element from the receive buffer, returns the
 404:.\Generated_Source\PSoC4/UART_UART.c ****     *  received byte and error condition.
 405:.\Generated_Source\PSoC4/UART_UART.c ****     *   - The RX software buffer is disabled: returns the data element retrieved
 406:.\Generated_Source\PSoC4/UART_UART.c ****     *     from the RX FIFO. Undefined data will be returned if the RX FIFO is
 407:.\Generated_Source\PSoC4/UART_UART.c ****     *     empty.
 408:.\Generated_Source\PSoC4/UART_UART.c ****     *   - The RX software buffer is enabled: returns data element from the
 409:.\Generated_Source\PSoC4/UART_UART.c ****     *     software receive buffer.
 410:.\Generated_Source\PSoC4/UART_UART.c ****     *
 411:.\Generated_Source\PSoC4/UART_UART.c ****     * Parameters:
 412:.\Generated_Source\PSoC4/UART_UART.c ****     *  None
 413:.\Generated_Source\PSoC4/UART_UART.c ****     *
 414:.\Generated_Source\PSoC4/UART_UART.c ****     * Return:
 415:.\Generated_Source\PSoC4/UART_UART.c ****     *  Bits 7-0 contain the next data element from the receive buffer and
 416:.\Generated_Source\PSoC4/UART_UART.c ****     *  other bits contain the error condition.
 417:.\Generated_Source\PSoC4/UART_UART.c ****     *
 418:.\Generated_Source\PSoC4/UART_UART.c ****     * Side Effects:
 419:.\Generated_Source\PSoC4/UART_UART.c ****     *  The errors bits may not correspond with reading characters due to RX FIFO
 420:.\Generated_Source\PSoC4/UART_UART.c ****     *  and software buffer usage.
 421:.\Generated_Source\PSoC4/UART_UART.c ****     *  RX software buffer is disabled: The internal software buffer overflow
 422:.\Generated_Source\PSoC4/UART_UART.c ****     *  is not returned as status by this function.
 423:.\Generated_Source\PSoC4/UART_UART.c ****     *  Check SCB_rxBufferOverflow to capture that error condition.
 424:.\Generated_Source\PSoC4/UART_UART.c ****     *
 425:.\Generated_Source\PSoC4/UART_UART.c ****     *******************************************************************************/
 426:.\Generated_Source\PSoC4/UART_UART.c ****     uint32 UART_UartGetByte(void)
 427:.\Generated_Source\PSoC4/UART_UART.c ****     {
 298              		.loc 1 427 0
 299              		.cfi_startproc
 300 0000 80B5     		push	{r7, lr}
 301              		.cfi_def_cfa_offset 8
 302              		.cfi_offset 7, -8
 303              		.cfi_offset 14, -4
 304 0002 84B0     		sub	sp, sp, #16
 305              		.cfi_def_cfa_offset 24
 306 0004 00AF     		add	r7, sp, #0
 307              		.cfi_def_cfa_register 7
 428:.\Generated_Source\PSoC4/UART_UART.c ****         uint32 rxData;
 429:.\Generated_Source\PSoC4/UART_UART.c ****         uint32 tmpStatus;
 430:.\Generated_Source\PSoC4/UART_UART.c ****         uint32 intSourceMask;
 431:.\Generated_Source\PSoC4/UART_UART.c **** 
 432:.\Generated_Source\PSoC4/UART_UART.c ****         intSourceMask = UART_SpiUartDisableIntRx();
 308              		.loc 1 432 0
 309 0006 FFF7FEFF 		bl	UART_SpiUartDisableIntRx
ARM GAS  C:\Users\GLENNL~1\AppData\Local\Temp\ccD4vWH1.s 			page 14


 310 000a 031C     		mov	r3, r0
 311 000c BB60     		str	r3, [r7, #8]
 433:.\Generated_Source\PSoC4/UART_UART.c **** 
 434:.\Generated_Source\PSoC4/UART_UART.c ****         if(0u != UART_SpiUartGetRxBufferSize())
 312              		.loc 1 434 0
 313 000e FFF7FEFF 		bl	UART_SpiUartGetRxBufferSize
 314 0012 031C     		mov	r3, r0
 315 0014 002B     		cmp	r3, #0
 316 0016 07D0     		beq	.L17
 435:.\Generated_Source\PSoC4/UART_UART.c ****         {
 436:.\Generated_Source\PSoC4/UART_UART.c ****             /* Enables interrupt to receive more bytes: at least one byte is in
 437:.\Generated_Source\PSoC4/UART_UART.c ****             * buffer.
 438:.\Generated_Source\PSoC4/UART_UART.c ****             */
 439:.\Generated_Source\PSoC4/UART_UART.c ****             UART_SpiUartEnableIntRx(intSourceMask);
 317              		.loc 1 439 0
 318 0018 104B     		ldr	r3, .L20
 319 001a BA68     		ldr	r2, [r7, #8]
 320 001c 1A60     		str	r2, [r3]
 440:.\Generated_Source\PSoC4/UART_UART.c **** 
 441:.\Generated_Source\PSoC4/UART_UART.c ****             /* Get received byte */
 442:.\Generated_Source\PSoC4/UART_UART.c ****             rxData = UART_SpiUartReadRxData();
 321              		.loc 1 442 0
 322 001e FFF7FEFF 		bl	UART_SpiUartReadRxData
 323 0022 031C     		mov	r3, r0
 324 0024 FB60     		str	r3, [r7, #12]
 325 0026 05E0     		b	.L18
 326              	.L17:
 443:.\Generated_Source\PSoC4/UART_UART.c ****         }
 444:.\Generated_Source\PSoC4/UART_UART.c ****         else
 445:.\Generated_Source\PSoC4/UART_UART.c ****         {
 446:.\Generated_Source\PSoC4/UART_UART.c ****             /* Reads a byte directly from RX FIFO: underflow is raised in the case
 447:.\Generated_Source\PSoC4/UART_UART.c ****             * of empty. Otherwise the first received byte will be read.
 448:.\Generated_Source\PSoC4/UART_UART.c ****             */
 449:.\Generated_Source\PSoC4/UART_UART.c ****             rxData = UART_RX_FIFO_RD_REG;
 327              		.loc 1 449 0
 328 0028 0D4B     		ldr	r3, .L20+4
 329 002a 1B68     		ldr	r3, [r3]
 330 002c FB60     		str	r3, [r7, #12]
 450:.\Generated_Source\PSoC4/UART_UART.c **** 
 451:.\Generated_Source\PSoC4/UART_UART.c ****             /* Enables interrupt to receive more bytes.
 452:.\Generated_Source\PSoC4/UART_UART.c ****             * The RX_NOT_EMPTY interrupt is cleared by the interrupt routine
 453:.\Generated_Source\PSoC4/UART_UART.c ****             * in case the byte was received and read by code above.
 454:.\Generated_Source\PSoC4/UART_UART.c ****             */
 455:.\Generated_Source\PSoC4/UART_UART.c ****             UART_SpiUartEnableIntRx(intSourceMask);
 331              		.loc 1 455 0
 332 002e 0B4B     		ldr	r3, .L20
 333 0030 BA68     		ldr	r2, [r7, #8]
 334 0032 1A60     		str	r2, [r3]
 335              	.L18:
 456:.\Generated_Source\PSoC4/UART_UART.c ****         }
 457:.\Generated_Source\PSoC4/UART_UART.c **** 
 458:.\Generated_Source\PSoC4/UART_UART.c ****         /* Get and clear RX error mask */
 459:.\Generated_Source\PSoC4/UART_UART.c ****         tmpStatus = (UART_GetRxInterruptSource() & UART_INTR_RX_ERR);
 336              		.loc 1 459 0
 337 0034 0B4B     		ldr	r3, .L20+8
 338 0036 1A68     		ldr	r2, [r3]
 339 0038 D823     		mov	r3, #216
ARM GAS  C:\Users\GLENNL~1\AppData\Local\Temp\ccD4vWH1.s 			page 15


 340 003a 9B00     		lsl	r3, r3, #2
 341 003c 1340     		and	r3, r2
 342 003e 7B60     		str	r3, [r7, #4]
 460:.\Generated_Source\PSoC4/UART_UART.c ****         UART_ClearRxInterruptSource(UART_INTR_RX_ERR);
 343              		.loc 1 460 0
 344 0040 084B     		ldr	r3, .L20+8
 345 0042 D822     		mov	r2, #216
 346 0044 9200     		lsl	r2, r2, #2
 347 0046 1A60     		str	r2, [r3]
 461:.\Generated_Source\PSoC4/UART_UART.c **** 
 462:.\Generated_Source\PSoC4/UART_UART.c ****         /* Puts together data and error status:
 463:.\Generated_Source\PSoC4/UART_UART.c ****         * MP mode and accept address: 9th bit is set to notify mark.
 464:.\Generated_Source\PSoC4/UART_UART.c ****         */
 465:.\Generated_Source\PSoC4/UART_UART.c ****         rxData |= ((uint32) (tmpStatus << 8u));
 348              		.loc 1 465 0
 349 0048 7B68     		ldr	r3, [r7, #4]
 350 004a 1B02     		lsl	r3, r3, #8
 351 004c FA68     		ldr	r2, [r7, #12]
 352 004e 1343     		orr	r3, r2
 353 0050 FB60     		str	r3, [r7, #12]
 466:.\Generated_Source\PSoC4/UART_UART.c **** 
 467:.\Generated_Source\PSoC4/UART_UART.c ****         return(rxData);
 354              		.loc 1 467 0
 355 0052 FB68     		ldr	r3, [r7, #12]
 468:.\Generated_Source\PSoC4/UART_UART.c ****     }
 356              		.loc 1 468 0
 357 0054 181C     		mov	r0, r3
 358 0056 BD46     		mov	sp, r7
 359 0058 04B0     		add	sp, sp, #16
 360              		@ sp needed
 361 005a 80BD     		pop	{r7, pc}
 362              	.L21:
 363              		.align	2
 364              	.L20:
 365 005c C80F2540 		.word	1076170696
 366 0060 40032540 		.word	1076167488
 367 0064 C00F2540 		.word	1076170688
 368              		.cfi_endproc
 369              	.LFE6:
 370              		.size	UART_UartGetByte, .-UART_UartGetByte
 371              		.section	.text.UART_UartSetRtsPolarity,"ax",%progbits
 372              		.align	2
 373              		.global	UART_UartSetRtsPolarity
 374              		.code	16
 375              		.thumb_func
 376              		.type	UART_UartSetRtsPolarity, %function
 377              	UART_UartSetRtsPolarity:
 378              	.LFB7:
 469:.\Generated_Source\PSoC4/UART_UART.c **** 
 470:.\Generated_Source\PSoC4/UART_UART.c **** 
 471:.\Generated_Source\PSoC4/UART_UART.c ****     #if !(UART_CY_SCBIP_V0 || UART_CY_SCBIP_V1)
 472:.\Generated_Source\PSoC4/UART_UART.c ****         /*******************************************************************************
 473:.\Generated_Source\PSoC4/UART_UART.c ****         * Function Name: UART_UartSetRtsPolarity
 474:.\Generated_Source\PSoC4/UART_UART.c ****         ********************************************************************************
 475:.\Generated_Source\PSoC4/UART_UART.c ****         *
 476:.\Generated_Source\PSoC4/UART_UART.c ****         * Summary:
 477:.\Generated_Source\PSoC4/UART_UART.c ****         *  Sets active polarity of RTS output signal.
ARM GAS  C:\Users\GLENNL~1\AppData\Local\Temp\ccD4vWH1.s 			page 16


 478:.\Generated_Source\PSoC4/UART_UART.c ****         *
 479:.\Generated_Source\PSoC4/UART_UART.c ****         * Parameters:
 480:.\Generated_Source\PSoC4/UART_UART.c ****         *  polarity: Active polarity of RTS output signal.
 481:.\Generated_Source\PSoC4/UART_UART.c ****         *   UART_UART_RTS_ACTIVE_LOW  - RTS signal is active low.
 482:.\Generated_Source\PSoC4/UART_UART.c ****         *   UART_UART_RTS_ACTIVE_HIGH - RTS signal is active high.
 483:.\Generated_Source\PSoC4/UART_UART.c ****         *
 484:.\Generated_Source\PSoC4/UART_UART.c ****         * Return:
 485:.\Generated_Source\PSoC4/UART_UART.c ****         *  None
 486:.\Generated_Source\PSoC4/UART_UART.c ****         *
 487:.\Generated_Source\PSoC4/UART_UART.c ****         *******************************************************************************/
 488:.\Generated_Source\PSoC4/UART_UART.c ****         void UART_UartSetRtsPolarity(uint32 polarity)
 489:.\Generated_Source\PSoC4/UART_UART.c ****         {
 379              		.loc 1 489 0
 380              		.cfi_startproc
 381 0000 80B5     		push	{r7, lr}
 382              		.cfi_def_cfa_offset 8
 383              		.cfi_offset 7, -8
 384              		.cfi_offset 14, -4
 385 0002 82B0     		sub	sp, sp, #8
 386              		.cfi_def_cfa_offset 16
 387 0004 00AF     		add	r7, sp, #0
 388              		.cfi_def_cfa_register 7
 389 0006 7860     		str	r0, [r7, #4]
 490:.\Generated_Source\PSoC4/UART_UART.c ****             if(0u != polarity)
 390              		.loc 1 490 0
 391 0008 7B68     		ldr	r3, [r7, #4]
 392 000a 002B     		cmp	r3, #0
 393 000c 07D0     		beq	.L23
 491:.\Generated_Source\PSoC4/UART_UART.c ****             {
 492:.\Generated_Source\PSoC4/UART_UART.c ****                 UART_UART_FLOW_CTRL_REG |= (uint32)  UART_UART_FLOW_CTRL_RTS_POLARITY;
 394              		.loc 1 492 0
 395 000e 084B     		ldr	r3, .L25
 396 0010 074A     		ldr	r2, .L25
 397 0012 1268     		ldr	r2, [r2]
 398 0014 8021     		mov	r1, #128
 399 0016 4902     		lsl	r1, r1, #9
 400 0018 0A43     		orr	r2, r1
 401 001a 1A60     		str	r2, [r3]
 402 001c 05E0     		b	.L22
 403              	.L23:
 493:.\Generated_Source\PSoC4/UART_UART.c ****             }
 494:.\Generated_Source\PSoC4/UART_UART.c ****             else
 495:.\Generated_Source\PSoC4/UART_UART.c ****             {
 496:.\Generated_Source\PSoC4/UART_UART.c ****                 UART_UART_FLOW_CTRL_REG &= (uint32) ~UART_UART_FLOW_CTRL_RTS_POLARITY;
 404              		.loc 1 496 0
 405 001e 044B     		ldr	r3, .L25
 406 0020 034A     		ldr	r2, .L25
 407 0022 1168     		ldr	r1, [r2]
 408 0024 034A     		ldr	r2, .L25+4
 409 0026 0A40     		and	r2, r1
 410 0028 1A60     		str	r2, [r3]
 411              	.L22:
 497:.\Generated_Source\PSoC4/UART_UART.c ****             }
 498:.\Generated_Source\PSoC4/UART_UART.c ****         }
 412              		.loc 1 498 0
 413 002a BD46     		mov	sp, r7
 414 002c 02B0     		add	sp, sp, #8
ARM GAS  C:\Users\GLENNL~1\AppData\Local\Temp\ccD4vWH1.s 			page 17


 415              		@ sp needed
 416 002e 80BD     		pop	{r7, pc}
 417              	.L26:
 418              		.align	2
 419              	.L25:
 420 0030 50002540 		.word	1076166736
 421 0034 FFFFFEFF 		.word	-65537
 422              		.cfi_endproc
 423              	.LFE7:
 424              		.size	UART_UartSetRtsPolarity, .-UART_UartSetRtsPolarity
 425              		.section	.text.UART_UartSetRtsFifoLevel,"ax",%progbits
 426              		.align	2
 427              		.global	UART_UartSetRtsFifoLevel
 428              		.code	16
 429              		.thumb_func
 430              		.type	UART_UartSetRtsFifoLevel, %function
 431              	UART_UartSetRtsFifoLevel:
 432              	.LFB8:
 499:.\Generated_Source\PSoC4/UART_UART.c **** 
 500:.\Generated_Source\PSoC4/UART_UART.c **** 
 501:.\Generated_Source\PSoC4/UART_UART.c ****         /*******************************************************************************
 502:.\Generated_Source\PSoC4/UART_UART.c ****         * Function Name: UART_UartSetRtsFifoLevel
 503:.\Generated_Source\PSoC4/UART_UART.c ****         ********************************************************************************
 504:.\Generated_Source\PSoC4/UART_UART.c ****         *
 505:.\Generated_Source\PSoC4/UART_UART.c ****         * Summary:
 506:.\Generated_Source\PSoC4/UART_UART.c ****         *  Sets level in the RX FIFO for RTS signal activation.
 507:.\Generated_Source\PSoC4/UART_UART.c ****         *  While the RX FIFO has fewer entries than the RX FIFO level the RTS signal
 508:.\Generated_Source\PSoC4/UART_UART.c ****         *  remains active, otherwise the RTS signal becomes inactive.
 509:.\Generated_Source\PSoC4/UART_UART.c ****         *
 510:.\Generated_Source\PSoC4/UART_UART.c ****         * Parameters:
 511:.\Generated_Source\PSoC4/UART_UART.c ****         *  level: Level in the RX FIFO for RTS signal activation.
 512:.\Generated_Source\PSoC4/UART_UART.c ****         *         The range of valid level values is between 0 and RX FIFO depth - 1.
 513:.\Generated_Source\PSoC4/UART_UART.c ****         *         Setting level value to 0 disables RTS signal activation.
 514:.\Generated_Source\PSoC4/UART_UART.c ****         *
 515:.\Generated_Source\PSoC4/UART_UART.c ****         * Return:
 516:.\Generated_Source\PSoC4/UART_UART.c ****         *  None
 517:.\Generated_Source\PSoC4/UART_UART.c ****         *
 518:.\Generated_Source\PSoC4/UART_UART.c ****         *******************************************************************************/
 519:.\Generated_Source\PSoC4/UART_UART.c ****         void UART_UartSetRtsFifoLevel(uint32 level)
 520:.\Generated_Source\PSoC4/UART_UART.c ****         {
 433              		.loc 1 520 0
 434              		.cfi_startproc
 435 0000 80B5     		push	{r7, lr}
 436              		.cfi_def_cfa_offset 8
 437              		.cfi_offset 7, -8
 438              		.cfi_offset 14, -4
 439 0002 84B0     		sub	sp, sp, #16
 440              		.cfi_def_cfa_offset 24
 441 0004 00AF     		add	r7, sp, #0
 442              		.cfi_def_cfa_register 7
 443 0006 7860     		str	r0, [r7, #4]
 521:.\Generated_Source\PSoC4/UART_UART.c ****             uint32 uartFlowCtrl;
 522:.\Generated_Source\PSoC4/UART_UART.c **** 
 523:.\Generated_Source\PSoC4/UART_UART.c ****             uartFlowCtrl = UART_UART_FLOW_CTRL_REG;
 444              		.loc 1 523 0
 445 0008 094B     		ldr	r3, .L28
 446 000a 1B68     		ldr	r3, [r3]
ARM GAS  C:\Users\GLENNL~1\AppData\Local\Temp\ccD4vWH1.s 			page 18


 447 000c FB60     		str	r3, [r7, #12]
 524:.\Generated_Source\PSoC4/UART_UART.c **** 
 525:.\Generated_Source\PSoC4/UART_UART.c ****             uartFlowCtrl &= ((uint32) ~UART_UART_FLOW_CTRL_TRIGGER_LEVEL_MASK); /* Clear level mask
 448              		.loc 1 525 0
 449 000e FB68     		ldr	r3, [r7, #12]
 450 0010 0F22     		mov	r2, #15
 451 0012 9343     		bic	r3, r2
 452 0014 FB60     		str	r3, [r7, #12]
 526:.\Generated_Source\PSoC4/UART_UART.c ****             uartFlowCtrl |= ((uint32) (UART_UART_FLOW_CTRL_TRIGGER_LEVEL_MASK & level));
 453              		.loc 1 526 0
 454 0016 7A68     		ldr	r2, [r7, #4]
 455 0018 0F23     		mov	r3, #15
 456 001a 1340     		and	r3, r2
 457 001c FA68     		ldr	r2, [r7, #12]
 458 001e 1343     		orr	r3, r2
 459 0020 FB60     		str	r3, [r7, #12]
 527:.\Generated_Source\PSoC4/UART_UART.c **** 
 528:.\Generated_Source\PSoC4/UART_UART.c ****             UART_UART_FLOW_CTRL_REG = uartFlowCtrl;
 460              		.loc 1 528 0
 461 0022 034B     		ldr	r3, .L28
 462 0024 FA68     		ldr	r2, [r7, #12]
 463 0026 1A60     		str	r2, [r3]
 529:.\Generated_Source\PSoC4/UART_UART.c ****         }
 464              		.loc 1 529 0
 465 0028 BD46     		mov	sp, r7
 466 002a 04B0     		add	sp, sp, #16
 467              		@ sp needed
 468 002c 80BD     		pop	{r7, pc}
 469              	.L29:
 470 002e C046     		.align	2
 471              	.L28:
 472 0030 50002540 		.word	1076166736
 473              		.cfi_endproc
 474              	.LFE8:
 475              		.size	UART_UartSetRtsFifoLevel, .-UART_UartSetRtsFifoLevel
 476              		.section	.text.UART_UartPutString,"ax",%progbits
 477              		.align	2
 478              		.global	UART_UartPutString
 479              		.code	16
 480              		.thumb_func
 481              		.type	UART_UartPutString, %function
 482              	UART_UartPutString:
 483              	.LFB9:
 530:.\Generated_Source\PSoC4/UART_UART.c ****     #endif /* !(UART_CY_SCBIP_V0 || UART_CY_SCBIP_V1) */
 531:.\Generated_Source\PSoC4/UART_UART.c **** 
 532:.\Generated_Source\PSoC4/UART_UART.c **** #endif /* (UART_UART_RX_DIRECTION) */
 533:.\Generated_Source\PSoC4/UART_UART.c **** 
 534:.\Generated_Source\PSoC4/UART_UART.c **** 
 535:.\Generated_Source\PSoC4/UART_UART.c **** #if(UART_UART_TX_DIRECTION)
 536:.\Generated_Source\PSoC4/UART_UART.c ****     /*******************************************************************************
 537:.\Generated_Source\PSoC4/UART_UART.c ****     * Function Name: UART_UartPutString
 538:.\Generated_Source\PSoC4/UART_UART.c ****     ********************************************************************************
 539:.\Generated_Source\PSoC4/UART_UART.c ****     *
 540:.\Generated_Source\PSoC4/UART_UART.c ****     * Summary:
 541:.\Generated_Source\PSoC4/UART_UART.c ****     *  Places a NULL terminated string in the transmit buffer to be sent at the
 542:.\Generated_Source\PSoC4/UART_UART.c ****     *  next available bus time.
 543:.\Generated_Source\PSoC4/UART_UART.c ****     *  This function is blocking and waits until there is space available to put
ARM GAS  C:\Users\GLENNL~1\AppData\Local\Temp\ccD4vWH1.s 			page 19


 544:.\Generated_Source\PSoC4/UART_UART.c ****     *  all the requested data into the  transmit buffer.
 545:.\Generated_Source\PSoC4/UART_UART.c ****     *
 546:.\Generated_Source\PSoC4/UART_UART.c ****     * Parameters:
 547:.\Generated_Source\PSoC4/UART_UART.c ****     *  string: pointer to the null terminated string array to be placed in the
 548:.\Generated_Source\PSoC4/UART_UART.c ****     *          transmit buffer.
 549:.\Generated_Source\PSoC4/UART_UART.c ****     *
 550:.\Generated_Source\PSoC4/UART_UART.c ****     * Return:
 551:.\Generated_Source\PSoC4/UART_UART.c ****     *  None
 552:.\Generated_Source\PSoC4/UART_UART.c ****     *
 553:.\Generated_Source\PSoC4/UART_UART.c ****     *******************************************************************************/
 554:.\Generated_Source\PSoC4/UART_UART.c ****     void UART_UartPutString(const char8 string[])
 555:.\Generated_Source\PSoC4/UART_UART.c ****     {
 484              		.loc 1 555 0
 485              		.cfi_startproc
 486 0000 80B5     		push	{r7, lr}
 487              		.cfi_def_cfa_offset 8
 488              		.cfi_offset 7, -8
 489              		.cfi_offset 14, -4
 490 0002 84B0     		sub	sp, sp, #16
 491              		.cfi_def_cfa_offset 24
 492 0004 00AF     		add	r7, sp, #0
 493              		.cfi_def_cfa_register 7
 494 0006 7860     		str	r0, [r7, #4]
 556:.\Generated_Source\PSoC4/UART_UART.c ****         uint32 bufIndex;
 557:.\Generated_Source\PSoC4/UART_UART.c **** 
 558:.\Generated_Source\PSoC4/UART_UART.c ****         bufIndex = 0u;
 495              		.loc 1 558 0
 496 0008 0023     		mov	r3, #0
 497 000a FB60     		str	r3, [r7, #12]
 559:.\Generated_Source\PSoC4/UART_UART.c **** 
 560:.\Generated_Source\PSoC4/UART_UART.c ****         /* Blocks the control flow until all data has been sent */
 561:.\Generated_Source\PSoC4/UART_UART.c ****         while(string[bufIndex] != ((char8) 0))
 498              		.loc 1 561 0
 499 000c 09E0     		b	.L31
 500              	.L32:
 562:.\Generated_Source\PSoC4/UART_UART.c ****         {
 563:.\Generated_Source\PSoC4/UART_UART.c ****             UART_UartPutChar((uint32) string[bufIndex]);
 501              		.loc 1 563 0
 502 000e 7A68     		ldr	r2, [r7, #4]
 503 0010 FB68     		ldr	r3, [r7, #12]
 504 0012 D318     		add	r3, r2, r3
 505 0014 1B78     		ldrb	r3, [r3]
 506 0016 181C     		mov	r0, r3
 507 0018 FFF7FEFF 		bl	UART_SpiUartWriteTxData
 564:.\Generated_Source\PSoC4/UART_UART.c ****             bufIndex++;
 508              		.loc 1 564 0
 509 001c FB68     		ldr	r3, [r7, #12]
 510 001e 0133     		add	r3, r3, #1
 511 0020 FB60     		str	r3, [r7, #12]
 512              	.L31:
 561:.\Generated_Source\PSoC4/UART_UART.c ****         while(string[bufIndex] != ((char8) 0))
 513              		.loc 1 561 0 discriminator 1
 514 0022 7A68     		ldr	r2, [r7, #4]
 515 0024 FB68     		ldr	r3, [r7, #12]
 516 0026 D318     		add	r3, r2, r3
 517 0028 1B78     		ldrb	r3, [r3]
 518 002a 002B     		cmp	r3, #0
ARM GAS  C:\Users\GLENNL~1\AppData\Local\Temp\ccD4vWH1.s 			page 20


 519 002c EFD1     		bne	.L32
 565:.\Generated_Source\PSoC4/UART_UART.c ****         }
 566:.\Generated_Source\PSoC4/UART_UART.c ****     }
 520              		.loc 1 566 0
 521 002e BD46     		mov	sp, r7
 522 0030 04B0     		add	sp, sp, #16
 523              		@ sp needed
 524 0032 80BD     		pop	{r7, pc}
 525              		.cfi_endproc
 526              	.LFE9:
 527              		.size	UART_UartPutString, .-UART_UartPutString
 528              		.section	.text.UART_UartPutCRLF,"ax",%progbits
 529              		.align	2
 530              		.global	UART_UartPutCRLF
 531              		.code	16
 532              		.thumb_func
 533              		.type	UART_UartPutCRLF, %function
 534              	UART_UartPutCRLF:
 535              	.LFB10:
 567:.\Generated_Source\PSoC4/UART_UART.c **** 
 568:.\Generated_Source\PSoC4/UART_UART.c **** 
 569:.\Generated_Source\PSoC4/UART_UART.c ****     /*******************************************************************************
 570:.\Generated_Source\PSoC4/UART_UART.c ****     * Function Name: UART_UartPutCRLF
 571:.\Generated_Source\PSoC4/UART_UART.c ****     ********************************************************************************
 572:.\Generated_Source\PSoC4/UART_UART.c ****     *
 573:.\Generated_Source\PSoC4/UART_UART.c ****     * Summary:
 574:.\Generated_Source\PSoC4/UART_UART.c ****     *  Places a byte of data followed by a carriage return (0x0D) and
 575:.\Generated_Source\PSoC4/UART_UART.c ****     *  line feed (0x0A) into the transmit buffer.
 576:.\Generated_Source\PSoC4/UART_UART.c ****     *  This function is blocking and waits until there is space available to put
 577:.\Generated_Source\PSoC4/UART_UART.c ****     *  all the requested data into the  transmit buffer.
 578:.\Generated_Source\PSoC4/UART_UART.c ****     *
 579:.\Generated_Source\PSoC4/UART_UART.c ****     * Parameters:
 580:.\Generated_Source\PSoC4/UART_UART.c ****     *  txDataByte : the data to be transmitted.
 581:.\Generated_Source\PSoC4/UART_UART.c ****     *
 582:.\Generated_Source\PSoC4/UART_UART.c ****     * Return:
 583:.\Generated_Source\PSoC4/UART_UART.c ****     *  None
 584:.\Generated_Source\PSoC4/UART_UART.c ****     *
 585:.\Generated_Source\PSoC4/UART_UART.c ****     *******************************************************************************/
 586:.\Generated_Source\PSoC4/UART_UART.c ****     void UART_UartPutCRLF(uint32 txDataByte)
 587:.\Generated_Source\PSoC4/UART_UART.c ****     {
 536              		.loc 1 587 0
 537              		.cfi_startproc
 538 0000 80B5     		push	{r7, lr}
 539              		.cfi_def_cfa_offset 8
 540              		.cfi_offset 7, -8
 541              		.cfi_offset 14, -4
 542 0002 82B0     		sub	sp, sp, #8
 543              		.cfi_def_cfa_offset 16
 544 0004 00AF     		add	r7, sp, #0
 545              		.cfi_def_cfa_register 7
 546 0006 7860     		str	r0, [r7, #4]
 588:.\Generated_Source\PSoC4/UART_UART.c ****         UART_UartPutChar(txDataByte);  /* Blocks control flow until all data has been sent */
 547              		.loc 1 588 0
 548 0008 7B68     		ldr	r3, [r7, #4]
 549 000a 181C     		mov	r0, r3
 550 000c FFF7FEFF 		bl	UART_SpiUartWriteTxData
 589:.\Generated_Source\PSoC4/UART_UART.c ****         UART_UartPutChar(0x0Du);       /* Blocks control flow until all data has been sent */
ARM GAS  C:\Users\GLENNL~1\AppData\Local\Temp\ccD4vWH1.s 			page 21


 551              		.loc 1 589 0
 552 0010 0D20     		mov	r0, #13
 553 0012 FFF7FEFF 		bl	UART_SpiUartWriteTxData
 590:.\Generated_Source\PSoC4/UART_UART.c ****         UART_UartPutChar(0x0Au);       /* Blocks control flow until all data has been sent */
 554              		.loc 1 590 0
 555 0016 0A20     		mov	r0, #10
 556 0018 FFF7FEFF 		bl	UART_SpiUartWriteTxData
 591:.\Generated_Source\PSoC4/UART_UART.c ****     }
 557              		.loc 1 591 0
 558 001c BD46     		mov	sp, r7
 559 001e 02B0     		add	sp, sp, #8
 560              		@ sp needed
 561 0020 80BD     		pop	{r7, pc}
 562              		.cfi_endproc
 563              	.LFE10:
 564              		.size	UART_UartPutCRLF, .-UART_UartPutCRLF
 565 0022 C046     		.section	.text.UART_UartEnableCts,"ax",%progbits
 566              		.align	2
 567              		.global	UART_UartEnableCts
 568              		.code	16
 569              		.thumb_func
 570              		.type	UART_UartEnableCts, %function
 571              	UART_UartEnableCts:
 572              	.LFB11:
 592:.\Generated_Source\PSoC4/UART_UART.c **** 
 593:.\Generated_Source\PSoC4/UART_UART.c **** 
 594:.\Generated_Source\PSoC4/UART_UART.c ****     #if !(UART_CY_SCBIP_V0 || UART_CY_SCBIP_V1)
 595:.\Generated_Source\PSoC4/UART_UART.c ****         /*******************************************************************************
 596:.\Generated_Source\PSoC4/UART_UART.c ****         * Function Name: UARTSCB_UartEnableCts
 597:.\Generated_Source\PSoC4/UART_UART.c ****         ********************************************************************************
 598:.\Generated_Source\PSoC4/UART_UART.c ****         *
 599:.\Generated_Source\PSoC4/UART_UART.c ****         * Summary:
 600:.\Generated_Source\PSoC4/UART_UART.c ****         *  Enables usage of CTS input signal by the UART transmitter.
 601:.\Generated_Source\PSoC4/UART_UART.c ****         *
 602:.\Generated_Source\PSoC4/UART_UART.c ****         * Parameters:
 603:.\Generated_Source\PSoC4/UART_UART.c ****         *  None
 604:.\Generated_Source\PSoC4/UART_UART.c ****         *
 605:.\Generated_Source\PSoC4/UART_UART.c ****         * Return:
 606:.\Generated_Source\PSoC4/UART_UART.c ****         *  None
 607:.\Generated_Source\PSoC4/UART_UART.c ****         *
 608:.\Generated_Source\PSoC4/UART_UART.c ****         *******************************************************************************/
 609:.\Generated_Source\PSoC4/UART_UART.c ****         void UART_UartEnableCts(void)
 610:.\Generated_Source\PSoC4/UART_UART.c ****         {
 573              		.loc 1 610 0
 574              		.cfi_startproc
 575 0000 80B5     		push	{r7, lr}
 576              		.cfi_def_cfa_offset 8
 577              		.cfi_offset 7, -8
 578              		.cfi_offset 14, -4
 579 0002 00AF     		add	r7, sp, #0
 580              		.cfi_def_cfa_register 7
 611:.\Generated_Source\PSoC4/UART_UART.c ****             UART_UART_FLOW_CTRL_REG |= (uint32)  UART_UART_FLOW_CTRL_CTS_ENABLE;
 581              		.loc 1 611 0
 582 0004 044B     		ldr	r3, .L35
 583 0006 044A     		ldr	r2, .L35
 584 0008 1268     		ldr	r2, [r2]
 585 000a 8021     		mov	r1, #128
ARM GAS  C:\Users\GLENNL~1\AppData\Local\Temp\ccD4vWH1.s 			page 22


 586 000c 8904     		lsl	r1, r1, #18
 587 000e 0A43     		orr	r2, r1
 588 0010 1A60     		str	r2, [r3]
 612:.\Generated_Source\PSoC4/UART_UART.c ****         }
 589              		.loc 1 612 0
 590 0012 BD46     		mov	sp, r7
 591              		@ sp needed
 592 0014 80BD     		pop	{r7, pc}
 593              	.L36:
 594 0016 C046     		.align	2
 595              	.L35:
 596 0018 50002540 		.word	1076166736
 597              		.cfi_endproc
 598              	.LFE11:
 599              		.size	UART_UartEnableCts, .-UART_UartEnableCts
 600              		.section	.text.UART_UartDisableCts,"ax",%progbits
 601              		.align	2
 602              		.global	UART_UartDisableCts
 603              		.code	16
 604              		.thumb_func
 605              		.type	UART_UartDisableCts, %function
 606              	UART_UartDisableCts:
 607              	.LFB12:
 613:.\Generated_Source\PSoC4/UART_UART.c **** 
 614:.\Generated_Source\PSoC4/UART_UART.c **** 
 615:.\Generated_Source\PSoC4/UART_UART.c ****         /*******************************************************************************
 616:.\Generated_Source\PSoC4/UART_UART.c ****         * Function Name: UART_UartDisableCts
 617:.\Generated_Source\PSoC4/UART_UART.c ****         ********************************************************************************
 618:.\Generated_Source\PSoC4/UART_UART.c ****         *
 619:.\Generated_Source\PSoC4/UART_UART.c ****         * Summary:
 620:.\Generated_Source\PSoC4/UART_UART.c ****         *  Disables usage of CTS input signal by the UART transmitter.
 621:.\Generated_Source\PSoC4/UART_UART.c ****         *
 622:.\Generated_Source\PSoC4/UART_UART.c ****         * Parameters:
 623:.\Generated_Source\PSoC4/UART_UART.c ****         *  None
 624:.\Generated_Source\PSoC4/UART_UART.c ****         *
 625:.\Generated_Source\PSoC4/UART_UART.c ****         * Return:
 626:.\Generated_Source\PSoC4/UART_UART.c ****         *  None
 627:.\Generated_Source\PSoC4/UART_UART.c ****         *
 628:.\Generated_Source\PSoC4/UART_UART.c ****         *******************************************************************************/
 629:.\Generated_Source\PSoC4/UART_UART.c ****         void UART_UartDisableCts(void)
 630:.\Generated_Source\PSoC4/UART_UART.c ****         {
 608              		.loc 1 630 0
 609              		.cfi_startproc
 610 0000 80B5     		push	{r7, lr}
 611              		.cfi_def_cfa_offset 8
 612              		.cfi_offset 7, -8
 613              		.cfi_offset 14, -4
 614 0002 00AF     		add	r7, sp, #0
 615              		.cfi_def_cfa_register 7
 631:.\Generated_Source\PSoC4/UART_UART.c ****             UART_UART_FLOW_CTRL_REG &= (uint32) ~UART_UART_FLOW_CTRL_CTS_ENABLE;
 616              		.loc 1 631 0
 617 0004 034B     		ldr	r3, .L38
 618 0006 034A     		ldr	r2, .L38
 619 0008 1168     		ldr	r1, [r2]
 620 000a 034A     		ldr	r2, .L38+4
 621 000c 0A40     		and	r2, r1
 622 000e 1A60     		str	r2, [r3]
ARM GAS  C:\Users\GLENNL~1\AppData\Local\Temp\ccD4vWH1.s 			page 23


 632:.\Generated_Source\PSoC4/UART_UART.c ****         }
 623              		.loc 1 632 0
 624 0010 BD46     		mov	sp, r7
 625              		@ sp needed
 626 0012 80BD     		pop	{r7, pc}
 627              	.L39:
 628              		.align	2
 629              	.L38:
 630 0014 50002540 		.word	1076166736
 631 0018 FFFFFFFD 		.word	-33554433
 632              		.cfi_endproc
 633              	.LFE12:
 634              		.size	UART_UartDisableCts, .-UART_UartDisableCts
 635              		.section	.text.UART_UartSetCtsPolarity,"ax",%progbits
 636              		.align	2
 637              		.global	UART_UartSetCtsPolarity
 638              		.code	16
 639              		.thumb_func
 640              		.type	UART_UartSetCtsPolarity, %function
 641              	UART_UartSetCtsPolarity:
 642              	.LFB13:
 633:.\Generated_Source\PSoC4/UART_UART.c **** 
 634:.\Generated_Source\PSoC4/UART_UART.c **** 
 635:.\Generated_Source\PSoC4/UART_UART.c ****         /*******************************************************************************
 636:.\Generated_Source\PSoC4/UART_UART.c ****         * Function Name: UART_UartSetCtsPolarity
 637:.\Generated_Source\PSoC4/UART_UART.c ****         ********************************************************************************
 638:.\Generated_Source\PSoC4/UART_UART.c ****         *
 639:.\Generated_Source\PSoC4/UART_UART.c ****         * Summary:
 640:.\Generated_Source\PSoC4/UART_UART.c ****         *  Sets active polarity of CTS input signal.
 641:.\Generated_Source\PSoC4/UART_UART.c ****         *
 642:.\Generated_Source\PSoC4/UART_UART.c ****         * Parameters:
 643:.\Generated_Source\PSoC4/UART_UART.c ****         *  polarity: Active polarity of CTS output signal.
 644:.\Generated_Source\PSoC4/UART_UART.c ****         *   UART_UART_CTS_ACTIVE_LOW  - CTS signal is active low.
 645:.\Generated_Source\PSoC4/UART_UART.c ****         *   UART_UART_CTS_ACTIVE_HIGH - CTS signal is active high.
 646:.\Generated_Source\PSoC4/UART_UART.c ****         *
 647:.\Generated_Source\PSoC4/UART_UART.c ****         * Return:
 648:.\Generated_Source\PSoC4/UART_UART.c ****         *  None
 649:.\Generated_Source\PSoC4/UART_UART.c ****         *
 650:.\Generated_Source\PSoC4/UART_UART.c ****         *******************************************************************************/
 651:.\Generated_Source\PSoC4/UART_UART.c ****         void UART_UartSetCtsPolarity(uint32 polarity)
 652:.\Generated_Source\PSoC4/UART_UART.c ****         {
 643              		.loc 1 652 0
 644              		.cfi_startproc
 645 0000 80B5     		push	{r7, lr}
 646              		.cfi_def_cfa_offset 8
 647              		.cfi_offset 7, -8
 648              		.cfi_offset 14, -4
 649 0002 82B0     		sub	sp, sp, #8
 650              		.cfi_def_cfa_offset 16
 651 0004 00AF     		add	r7, sp, #0
 652              		.cfi_def_cfa_register 7
 653 0006 7860     		str	r0, [r7, #4]
 653:.\Generated_Source\PSoC4/UART_UART.c ****             if (0u != polarity)
 654              		.loc 1 653 0
 655 0008 7B68     		ldr	r3, [r7, #4]
 656 000a 002B     		cmp	r3, #0
 657 000c 07D0     		beq	.L41
ARM GAS  C:\Users\GLENNL~1\AppData\Local\Temp\ccD4vWH1.s 			page 24


 654:.\Generated_Source\PSoC4/UART_UART.c ****             {
 655:.\Generated_Source\PSoC4/UART_UART.c ****                 UART_UART_FLOW_CTRL_REG |= (uint32)  UART_UART_FLOW_CTRL_CTS_POLARITY;
 658              		.loc 1 655 0
 659 000e 084B     		ldr	r3, .L43
 660 0010 074A     		ldr	r2, .L43
 661 0012 1268     		ldr	r2, [r2]
 662 0014 8021     		mov	r1, #128
 663 0016 4904     		lsl	r1, r1, #17
 664 0018 0A43     		orr	r2, r1
 665 001a 1A60     		str	r2, [r3]
 666 001c 05E0     		b	.L40
 667              	.L41:
 656:.\Generated_Source\PSoC4/UART_UART.c ****             }
 657:.\Generated_Source\PSoC4/UART_UART.c ****             else
 658:.\Generated_Source\PSoC4/UART_UART.c ****             {
 659:.\Generated_Source\PSoC4/UART_UART.c ****                 UART_UART_FLOW_CTRL_REG &= (uint32) ~UART_UART_FLOW_CTRL_CTS_POLARITY;
 668              		.loc 1 659 0
 669 001e 044B     		ldr	r3, .L43
 670 0020 034A     		ldr	r2, .L43
 671 0022 1168     		ldr	r1, [r2]
 672 0024 034A     		ldr	r2, .L43+4
 673 0026 0A40     		and	r2, r1
 674 0028 1A60     		str	r2, [r3]
 675              	.L40:
 660:.\Generated_Source\PSoC4/UART_UART.c ****             }
 661:.\Generated_Source\PSoC4/UART_UART.c ****         }
 676              		.loc 1 661 0
 677 002a BD46     		mov	sp, r7
 678 002c 02B0     		add	sp, sp, #8
 679              		@ sp needed
 680 002e 80BD     		pop	{r7, pc}
 681              	.L44:
 682              		.align	2
 683              	.L43:
 684 0030 50002540 		.word	1076166736
 685 0034 FFFFFFFE 		.word	-16777217
 686              		.cfi_endproc
 687              	.LFE13:
 688              		.size	UART_UartSetCtsPolarity, .-UART_UartSetCtsPolarity
 689              		.text
 690              	.Letext0:
 691              		.file 2 ".\\Generated_Source\\PSoC4/cytypes.h"