ARM GAS  C:\Users\GLENNL~1\AppData\Local\Temp\ccIQWowR.s 			page 1


   1              		.cpu cortex-m0
   2              		.fpu softvfp
   3              		.eabi_attribute 20, 1
   4              		.eabi_attribute 21, 1
   5              		.eabi_attribute 23, 3
   6              		.eabi_attribute 24, 1
   7              		.eabi_attribute 25, 1
   8              		.eabi_attribute 26, 1
   9              		.eabi_attribute 30, 6
  10              		.eabi_attribute 34, 0
  11              		.eabi_attribute 18, 4
  12              		.code	16
  13              		.file	"UART.c"
  14              		.text
  15              	.Ltext0:
  16              		.cfi_sections	.debug_frame
  17              		.global	UART_initVar
  18              		.bss
  19              		.type	UART_initVar, %object
  20              		.size	UART_initVar, 1
  21              	UART_initVar:
  22 0000 00       		.space	1
  23              		.global	UART_customIntrHandler
  24 0001 000000   		.align	2
  25              		.type	UART_customIntrHandler, %object
  26              		.size	UART_customIntrHandler, 4
  27              	UART_customIntrHandler:
  28 0004 00000000 		.space	4
  29              		.section	.text.UART_Init,"ax",%progbits
  30              		.align	2
  31              		.global	UART_Init
  32              		.code	16
  33              		.thumb_func
  34              		.type	UART_Init, %function
  35              	UART_Init:
  36              	.LFB2:
  37              		.file 1 ".\\Generated_Source\\PSoC4\\UART.c"
   1:.\Generated_Source\PSoC4/UART.c **** /*******************************************************************************
   2:.\Generated_Source\PSoC4/UART.c **** * File Name: UART.c
   3:.\Generated_Source\PSoC4/UART.c **** * Version 2.0
   4:.\Generated_Source\PSoC4/UART.c **** *
   5:.\Generated_Source\PSoC4/UART.c **** * Description:
   6:.\Generated_Source\PSoC4/UART.c **** *  This file provides the source code to the API for the SCB Component.
   7:.\Generated_Source\PSoC4/UART.c **** *
   8:.\Generated_Source\PSoC4/UART.c **** * Note:
   9:.\Generated_Source\PSoC4/UART.c **** *
  10:.\Generated_Source\PSoC4/UART.c **** *******************************************************************************
  11:.\Generated_Source\PSoC4/UART.c **** * Copyright 2013-2014, Cypress Semiconductor Corporation.  All rights reserved.
  12:.\Generated_Source\PSoC4/UART.c **** * You may use this file only in accordance with the license, terms, conditions,
  13:.\Generated_Source\PSoC4/UART.c **** * disclaimers, and limitations in the end user license agreement accompanying
  14:.\Generated_Source\PSoC4/UART.c **** * the software package with which this file was provided.
  15:.\Generated_Source\PSoC4/UART.c **** *******************************************************************************/
  16:.\Generated_Source\PSoC4/UART.c **** 
  17:.\Generated_Source\PSoC4/UART.c **** #include "UART_PVT.h"
  18:.\Generated_Source\PSoC4/UART.c **** 
  19:.\Generated_Source\PSoC4/UART.c **** #if(UART_SCB_MODE_I2C_INC)
  20:.\Generated_Source\PSoC4/UART.c ****     #include "UART_I2C_PVT.h"
ARM GAS  C:\Users\GLENNL~1\AppData\Local\Temp\ccIQWowR.s 			page 2


  21:.\Generated_Source\PSoC4/UART.c **** #endif /* (UART_SCB_MODE_I2C_INC) */
  22:.\Generated_Source\PSoC4/UART.c **** 
  23:.\Generated_Source\PSoC4/UART.c **** #if(UART_SCB_MODE_EZI2C_INC)
  24:.\Generated_Source\PSoC4/UART.c ****     #include "UART_EZI2C_PVT.h"
  25:.\Generated_Source\PSoC4/UART.c **** #endif /* (UART_SCB_MODE_EZI2C_INC) */
  26:.\Generated_Source\PSoC4/UART.c **** 
  27:.\Generated_Source\PSoC4/UART.c **** #if(UART_SCB_MODE_SPI_INC || UART_SCB_MODE_UART_INC)
  28:.\Generated_Source\PSoC4/UART.c ****     #include "UART_SPI_UART_PVT.h"
  29:.\Generated_Source\PSoC4/UART.c **** #endif /* (UART_SCB_MODE_SPI_INC || UART_SCB_MODE_UART_INC) */
  30:.\Generated_Source\PSoC4/UART.c **** 
  31:.\Generated_Source\PSoC4/UART.c **** 
  32:.\Generated_Source\PSoC4/UART.c **** /***************************************
  33:.\Generated_Source\PSoC4/UART.c **** *    Run Time Configuration Vars
  34:.\Generated_Source\PSoC4/UART.c **** ***************************************/
  35:.\Generated_Source\PSoC4/UART.c **** 
  36:.\Generated_Source\PSoC4/UART.c **** /* Stores internal component configuration for Unconfigured mode */
  37:.\Generated_Source\PSoC4/UART.c **** #if(UART_SCB_MODE_UNCONFIG_CONST_CFG)
  38:.\Generated_Source\PSoC4/UART.c ****     /* Common configuration variables */
  39:.\Generated_Source\PSoC4/UART.c ****     uint8 UART_scbMode = UART_SCB_MODE_UNCONFIG;
  40:.\Generated_Source\PSoC4/UART.c ****     uint8 UART_scbEnableWake;
  41:.\Generated_Source\PSoC4/UART.c ****     uint8 UART_scbEnableIntr;
  42:.\Generated_Source\PSoC4/UART.c **** 
  43:.\Generated_Source\PSoC4/UART.c ****     /* I2C configuration variables */
  44:.\Generated_Source\PSoC4/UART.c ****     uint8 UART_mode;
  45:.\Generated_Source\PSoC4/UART.c ****     uint8 UART_acceptAddr;
  46:.\Generated_Source\PSoC4/UART.c **** 
  47:.\Generated_Source\PSoC4/UART.c ****     /* SPI/UART configuration variables */
  48:.\Generated_Source\PSoC4/UART.c ****     volatile uint8 * UART_rxBuffer;
  49:.\Generated_Source\PSoC4/UART.c ****     uint8  UART_rxDataBits;
  50:.\Generated_Source\PSoC4/UART.c ****     uint32 UART_rxBufferSize;
  51:.\Generated_Source\PSoC4/UART.c **** 
  52:.\Generated_Source\PSoC4/UART.c ****     volatile uint8 * UART_txBuffer;
  53:.\Generated_Source\PSoC4/UART.c ****     uint8  UART_txDataBits;
  54:.\Generated_Source\PSoC4/UART.c ****     uint32 UART_txBufferSize;
  55:.\Generated_Source\PSoC4/UART.c **** 
  56:.\Generated_Source\PSoC4/UART.c ****     /* EZI2C configuration variables */
  57:.\Generated_Source\PSoC4/UART.c ****     uint8 UART_numberOfAddr;
  58:.\Generated_Source\PSoC4/UART.c ****     uint8 UART_subAddrSize;
  59:.\Generated_Source\PSoC4/UART.c **** #endif /* (UART_SCB_MODE_UNCONFIG_CONST_CFG) */
  60:.\Generated_Source\PSoC4/UART.c **** 
  61:.\Generated_Source\PSoC4/UART.c **** 
  62:.\Generated_Source\PSoC4/UART.c **** /***************************************
  63:.\Generated_Source\PSoC4/UART.c **** *     Common SCB Vars
  64:.\Generated_Source\PSoC4/UART.c **** ***************************************/
  65:.\Generated_Source\PSoC4/UART.c **** 
  66:.\Generated_Source\PSoC4/UART.c **** uint8 UART_initVar = 0u;
  67:.\Generated_Source\PSoC4/UART.c **** 
  68:.\Generated_Source\PSoC4/UART.c **** #if !defined (CY_REMOVE_UART_CUSTOM_INTR_HANDLER)
  69:.\Generated_Source\PSoC4/UART.c ****     cyisraddress UART_customIntrHandler = NULL;
  70:.\Generated_Source\PSoC4/UART.c **** #endif /* !defined (CY_REMOVE_UART_CUSTOM_INTR_HANDLER) */
  71:.\Generated_Source\PSoC4/UART.c **** 
  72:.\Generated_Source\PSoC4/UART.c **** 
  73:.\Generated_Source\PSoC4/UART.c **** /***************************************
  74:.\Generated_Source\PSoC4/UART.c **** *    Private Function Prototypes
  75:.\Generated_Source\PSoC4/UART.c **** ***************************************/
  76:.\Generated_Source\PSoC4/UART.c **** 
  77:.\Generated_Source\PSoC4/UART.c **** static void UART_ScbEnableIntr(void);
ARM GAS  C:\Users\GLENNL~1\AppData\Local\Temp\ccIQWowR.s 			page 3


  78:.\Generated_Source\PSoC4/UART.c **** static void UART_ScbModeStop(void);
  79:.\Generated_Source\PSoC4/UART.c **** 
  80:.\Generated_Source\PSoC4/UART.c **** 
  81:.\Generated_Source\PSoC4/UART.c **** /*******************************************************************************
  82:.\Generated_Source\PSoC4/UART.c **** * Function Name: UART_Init
  83:.\Generated_Source\PSoC4/UART.c **** ********************************************************************************
  84:.\Generated_Source\PSoC4/UART.c **** *
  85:.\Generated_Source\PSoC4/UART.c **** * Summary:
  86:.\Generated_Source\PSoC4/UART.c **** *  Initializes the SCB component to operate in one of the selected
  87:.\Generated_Source\PSoC4/UART.c **** *  configurations: I2C, SPI, UART or EZI2C.
  88:.\Generated_Source\PSoC4/UART.c **** *  When the configuration is set to "Unconfigured SCB", this function does
  89:.\Generated_Source\PSoC4/UART.c **** *  not do any initialization. Use mode-specific initialization APIs instead:
  90:.\Generated_Source\PSoC4/UART.c **** *  SCB_I2CInit, SCB_SpiInit, SCB_UartInit or SCB_EzI2CInit.
  91:.\Generated_Source\PSoC4/UART.c **** *
  92:.\Generated_Source\PSoC4/UART.c **** * Parameters:
  93:.\Generated_Source\PSoC4/UART.c **** *  None
  94:.\Generated_Source\PSoC4/UART.c **** *
  95:.\Generated_Source\PSoC4/UART.c **** * Return:
  96:.\Generated_Source\PSoC4/UART.c **** *  None
  97:.\Generated_Source\PSoC4/UART.c **** *
  98:.\Generated_Source\PSoC4/UART.c **** *******************************************************************************/
  99:.\Generated_Source\PSoC4/UART.c **** void UART_Init(void)
 100:.\Generated_Source\PSoC4/UART.c **** {
  38              		.loc 1 100 0
  39              		.cfi_startproc
  40 0000 80B5     		push	{r7, lr}
  41              		.cfi_def_cfa_offset 8
  42              		.cfi_offset 7, -8
  43              		.cfi_offset 14, -4
  44 0002 00AF     		add	r7, sp, #0
  45              		.cfi_def_cfa_register 7
 101:.\Generated_Source\PSoC4/UART.c **** #if(UART_SCB_MODE_UNCONFIG_CONST_CFG)
 102:.\Generated_Source\PSoC4/UART.c ****     if(UART_SCB_MODE_UNCONFIG_RUNTM_CFG)
 103:.\Generated_Source\PSoC4/UART.c ****     {
 104:.\Generated_Source\PSoC4/UART.c ****         UART_initVar = 0u;
 105:.\Generated_Source\PSoC4/UART.c ****     }
 106:.\Generated_Source\PSoC4/UART.c ****     else
 107:.\Generated_Source\PSoC4/UART.c ****     {
 108:.\Generated_Source\PSoC4/UART.c ****         /* Initialization was done before this function call */
 109:.\Generated_Source\PSoC4/UART.c ****     }
 110:.\Generated_Source\PSoC4/UART.c **** 
 111:.\Generated_Source\PSoC4/UART.c **** #elif(UART_SCB_MODE_I2C_CONST_CFG)
 112:.\Generated_Source\PSoC4/UART.c ****     UART_I2CInit();
 113:.\Generated_Source\PSoC4/UART.c **** 
 114:.\Generated_Source\PSoC4/UART.c **** #elif(UART_SCB_MODE_SPI_CONST_CFG)
 115:.\Generated_Source\PSoC4/UART.c ****     UART_SpiInit();
 116:.\Generated_Source\PSoC4/UART.c **** 
 117:.\Generated_Source\PSoC4/UART.c **** #elif(UART_SCB_MODE_UART_CONST_CFG)
 118:.\Generated_Source\PSoC4/UART.c ****     UART_UartInit();
  46              		.loc 1 118 0
  47 0004 FFF7FEFF 		bl	UART_UartInit
 119:.\Generated_Source\PSoC4/UART.c **** 
 120:.\Generated_Source\PSoC4/UART.c **** #elif(UART_SCB_MODE_EZI2C_CONST_CFG)
 121:.\Generated_Source\PSoC4/UART.c ****     UART_EzI2CInit();
 122:.\Generated_Source\PSoC4/UART.c **** 
 123:.\Generated_Source\PSoC4/UART.c **** #endif /* (UART_SCB_MODE_UNCONFIG_CONST_CFG) */
 124:.\Generated_Source\PSoC4/UART.c **** }
ARM GAS  C:\Users\GLENNL~1\AppData\Local\Temp\ccIQWowR.s 			page 4


  48              		.loc 1 124 0
  49 0008 BD46     		mov	sp, r7
  50              		@ sp needed
  51 000a 80BD     		pop	{r7, pc}
  52              		.cfi_endproc
  53              	.LFE2:
  54              		.size	UART_Init, .-UART_Init
  55              		.section	.text.UART_Enable,"ax",%progbits
  56              		.align	2
  57              		.global	UART_Enable
  58              		.code	16
  59              		.thumb_func
  60              		.type	UART_Enable, %function
  61              	UART_Enable:
  62              	.LFB3:
 125:.\Generated_Source\PSoC4/UART.c **** 
 126:.\Generated_Source\PSoC4/UART.c **** 
 127:.\Generated_Source\PSoC4/UART.c **** /*******************************************************************************
 128:.\Generated_Source\PSoC4/UART.c **** * Function Name: UART_Enable
 129:.\Generated_Source\PSoC4/UART.c **** ********************************************************************************
 130:.\Generated_Source\PSoC4/UART.c **** *
 131:.\Generated_Source\PSoC4/UART.c **** * Summary:
 132:.\Generated_Source\PSoC4/UART.c **** *  Enables the SCB component operation.
 133:.\Generated_Source\PSoC4/UART.c **** *  The SCB configuration should be not changed when the component is enabled.
 134:.\Generated_Source\PSoC4/UART.c **** *  Any configuration changes should be made after disabling the component.
 135:.\Generated_Source\PSoC4/UART.c **** *
 136:.\Generated_Source\PSoC4/UART.c **** * Parameters:
 137:.\Generated_Source\PSoC4/UART.c **** *  None
 138:.\Generated_Source\PSoC4/UART.c **** *
 139:.\Generated_Source\PSoC4/UART.c **** * Return:
 140:.\Generated_Source\PSoC4/UART.c **** *  None
 141:.\Generated_Source\PSoC4/UART.c **** *
 142:.\Generated_Source\PSoC4/UART.c **** *******************************************************************************/
 143:.\Generated_Source\PSoC4/UART.c **** void UART_Enable(void)
 144:.\Generated_Source\PSoC4/UART.c **** {
  63              		.loc 1 144 0
  64              		.cfi_startproc
  65 0000 80B5     		push	{r7, lr}
  66              		.cfi_def_cfa_offset 8
  67              		.cfi_offset 7, -8
  68              		.cfi_offset 14, -4
  69 0002 00AF     		add	r7, sp, #0
  70              		.cfi_def_cfa_register 7
 145:.\Generated_Source\PSoC4/UART.c **** #if(UART_SCB_MODE_UNCONFIG_CONST_CFG)
 146:.\Generated_Source\PSoC4/UART.c ****     /* Enable SCB block, only if it is already configured */
 147:.\Generated_Source\PSoC4/UART.c ****     if(!UART_SCB_MODE_UNCONFIG_RUNTM_CFG)
 148:.\Generated_Source\PSoC4/UART.c ****     {
 149:.\Generated_Source\PSoC4/UART.c ****         UART_CTRL_REG |= UART_CTRL_ENABLED;
 150:.\Generated_Source\PSoC4/UART.c **** 
 151:.\Generated_Source\PSoC4/UART.c ****         UART_ScbEnableIntr();
 152:.\Generated_Source\PSoC4/UART.c ****     }
 153:.\Generated_Source\PSoC4/UART.c **** #else
 154:.\Generated_Source\PSoC4/UART.c ****     UART_CTRL_REG |= UART_CTRL_ENABLED;
  71              		.loc 1 154 0
  72 0004 054B     		ldr	r3, .L3
  73 0006 054A     		ldr	r2, .L3
  74 0008 1268     		ldr	r2, [r2]
ARM GAS  C:\Users\GLENNL~1\AppData\Local\Temp\ccIQWowR.s 			page 5


  75 000a 8021     		mov	r1, #128
  76 000c 0906     		lsl	r1, r1, #24
  77 000e 0A43     		orr	r2, r1
  78 0010 1A60     		str	r2, [r3]
 155:.\Generated_Source\PSoC4/UART.c **** 
 156:.\Generated_Source\PSoC4/UART.c ****     UART_ScbEnableIntr();
  79              		.loc 1 156 0
  80 0012 FFF7FEFF 		bl	UART_ScbEnableIntr
 157:.\Generated_Source\PSoC4/UART.c **** #endif /* (UART_SCB_MODE_UNCONFIG_CONST_CFG) */
 158:.\Generated_Source\PSoC4/UART.c **** }
  81              		.loc 1 158 0
  82 0016 BD46     		mov	sp, r7
  83              		@ sp needed
  84 0018 80BD     		pop	{r7, pc}
  85              	.L4:
  86 001a C046     		.align	2
  87              	.L3:
  88 001c 00002540 		.word	1076166656
  89              		.cfi_endproc
  90              	.LFE3:
  91              		.size	UART_Enable, .-UART_Enable
  92              		.section	.text.UART_Start,"ax",%progbits
  93              		.align	2
  94              		.global	UART_Start
  95              		.code	16
  96              		.thumb_func
  97              		.type	UART_Start, %function
  98              	UART_Start:
  99              	.LFB4:
 159:.\Generated_Source\PSoC4/UART.c **** 
 160:.\Generated_Source\PSoC4/UART.c **** 
 161:.\Generated_Source\PSoC4/UART.c **** /*******************************************************************************
 162:.\Generated_Source\PSoC4/UART.c **** * Function Name: UART_Start
 163:.\Generated_Source\PSoC4/UART.c **** ********************************************************************************
 164:.\Generated_Source\PSoC4/UART.c **** *
 165:.\Generated_Source\PSoC4/UART.c **** * Summary:
 166:.\Generated_Source\PSoC4/UART.c **** *  Invokes SCB_Init() and SCB_Enable().
 167:.\Generated_Source\PSoC4/UART.c **** *  After this function call, the component is enabled and ready for operation.
 168:.\Generated_Source\PSoC4/UART.c **** *  When configuration is set to "Unconfigured SCB", the component must first be
 169:.\Generated_Source\PSoC4/UART.c **** *  initialized to operate in one of the following configurations: I2C, SPI, UART
 170:.\Generated_Source\PSoC4/UART.c **** *  or EZ I2C. Otherwise this function does not enable the component.
 171:.\Generated_Source\PSoC4/UART.c **** *
 172:.\Generated_Source\PSoC4/UART.c **** * Parameters:
 173:.\Generated_Source\PSoC4/UART.c **** *  None
 174:.\Generated_Source\PSoC4/UART.c **** *
 175:.\Generated_Source\PSoC4/UART.c **** * Return:
 176:.\Generated_Source\PSoC4/UART.c **** *  None
 177:.\Generated_Source\PSoC4/UART.c **** *
 178:.\Generated_Source\PSoC4/UART.c **** * Global variables:
 179:.\Generated_Source\PSoC4/UART.c **** *  UART_initVar - used to check initial configuration, modified
 180:.\Generated_Source\PSoC4/UART.c **** *  on first function call.
 181:.\Generated_Source\PSoC4/UART.c **** *
 182:.\Generated_Source\PSoC4/UART.c **** *******************************************************************************/
 183:.\Generated_Source\PSoC4/UART.c **** void UART_Start(void)
 184:.\Generated_Source\PSoC4/UART.c **** {
 100              		.loc 1 184 0
 101              		.cfi_startproc
ARM GAS  C:\Users\GLENNL~1\AppData\Local\Temp\ccIQWowR.s 			page 6


 102 0000 80B5     		push	{r7, lr}
 103              		.cfi_def_cfa_offset 8
 104              		.cfi_offset 7, -8
 105              		.cfi_offset 14, -4
 106 0002 00AF     		add	r7, sp, #0
 107              		.cfi_def_cfa_register 7
 185:.\Generated_Source\PSoC4/UART.c ****     if(0u == UART_initVar)
 108              		.loc 1 185 0
 109 0004 064B     		ldr	r3, .L7
 110 0006 1B78     		ldrb	r3, [r3]
 111 0008 002B     		cmp	r3, #0
 112 000a 04D1     		bne	.L6
 186:.\Generated_Source\PSoC4/UART.c ****     {
 187:.\Generated_Source\PSoC4/UART.c ****         UART_Init();
 113              		.loc 1 187 0
 114 000c FFF7FEFF 		bl	UART_Init
 188:.\Generated_Source\PSoC4/UART.c ****         UART_initVar = 1u; /* Component was initialized */
 115              		.loc 1 188 0
 116 0010 034B     		ldr	r3, .L7
 117 0012 0122     		mov	r2, #1
 118 0014 1A70     		strb	r2, [r3]
 119              	.L6:
 189:.\Generated_Source\PSoC4/UART.c ****     }
 190:.\Generated_Source\PSoC4/UART.c **** 
 191:.\Generated_Source\PSoC4/UART.c ****     UART_Enable();
 120              		.loc 1 191 0
 121 0016 FFF7FEFF 		bl	UART_Enable
 192:.\Generated_Source\PSoC4/UART.c **** }
 122              		.loc 1 192 0
 123 001a BD46     		mov	sp, r7
 124              		@ sp needed
 125 001c 80BD     		pop	{r7, pc}
 126              	.L8:
 127 001e C046     		.align	2
 128              	.L7:
 129 0020 00000000 		.word	UART_initVar
 130              		.cfi_endproc
 131              	.LFE4:
 132              		.size	UART_Start, .-UART_Start
 133              		.section	.text.UART_Stop,"ax",%progbits
 134              		.align	2
 135              		.global	UART_Stop
 136              		.code	16
 137              		.thumb_func
 138              		.type	UART_Stop, %function
 139              	UART_Stop:
 140              	.LFB5:
 193:.\Generated_Source\PSoC4/UART.c **** 
 194:.\Generated_Source\PSoC4/UART.c **** 
 195:.\Generated_Source\PSoC4/UART.c **** /*******************************************************************************
 196:.\Generated_Source\PSoC4/UART.c **** * Function Name: UART_Stop
 197:.\Generated_Source\PSoC4/UART.c **** ********************************************************************************
 198:.\Generated_Source\PSoC4/UART.c **** *
 199:.\Generated_Source\PSoC4/UART.c **** * Summary:
 200:.\Generated_Source\PSoC4/UART.c **** *  Disables the SCB component and its interrupt.
 201:.\Generated_Source\PSoC4/UART.c **** *
 202:.\Generated_Source\PSoC4/UART.c **** * Parameters:
ARM GAS  C:\Users\GLENNL~1\AppData\Local\Temp\ccIQWowR.s 			page 7


 203:.\Generated_Source\PSoC4/UART.c **** *  None
 204:.\Generated_Source\PSoC4/UART.c **** *
 205:.\Generated_Source\PSoC4/UART.c **** * Return:
 206:.\Generated_Source\PSoC4/UART.c **** *  None
 207:.\Generated_Source\PSoC4/UART.c **** *
 208:.\Generated_Source\PSoC4/UART.c **** *******************************************************************************/
 209:.\Generated_Source\PSoC4/UART.c **** void UART_Stop(void)
 210:.\Generated_Source\PSoC4/UART.c **** {
 141              		.loc 1 210 0
 142              		.cfi_startproc
 143 0000 80B5     		push	{r7, lr}
 144              		.cfi_def_cfa_offset 8
 145              		.cfi_offset 7, -8
 146              		.cfi_offset 14, -4
 147 0002 00AF     		add	r7, sp, #0
 148              		.cfi_def_cfa_register 7
 211:.\Generated_Source\PSoC4/UART.c **** #if(UART_SCB_IRQ_INTERNAL)
 212:.\Generated_Source\PSoC4/UART.c ****     UART_DisableInt();
 213:.\Generated_Source\PSoC4/UART.c **** #endif /* (UART_SCB_IRQ_INTERNAL) */
 214:.\Generated_Source\PSoC4/UART.c **** 
 215:.\Generated_Source\PSoC4/UART.c ****     UART_CTRL_REG &= (uint32) ~UART_CTRL_ENABLED;  /* Disable scb IP */
 149              		.loc 1 215 0
 150 0004 044B     		ldr	r3, .L10
 151 0006 044A     		ldr	r2, .L10
 152 0008 1268     		ldr	r2, [r2]
 153 000a 5200     		lsl	r2, r2, #1
 154 000c 5208     		lsr	r2, r2, #1
 155 000e 1A60     		str	r2, [r3]
 216:.\Generated_Source\PSoC4/UART.c **** 
 217:.\Generated_Source\PSoC4/UART.c **** #if(UART_SCB_IRQ_INTERNAL)
 218:.\Generated_Source\PSoC4/UART.c ****     UART_ClearPendingInt();
 219:.\Generated_Source\PSoC4/UART.c **** #endif /* (UART_SCB_IRQ_INTERNAL) */
 220:.\Generated_Source\PSoC4/UART.c **** 
 221:.\Generated_Source\PSoC4/UART.c ****     UART_ScbModeStop(); /* Calls scbMode specific Stop function */
 156              		.loc 1 221 0
 157 0010 FFF7FEFF 		bl	UART_ScbModeStop
 222:.\Generated_Source\PSoC4/UART.c **** }
 158              		.loc 1 222 0
 159 0014 BD46     		mov	sp, r7
 160              		@ sp needed
 161 0016 80BD     		pop	{r7, pc}
 162              	.L11:
 163              		.align	2
 164              	.L10:
 165 0018 00002540 		.word	1076166656
 166              		.cfi_endproc
 167              	.LFE5:
 168              		.size	UART_Stop, .-UART_Stop
 169              		.section	.text.UART_SetRxFifoLevel,"ax",%progbits
 170              		.align	2
 171              		.global	UART_SetRxFifoLevel
 172              		.code	16
 173              		.thumb_func
 174              		.type	UART_SetRxFifoLevel, %function
 175              	UART_SetRxFifoLevel:
 176              	.LFB6:
 223:.\Generated_Source\PSoC4/UART.c **** 
ARM GAS  C:\Users\GLENNL~1\AppData\Local\Temp\ccIQWowR.s 			page 8


 224:.\Generated_Source\PSoC4/UART.c **** 
 225:.\Generated_Source\PSoC4/UART.c **** /*******************************************************************************
 226:.\Generated_Source\PSoC4/UART.c **** * Function Name: UART_SetRxFifoLevel
 227:.\Generated_Source\PSoC4/UART.c **** ********************************************************************************
 228:.\Generated_Source\PSoC4/UART.c **** *
 229:.\Generated_Source\PSoC4/UART.c **** * Summary:
 230:.\Generated_Source\PSoC4/UART.c **** *  Sets level in the RX FIFO to generate a RX level interrupt.
 231:.\Generated_Source\PSoC4/UART.c **** *  When the RX FIFO has more entries than the RX FIFO level an RX level
 232:.\Generated_Source\PSoC4/UART.c **** *  interrupt request is generated.
 233:.\Generated_Source\PSoC4/UART.c **** *
 234:.\Generated_Source\PSoC4/UART.c **** * Parameters:
 235:.\Generated_Source\PSoC4/UART.c **** *  level: Level in the RX FIFO to generate RX level interrupt.
 236:.\Generated_Source\PSoC4/UART.c **** *         The range of valid level values is between 0 and RX FIFO depth - 1.
 237:.\Generated_Source\PSoC4/UART.c **** *
 238:.\Generated_Source\PSoC4/UART.c **** * Return:
 239:.\Generated_Source\PSoC4/UART.c **** *  None
 240:.\Generated_Source\PSoC4/UART.c **** *
 241:.\Generated_Source\PSoC4/UART.c **** *******************************************************************************/
 242:.\Generated_Source\PSoC4/UART.c **** void UART_SetRxFifoLevel(uint32 level)
 243:.\Generated_Source\PSoC4/UART.c **** {
 177              		.loc 1 243 0
 178              		.cfi_startproc
 179 0000 80B5     		push	{r7, lr}
 180              		.cfi_def_cfa_offset 8
 181              		.cfi_offset 7, -8
 182              		.cfi_offset 14, -4
 183 0002 84B0     		sub	sp, sp, #16
 184              		.cfi_def_cfa_offset 24
 185 0004 00AF     		add	r7, sp, #0
 186              		.cfi_def_cfa_register 7
 187 0006 7860     		str	r0, [r7, #4]
 244:.\Generated_Source\PSoC4/UART.c ****     uint32 rxFifoCtrl;
 245:.\Generated_Source\PSoC4/UART.c **** 
 246:.\Generated_Source\PSoC4/UART.c ****     rxFifoCtrl = UART_RX_FIFO_CTRL_REG;
 188              		.loc 1 246 0
 189 0008 094B     		ldr	r3, .L13
 190 000a 1B68     		ldr	r3, [r3]
 191 000c FB60     		str	r3, [r7, #12]
 247:.\Generated_Source\PSoC4/UART.c **** 
 248:.\Generated_Source\PSoC4/UART.c ****     rxFifoCtrl &= ((uint32) ~UART_RX_FIFO_CTRL_TRIGGER_LEVEL_MASK); /* Clear level mask bits */
 192              		.loc 1 248 0
 193 000e FB68     		ldr	r3, [r7, #12]
 194 0010 0F22     		mov	r2, #15
 195 0012 9343     		bic	r3, r2
 196 0014 FB60     		str	r3, [r7, #12]
 249:.\Generated_Source\PSoC4/UART.c ****     rxFifoCtrl |= ((uint32) (UART_RX_FIFO_CTRL_TRIGGER_LEVEL_MASK & level));
 197              		.loc 1 249 0
 198 0016 7A68     		ldr	r2, [r7, #4]
 199 0018 0F23     		mov	r3, #15
 200 001a 1340     		and	r3, r2
 201 001c FA68     		ldr	r2, [r7, #12]
 202 001e 1343     		orr	r3, r2
 203 0020 FB60     		str	r3, [r7, #12]
 250:.\Generated_Source\PSoC4/UART.c **** 
 251:.\Generated_Source\PSoC4/UART.c ****     UART_RX_FIFO_CTRL_REG = rxFifoCtrl;
 204              		.loc 1 251 0
 205 0022 034B     		ldr	r3, .L13
ARM GAS  C:\Users\GLENNL~1\AppData\Local\Temp\ccIQWowR.s 			page 9


 206 0024 FA68     		ldr	r2, [r7, #12]
 207 0026 1A60     		str	r2, [r3]
 252:.\Generated_Source\PSoC4/UART.c **** }
 208              		.loc 1 252 0
 209 0028 BD46     		mov	sp, r7
 210 002a 04B0     		add	sp, sp, #16
 211              		@ sp needed
 212 002c 80BD     		pop	{r7, pc}
 213              	.L14:
 214 002e C046     		.align	2
 215              	.L13:
 216 0030 04032540 		.word	1076167428
 217              		.cfi_endproc
 218              	.LFE6:
 219              		.size	UART_SetRxFifoLevel, .-UART_SetRxFifoLevel
 220              		.section	.text.UART_SetTxFifoLevel,"ax",%progbits
 221              		.align	2
 222              		.global	UART_SetTxFifoLevel
 223              		.code	16
 224              		.thumb_func
 225              		.type	UART_SetTxFifoLevel, %function
 226              	UART_SetTxFifoLevel:
 227              	.LFB7:
 253:.\Generated_Source\PSoC4/UART.c **** 
 254:.\Generated_Source\PSoC4/UART.c **** 
 255:.\Generated_Source\PSoC4/UART.c **** /*******************************************************************************
 256:.\Generated_Source\PSoC4/UART.c **** * Function Name: UART_SetTxFifoLevel
 257:.\Generated_Source\PSoC4/UART.c **** ********************************************************************************
 258:.\Generated_Source\PSoC4/UART.c **** *
 259:.\Generated_Source\PSoC4/UART.c **** * Summary:
 260:.\Generated_Source\PSoC4/UART.c **** *  Sets level in the TX FIFO to generate a TX level interrupt.
 261:.\Generated_Source\PSoC4/UART.c **** *  When the TX FIFO has more entries than the TX FIFO level an TX level
 262:.\Generated_Source\PSoC4/UART.c **** *  interrupt request is generated.
 263:.\Generated_Source\PSoC4/UART.c **** *
 264:.\Generated_Source\PSoC4/UART.c **** * Parameters:
 265:.\Generated_Source\PSoC4/UART.c **** *  level: Level in the TX FIFO to generate TX level interrupt.
 266:.\Generated_Source\PSoC4/UART.c **** *         The range of valid level values is between 0 and TX FIFO depth - 1.
 267:.\Generated_Source\PSoC4/UART.c **** *
 268:.\Generated_Source\PSoC4/UART.c **** * Return:
 269:.\Generated_Source\PSoC4/UART.c **** *  None
 270:.\Generated_Source\PSoC4/UART.c **** *
 271:.\Generated_Source\PSoC4/UART.c **** *******************************************************************************/
 272:.\Generated_Source\PSoC4/UART.c **** void UART_SetTxFifoLevel(uint32 level)
 273:.\Generated_Source\PSoC4/UART.c **** {
 228              		.loc 1 273 0
 229              		.cfi_startproc
 230 0000 80B5     		push	{r7, lr}
 231              		.cfi_def_cfa_offset 8
 232              		.cfi_offset 7, -8
 233              		.cfi_offset 14, -4
 234 0002 84B0     		sub	sp, sp, #16
 235              		.cfi_def_cfa_offset 24
 236 0004 00AF     		add	r7, sp, #0
 237              		.cfi_def_cfa_register 7
 238 0006 7860     		str	r0, [r7, #4]
 274:.\Generated_Source\PSoC4/UART.c ****     uint32 txFifoCtrl;
 275:.\Generated_Source\PSoC4/UART.c **** 
ARM GAS  C:\Users\GLENNL~1\AppData\Local\Temp\ccIQWowR.s 			page 10


 276:.\Generated_Source\PSoC4/UART.c ****     txFifoCtrl = UART_TX_FIFO_CTRL_REG;
 239              		.loc 1 276 0
 240 0008 094B     		ldr	r3, .L16
 241 000a 1B68     		ldr	r3, [r3]
 242 000c FB60     		str	r3, [r7, #12]
 277:.\Generated_Source\PSoC4/UART.c **** 
 278:.\Generated_Source\PSoC4/UART.c ****     txFifoCtrl &= ((uint32) ~UART_TX_FIFO_CTRL_TRIGGER_LEVEL_MASK); /* Clear level mask bits */
 243              		.loc 1 278 0
 244 000e FB68     		ldr	r3, [r7, #12]
 245 0010 0F22     		mov	r2, #15
 246 0012 9343     		bic	r3, r2
 247 0014 FB60     		str	r3, [r7, #12]
 279:.\Generated_Source\PSoC4/UART.c ****     txFifoCtrl |= ((uint32) (UART_TX_FIFO_CTRL_TRIGGER_LEVEL_MASK & level));
 248              		.loc 1 279 0
 249 0016 7A68     		ldr	r2, [r7, #4]
 250 0018 0F23     		mov	r3, #15
 251 001a 1340     		and	r3, r2
 252 001c FA68     		ldr	r2, [r7, #12]
 253 001e 1343     		orr	r3, r2
 254 0020 FB60     		str	r3, [r7, #12]
 280:.\Generated_Source\PSoC4/UART.c **** 
 281:.\Generated_Source\PSoC4/UART.c ****     UART_TX_FIFO_CTRL_REG = txFifoCtrl;
 255              		.loc 1 281 0
 256 0022 034B     		ldr	r3, .L16
 257 0024 FA68     		ldr	r2, [r7, #12]
 258 0026 1A60     		str	r2, [r3]
 282:.\Generated_Source\PSoC4/UART.c **** }
 259              		.loc 1 282 0
 260 0028 BD46     		mov	sp, r7
 261 002a 04B0     		add	sp, sp, #16
 262              		@ sp needed
 263 002c 80BD     		pop	{r7, pc}
 264              	.L17:
 265 002e C046     		.align	2
 266              	.L16:
 267 0030 04022540 		.word	1076167172
 268              		.cfi_endproc
 269              	.LFE7:
 270              		.size	UART_SetTxFifoLevel, .-UART_SetTxFifoLevel
 271              		.section	.text.UART_SetCustomInterruptHandler,"ax",%progbits
 272              		.align	2
 273              		.global	UART_SetCustomInterruptHandler
 274              		.code	16
 275              		.thumb_func
 276              		.type	UART_SetCustomInterruptHandler, %function
 277              	UART_SetCustomInterruptHandler:
 278              	.LFB8:
 283:.\Generated_Source\PSoC4/UART.c **** 
 284:.\Generated_Source\PSoC4/UART.c **** 
 285:.\Generated_Source\PSoC4/UART.c **** /*******************************************************************************
 286:.\Generated_Source\PSoC4/UART.c **** * Function Name: UART_SetCustomInterruptHandler
 287:.\Generated_Source\PSoC4/UART.c **** ********************************************************************************
 288:.\Generated_Source\PSoC4/UART.c **** *
 289:.\Generated_Source\PSoC4/UART.c **** * Summary:
 290:.\Generated_Source\PSoC4/UART.c **** *  Registers a function to be called by the internal interrupt handler.
 291:.\Generated_Source\PSoC4/UART.c **** *  First the function that is registered is called, then the internal interrupt
 292:.\Generated_Source\PSoC4/UART.c **** *  handler performs any operation such as software buffer management functions
ARM GAS  C:\Users\GLENNL~1\AppData\Local\Temp\ccIQWowR.s 			page 11


 293:.\Generated_Source\PSoC4/UART.c **** *  before the interrupt returns.  It is the user's responsibility not to break
 294:.\Generated_Source\PSoC4/UART.c **** *  the software buffer operations. Only one custom handler is supported, which
 295:.\Generated_Source\PSoC4/UART.c **** *  is the function provided by the most recent call.
 296:.\Generated_Source\PSoC4/UART.c **** *  At the initialization time no custom handler is registered.
 297:.\Generated_Source\PSoC4/UART.c **** *
 298:.\Generated_Source\PSoC4/UART.c **** * Parameters:
 299:.\Generated_Source\PSoC4/UART.c **** *  func: Pointer to the function to register.
 300:.\Generated_Source\PSoC4/UART.c **** *        The value NULL indicates to remove the current custom interrupt
 301:.\Generated_Source\PSoC4/UART.c **** *        handler.
 302:.\Generated_Source\PSoC4/UART.c **** *
 303:.\Generated_Source\PSoC4/UART.c **** * Return:
 304:.\Generated_Source\PSoC4/UART.c **** *  None
 305:.\Generated_Source\PSoC4/UART.c **** *
 306:.\Generated_Source\PSoC4/UART.c **** *******************************************************************************/
 307:.\Generated_Source\PSoC4/UART.c **** void UART_SetCustomInterruptHandler(cyisraddress func)
 308:.\Generated_Source\PSoC4/UART.c **** {
 279              		.loc 1 308 0
 280              		.cfi_startproc
 281 0000 80B5     		push	{r7, lr}
 282              		.cfi_def_cfa_offset 8
 283              		.cfi_offset 7, -8
 284              		.cfi_offset 14, -4
 285 0002 82B0     		sub	sp, sp, #8
 286              		.cfi_def_cfa_offset 16
 287 0004 00AF     		add	r7, sp, #0
 288              		.cfi_def_cfa_register 7
 289 0006 7860     		str	r0, [r7, #4]
 309:.\Generated_Source\PSoC4/UART.c **** #if !defined (CY_REMOVE_UART_CUSTOM_INTR_HANDLER)
 310:.\Generated_Source\PSoC4/UART.c ****     UART_customIntrHandler = func; /* Register interrupt handler */
 290              		.loc 1 310 0
 291 0008 024B     		ldr	r3, .L19
 292 000a 7A68     		ldr	r2, [r7, #4]
 293 000c 1A60     		str	r2, [r3]
 311:.\Generated_Source\PSoC4/UART.c **** #else
 312:.\Generated_Source\PSoC4/UART.c ****     if(NULL != func)
 313:.\Generated_Source\PSoC4/UART.c ****     {
 314:.\Generated_Source\PSoC4/UART.c ****         /* Suppress compiler warning */
 315:.\Generated_Source\PSoC4/UART.c ****     }
 316:.\Generated_Source\PSoC4/UART.c **** #endif /* !defined (CY_REMOVE_UART_CUSTOM_INTR_HANDLER) */
 317:.\Generated_Source\PSoC4/UART.c **** }
 294              		.loc 1 317 0
 295 000e BD46     		mov	sp, r7
 296 0010 02B0     		add	sp, sp, #8
 297              		@ sp needed
 298 0012 80BD     		pop	{r7, pc}
 299              	.L20:
 300              		.align	2
 301              	.L19:
 302 0014 00000000 		.word	UART_customIntrHandler
 303              		.cfi_endproc
 304              	.LFE8:
 305              		.size	UART_SetCustomInterruptHandler, .-UART_SetCustomInterruptHandler
 306              		.section	.text.UART_ScbEnableIntr,"ax",%progbits
 307              		.align	2
 308              		.code	16
 309              		.thumb_func
 310              		.type	UART_ScbEnableIntr, %function
ARM GAS  C:\Users\GLENNL~1\AppData\Local\Temp\ccIQWowR.s 			page 12


 311              	UART_ScbEnableIntr:
 312              	.LFB9:
 318:.\Generated_Source\PSoC4/UART.c **** 
 319:.\Generated_Source\PSoC4/UART.c **** 
 320:.\Generated_Source\PSoC4/UART.c **** /*******************************************************************************
 321:.\Generated_Source\PSoC4/UART.c **** * Function Name: UART_ScbModeEnableIntr
 322:.\Generated_Source\PSoC4/UART.c **** ********************************************************************************
 323:.\Generated_Source\PSoC4/UART.c **** *
 324:.\Generated_Source\PSoC4/UART.c **** * Summary:
 325:.\Generated_Source\PSoC4/UART.c **** *  Enables an interrupt for a specific mode.
 326:.\Generated_Source\PSoC4/UART.c **** *
 327:.\Generated_Source\PSoC4/UART.c **** * Parameters:
 328:.\Generated_Source\PSoC4/UART.c **** *  None
 329:.\Generated_Source\PSoC4/UART.c **** *
 330:.\Generated_Source\PSoC4/UART.c **** * Return:
 331:.\Generated_Source\PSoC4/UART.c **** *  None
 332:.\Generated_Source\PSoC4/UART.c **** *
 333:.\Generated_Source\PSoC4/UART.c **** *******************************************************************************/
 334:.\Generated_Source\PSoC4/UART.c **** static void UART_ScbEnableIntr(void)
 335:.\Generated_Source\PSoC4/UART.c **** {
 313              		.loc 1 335 0
 314              		.cfi_startproc
 315 0000 80B5     		push	{r7, lr}
 316              		.cfi_def_cfa_offset 8
 317              		.cfi_offset 7, -8
 318              		.cfi_offset 14, -4
 319 0002 00AF     		add	r7, sp, #0
 320              		.cfi_def_cfa_register 7
 336:.\Generated_Source\PSoC4/UART.c **** #if(UART_SCB_IRQ_INTERNAL)
 337:.\Generated_Source\PSoC4/UART.c ****     #if(UART_SCB_MODE_UNCONFIG_CONST_CFG)
 338:.\Generated_Source\PSoC4/UART.c ****         /* Enable interrupt in NVIC */
 339:.\Generated_Source\PSoC4/UART.c ****         if(0u != UART_scbEnableIntr)
 340:.\Generated_Source\PSoC4/UART.c ****         {
 341:.\Generated_Source\PSoC4/UART.c ****             UART_EnableInt();
 342:.\Generated_Source\PSoC4/UART.c ****         }
 343:.\Generated_Source\PSoC4/UART.c ****     #else
 344:.\Generated_Source\PSoC4/UART.c ****         UART_EnableInt();
 345:.\Generated_Source\PSoC4/UART.c **** 
 346:.\Generated_Source\PSoC4/UART.c ****     #endif /* (UART_SCB_MODE_UNCONFIG_CONST_CFG) */
 347:.\Generated_Source\PSoC4/UART.c **** #endif /* (UART_SCB_IRQ_INTERNAL) */
 348:.\Generated_Source\PSoC4/UART.c **** }
 321              		.loc 1 348 0
 322 0004 BD46     		mov	sp, r7
 323              		@ sp needed
 324 0006 80BD     		pop	{r7, pc}
 325              		.cfi_endproc
 326              	.LFE9:
 327              		.size	UART_ScbEnableIntr, .-UART_ScbEnableIntr
 328              		.section	.text.UART_ScbModeStop,"ax",%progbits
 329              		.align	2
 330              		.code	16
 331              		.thumb_func
 332              		.type	UART_ScbModeStop, %function
 333              	UART_ScbModeStop:
 334              	.LFB10:
 349:.\Generated_Source\PSoC4/UART.c **** 
 350:.\Generated_Source\PSoC4/UART.c **** 
ARM GAS  C:\Users\GLENNL~1\AppData\Local\Temp\ccIQWowR.s 			page 13


 351:.\Generated_Source\PSoC4/UART.c **** /*******************************************************************************
 352:.\Generated_Source\PSoC4/UART.c **** * Function Name: UART_ScbModeStop
 353:.\Generated_Source\PSoC4/UART.c **** ********************************************************************************
 354:.\Generated_Source\PSoC4/UART.c **** *
 355:.\Generated_Source\PSoC4/UART.c **** * Summary:
 356:.\Generated_Source\PSoC4/UART.c **** *  Calls the Stop function for a specific operation mode.
 357:.\Generated_Source\PSoC4/UART.c **** *
 358:.\Generated_Source\PSoC4/UART.c **** * Parameters:
 359:.\Generated_Source\PSoC4/UART.c **** *  None
 360:.\Generated_Source\PSoC4/UART.c **** *
 361:.\Generated_Source\PSoC4/UART.c **** * Return:
 362:.\Generated_Source\PSoC4/UART.c **** *  None
 363:.\Generated_Source\PSoC4/UART.c **** *
 364:.\Generated_Source\PSoC4/UART.c **** *******************************************************************************/
 365:.\Generated_Source\PSoC4/UART.c **** static void UART_ScbModeStop(void)
 366:.\Generated_Source\PSoC4/UART.c **** {
 335              		.loc 1 366 0
 336              		.cfi_startproc
 337 0000 80B5     		push	{r7, lr}
 338              		.cfi_def_cfa_offset 8
 339              		.cfi_offset 7, -8
 340              		.cfi_offset 14, -4
 341 0002 00AF     		add	r7, sp, #0
 342              		.cfi_def_cfa_register 7
 367:.\Generated_Source\PSoC4/UART.c **** #if(UART_SCB_MODE_UNCONFIG_CONST_CFG)
 368:.\Generated_Source\PSoC4/UART.c ****     if(UART_SCB_MODE_I2C_RUNTM_CFG)
 369:.\Generated_Source\PSoC4/UART.c ****     {
 370:.\Generated_Source\PSoC4/UART.c ****         UART_I2CStop();
 371:.\Generated_Source\PSoC4/UART.c ****     }
 372:.\Generated_Source\PSoC4/UART.c ****     else if (UART_SCB_MODE_EZI2C_RUNTM_CFG)
 373:.\Generated_Source\PSoC4/UART.c ****     {
 374:.\Generated_Source\PSoC4/UART.c ****         UART_EzI2CStop();
 375:.\Generated_Source\PSoC4/UART.c ****     }
 376:.\Generated_Source\PSoC4/UART.c **** #if (!UART_CY_SCBIP_V1)
 377:.\Generated_Source\PSoC4/UART.c ****     else if (UART_SCB_MODE_UART_RUNTM_CFG)
 378:.\Generated_Source\PSoC4/UART.c ****     {
 379:.\Generated_Source\PSoC4/UART.c ****         UART_UartStop();
 380:.\Generated_Source\PSoC4/UART.c ****     }
 381:.\Generated_Source\PSoC4/UART.c **** #endif /* (!UART_CY_SCBIP_V1) */
 382:.\Generated_Source\PSoC4/UART.c ****     else
 383:.\Generated_Source\PSoC4/UART.c ****     {
 384:.\Generated_Source\PSoC4/UART.c ****         /* Do nothing for other modes */
 385:.\Generated_Source\PSoC4/UART.c ****     }
 386:.\Generated_Source\PSoC4/UART.c **** #elif(UART_SCB_MODE_I2C_CONST_CFG)
 387:.\Generated_Source\PSoC4/UART.c ****     UART_I2CStop();
 388:.\Generated_Source\PSoC4/UART.c **** 
 389:.\Generated_Source\PSoC4/UART.c **** #elif(UART_SCB_MODE_EZI2C_CONST_CFG)
 390:.\Generated_Source\PSoC4/UART.c ****     UART_EzI2CStop();
 391:.\Generated_Source\PSoC4/UART.c **** 
 392:.\Generated_Source\PSoC4/UART.c **** #elif(UART_SCB_MODE_UART_CONST_CFG)
 393:.\Generated_Source\PSoC4/UART.c ****     UART_UartStop();
 394:.\Generated_Source\PSoC4/UART.c **** 
 395:.\Generated_Source\PSoC4/UART.c **** #endif /* (UART_SCB_MODE_UNCONFIG_CONST_CFG) */
 396:.\Generated_Source\PSoC4/UART.c **** }
 343              		.loc 1 396 0
 344 0004 BD46     		mov	sp, r7
 345              		@ sp needed
ARM GAS  C:\Users\GLENNL~1\AppData\Local\Temp\ccIQWowR.s 			page 14


 346 0006 80BD     		pop	{r7, pc}
 347              		.cfi_endproc
 348              	.LFE10:
 349              		.size	UART_ScbModeStop, .-UART_ScbModeStop
 350              		.text
 351              	.Letext0:
 352              		.file 2 ".\\Generated_Source\\PSoC4/cytypes.h"