ARM GAS  C:\Users\GLENNL~1\AppData\Local\Temp\cc6O9otf.s 			page 1


   1              		.cpu cortex-m0
   2              		.fpu softvfp
   3              		.eabi_attribute 20, 1
   4              		.eabi_attribute 21, 1
   5              		.eabi_attribute 23, 3
   6              		.eabi_attribute 24, 1
   7              		.eabi_attribute 25, 1
   8              		.eabi_attribute 26, 1
   9              		.eabi_attribute 30, 6
  10              		.eabi_attribute 34, 0
  11              		.eabi_attribute 18, 4
  12              		.code	16
  13              		.file	"binReg.c"
  14              		.text
  15              	.Ltext0:
  16              		.cfi_sections	.debug_frame
  17              		.section	.text.binReg_Write,"ax",%progbits
  18              		.align	2
  19              		.global	binReg_Write
  20              		.code	16
  21              		.thumb_func
  22              		.type	binReg_Write, %function
  23              	binReg_Write:
  24              	.LFB0:
  25              		.file 1 ".\\Generated_Source\\PSoC4\\binReg.c"
   1:.\Generated_Source\PSoC4/binReg.c **** /*******************************************************************************
   2:.\Generated_Source\PSoC4/binReg.c **** * File Name: binReg.c  
   3:.\Generated_Source\PSoC4/binReg.c **** * Version 1.70
   4:.\Generated_Source\PSoC4/binReg.c **** *
   5:.\Generated_Source\PSoC4/binReg.c **** * Description:
   6:.\Generated_Source\PSoC4/binReg.c **** *  This file contains API to enable firmware control of a Control Register.
   7:.\Generated_Source\PSoC4/binReg.c **** *
   8:.\Generated_Source\PSoC4/binReg.c **** * Note:
   9:.\Generated_Source\PSoC4/binReg.c **** *
  10:.\Generated_Source\PSoC4/binReg.c **** ********************************************************************************
  11:.\Generated_Source\PSoC4/binReg.c **** * Copyright 2008-2012, Cypress Semiconductor Corporation.  All rights reserved.
  12:.\Generated_Source\PSoC4/binReg.c **** * You may use this file only in accordance with the license, terms, conditions, 
  13:.\Generated_Source\PSoC4/binReg.c **** * disclaimers, and limitations in the end user license agreement accompanying 
  14:.\Generated_Source\PSoC4/binReg.c **** * the software package with which this file was provided.
  15:.\Generated_Source\PSoC4/binReg.c **** *******************************************************************************/
  16:.\Generated_Source\PSoC4/binReg.c **** 
  17:.\Generated_Source\PSoC4/binReg.c **** #include "binReg.h"
  18:.\Generated_Source\PSoC4/binReg.c **** 
  19:.\Generated_Source\PSoC4/binReg.c **** #if !defined(binReg_Sync_ctrl_reg__REMOVED) /* Check for removal by optimization */
  20:.\Generated_Source\PSoC4/binReg.c **** 
  21:.\Generated_Source\PSoC4/binReg.c **** /*******************************************************************************
  22:.\Generated_Source\PSoC4/binReg.c **** * Function Name: binReg_Write
  23:.\Generated_Source\PSoC4/binReg.c **** ********************************************************************************
  24:.\Generated_Source\PSoC4/binReg.c **** *
  25:.\Generated_Source\PSoC4/binReg.c **** * Summary:
  26:.\Generated_Source\PSoC4/binReg.c **** *  Write a byte to the Control Register.
  27:.\Generated_Source\PSoC4/binReg.c **** *
  28:.\Generated_Source\PSoC4/binReg.c **** * Parameters:
  29:.\Generated_Source\PSoC4/binReg.c **** *  control:  The value to be assigned to the Control Register.
  30:.\Generated_Source\PSoC4/binReg.c **** *
  31:.\Generated_Source\PSoC4/binReg.c **** * Return:
  32:.\Generated_Source\PSoC4/binReg.c **** *  None.
ARM GAS  C:\Users\GLENNL~1\AppData\Local\Temp\cc6O9otf.s 			page 2


  33:.\Generated_Source\PSoC4/binReg.c **** *
  34:.\Generated_Source\PSoC4/binReg.c **** *******************************************************************************/
  35:.\Generated_Source\PSoC4/binReg.c **** void binReg_Write(uint8 control) 
  36:.\Generated_Source\PSoC4/binReg.c **** {
  26              		.loc 1 36 0
  27              		.cfi_startproc
  28 0000 80B5     		push	{r7, lr}
  29              	.LCFI0:
  30              		.cfi_def_cfa_offset 8
  31              		.cfi_offset 7, -8
  32              		.cfi_offset 14, -4
  33 0002 82B0     		sub	sp, sp, #8
  34              	.LCFI1:
  35              		.cfi_def_cfa_offset 16
  36 0004 00AF     		add	r7, sp, #0
  37              	.LCFI2:
  38              		.cfi_def_cfa_register 7
  39 0006 021C     		mov	r2, r0
  40 0008 FB1D     		add	r3, r7, #7
  41 000a 1A70     		strb	r2, [r3]
  37:.\Generated_Source\PSoC4/binReg.c ****     binReg_Control = control;
  42              		.loc 1 37 0
  43 000c 034B     		ldr	r3, .L2
  44 000e FA1D     		add	r2, r7, #7
  45 0010 1278     		ldrb	r2, [r2]
  46 0012 1A70     		strb	r2, [r3]
  38:.\Generated_Source\PSoC4/binReg.c **** }
  47              		.loc 1 38 0
  48 0014 BD46     		mov	sp, r7
  49 0016 02B0     		add	sp, sp, #8
  50              		@ sp needed for prologue
  51 0018 80BD     		pop	{r7, pc}
  52              	.L3:
  53 001a C046     		.align	2
  54              	.L2:
  55 001c 72000F40 		.word	1074724978
  56              		.cfi_endproc
  57              	.LFE0:
  58              		.size	binReg_Write, .-binReg_Write
  59              		.section	.text.binReg_Read,"ax",%progbits
  60              		.align	2
  61              		.global	binReg_Read
  62              		.code	16
  63              		.thumb_func
  64              		.type	binReg_Read, %function
  65              	binReg_Read:
  66              	.LFB1:
  39:.\Generated_Source\PSoC4/binReg.c **** 
  40:.\Generated_Source\PSoC4/binReg.c **** 
  41:.\Generated_Source\PSoC4/binReg.c **** /*******************************************************************************
  42:.\Generated_Source\PSoC4/binReg.c **** * Function Name: binReg_Read
  43:.\Generated_Source\PSoC4/binReg.c **** ********************************************************************************
  44:.\Generated_Source\PSoC4/binReg.c **** *
  45:.\Generated_Source\PSoC4/binReg.c **** * Summary:
  46:.\Generated_Source\PSoC4/binReg.c **** *  Reads the current value assigned to the Control Register.
  47:.\Generated_Source\PSoC4/binReg.c **** *
  48:.\Generated_Source\PSoC4/binReg.c **** * Parameters:
ARM GAS  C:\Users\GLENNL~1\AppData\Local\Temp\cc6O9otf.s 			page 3


  49:.\Generated_Source\PSoC4/binReg.c **** *  None.
  50:.\Generated_Source\PSoC4/binReg.c **** *
  51:.\Generated_Source\PSoC4/binReg.c **** * Return:
  52:.\Generated_Source\PSoC4/binReg.c **** *  Returns the current value in the Control Register.
  53:.\Generated_Source\PSoC4/binReg.c **** *
  54:.\Generated_Source\PSoC4/binReg.c **** *******************************************************************************/
  55:.\Generated_Source\PSoC4/binReg.c **** uint8 binReg_Read(void) 
  56:.\Generated_Source\PSoC4/binReg.c **** {
  67              		.loc 1 56 0
  68              		.cfi_startproc
  69 0000 80B5     		push	{r7, lr}
  70              	.LCFI3:
  71              		.cfi_def_cfa_offset 8
  72              		.cfi_offset 7, -8
  73              		.cfi_offset 14, -4
  74 0002 00AF     		add	r7, sp, #0
  75              	.LCFI4:
  76              		.cfi_def_cfa_register 7
  57:.\Generated_Source\PSoC4/binReg.c ****     return binReg_Control;
  77              		.loc 1 57 0
  78 0004 024B     		ldr	r3, .L6
  79 0006 1B78     		ldrb	r3, [r3]
  80 0008 DBB2     		uxtb	r3, r3
  58:.\Generated_Source\PSoC4/binReg.c **** }
  81              		.loc 1 58 0
  82 000a 181C     		mov	r0, r3
  83 000c BD46     		mov	sp, r7
  84              		@ sp needed for prologue
  85 000e 80BD     		pop	{r7, pc}
  86              	.L7:
  87              		.align	2
  88              	.L6:
  89 0010 72000F40 		.word	1074724978
  90              		.cfi_endproc
  91              	.LFE1:
  92              		.size	binReg_Read, .-binReg_Read
  93              		.text
  94              	.Letext0:
  95              		.file 2 ".\\Generated_Source\\PSoC4\\cytypes.h"