ARM GAS  C:\Users\GLENNL~1\AppData\Local\Temp\cc3qUjHy.s 			page 1


   1              		.cpu cortex-m0
   2              		.fpu softvfp
   3              		.eabi_attribute 20, 1
   4              		.eabi_attribute 21, 1
   5              		.eabi_attribute 23, 3
   6              		.eabi_attribute 24, 1
   7              		.eabi_attribute 25, 1
   8              		.eabi_attribute 26, 1
   9              		.eabi_attribute 30, 6
  10              		.eabi_attribute 34, 0
  11              		.eabi_attribute 18, 4
  12              		.code	16
  13              		.file	"cyfitter_cfg.c"
  14              		.text
  15              	.Ltext0:
  16              		.cfi_sections	.debug_frame
  17              		.section	.text.CYMEMZERO,"ax",%progbits
  18              		.align	2
  19              		.code	16
  20              		.thumb_func
  21              		.type	CYMEMZERO, %function
  22              	CYMEMZERO:
  23              	.LFB0:
  24              		.file 1 ".\\Generated_Source\\PSoC4\\cyfitter_cfg.c"
   1:.\Generated_Source\PSoC4/cyfitter_cfg.c **** /*******************************************************************************
   2:.\Generated_Source\PSoC4/cyfitter_cfg.c **** * FILENAME: cyfitter_cfg.c
   3:.\Generated_Source\PSoC4/cyfitter_cfg.c **** * PSoC Creator 3.0 SP2
   4:.\Generated_Source\PSoC4/cyfitter_cfg.c **** *
   5:.\Generated_Source\PSoC4/cyfitter_cfg.c **** * Description:
   6:.\Generated_Source\PSoC4/cyfitter_cfg.c **** * This file is automatically generated by PSoC Creator with device 
   7:.\Generated_Source\PSoC4/cyfitter_cfg.c **** * initialization code.  Except for the user defined sections in
   8:.\Generated_Source\PSoC4/cyfitter_cfg.c **** * CyClockStartupError(), this file should not be modified.
   9:.\Generated_Source\PSoC4/cyfitter_cfg.c **** *
  10:.\Generated_Source\PSoC4/cyfitter_cfg.c **** ********************************************************************************
  11:.\Generated_Source\PSoC4/cyfitter_cfg.c **** * Copyright 2013, Cypress Semiconductor Corporation.  All rights reserved.
  12:.\Generated_Source\PSoC4/cyfitter_cfg.c **** * You may use this file only in accordance with the license, terms, conditions, 
  13:.\Generated_Source\PSoC4/cyfitter_cfg.c **** * disclaimers, and limitations in the end user license agreement accompanying 
  14:.\Generated_Source\PSoC4/cyfitter_cfg.c **** * the software package with which this file was provided.
  15:.\Generated_Source\PSoC4/cyfitter_cfg.c **** ********************************************************************************/
  16:.\Generated_Source\PSoC4/cyfitter_cfg.c **** 
  17:.\Generated_Source\PSoC4/cyfitter_cfg.c **** #include <string.h>
  18:.\Generated_Source\PSoC4/cyfitter_cfg.c **** #include <cytypes.h>
  19:.\Generated_Source\PSoC4/cyfitter_cfg.c **** #include <cydevice_trm.h>
  20:.\Generated_Source\PSoC4/cyfitter_cfg.c **** #include <cyfitter.h>
  21:.\Generated_Source\PSoC4/cyfitter_cfg.c **** #include <CyLib.h>
  22:.\Generated_Source\PSoC4/cyfitter_cfg.c **** #include <cyfitter_cfg.h>
  23:.\Generated_Source\PSoC4/cyfitter_cfg.c **** 
  24:.\Generated_Source\PSoC4/cyfitter_cfg.c **** 
  25:.\Generated_Source\PSoC4/cyfitter_cfg.c **** #if defined(__GNUC__) || defined(__ARMCC_VERSION)
  26:.\Generated_Source\PSoC4/cyfitter_cfg.c ****     #define CYPACKED 
  27:.\Generated_Source\PSoC4/cyfitter_cfg.c ****     #define CYPACKED_ATTR __attribute__ ((packed))
  28:.\Generated_Source\PSoC4/cyfitter_cfg.c ****     #define CYALIGNED __attribute__ ((aligned))
  29:.\Generated_Source\PSoC4/cyfitter_cfg.c ****     #define CY_CFG_UNUSED __attribute__ ((unused))
  30:.\Generated_Source\PSoC4/cyfitter_cfg.c ****     #define CY_CFG_SECTION __attribute__ ((section(".psocinit")))
  31:.\Generated_Source\PSoC4/cyfitter_cfg.c ****     
  32:.\Generated_Source\PSoC4/cyfitter_cfg.c ****     #if defined(__ARMCC_VERSION)
  33:.\Generated_Source\PSoC4/cyfitter_cfg.c ****         #define CY_CFG_MEMORY_BARRIER() __memory_changed()
ARM GAS  C:\Users\GLENNL~1\AppData\Local\Temp\cc3qUjHy.s 			page 2


  34:.\Generated_Source\PSoC4/cyfitter_cfg.c ****     #else
  35:.\Generated_Source\PSoC4/cyfitter_cfg.c ****         #define CY_CFG_MEMORY_BARRIER() __sync_synchronize()
  36:.\Generated_Source\PSoC4/cyfitter_cfg.c ****     #endif
  37:.\Generated_Source\PSoC4/cyfitter_cfg.c ****     
  38:.\Generated_Source\PSoC4/cyfitter_cfg.c **** #elif defined(__ICCARM__)
  39:.\Generated_Source\PSoC4/cyfitter_cfg.c ****     #include <intrinsics.h>
  40:.\Generated_Source\PSoC4/cyfitter_cfg.c **** 
  41:.\Generated_Source\PSoC4/cyfitter_cfg.c ****     #define CYPACKED __packed
  42:.\Generated_Source\PSoC4/cyfitter_cfg.c ****     #define CYPACKED_ATTR 
  43:.\Generated_Source\PSoC4/cyfitter_cfg.c ****     #define CYALIGNED _Pragma("data_alignment=4")
  44:.\Generated_Source\PSoC4/cyfitter_cfg.c ****     #define CY_CFG_UNUSED _Pragma("diag_suppress=Pe177")
  45:.\Generated_Source\PSoC4/cyfitter_cfg.c ****     #define CY_CFG_SECTION _Pragma("location=\".psocinit\"")
  46:.\Generated_Source\PSoC4/cyfitter_cfg.c ****     
  47:.\Generated_Source\PSoC4/cyfitter_cfg.c ****     #define CY_CFG_MEMORY_BARRIER() __DMB()
  48:.\Generated_Source\PSoC4/cyfitter_cfg.c ****     
  49:.\Generated_Source\PSoC4/cyfitter_cfg.c **** #else
  50:.\Generated_Source\PSoC4/cyfitter_cfg.c ****     #error Unsupported toolchain
  51:.\Generated_Source\PSoC4/cyfitter_cfg.c **** #endif
  52:.\Generated_Source\PSoC4/cyfitter_cfg.c **** 
  53:.\Generated_Source\PSoC4/cyfitter_cfg.c **** 
  54:.\Generated_Source\PSoC4/cyfitter_cfg.c **** CY_CFG_UNUSED
  55:.\Generated_Source\PSoC4/cyfitter_cfg.c **** static void CYMEMZERO(void *s, size_t n);
  56:.\Generated_Source\PSoC4/cyfitter_cfg.c **** CY_CFG_UNUSED
  57:.\Generated_Source\PSoC4/cyfitter_cfg.c **** static void CYMEMZERO(void *s, size_t n)
  58:.\Generated_Source\PSoC4/cyfitter_cfg.c **** {
  25              		.loc 1 58 0
  26              		.cfi_startproc
  27 0000 80B5     		push	{r7, lr}
  28              	.LCFI0:
  29              		.cfi_def_cfa_offset 8
  30              		.cfi_offset 7, -8
  31              		.cfi_offset 14, -4
  32 0002 82B0     		sub	sp, sp, #8
  33              	.LCFI1:
  34              		.cfi_def_cfa_offset 16
  35 0004 00AF     		add	r7, sp, #0
  36              	.LCFI2:
  37              		.cfi_def_cfa_register 7
  38 0006 7860     		str	r0, [r7, #4]
  39 0008 3960     		str	r1, [r7]
  59:.\Generated_Source\PSoC4/cyfitter_cfg.c **** 	(void)memset(s, 0, n);
  40              		.loc 1 59 0
  41 000a 7A68     		ldr	r2, [r7, #4]
  42 000c 3B68     		ldr	r3, [r7]
  43 000e 101C     		mov	r0, r2
  44 0010 0021     		mov	r1, #0
  45 0012 1A1C     		mov	r2, r3
  46 0014 FFF7FEFF 		bl	memset
  60:.\Generated_Source\PSoC4/cyfitter_cfg.c **** }
  47              		.loc 1 60 0
  48 0018 BD46     		mov	sp, r7
  49 001a 02B0     		add	sp, sp, #8
  50              		@ sp needed for prologue
  51 001c 80BD     		pop	{r7, pc}
  52              		.cfi_endproc
  53              	.LFE0:
  54              		.size	CYMEMZERO, .-CYMEMZERO
ARM GAS  C:\Users\GLENNL~1\AppData\Local\Temp\cc3qUjHy.s 			page 3


  55 001e C046     		.section	.text.CYCONFIGCPY,"ax",%progbits
  56              		.align	2
  57              		.code	16
  58              		.thumb_func
  59              		.type	CYCONFIGCPY, %function
  60              	CYCONFIGCPY:
  61              	.LFB1:
  61:.\Generated_Source\PSoC4/cyfitter_cfg.c **** CY_CFG_UNUSED
  62:.\Generated_Source\PSoC4/cyfitter_cfg.c **** static void CYCONFIGCPY(void *dest, const void *src, size_t n);
  63:.\Generated_Source\PSoC4/cyfitter_cfg.c **** CY_CFG_UNUSED
  64:.\Generated_Source\PSoC4/cyfitter_cfg.c **** static void CYCONFIGCPY(void *dest, const void *src, size_t n)
  65:.\Generated_Source\PSoC4/cyfitter_cfg.c **** {
  62              		.loc 1 65 0
  63              		.cfi_startproc
  64 0000 80B5     		push	{r7, lr}
  65              	.LCFI3:
  66              		.cfi_def_cfa_offset 8
  67              		.cfi_offset 7, -8
  68              		.cfi_offset 14, -4
  69 0002 84B0     		sub	sp, sp, #16
  70              	.LCFI4:
  71              		.cfi_def_cfa_offset 24
  72 0004 00AF     		add	r7, sp, #0
  73              	.LCFI5:
  74              		.cfi_def_cfa_register 7
  75 0006 F860     		str	r0, [r7, #12]
  76 0008 B960     		str	r1, [r7, #8]
  77 000a 7A60     		str	r2, [r7, #4]
  66:.\Generated_Source\PSoC4/cyfitter_cfg.c **** 	(void)memcpy(dest, src, n);
  78              		.loc 1 66 0
  79 000c F968     		ldr	r1, [r7, #12]
  80 000e BA68     		ldr	r2, [r7, #8]
  81 0010 7B68     		ldr	r3, [r7, #4]
  82 0012 081C     		mov	r0, r1
  83 0014 111C     		mov	r1, r2
  84 0016 1A1C     		mov	r2, r3
  85 0018 FFF7FEFF 		bl	memcpy
  67:.\Generated_Source\PSoC4/cyfitter_cfg.c **** }
  86              		.loc 1 67 0
  87 001c BD46     		mov	sp, r7
  88 001e 04B0     		add	sp, sp, #16
  89              		@ sp needed for prologue
  90 0020 80BD     		pop	{r7, pc}
  91              		.cfi_endproc
  92              	.LFE1:
  93              		.size	CYCONFIGCPY, .-CYCONFIGCPY
  94 0022 C046     		.section	.text.CYCONFIGCPYCODE,"ax",%progbits
  95              		.align	2
  96              		.code	16
  97              		.thumb_func
  98              		.type	CYCONFIGCPYCODE, %function
  99              	CYCONFIGCPYCODE:
 100              	.LFB2:
  68:.\Generated_Source\PSoC4/cyfitter_cfg.c **** CY_CFG_UNUSED
  69:.\Generated_Source\PSoC4/cyfitter_cfg.c **** static void CYCONFIGCPYCODE(void *dest, const void *src, size_t n);
  70:.\Generated_Source\PSoC4/cyfitter_cfg.c **** CY_CFG_UNUSED
  71:.\Generated_Source\PSoC4/cyfitter_cfg.c **** static void CYCONFIGCPYCODE(void *dest, const void *src, size_t n)
ARM GAS  C:\Users\GLENNL~1\AppData\Local\Temp\cc3qUjHy.s 			page 4


  72:.\Generated_Source\PSoC4/cyfitter_cfg.c **** {
 101              		.loc 1 72 0
 102              		.cfi_startproc
 103 0000 80B5     		push	{r7, lr}
 104              	.LCFI6:
 105              		.cfi_def_cfa_offset 8
 106              		.cfi_offset 7, -8
 107              		.cfi_offset 14, -4
 108 0002 84B0     		sub	sp, sp, #16
 109              	.LCFI7:
 110              		.cfi_def_cfa_offset 24
 111 0004 00AF     		add	r7, sp, #0
 112              	.LCFI8:
 113              		.cfi_def_cfa_register 7
 114 0006 F860     		str	r0, [r7, #12]
 115 0008 B960     		str	r1, [r7, #8]
 116 000a 7A60     		str	r2, [r7, #4]
  73:.\Generated_Source\PSoC4/cyfitter_cfg.c **** 	(void)memcpy(dest, src, n);
 117              		.loc 1 73 0
 118 000c F968     		ldr	r1, [r7, #12]
 119 000e BA68     		ldr	r2, [r7, #8]
 120 0010 7B68     		ldr	r3, [r7, #4]
 121 0012 081C     		mov	r0, r1
 122 0014 111C     		mov	r1, r2
 123 0016 1A1C     		mov	r2, r3
 124 0018 FFF7FEFF 		bl	memcpy
  74:.\Generated_Source\PSoC4/cyfitter_cfg.c **** }
 125              		.loc 1 74 0
 126 001c BD46     		mov	sp, r7
 127 001e 04B0     		add	sp, sp, #16
 128              		@ sp needed for prologue
 129 0020 80BD     		pop	{r7, pc}
 130              		.cfi_endproc
 131              	.LFE2:
 132              		.size	CYCONFIGCPYCODE, .-CYCONFIGCPYCODE
 133 0022 C046     		.section	.text.cfg_write_bytes32,"ax",%progbits
 134              		.align	2
 135              		.code	16
 136              		.thumb_func
 137              		.type	cfg_write_bytes32, %function
 138              	cfg_write_bytes32:
 139              	.LFB3:
  75:.\Generated_Source\PSoC4/cyfitter_cfg.c **** 
  76:.\Generated_Source\PSoC4/cyfitter_cfg.c **** 
  77:.\Generated_Source\PSoC4/cyfitter_cfg.c **** 
  78:.\Generated_Source\PSoC4/cyfitter_cfg.c **** /* Clock startup error codes                                                   */
  79:.\Generated_Source\PSoC4/cyfitter_cfg.c **** #define CYCLOCKSTART_NO_ERROR    0u
  80:.\Generated_Source\PSoC4/cyfitter_cfg.c **** #define CYCLOCKSTART_XTAL_ERROR  1u
  81:.\Generated_Source\PSoC4/cyfitter_cfg.c **** #define CYCLOCKSTART_32KHZ_ERROR 2u
  82:.\Generated_Source\PSoC4/cyfitter_cfg.c **** #define CYCLOCKSTART_PLL_ERROR   3u
  83:.\Generated_Source\PSoC4/cyfitter_cfg.c **** 
  84:.\Generated_Source\PSoC4/cyfitter_cfg.c **** #ifdef CY_NEED_CYCLOCKSTARTUPERROR
  85:.\Generated_Source\PSoC4/cyfitter_cfg.c **** /*******************************************************************************
  86:.\Generated_Source\PSoC4/cyfitter_cfg.c **** * Function Name: CyClockStartupError
  87:.\Generated_Source\PSoC4/cyfitter_cfg.c **** ********************************************************************************
  88:.\Generated_Source\PSoC4/cyfitter_cfg.c **** * Summary:
  89:.\Generated_Source\PSoC4/cyfitter_cfg.c **** *  If an error is encountered during clock configuration (crystal startup error,
ARM GAS  C:\Users\GLENNL~1\AppData\Local\Temp\cc3qUjHy.s 			page 5


  90:.\Generated_Source\PSoC4/cyfitter_cfg.c **** *  PLL lock error, etc.), the system will end up here.  Unless reimplemented by
  91:.\Generated_Source\PSoC4/cyfitter_cfg.c **** *  the customer, this function will stop in an infinite loop.
  92:.\Generated_Source\PSoC4/cyfitter_cfg.c **** *
  93:.\Generated_Source\PSoC4/cyfitter_cfg.c **** * Parameters:
  94:.\Generated_Source\PSoC4/cyfitter_cfg.c **** *   void
  95:.\Generated_Source\PSoC4/cyfitter_cfg.c **** *
  96:.\Generated_Source\PSoC4/cyfitter_cfg.c **** * Return:
  97:.\Generated_Source\PSoC4/cyfitter_cfg.c **** *   void
  98:.\Generated_Source\PSoC4/cyfitter_cfg.c **** *
  99:.\Generated_Source\PSoC4/cyfitter_cfg.c **** *******************************************************************************/
 100:.\Generated_Source\PSoC4/cyfitter_cfg.c **** CY_CFG_UNUSED
 101:.\Generated_Source\PSoC4/cyfitter_cfg.c **** static void CyClockStartupError(uint8 errorCode);
 102:.\Generated_Source\PSoC4/cyfitter_cfg.c **** CY_CFG_UNUSED
 103:.\Generated_Source\PSoC4/cyfitter_cfg.c **** static void CyClockStartupError(uint8 errorCode)
 104:.\Generated_Source\PSoC4/cyfitter_cfg.c **** {
 105:.\Generated_Source\PSoC4/cyfitter_cfg.c ****     /* To remove the compiler warning if errorCode not used.                */
 106:.\Generated_Source\PSoC4/cyfitter_cfg.c ****     errorCode = errorCode;
 107:.\Generated_Source\PSoC4/cyfitter_cfg.c **** 
 108:.\Generated_Source\PSoC4/cyfitter_cfg.c ****     /* `#START CyClockStartupError` */
 109:.\Generated_Source\PSoC4/cyfitter_cfg.c **** 
 110:.\Generated_Source\PSoC4/cyfitter_cfg.c ****     /* If we have a clock startup error (bad MHz crystal, PLL lock, etc.),  */
 111:.\Generated_Source\PSoC4/cyfitter_cfg.c ****     /* we will end up here to allow the customer to implement something to  */
 112:.\Generated_Source\PSoC4/cyfitter_cfg.c ****     /* deal with the clock condition.                                       */
 113:.\Generated_Source\PSoC4/cyfitter_cfg.c **** 
 114:.\Generated_Source\PSoC4/cyfitter_cfg.c ****     /* `#END` */
 115:.\Generated_Source\PSoC4/cyfitter_cfg.c **** 
 116:.\Generated_Source\PSoC4/cyfitter_cfg.c ****     /* If nothing else, stop here since the clocks have not started         */
 117:.\Generated_Source\PSoC4/cyfitter_cfg.c ****     /* correctly.                                                           */
 118:.\Generated_Source\PSoC4/cyfitter_cfg.c ****     while(1) {}
 119:.\Generated_Source\PSoC4/cyfitter_cfg.c **** }
 120:.\Generated_Source\PSoC4/cyfitter_cfg.c **** #endif
 121:.\Generated_Source\PSoC4/cyfitter_cfg.c **** 
 122:.\Generated_Source\PSoC4/cyfitter_cfg.c **** #define CY_CFG_BASE_ADDR_COUNT 6u
 123:.\Generated_Source\PSoC4/cyfitter_cfg.c **** CYPACKED typedef struct
 124:.\Generated_Source\PSoC4/cyfitter_cfg.c **** {
 125:.\Generated_Source\PSoC4/cyfitter_cfg.c **** 	uint8 offset;
 126:.\Generated_Source\PSoC4/cyfitter_cfg.c **** 	uint8 value;
 127:.\Generated_Source\PSoC4/cyfitter_cfg.c **** } CYPACKED_ATTR cy_cfg_addrvalue_t;
 128:.\Generated_Source\PSoC4/cyfitter_cfg.c **** 
 129:.\Generated_Source\PSoC4/cyfitter_cfg.c **** 
 130:.\Generated_Source\PSoC4/cyfitter_cfg.c **** 
 131:.\Generated_Source\PSoC4/cyfitter_cfg.c **** /*******************************************************************************
 132:.\Generated_Source\PSoC4/cyfitter_cfg.c **** * Function Name: cfg_write_bytes32
 133:.\Generated_Source\PSoC4/cyfitter_cfg.c **** ********************************************************************************
 134:.\Generated_Source\PSoC4/cyfitter_cfg.c **** * Summary:
 135:.\Generated_Source\PSoC4/cyfitter_cfg.c **** *  This function is used for setting up the chip configuration areas that
 136:.\Generated_Source\PSoC4/cyfitter_cfg.c **** *  contain relatively sparse data.
 137:.\Generated_Source\PSoC4/cyfitter_cfg.c **** *
 138:.\Generated_Source\PSoC4/cyfitter_cfg.c **** * Parameters:
 139:.\Generated_Source\PSoC4/cyfitter_cfg.c **** *   void
 140:.\Generated_Source\PSoC4/cyfitter_cfg.c **** *
 141:.\Generated_Source\PSoC4/cyfitter_cfg.c **** * Return:
 142:.\Generated_Source\PSoC4/cyfitter_cfg.c **** *   void
 143:.\Generated_Source\PSoC4/cyfitter_cfg.c **** *
 144:.\Generated_Source\PSoC4/cyfitter_cfg.c **** *******************************************************************************/
 145:.\Generated_Source\PSoC4/cyfitter_cfg.c **** static void cfg_write_bytes32(const uint32 addr_table[], const cy_cfg_addrvalue_t data_table[]);
 146:.\Generated_Source\PSoC4/cyfitter_cfg.c **** static void cfg_write_bytes32(const uint32 addr_table[], const cy_cfg_addrvalue_t data_table[])
ARM GAS  C:\Users\GLENNL~1\AppData\Local\Temp\cc3qUjHy.s 			page 6


 147:.\Generated_Source\PSoC4/cyfitter_cfg.c **** {
 140              		.loc 1 147 0
 141              		.cfi_startproc
 142 0000 80B5     		push	{r7, lr}
 143              	.LCFI9:
 144              		.cfi_def_cfa_offset 8
 145              		.cfi_offset 7, -8
 146              		.cfi_offset 14, -4
 147 0002 86B0     		sub	sp, sp, #24
 148              	.LCFI10:
 149              		.cfi_def_cfa_offset 32
 150 0004 00AF     		add	r7, sp, #0
 151              	.LCFI11:
 152              		.cfi_def_cfa_register 7
 153 0006 7860     		str	r0, [r7, #4]
 154 0008 3960     		str	r1, [r7]
 148:.\Generated_Source\PSoC4/cyfitter_cfg.c **** 	/* For 32-bit little-endian architectures */
 149:.\Generated_Source\PSoC4/cyfitter_cfg.c **** 	uint32 i, j = 0u;
 155              		.loc 1 149 0
 156 000a 0023     		mov	r3, #0
 157 000c 3B61     		str	r3, [r7, #16]
 150:.\Generated_Source\PSoC4/cyfitter_cfg.c **** 	for (i = 0u; i < CY_CFG_BASE_ADDR_COUNT; i++)
 158              		.loc 1 150 0
 159 000e 0023     		mov	r3, #0
 160 0010 7B61     		str	r3, [r7, #20]
 161 0012 2EE0     		b	.L5
 162              	.L8:
 163              	.LBB2:
 151:.\Generated_Source\PSoC4/cyfitter_cfg.c **** 	{
 152:.\Generated_Source\PSoC4/cyfitter_cfg.c **** 		uint32 baseAddr = addr_table[i];
 164              		.loc 1 152 0
 165 0014 7B69     		ldr	r3, [r7, #20]
 166 0016 9B00     		lsl	r3, r3, #2
 167 0018 7A68     		ldr	r2, [r7, #4]
 168 001a D318     		add	r3, r2, r3
 169 001c 1B68     		ldr	r3, [r3]
 170 001e BB60     		str	r3, [r7, #8]
 153:.\Generated_Source\PSoC4/cyfitter_cfg.c **** 		uint8 count = (uint8)baseAddr;
 171              		.loc 1 153 0
 172 0020 3B1C     		mov	r3, r7
 173 0022 0F33     		add	r3, r3, #15
 174 0024 BA68     		ldr	r2, [r7, #8]
 175 0026 1A70     		strb	r2, [r3]
 154:.\Generated_Source\PSoC4/cyfitter_cfg.c **** 		baseAddr &= 0xFFFFFF00u;
 176              		.loc 1 154 0
 177 0028 BB68     		ldr	r3, [r7, #8]
 178 002a FF22     		mov	r2, #255
 179 002c 9343     		bic	r3, r2
 180 002e BB60     		str	r3, [r7, #8]
 155:.\Generated_Source\PSoC4/cyfitter_cfg.c **** 		while (count != 0u)
 181              		.loc 1 155 0
 182 0030 17E0     		b	.L6
 183              	.L7:
 156:.\Generated_Source\PSoC4/cyfitter_cfg.c **** 		{
 157:.\Generated_Source\PSoC4/cyfitter_cfg.c **** 			CY_SET_XTND_REG8((void CYFAR *)(baseAddr + data_table[j].offset), data_table[j].value);
 184              		.loc 1 157 0
 185 0032 3B69     		ldr	r3, [r7, #16]
ARM GAS  C:\Users\GLENNL~1\AppData\Local\Temp\cc3qUjHy.s 			page 7


 186 0034 5B00     		lsl	r3, r3, #1
 187 0036 3A68     		ldr	r2, [r7]
 188 0038 D318     		add	r3, r2, r3
 189 003a 1B78     		ldrb	r3, [r3]
 190 003c 1A1C     		mov	r2, r3
 191 003e BB68     		ldr	r3, [r7, #8]
 192 0040 D318     		add	r3, r2, r3
 193 0042 3A69     		ldr	r2, [r7, #16]
 194 0044 5200     		lsl	r2, r2, #1
 195 0046 3968     		ldr	r1, [r7]
 196 0048 8A18     		add	r2, r1, r2
 197 004a 5278     		ldrb	r2, [r2, #1]
 198 004c 1A70     		strb	r2, [r3]
 158:.\Generated_Source\PSoC4/cyfitter_cfg.c **** 			j++;
 199              		.loc 1 158 0
 200 004e 3B69     		ldr	r3, [r7, #16]
 201 0050 0133     		add	r3, r3, #1
 202 0052 3B61     		str	r3, [r7, #16]
 159:.\Generated_Source\PSoC4/cyfitter_cfg.c **** 			count--;
 203              		.loc 1 159 0
 204 0054 3B1C     		mov	r3, r7
 205 0056 0F33     		add	r3, r3, #15
 206 0058 3A1C     		mov	r2, r7
 207 005a 0F32     		add	r2, r2, #15
 208 005c 1278     		ldrb	r2, [r2]
 209 005e 013A     		sub	r2, r2, #1
 210 0060 1A70     		strb	r2, [r3]
 211              	.L6:
 155:.\Generated_Source\PSoC4/cyfitter_cfg.c **** 		while (count != 0u)
 212              		.loc 1 155 0 discriminator 1
 213 0062 3B1C     		mov	r3, r7
 214 0064 0F33     		add	r3, r3, #15
 215 0066 1B78     		ldrb	r3, [r3]
 216 0068 002B     		cmp	r3, #0
 217 006a E2D1     		bne	.L7
 218              	.LBE2:
 150:.\Generated_Source\PSoC4/cyfitter_cfg.c **** 	for (i = 0u; i < CY_CFG_BASE_ADDR_COUNT; i++)
 219              		.loc 1 150 0
 220 006c 7B69     		ldr	r3, [r7, #20]
 221 006e 0133     		add	r3, r3, #1
 222 0070 7B61     		str	r3, [r7, #20]
 223              	.L5:
 150:.\Generated_Source\PSoC4/cyfitter_cfg.c **** 	for (i = 0u; i < CY_CFG_BASE_ADDR_COUNT; i++)
 224              		.loc 1 150 0 is_stmt 0 discriminator 1
 225 0072 7B69     		ldr	r3, [r7, #20]
 226 0074 052B     		cmp	r3, #5
 227 0076 CDD9     		bls	.L8
 160:.\Generated_Source\PSoC4/cyfitter_cfg.c **** 		}
 161:.\Generated_Source\PSoC4/cyfitter_cfg.c **** 	}
 162:.\Generated_Source\PSoC4/cyfitter_cfg.c **** }
 228              		.loc 1 162 0 is_stmt 1
 229 0078 BD46     		mov	sp, r7
 230 007a 06B0     		add	sp, sp, #24
 231              		@ sp needed for prologue
 232 007c 80BD     		pop	{r7, pc}
 233              		.cfi_endproc
 234              	.LFE3:
ARM GAS  C:\Users\GLENNL~1\AppData\Local\Temp\cc3qUjHy.s 			page 8


 235              		.size	cfg_write_bytes32, .-cfg_write_bytes32
 236 007e C046     		.section	.psocinit,"ax",%progbits
 237              		.align	2
 238              		.code	16
 239              		.thumb_func
 240              		.type	SetIMOBGTrims, %function
 241              	SetIMOBGTrims:
 242              	.LFB4:
 163:.\Generated_Source\PSoC4/cyfitter_cfg.c **** 
 164:.\Generated_Source\PSoC4/cyfitter_cfg.c **** /*******************************************************************************
 165:.\Generated_Source\PSoC4/cyfitter_cfg.c **** * Function Name: SetIMOBGTrims
 166:.\Generated_Source\PSoC4/cyfitter_cfg.c **** ********************************************************************************
 167:.\Generated_Source\PSoC4/cyfitter_cfg.c **** *
 168:.\Generated_Source\PSoC4/cyfitter_cfg.c **** * Summary:
 169:.\Generated_Source\PSoC4/cyfitter_cfg.c **** *   Performs the configuration of the bandgap trim for the IMO based on the given
 170:.\Generated_Source\PSoC4/cyfitter_cfg.c **** *   expected frequency of the IMO. 
 171:.\Generated_Source\PSoC4/cyfitter_cfg.c **** *
 172:.\Generated_Source\PSoC4/cyfitter_cfg.c **** * Parameters:
 173:.\Generated_Source\PSoC4/cyfitter_cfg.c **** *   imoFreq: Frequency for operation of the IMO.
 174:.\Generated_Source\PSoC4/cyfitter_cfg.c **** *
 175:.\Generated_Source\PSoC4/cyfitter_cfg.c **** * Return:
 176:.\Generated_Source\PSoC4/cyfitter_cfg.c **** *   void
 177:.\Generated_Source\PSoC4/cyfitter_cfg.c **** *
 178:.\Generated_Source\PSoC4/cyfitter_cfg.c **** *******************************************************************************/
 179:.\Generated_Source\PSoC4/cyfitter_cfg.c **** static void SetIMOBGTrims(uint8 imoFreq);
 180:.\Generated_Source\PSoC4/cyfitter_cfg.c **** CY_CFG_SECTION
 181:.\Generated_Source\PSoC4/cyfitter_cfg.c **** static void SetIMOBGTrims(uint8 imoFreq)
 182:.\Generated_Source\PSoC4/cyfitter_cfg.c **** {
 243              		.loc 1 182 0
 244              		.cfi_startproc
 245 0000 80B5     		push	{r7, lr}
 246              	.LCFI12:
 247              		.cfi_def_cfa_offset 8
 248              		.cfi_offset 7, -8
 249              		.cfi_offset 14, -4
 250 0002 84B0     		sub	sp, sp, #16
 251              	.LCFI13:
 252              		.cfi_def_cfa_offset 24
 253 0004 00AF     		add	r7, sp, #0
 254              	.LCFI14:
 255              		.cfi_def_cfa_register 7
 256 0006 021C     		mov	r2, r0
 257 0008 FB1D     		add	r3, r7, #7
 258 000a 1A70     		strb	r2, [r3]
 183:.\Generated_Source\PSoC4/cyfitter_cfg.c **** 	CYPACKED typedef struct {
 184:.\Generated_Source\PSoC4/cyfitter_cfg.c **** 		uint8 freq;
 185:.\Generated_Source\PSoC4/cyfitter_cfg.c **** 		uint8 absolute;
 186:.\Generated_Source\PSoC4/cyfitter_cfg.c **** 		uint8 tmpco;
 187:.\Generated_Source\PSoC4/cyfitter_cfg.c **** 	} CYPACKED_ATTR imo_trim_entry_t;
 188:.\Generated_Source\PSoC4/cyfitter_cfg.c **** 
 189:.\Generated_Source\PSoC4/cyfitter_cfg.c **** 	CYPACKED typedef struct {
 190:.\Generated_Source\PSoC4/cyfitter_cfg.c **** 		imo_trim_entry_t entries[4];
 191:.\Generated_Source\PSoC4/cyfitter_cfg.c **** 	} CYPACKED_ATTR imo_trim_table_t;
 192:.\Generated_Source\PSoC4/cyfitter_cfg.c **** 
 193:.\Generated_Source\PSoC4/cyfitter_cfg.c **** 	static const imo_trim_table_t *imo_trim_table = (const imo_trim_table_t *)CYREG_SFLASH_IMO_MAXF0;
 194:.\Generated_Source\PSoC4/cyfitter_cfg.c **** 	static const uint32 IMO_TRIM_FREQ_TABLE_ENTRIES = sizeof(imo_trim_table->entries)/sizeof(imo_trim_
 195:.\Generated_Source\PSoC4/cyfitter_cfg.c **** 
ARM GAS  C:\Users\GLENNL~1\AppData\Local\Temp\cc3qUjHy.s 			page 9


 196:.\Generated_Source\PSoC4/cyfitter_cfg.c **** 	int32 imoTrimIndex;
 197:.\Generated_Source\PSoC4/cyfitter_cfg.c **** 	uint8 setAbs;
 198:.\Generated_Source\PSoC4/cyfitter_cfg.c **** 	uint8 setTmpCo;
 199:.\Generated_Source\PSoC4/cyfitter_cfg.c **** 
 200:.\Generated_Source\PSoC4/cyfitter_cfg.c **** 	/* Traverse the SFLASH IMO frequency-dependent bandgap trim table to
 201:.\Generated_Source\PSoC4/cyfitter_cfg.c **** 	 * locate the appropriate value to trim the IMO bandgap based on freq. */
 202:.\Generated_Source\PSoC4/cyfitter_cfg.c **** 	setAbs = CY_GET_REG8((const void *)CYREG_SFLASH_IMO_ABS4);
 259              		.loc 1 202 0
 260 000c 224A     		ldr	r2, .L13
 261 000e 3B1C     		mov	r3, r7
 262 0010 0B33     		add	r3, r3, #11
 263 0012 1278     		ldrb	r2, [r2]
 264 0014 1A70     		strb	r2, [r3]
 203:.\Generated_Source\PSoC4/cyfitter_cfg.c **** 	setTmpCo = CY_GET_REG8((const void *)CYREG_SFLASH_IMO_TMPCO4);
 265              		.loc 1 203 0
 266 0016 214A     		ldr	r2, .L13+4
 267 0018 3B1C     		mov	r3, r7
 268 001a 0A33     		add	r3, r3, #10
 269 001c 1278     		ldrb	r2, [r2]
 270 001e 1A70     		strb	r2, [r3]
 204:.\Generated_Source\PSoC4/cyfitter_cfg.c **** 	for (imoTrimIndex = ((int32)IMO_TRIM_FREQ_TABLE_ENTRIES)-1;
 271              		.loc 1 204 0
 272 0020 1F4B     		ldr	r3, .L13+8
 273 0022 1B68     		ldr	r3, [r3]
 274 0024 013B     		sub	r3, r3, #1
 275 0026 FB60     		str	r3, [r7, #12]
 276 0028 1AE0     		b	.L10
 277              	.L12:
 205:.\Generated_Source\PSoC4/cyfitter_cfg.c **** 	     (imoTrimIndex >= 0) && (imoFreq <= imo_trim_table->entries[imoTrimIndex].freq);
 206:.\Generated_Source\PSoC4/cyfitter_cfg.c **** 	     imoTrimIndex--)
 207:.\Generated_Source\PSoC4/cyfitter_cfg.c **** 	{
 208:.\Generated_Source\PSoC4/cyfitter_cfg.c **** 		setAbs = imo_trim_table->entries[imoTrimIndex].absolute;
 278              		.loc 1 208 0
 279 002a 1E4B     		ldr	r3, .L13+12
 280 002c 1868     		ldr	r0, [r3]
 281 002e 391C     		mov	r1, r7
 282 0030 0B31     		add	r1, r1, #11
 283 0032 FA68     		ldr	r2, [r7, #12]
 284 0034 131C     		mov	r3, r2
 285 0036 5B00     		lsl	r3, r3, #1
 286 0038 9B18     		add	r3, r3, r2
 287 003a C318     		add	r3, r0, r3
 288 003c 0133     		add	r3, r3, #1
 289 003e 1B78     		ldrb	r3, [r3]
 290 0040 0B70     		strb	r3, [r1]
 209:.\Generated_Source\PSoC4/cyfitter_cfg.c **** 		setTmpCo = imo_trim_table->entries[imoTrimIndex].tmpco;
 291              		.loc 1 209 0
 292 0042 184B     		ldr	r3, .L13+12
 293 0044 1868     		ldr	r0, [r3]
 294 0046 391C     		mov	r1, r7
 295 0048 0A31     		add	r1, r1, #10
 296 004a FA68     		ldr	r2, [r7, #12]
 297 004c 131C     		mov	r3, r2
 298 004e 5B00     		lsl	r3, r3, #1
 299 0050 9B18     		add	r3, r3, r2
 300 0052 C318     		add	r3, r0, r3
 301 0054 0233     		add	r3, r3, #2
ARM GAS  C:\Users\GLENNL~1\AppData\Local\Temp\cc3qUjHy.s 			page 10


 302 0056 1B78     		ldrb	r3, [r3]
 303 0058 0B70     		strb	r3, [r1]
 206:.\Generated_Source\PSoC4/cyfitter_cfg.c **** 	     imoTrimIndex--)
 304              		.loc 1 206 0
 305 005a FB68     		ldr	r3, [r7, #12]
 306 005c 013B     		sub	r3, r3, #1
 307 005e FB60     		str	r3, [r7, #12]
 308              	.L10:
 204:.\Generated_Source\PSoC4/cyfitter_cfg.c **** 	for (imoTrimIndex = ((int32)IMO_TRIM_FREQ_TABLE_ENTRIES)-1;
 309              		.loc 1 204 0 discriminator 1
 310 0060 FB68     		ldr	r3, [r7, #12]
 311 0062 002B     		cmp	r3, #0
 312 0064 0ADB     		blt	.L11
 205:.\Generated_Source\PSoC4/cyfitter_cfg.c **** 	     (imoTrimIndex >= 0) && (imoFreq <= imo_trim_table->entries[imoTrimIndex].freq);
 313              		.loc 1 205 0
 314 0066 0F4B     		ldr	r3, .L13+12
 315 0068 1968     		ldr	r1, [r3]
 316 006a FA68     		ldr	r2, [r7, #12]
 317 006c 131C     		mov	r3, r2
 318 006e 5B00     		lsl	r3, r3, #1
 319 0070 9B18     		add	r3, r3, r2
 320 0072 5B5C     		ldrb	r3, [r3, r1]
 321 0074 FA1D     		add	r2, r7, #7
 322 0076 1278     		ldrb	r2, [r2]
 323 0078 9A42     		cmp	r2, r3
 324 007a D6D9     		bls	.L12
 325              	.L11:
 210:.\Generated_Source\PSoC4/cyfitter_cfg.c **** 	}
 211:.\Generated_Source\PSoC4/cyfitter_cfg.c **** 
 212:.\Generated_Source\PSoC4/cyfitter_cfg.c **** 	CY_SET_REG32((void *)CYREG_PWR_BG_TRIM4, setAbs);
 326              		.loc 1 212 0
 327 007c 0A4B     		ldr	r3, .L13+16
 328 007e 3A1C     		mov	r2, r7
 329 0080 0B32     		add	r2, r2, #11
 330 0082 1278     		ldrb	r2, [r2]
 331 0084 1A60     		str	r2, [r3]
 213:.\Generated_Source\PSoC4/cyfitter_cfg.c **** 	CY_SET_REG32((void *)CYREG_PWR_BG_TRIM5, setTmpCo);
 332              		.loc 1 213 0
 333 0086 094B     		ldr	r3, .L13+20
 334 0088 3A1C     		mov	r2, r7
 335 008a 0A32     		add	r2, r2, #10
 336 008c 1278     		ldrb	r2, [r2]
 337 008e 1A60     		str	r2, [r3]
 214:.\Generated_Source\PSoC4/cyfitter_cfg.c **** }
 338              		.loc 1 214 0
 339 0090 BD46     		mov	sp, r7
 340 0092 04B0     		add	sp, sp, #16
 341              		@ sp needed for prologue
 342 0094 80BD     		pop	{r7, pc}
 343              	.L14:
 344 0096 C046     		.align	2
 345              	.L13:
 346 0098 CCF1FF0F 		.word	268431820
 347 009c CDF1FF0F 		.word	268431821
 348 00a0 F8000000 		.word	IMO_TRIM_FREQ_TABLE_ENTRIES.4642
 349 00a4 00000000 		.word	imo_trim_table.4641
 350 00a8 1CFF0B40 		.word	1074528028
ARM GAS  C:\Users\GLENNL~1\AppData\Local\Temp\cc3qUjHy.s 			page 11


 351 00ac 20FF0B40 		.word	1074528032
 352              		.cfi_endproc
 353              	.LFE4:
 354              		.size	SetIMOBGTrims, .-SetIMOBGTrims
 355              		.align	2
 356              		.code	16
 357              		.thumb_func
 358              		.type	ClockSetup, %function
 359              	ClockSetup:
 360              	.LFB5:
 215:.\Generated_Source\PSoC4/cyfitter_cfg.c **** 
 216:.\Generated_Source\PSoC4/cyfitter_cfg.c **** 
 217:.\Generated_Source\PSoC4/cyfitter_cfg.c **** 
 218:.\Generated_Source\PSoC4/cyfitter_cfg.c **** /*******************************************************************************
 219:.\Generated_Source\PSoC4/cyfitter_cfg.c **** * Function Name: ClockSetup
 220:.\Generated_Source\PSoC4/cyfitter_cfg.c **** ********************************************************************************
 221:.\Generated_Source\PSoC4/cyfitter_cfg.c **** *
 222:.\Generated_Source\PSoC4/cyfitter_cfg.c **** * Summary:
 223:.\Generated_Source\PSoC4/cyfitter_cfg.c **** *   Performs the initialization of all of the clocks in the device based on the
 224:.\Generated_Source\PSoC4/cyfitter_cfg.c **** *   settings in the Clock tab of the DWR.  This includes enabling the requested
 225:.\Generated_Source\PSoC4/cyfitter_cfg.c **** *   clocks and setting the necessary dividers to produce the desired frequency. 
 226:.\Generated_Source\PSoC4/cyfitter_cfg.c **** *
 227:.\Generated_Source\PSoC4/cyfitter_cfg.c **** * Parameters:
 228:.\Generated_Source\PSoC4/cyfitter_cfg.c **** *   void
 229:.\Generated_Source\PSoC4/cyfitter_cfg.c **** *
 230:.\Generated_Source\PSoC4/cyfitter_cfg.c **** * Return:
 231:.\Generated_Source\PSoC4/cyfitter_cfg.c **** *   void
 232:.\Generated_Source\PSoC4/cyfitter_cfg.c **** *
 233:.\Generated_Source\PSoC4/cyfitter_cfg.c **** *******************************************************************************/
 234:.\Generated_Source\PSoC4/cyfitter_cfg.c **** static void ClockSetup(void);
 235:.\Generated_Source\PSoC4/cyfitter_cfg.c **** CY_CFG_SECTION
 236:.\Generated_Source\PSoC4/cyfitter_cfg.c **** static void ClockSetup(void)
 237:.\Generated_Source\PSoC4/cyfitter_cfg.c **** {
 361              		.loc 1 237 0
 362              		.cfi_startproc
 363 00b0 80B5     		push	{r7, lr}
 364              	.LCFI15:
 365              		.cfi_def_cfa_offset 8
 366              		.cfi_offset 7, -8
 367              		.cfi_offset 14, -4
 368 00b2 00AF     		add	r7, sp, #0
 369              	.LCFI16:
 370              		.cfi_def_cfa_register 7
 238:.\Generated_Source\PSoC4/cyfitter_cfg.c **** 	/* Enable HALF_EN before trimming for the flash accelerator. */
 239:.\Generated_Source\PSoC4/cyfitter_cfg.c **** 	CY_SET_REG32((void CYXDATA *)(CYREG_CLK_SELECT), (CY_GET_REG32((void *)CYREG_CLK_SELECT) | 0x00040
 371              		.loc 1 239 0
 372 00b4 134B     		ldr	r3, .L16
 373 00b6 134A     		ldr	r2, .L16
 374 00b8 1268     		ldr	r2, [r2]
 375 00ba 8021     		mov	r1, #128
 376 00bc C902     		lsl	r1, r1, #11
 377 00be 0A43     		orr	r2, r1
 378 00c0 1A60     		str	r2, [r3]
 240:.\Generated_Source\PSoC4/cyfitter_cfg.c **** 
 241:.\Generated_Source\PSoC4/cyfitter_cfg.c **** 	/* Trim IMO BG based on desired frequency. */
 242:.\Generated_Source\PSoC4/cyfitter_cfg.c **** 	SetIMOBGTrims(24u);
 379              		.loc 1 242 0
ARM GAS  C:\Users\GLENNL~1\AppData\Local\Temp\cc3qUjHy.s 			page 12


 380 00c2 1820     		mov	r0, #24
 381 00c4 FFF79CFF 		bl	SetIMOBGTrims
 243:.\Generated_Source\PSoC4/cyfitter_cfg.c **** 
 244:.\Generated_Source\PSoC4/cyfitter_cfg.c **** 	/* Going less than or equal to 24MHz, so update the clock speed then adjust trim value. */
 245:.\Generated_Source\PSoC4/cyfitter_cfg.c **** 	CY_SET_REG32((void CYXDATA *)(CYREG_CLK_IMO_TRIM2), (25u));
 382              		.loc 1 245 0
 383 00c8 0F4B     		ldr	r3, .L16+4
 384 00ca 1922     		mov	r2, #25
 385 00cc 1A60     		str	r2, [r3]
 246:.\Generated_Source\PSoC4/cyfitter_cfg.c **** 	CyDelayCycles(5u);
 386              		.loc 1 246 0
 387 00ce 0520     		mov	r0, #5
 388 00d0 FFF7FEFF 		bl	CyDelayCycles
 247:.\Generated_Source\PSoC4/cyfitter_cfg.c **** 	CY_SET_REG32((void CYXDATA *)(CYREG_CLK_IMO_TRIM1), (CY_GET_REG8((void *)CYREG_SFLASH_IMO_TRIM21))
 389              		.loc 1 247 0
 390 00d4 0D4B     		ldr	r3, .L16+8
 391 00d6 0E4A     		ldr	r2, .L16+12
 392 00d8 1278     		ldrb	r2, [r2]
 393 00da D2B2     		uxtb	r2, r2
 394 00dc 1A60     		str	r2, [r3]
 248:.\Generated_Source\PSoC4/cyfitter_cfg.c **** 	CyDelayUs(5u);
 395              		.loc 1 248 0
 396 00de 0520     		mov	r0, #5
 397 00e0 FFF7FEFF 		bl	CyDelayUs
 249:.\Generated_Source\PSoC4/cyfitter_cfg.c **** 
 250:.\Generated_Source\PSoC4/cyfitter_cfg.c **** 	/* Disable HALF_EN since it is not required at this IMO frequency. */
 251:.\Generated_Source\PSoC4/cyfitter_cfg.c **** 	CY_SET_REG32((void CYXDATA *)(CYREG_CLK_SELECT), (CY_GET_REG32((void *)CYREG_CLK_SELECT) & 0xFFFBF
 398              		.loc 1 251 0
 399 00e4 074B     		ldr	r3, .L16
 400 00e6 074A     		ldr	r2, .L16
 401 00e8 1168     		ldr	r1, [r2]
 402 00ea 0A4A     		ldr	r2, .L16+16
 403 00ec 0A40     		and	r2, r1
 404 00ee 1A60     		str	r2, [r3]
 252:.\Generated_Source\PSoC4/cyfitter_cfg.c **** 
 253:.\Generated_Source\PSoC4/cyfitter_cfg.c **** 	/* CYDEV_CLK_IMO_CONFIG Starting address: CYDEV_CLK_IMO_CONFIG */
 254:.\Generated_Source\PSoC4/cyfitter_cfg.c **** 	CY_SET_XTND_REG32((void CYFAR *)(CYREG_CLK_IMO_CONFIG), 0x80000000u);
 405              		.loc 1 254 0
 406 00f0 094B     		ldr	r3, .L16+20
 407 00f2 8022     		mov	r2, #128
 408 00f4 1206     		lsl	r2, r2, #24
 409 00f6 1A60     		str	r2, [r3]
 255:.\Generated_Source\PSoC4/cyfitter_cfg.c **** 
 256:.\Generated_Source\PSoC4/cyfitter_cfg.c **** 	/* CYDEV_CLK_ILO_CONFIG Starting address: CYDEV_CLK_ILO_CONFIG */
 257:.\Generated_Source\PSoC4/cyfitter_cfg.c **** 	CY_SET_XTND_REG32((void CYFAR *)(CYREG_CLK_ILO_CONFIG), 0x80000000u);
 410              		.loc 1 257 0
 411 00f8 084B     		ldr	r3, .L16+24
 412 00fa 8022     		mov	r2, #128
 413 00fc 1206     		lsl	r2, r2, #24
 414 00fe 1A60     		str	r2, [r3]
 258:.\Generated_Source\PSoC4/cyfitter_cfg.c **** 
 259:.\Generated_Source\PSoC4/cyfitter_cfg.c **** }
 415              		.loc 1 259 0
 416 0100 BD46     		mov	sp, r7
 417              		@ sp needed for prologue
 418 0102 80BD     		pop	{r7, pc}
 419              	.L17:
ARM GAS  C:\Users\GLENNL~1\AppData\Local\Temp\cc3qUjHy.s 			page 13


 420              		.align	2
 421              	.L16:
 422 0104 00010B40 		.word	1074462976
 423 0108 2CFF0B40 		.word	1074528044
 424 010c 28FF0B40 		.word	1074528040
 425 0110 E5F1FF0F 		.word	268431845
 426 0114 FFFFFBFF 		.word	-262145
 427 0118 08010B40 		.word	1074462984
 428 011c 04010B40 		.word	1074462980
 429              		.cfi_endproc
 430              	.LFE5:
 431              		.size	ClockSetup, .-ClockSetup
 432              		.section	.text.AnalogSetDefault,"ax",%progbits
 433              		.align	2
 434              		.code	16
 435              		.thumb_func
 436              		.type	AnalogSetDefault, %function
 437              	AnalogSetDefault:
 438              	.LFB6:
 260:.\Generated_Source\PSoC4/cyfitter_cfg.c **** 
 261:.\Generated_Source\PSoC4/cyfitter_cfg.c **** 
 262:.\Generated_Source\PSoC4/cyfitter_cfg.c **** /* Analog API Functions */
 263:.\Generated_Source\PSoC4/cyfitter_cfg.c **** 
 264:.\Generated_Source\PSoC4/cyfitter_cfg.c **** 
 265:.\Generated_Source\PSoC4/cyfitter_cfg.c **** /*******************************************************************************
 266:.\Generated_Source\PSoC4/cyfitter_cfg.c **** * Function Name: AnalogSetDefault
 267:.\Generated_Source\PSoC4/cyfitter_cfg.c **** ********************************************************************************
 268:.\Generated_Source\PSoC4/cyfitter_cfg.c **** *
 269:.\Generated_Source\PSoC4/cyfitter_cfg.c **** * Summary:
 270:.\Generated_Source\PSoC4/cyfitter_cfg.c **** *  Sets up the analog portions of the chip to default values based on chip
 271:.\Generated_Source\PSoC4/cyfitter_cfg.c **** *  configuration options from the project.
 272:.\Generated_Source\PSoC4/cyfitter_cfg.c **** *
 273:.\Generated_Source\PSoC4/cyfitter_cfg.c **** * Parameters:
 274:.\Generated_Source\PSoC4/cyfitter_cfg.c **** *  void
 275:.\Generated_Source\PSoC4/cyfitter_cfg.c **** *
 276:.\Generated_Source\PSoC4/cyfitter_cfg.c **** * Return:
 277:.\Generated_Source\PSoC4/cyfitter_cfg.c **** *  void
 278:.\Generated_Source\PSoC4/cyfitter_cfg.c **** *
 279:.\Generated_Source\PSoC4/cyfitter_cfg.c **** *******************************************************************************/
 280:.\Generated_Source\PSoC4/cyfitter_cfg.c **** static void AnalogSetDefault(void);
 281:.\Generated_Source\PSoC4/cyfitter_cfg.c **** static void AnalogSetDefault(void)
 282:.\Generated_Source\PSoC4/cyfitter_cfg.c **** {
 439              		.loc 1 282 0
 440              		.cfi_startproc
 441 0000 80B5     		push	{r7, lr}
 442              	.LCFI17:
 443              		.cfi_def_cfa_offset 8
 444              		.cfi_offset 7, -8
 445              		.cfi_offset 14, -4
 446 0002 00AF     		add	r7, sp, #0
 447              	.LCFI18:
 448              		.cfi_def_cfa_register 7
 283:.\Generated_Source\PSoC4/cyfitter_cfg.c **** }
 449              		.loc 1 283 0
 450 0004 BD46     		mov	sp, r7
 451              		@ sp needed for prologue
 452 0006 80BD     		pop	{r7, pc}
ARM GAS  C:\Users\GLENNL~1\AppData\Local\Temp\cc3qUjHy.s 			page 14


 453              		.cfi_endproc
 454              	.LFE6:
 455              		.size	AnalogSetDefault, .-AnalogSetDefault
 456              		.section	.psocinit
 457              		.align	2
 458              		.global	cyfitter_cfg
 459              		.code	16
 460              		.thumb_func
 461              		.type	cyfitter_cfg, %function
 462              	cyfitter_cfg:
 463              	.LFB7:
 284:.\Generated_Source\PSoC4/cyfitter_cfg.c **** 
 285:.\Generated_Source\PSoC4/cyfitter_cfg.c **** #define CY_AMUX_UNUSED CYREG_CM0_ROM_DWT
 286:.\Generated_Source\PSoC4/cyfitter_cfg.c **** 
 287:.\Generated_Source\PSoC4/cyfitter_cfg.c **** 
 288:.\Generated_Source\PSoC4/cyfitter_cfg.c **** /*******************************************************************************
 289:.\Generated_Source\PSoC4/cyfitter_cfg.c **** * Function Name: cyfitter_cfg
 290:.\Generated_Source\PSoC4/cyfitter_cfg.c **** ********************************************************************************
 291:.\Generated_Source\PSoC4/cyfitter_cfg.c **** * Summary:
 292:.\Generated_Source\PSoC4/cyfitter_cfg.c **** *  This function is called by the start-up code for the selected device. It
 293:.\Generated_Source\PSoC4/cyfitter_cfg.c **** *  performs all of the necessary device configuration based on the design
 294:.\Generated_Source\PSoC4/cyfitter_cfg.c **** *  settings.  This includes settings from the Design Wide Resources (DWR) such
 295:.\Generated_Source\PSoC4/cyfitter_cfg.c **** *  as Clocks and Pins as well as any component configuration that is necessary.
 296:.\Generated_Source\PSoC4/cyfitter_cfg.c **** *
 297:.\Generated_Source\PSoC4/cyfitter_cfg.c **** * Parameters:  
 298:.\Generated_Source\PSoC4/cyfitter_cfg.c **** *   void
 299:.\Generated_Source\PSoC4/cyfitter_cfg.c **** *
 300:.\Generated_Source\PSoC4/cyfitter_cfg.c **** * Return:
 301:.\Generated_Source\PSoC4/cyfitter_cfg.c **** *   void
 302:.\Generated_Source\PSoC4/cyfitter_cfg.c **** *
 303:.\Generated_Source\PSoC4/cyfitter_cfg.c **** *******************************************************************************/
 304:.\Generated_Source\PSoC4/cyfitter_cfg.c **** CY_CFG_SECTION
 305:.\Generated_Source\PSoC4/cyfitter_cfg.c **** void cyfitter_cfg(void)
 306:.\Generated_Source\PSoC4/cyfitter_cfg.c **** {
 464              		.loc 1 306 0
 465              		.cfi_startproc
 466 0120 80B5     		push	{r7, lr}
 467              	.LCFI19:
 468              		.cfi_def_cfa_offset 8
 469              		.cfi_offset 7, -8
 470              		.cfi_offset 14, -4
 471 0122 82B0     		sub	sp, sp, #8
 472              	.LCFI20:
 473              		.cfi_def_cfa_offset 16
 474 0124 00AF     		add	r7, sp, #0
 475              	.LCFI21:
 476              		.cfi_def_cfa_register 7
 307:.\Generated_Source\PSoC4/cyfitter_cfg.c **** 	/* Disable interrupts by default. Let user enable if/when they want. */
 308:.\Generated_Source\PSoC4/cyfitter_cfg.c **** 	CyGlobalIntDisable;
 477              		.loc 1 308 0
 478              	@ 308 ".\Generated_Source\PSoC4\cyfitter_cfg.c" 1
 479 0126 72B6     		CPSID   i
 480              	@ 0 "" 2
 481              		.code	16
 482              	.LBB3:
 309:.\Generated_Source\PSoC4/cyfitter_cfg.c **** 
 310:.\Generated_Source\PSoC4/cyfitter_cfg.c **** 	{
ARM GAS  C:\Users\GLENNL~1\AppData\Local\Temp\cc3qUjHy.s 			page 15


 311:.\Generated_Source\PSoC4/cyfitter_cfg.c **** 		static const uint32 CYCODE cy_cfg_addr_table[] = {
 312:.\Generated_Source\PSoC4/cyfitter_cfg.c **** 			0x400F322Eu, /* Base address: 0x400F3200 Count: 46 */
 313:.\Generated_Source\PSoC4/cyfitter_cfg.c **** 			0x400F3321u, /* Base address: 0x400F3300 Count: 33 */
 314:.\Generated_Source\PSoC4/cyfitter_cfg.c **** 			0x400F4002u, /* Base address: 0x400F4000 Count: 2 */
 315:.\Generated_Source\PSoC4/cyfitter_cfg.c **** 			0x400F4103u, /* Base address: 0x400F4100 Count: 3 */
 316:.\Generated_Source\PSoC4/cyfitter_cfg.c **** 			0x400F4209u, /* Base address: 0x400F4200 Count: 9 */
 317:.\Generated_Source\PSoC4/cyfitter_cfg.c **** 			0x400F430Cu, /* Base address: 0x400F4300 Count: 12 */
 318:.\Generated_Source\PSoC4/cyfitter_cfg.c **** 		};
 319:.\Generated_Source\PSoC4/cyfitter_cfg.c **** 
 320:.\Generated_Source\PSoC4/cyfitter_cfg.c **** 		static const cy_cfg_addrvalue_t CYCODE cy_cfg_data_table[] = {
 321:.\Generated_Source\PSoC4/cyfitter_cfg.c **** 			{0x01u, 0x37u},
 322:.\Generated_Source\PSoC4/cyfitter_cfg.c **** 			{0x04u, 0x0Cu},
 323:.\Generated_Source\PSoC4/cyfitter_cfg.c **** 			{0x05u, 0x49u},
 324:.\Generated_Source\PSoC4/cyfitter_cfg.c **** 			{0x06u, 0x02u},
 325:.\Generated_Source\PSoC4/cyfitter_cfg.c **** 			{0x07u, 0x12u},
 326:.\Generated_Source\PSoC4/cyfitter_cfg.c **** 			{0x0Cu, 0x08u},
 327:.\Generated_Source\PSoC4/cyfitter_cfg.c **** 			{0x0Eu, 0x01u},
 328:.\Generated_Source\PSoC4/cyfitter_cfg.c **** 			{0x11u, 0x0Cu},
 329:.\Generated_Source\PSoC4/cyfitter_cfg.c **** 			{0x13u, 0x22u},
 330:.\Generated_Source\PSoC4/cyfitter_cfg.c **** 			{0x15u, 0x4Au},
 331:.\Generated_Source\PSoC4/cyfitter_cfg.c **** 			{0x17u, 0x05u},
 332:.\Generated_Source\PSoC4/cyfitter_cfg.c **** 			{0x18u, 0x0Cu},
 333:.\Generated_Source\PSoC4/cyfitter_cfg.c **** 			{0x1Au, 0x01u},
 334:.\Generated_Source\PSoC4/cyfitter_cfg.c **** 			{0x1Cu, 0x03u},
 335:.\Generated_Source\PSoC4/cyfitter_cfg.c **** 			{0x1Eu, 0x04u},
 336:.\Generated_Source\PSoC4/cyfitter_cfg.c **** 			{0x33u, 0x0Cu},
 337:.\Generated_Source\PSoC4/cyfitter_cfg.c **** 			{0x35u, 0x70u},
 338:.\Generated_Source\PSoC4/cyfitter_cfg.c **** 			{0x36u, 0x0Fu},
 339:.\Generated_Source\PSoC4/cyfitter_cfg.c **** 			{0x37u, 0x0Fu},
 340:.\Generated_Source\PSoC4/cyfitter_cfg.c **** 			{0x3Eu, 0x40u},
 341:.\Generated_Source\PSoC4/cyfitter_cfg.c **** 			{0x3Fu, 0x54u},
 342:.\Generated_Source\PSoC4/cyfitter_cfg.c **** 			{0x58u, 0x04u},
 343:.\Generated_Source\PSoC4/cyfitter_cfg.c **** 			{0x59u, 0x04u},
 344:.\Generated_Source\PSoC4/cyfitter_cfg.c **** 			{0x5Bu, 0x04u},
 345:.\Generated_Source\PSoC4/cyfitter_cfg.c **** 			{0x5Fu, 0x01u},
 346:.\Generated_Source\PSoC4/cyfitter_cfg.c **** 			{0x80u, 0x33u},
 347:.\Generated_Source\PSoC4/cyfitter_cfg.c **** 			{0x82u, 0x04u},
 348:.\Generated_Source\PSoC4/cyfitter_cfg.c **** 			{0x84u, 0x1Cu},
 349:.\Generated_Source\PSoC4/cyfitter_cfg.c **** 			{0x86u, 0x03u},
 350:.\Generated_Source\PSoC4/cyfitter_cfg.c **** 			{0x88u, 0x0Du},
 351:.\Generated_Source\PSoC4/cyfitter_cfg.c **** 			{0x8Au, 0x30u},
 352:.\Generated_Source\PSoC4/cyfitter_cfg.c **** 			{0x8Cu, 0x2Au},
 353:.\Generated_Source\PSoC4/cyfitter_cfg.c **** 			{0x91u, 0x02u},
 354:.\Generated_Source\PSoC4/cyfitter_cfg.c **** 			{0x93u, 0x04u},
 355:.\Generated_Source\PSoC4/cyfitter_cfg.c **** 			{0x95u, 0x0Au},
 356:.\Generated_Source\PSoC4/cyfitter_cfg.c **** 			{0x97u, 0x04u},
 357:.\Generated_Source\PSoC4/cyfitter_cfg.c **** 			{0x99u, 0x09u},
 358:.\Generated_Source\PSoC4/cyfitter_cfg.c **** 			{0xA1u, 0x07u},
 359:.\Generated_Source\PSoC4/cyfitter_cfg.c **** 			{0xB0u, 0x35u},
 360:.\Generated_Source\PSoC4/cyfitter_cfg.c **** 			{0xB6u, 0x0Fu},
 361:.\Generated_Source\PSoC4/cyfitter_cfg.c **** 			{0xB7u, 0x0Fu},
 362:.\Generated_Source\PSoC4/cyfitter_cfg.c **** 			{0xBEu, 0x41u},
 363:.\Generated_Source\PSoC4/cyfitter_cfg.c **** 			{0xBFu, 0x40u},
 364:.\Generated_Source\PSoC4/cyfitter_cfg.c **** 			{0xD8u, 0x04u},
 365:.\Generated_Source\PSoC4/cyfitter_cfg.c **** 			{0xD9u, 0x04u},
 366:.\Generated_Source\PSoC4/cyfitter_cfg.c **** 			{0xDFu, 0x01u},
 367:.\Generated_Source\PSoC4/cyfitter_cfg.c **** 			{0x03u, 0xA5u},
ARM GAS  C:\Users\GLENNL~1\AppData\Local\Temp\cc3qUjHy.s 			page 16


 368:.\Generated_Source\PSoC4/cyfitter_cfg.c **** 			{0x04u, 0x08u},
 369:.\Generated_Source\PSoC4/cyfitter_cfg.c **** 			{0x07u, 0x01u},
 370:.\Generated_Source\PSoC4/cyfitter_cfg.c **** 			{0x0Eu, 0x05u},
 371:.\Generated_Source\PSoC4/cyfitter_cfg.c **** 			{0x18u, 0x02u},
 372:.\Generated_Source\PSoC4/cyfitter_cfg.c **** 			{0x1Au, 0x80u},
 373:.\Generated_Source\PSoC4/cyfitter_cfg.c **** 			{0x1Fu, 0x40u},
 374:.\Generated_Source\PSoC4/cyfitter_cfg.c **** 			{0x23u, 0x01u},
 375:.\Generated_Source\PSoC4/cyfitter_cfg.c **** 			{0x26u, 0x60u},
 376:.\Generated_Source\PSoC4/cyfitter_cfg.c **** 			{0x27u, 0x10u},
 377:.\Generated_Source\PSoC4/cyfitter_cfg.c **** 			{0x2Bu, 0x80u},
 378:.\Generated_Source\PSoC4/cyfitter_cfg.c **** 			{0x33u, 0x25u},
 379:.\Generated_Source\PSoC4/cyfitter_cfg.c **** 			{0x37u, 0x05u},
 380:.\Generated_Source\PSoC4/cyfitter_cfg.c **** 			{0x3Eu, 0x05u},
 381:.\Generated_Source\PSoC4/cyfitter_cfg.c **** 			{0x6Cu, 0x04u},
 382:.\Generated_Source\PSoC4/cyfitter_cfg.c **** 			{0x6Eu, 0x05u},
 383:.\Generated_Source\PSoC4/cyfitter_cfg.c **** 			{0x6Fu, 0xA5u},
 384:.\Generated_Source\PSoC4/cyfitter_cfg.c **** 			{0x80u, 0x01u},
 385:.\Generated_Source\PSoC4/cyfitter_cfg.c **** 			{0x82u, 0x40u},
 386:.\Generated_Source\PSoC4/cyfitter_cfg.c **** 			{0x83u, 0x01u},
 387:.\Generated_Source\PSoC4/cyfitter_cfg.c **** 			{0x87u, 0x40u},
 388:.\Generated_Source\PSoC4/cyfitter_cfg.c **** 			{0x8Au, 0x20u},
 389:.\Generated_Source\PSoC4/cyfitter_cfg.c **** 			{0x8Fu, 0x10u},
 390:.\Generated_Source\PSoC4/cyfitter_cfg.c **** 			{0xA6u, 0x40u},
 391:.\Generated_Source\PSoC4/cyfitter_cfg.c **** 			{0xAEu, 0x40u},
 392:.\Generated_Source\PSoC4/cyfitter_cfg.c **** 			{0xC0u, 0xAFu},
 393:.\Generated_Source\PSoC4/cyfitter_cfg.c **** 			{0xC2u, 0xC0u},
 394:.\Generated_Source\PSoC4/cyfitter_cfg.c **** 			{0xCAu, 0x01u},
 395:.\Generated_Source\PSoC4/cyfitter_cfg.c **** 			{0xCCu, 0xC7u},
 396:.\Generated_Source\PSoC4/cyfitter_cfg.c **** 			{0xCEu, 0xC0u},
 397:.\Generated_Source\PSoC4/cyfitter_cfg.c **** 			{0xE0u, 0x09u},
 398:.\Generated_Source\PSoC4/cyfitter_cfg.c **** 			{0xE4u, 0x04u},
 399:.\Generated_Source\PSoC4/cyfitter_cfg.c **** 			{0xECu, 0x02u},
 400:.\Generated_Source\PSoC4/cyfitter_cfg.c **** 			{0x57u, 0x08u},
 401:.\Generated_Source\PSoC4/cyfitter_cfg.c **** 			{0xD4u, 0x40u},
 402:.\Generated_Source\PSoC4/cyfitter_cfg.c **** 			{0x83u, 0x08u},
 403:.\Generated_Source\PSoC4/cyfitter_cfg.c **** 			{0xA7u, 0x08u},
 404:.\Generated_Source\PSoC4/cyfitter_cfg.c **** 			{0xE6u, 0x80u},
 405:.\Generated_Source\PSoC4/cyfitter_cfg.c **** 			{0x53u, 0x10u},
 406:.\Generated_Source\PSoC4/cyfitter_cfg.c **** 			{0x55u, 0x20u},
 407:.\Generated_Source\PSoC4/cyfitter_cfg.c **** 			{0x58u, 0x10u},
 408:.\Generated_Source\PSoC4/cyfitter_cfg.c **** 			{0x5Eu, 0x10u},
 409:.\Generated_Source\PSoC4/cyfitter_cfg.c **** 			{0x66u, 0x20u},
 410:.\Generated_Source\PSoC4/cyfitter_cfg.c **** 			{0x67u, 0x02u},
 411:.\Generated_Source\PSoC4/cyfitter_cfg.c **** 			{0xD4u, 0x07u},
 412:.\Generated_Source\PSoC4/cyfitter_cfg.c **** 			{0xD6u, 0x05u},
 413:.\Generated_Source\PSoC4/cyfitter_cfg.c **** 			{0xD8u, 0x01u},
 414:.\Generated_Source\PSoC4/cyfitter_cfg.c **** 			{0x82u, 0x10u},
 415:.\Generated_Source\PSoC4/cyfitter_cfg.c **** 			{0x83u, 0x01u},
 416:.\Generated_Source\PSoC4/cyfitter_cfg.c **** 			{0x85u, 0x20u},
 417:.\Generated_Source\PSoC4/cyfitter_cfg.c **** 			{0x8Bu, 0x10u},
 418:.\Generated_Source\PSoC4/cyfitter_cfg.c **** 			{0x8Eu, 0x20u},
 419:.\Generated_Source\PSoC4/cyfitter_cfg.c **** 			{0x96u, 0x10u},
 420:.\Generated_Source\PSoC4/cyfitter_cfg.c **** 			{0x97u, 0x22u},
 421:.\Generated_Source\PSoC4/cyfitter_cfg.c **** 			{0x9Eu, 0x20u},
 422:.\Generated_Source\PSoC4/cyfitter_cfg.c **** 			{0xA5u, 0x20u},
 423:.\Generated_Source\PSoC4/cyfitter_cfg.c **** 			{0xACu, 0x10u},
 424:.\Generated_Source\PSoC4/cyfitter_cfg.c **** 			{0xE0u, 0x04u},
ARM GAS  C:\Users\GLENNL~1\AppData\Local\Temp\cc3qUjHy.s 			page 17


 425:.\Generated_Source\PSoC4/cyfitter_cfg.c **** 			{0xE4u, 0x02u},
 426:.\Generated_Source\PSoC4/cyfitter_cfg.c **** 		};
 427:.\Generated_Source\PSoC4/cyfitter_cfg.c **** 
 428:.\Generated_Source\PSoC4/cyfitter_cfg.c **** 
 429:.\Generated_Source\PSoC4/cyfitter_cfg.c **** 
 430:.\Generated_Source\PSoC4/cyfitter_cfg.c **** 		CYPACKED typedef struct {
 431:.\Generated_Source\PSoC4/cyfitter_cfg.c **** 			void CYFAR *address;
 432:.\Generated_Source\PSoC4/cyfitter_cfg.c **** 			uint16 size;
 433:.\Generated_Source\PSoC4/cyfitter_cfg.c **** 		} CYPACKED_ATTR cfg_memset_t;
 434:.\Generated_Source\PSoC4/cyfitter_cfg.c **** 
 435:.\Generated_Source\PSoC4/cyfitter_cfg.c **** 		static const cfg_memset_t CYCODE cfg_memset_list [] = {
 436:.\Generated_Source\PSoC4/cyfitter_cfg.c **** 			/* address, size */
 437:.\Generated_Source\PSoC4/cyfitter_cfg.c **** 			{(void CYFAR *)(CYDEV_UDB_P0_U0_BASE), 1024u},
 438:.\Generated_Source\PSoC4/cyfitter_cfg.c **** 			{(void CYFAR *)(CYDEV_UDB_DSI0_BASE), 1024u},
 439:.\Generated_Source\PSoC4/cyfitter_cfg.c **** 		};
 440:.\Generated_Source\PSoC4/cyfitter_cfg.c **** 
 441:.\Generated_Source\PSoC4/cyfitter_cfg.c **** 		uint8 CYDATA i;
 442:.\Generated_Source\PSoC4/cyfitter_cfg.c **** 
 443:.\Generated_Source\PSoC4/cyfitter_cfg.c **** 		/* Zero out critical memory blocks before beginning configuration */
 444:.\Generated_Source\PSoC4/cyfitter_cfg.c **** 		for (i = 0u; i < (sizeof(cfg_memset_list)/sizeof(cfg_memset_list[0])); i++)
 483              		.loc 1 444 0
 484 0128 FB1D     		add	r3, r7, #7
 485 012a 0022     		mov	r2, #0
 486 012c 1A70     		strb	r2, [r3]
 487 012e 23E0     		b	.L20
 488              	.L21:
 489              	.LBB4:
 445:.\Generated_Source\PSoC4/cyfitter_cfg.c **** 		{
 446:.\Generated_Source\PSoC4/cyfitter_cfg.c **** 			const cfg_memset_t CYCODE * CYDATA ms = &cfg_memset_list[i];
 490              		.loc 1 446 0 discriminator 2
 491 0130 FB1D     		add	r3, r7, #7
 492 0132 1A78     		ldrb	r2, [r3]
 493 0134 131C     		mov	r3, r2
 494 0136 5B00     		lsl	r3, r3, #1
 495 0138 9B18     		add	r3, r3, r2
 496 013a 5B00     		lsl	r3, r3, #1
 497 013c 354A     		ldr	r2, .L22
 498 013e 9B18     		add	r3, r3, r2
 499 0140 3B60     		str	r3, [r7]
 447:.\Generated_Source\PSoC4/cyfitter_cfg.c **** 			CYMEMZERO(ms->address, (uint32)(ms->size));
 500              		.loc 1 447 0 discriminator 2
 501 0142 3B68     		ldr	r3, [r7]
 502 0144 1A78     		ldrb	r2, [r3]
 503 0146 5978     		ldrb	r1, [r3, #1]
 504 0148 0902     		lsl	r1, r1, #8
 505 014a 0A43     		orr	r2, r1
 506 014c 9978     		ldrb	r1, [r3, #2]
 507 014e 0904     		lsl	r1, r1, #16
 508 0150 0A43     		orr	r2, r1
 509 0152 DB78     		ldrb	r3, [r3, #3]
 510 0154 1B06     		lsl	r3, r3, #24
 511 0156 1343     		orr	r3, r2
 512 0158 1A1C     		mov	r2, r3
 513 015a 3B68     		ldr	r3, [r7]
 514 015c 1979     		ldrb	r1, [r3, #4]
 515 015e 5B79     		ldrb	r3, [r3, #5]
 516 0160 1B02     		lsl	r3, r3, #8
ARM GAS  C:\Users\GLENNL~1\AppData\Local\Temp\cc3qUjHy.s 			page 18


 517 0162 0B43     		orr	r3, r1
 518 0164 9BB2     		uxth	r3, r3
 519 0166 101C     		mov	r0, r2
 520 0168 191C     		mov	r1, r3
 521 016a FFF7FEFF 		bl	CYMEMZERO
 522              	.LBE4:
 444:.\Generated_Source\PSoC4/cyfitter_cfg.c **** 		for (i = 0u; i < (sizeof(cfg_memset_list)/sizeof(cfg_memset_list[0])); i++)
 523              		.loc 1 444 0 discriminator 2
 524 016e FB1D     		add	r3, r7, #7
 525 0170 FA1D     		add	r2, r7, #7
 526 0172 1278     		ldrb	r2, [r2]
 527 0174 0132     		add	r2, r2, #1
 528 0176 1A70     		strb	r2, [r3]
 529              	.L20:
 444:.\Generated_Source\PSoC4/cyfitter_cfg.c **** 		for (i = 0u; i < (sizeof(cfg_memset_list)/sizeof(cfg_memset_list[0])); i++)
 530              		.loc 1 444 0 is_stmt 0 discriminator 1
 531 0178 FB1D     		add	r3, r7, #7
 532 017a 1B78     		ldrb	r3, [r3]
 533 017c 012B     		cmp	r3, #1
 534 017e D7D9     		bls	.L21
 448:.\Generated_Source\PSoC4/cyfitter_cfg.c **** 		}
 449:.\Generated_Source\PSoC4/cyfitter_cfg.c **** 
 450:.\Generated_Source\PSoC4/cyfitter_cfg.c **** 		cfg_write_bytes32(cy_cfg_addr_table, cy_cfg_data_table);
 535              		.loc 1 450 0 is_stmt 1
 536 0180 254A     		ldr	r2, .L22+4
 537 0182 264B     		ldr	r3, .L22+8
 538 0184 101C     		mov	r0, r2
 539 0186 191C     		mov	r1, r3
 540 0188 FFF7FEFF 		bl	cfg_write_bytes32
 451:.\Generated_Source\PSoC4/cyfitter_cfg.c **** 
 452:.\Generated_Source\PSoC4/cyfitter_cfg.c **** 		/* HSIOM Starting address: CYDEV_HSIOM_BASE */
 453:.\Generated_Source\PSoC4/cyfitter_cfg.c **** 		CY_SET_XTND_REG32((void CYFAR *)(CYDEV_HSIOM_BASE), 0x00000003u);
 541              		.loc 1 453 0
 542 018c 244B     		ldr	r3, .L22+12
 543 018e 0322     		mov	r2, #3
 544 0190 1A60     		str	r2, [r3]
 454:.\Generated_Source\PSoC4/cyfitter_cfg.c **** 		CY_SET_XTND_REG32((void CYFAR *)(CYREG_HSIOM_PORT_SEL2), 0x00333333u);
 545              		.loc 1 454 0
 546 0192 244B     		ldr	r3, .L22+16
 547 0194 244A     		ldr	r2, .L22+20
 548 0196 1A60     		str	r2, [r3]
 455:.\Generated_Source\PSoC4/cyfitter_cfg.c **** 		CY_SET_XTND_REG32((void CYFAR *)(CYREG_HSIOM_PORT_SEL3), 0x0000EE00u);
 549              		.loc 1 455 0
 550 0198 244B     		ldr	r3, .L22+24
 551 019a EE22     		mov	r2, #238
 552 019c 1202     		lsl	r2, r2, #8
 553 019e 1A60     		str	r2, [r3]
 456:.\Generated_Source\PSoC4/cyfitter_cfg.c **** 
 457:.\Generated_Source\PSoC4/cyfitter_cfg.c **** 		/* IOPINS0_0 Starting address: CYDEV_PRT0_DR */
 458:.\Generated_Source\PSoC4/cyfitter_cfg.c **** 		CY_SET_XTND_REG32((void CYFAR *)(CYREG_PRT0_DR), 0x00000001u);
 554              		.loc 1 458 0
 555 01a0 234B     		ldr	r3, .L22+28
 556 01a2 0122     		mov	r2, #1
 557 01a4 1A60     		str	r2, [r3]
 459:.\Generated_Source\PSoC4/cyfitter_cfg.c **** 		CY_SET_XTND_REG32((void CYFAR *)(CYREG_PRT0_PC), 0x00000003u);
 558              		.loc 1 459 0
 559 01a6 234B     		ldr	r3, .L22+32
ARM GAS  C:\Users\GLENNL~1\AppData\Local\Temp\cc3qUjHy.s 			page 19


 560 01a8 0322     		mov	r2, #3
 561 01aa 1A60     		str	r2, [r3]
 460:.\Generated_Source\PSoC4/cyfitter_cfg.c **** 
 461:.\Generated_Source\PSoC4/cyfitter_cfg.c **** 		/* IOPINS0_2 Starting address: CYDEV_PRT2_DR */
 462:.\Generated_Source\PSoC4/cyfitter_cfg.c **** 		CY_SET_XTND_REG32((void CYFAR *)(CYREG_PRT2_DR), 0x0000003Fu);
 562              		.loc 1 462 0
 563 01ac 224B     		ldr	r3, .L22+36
 564 01ae 3F22     		mov	r2, #63
 565 01b0 1A60     		str	r2, [r3]
 463:.\Generated_Source\PSoC4/cyfitter_cfg.c **** 		CY_SET_XTND_REG32((void CYFAR *)(CYREG_PRT2_PC), 0x0001B6DBu);
 566              		.loc 1 463 0
 567 01b2 224B     		ldr	r3, .L22+40
 568 01b4 224A     		ldr	r2, .L22+44
 569 01b6 1A60     		str	r2, [r3]
 464:.\Generated_Source\PSoC4/cyfitter_cfg.c **** 
 465:.\Generated_Source\PSoC4/cyfitter_cfg.c **** 		/* IOPINS0_3 Starting address: CYDEV_PRT3_DR */
 466:.\Generated_Source\PSoC4/cyfitter_cfg.c **** 		CY_SET_XTND_REG32((void CYFAR *)(CYREG_PRT3_PC), 0x00000D80u);
 570              		.loc 1 466 0
 571 01b8 224B     		ldr	r3, .L22+48
 572 01ba D822     		mov	r2, #216
 573 01bc 1201     		lsl	r2, r2, #4
 574 01be 1A60     		str	r2, [r3]
 467:.\Generated_Source\PSoC4/cyfitter_cfg.c **** 
 468:.\Generated_Source\PSoC4/cyfitter_cfg.c **** 		/* UDB_PA_0 Starting address: CYDEV_UDB_PA0_BASE */
 469:.\Generated_Source\PSoC4/cyfitter_cfg.c **** 		CY_SET_XTND_REG32((void CYFAR *)(CYDEV_UDB_PA0_BASE), 0x00990000u);
 575              		.loc 1 469 0
 576 01c0 214B     		ldr	r3, .L22+52
 577 01c2 9922     		mov	r2, #153
 578 01c4 1204     		lsl	r2, r2, #16
 579 01c6 1A60     		str	r2, [r3]
 470:.\Generated_Source\PSoC4/cyfitter_cfg.c **** 		CY_SET_XTND_REG32((void CYFAR *)(CYREG_UDB_PA0_CFG8), 0x00010000u);
 580              		.loc 1 470 0
 581 01c8 204B     		ldr	r3, .L22+56
 582 01ca 8022     		mov	r2, #128
 583 01cc 5202     		lsl	r2, r2, #9
 584 01ce 1A60     		str	r2, [r3]
 471:.\Generated_Source\PSoC4/cyfitter_cfg.c **** 
 472:.\Generated_Source\PSoC4/cyfitter_cfg.c **** 		/* UDB_PA_2 Starting address: CYDEV_UDB_PA2_BASE */
 473:.\Generated_Source\PSoC4/cyfitter_cfg.c **** 		CY_SET_XTND_REG32((void CYFAR *)(CYDEV_UDB_PA2_BASE), 0x00990000u);
 585              		.loc 1 473 0
 586 01d0 1F4B     		ldr	r3, .L22+60
 587 01d2 9922     		mov	r2, #153
 588 01d4 1204     		lsl	r2, r2, #16
 589 01d6 1A60     		str	r2, [r3]
 474:.\Generated_Source\PSoC4/cyfitter_cfg.c **** 		CY_SET_XTND_REG32((void CYFAR *)(CYREG_UDB_PA2_CFG8), 0x078D0000u);
 590              		.loc 1 474 0
 591 01d8 1E4B     		ldr	r3, .L22+64
 592 01da 1F4A     		ldr	r2, .L22+68
 593 01dc 1A60     		str	r2, [r3]
 475:.\Generated_Source\PSoC4/cyfitter_cfg.c **** 
 476:.\Generated_Source\PSoC4/cyfitter_cfg.c **** 		/* UDB_PA_3 Starting address: CYDEV_UDB_PA3_BASE */
 477:.\Generated_Source\PSoC4/cyfitter_cfg.c **** 		CY_SET_XTND_REG32((void CYFAR *)(CYDEV_UDB_PA3_BASE), 0x00990000u);
 594              		.loc 1 477 0
 595 01de 1F4B     		ldr	r3, .L22+72
 596 01e0 9922     		mov	r2, #153
 597 01e2 1204     		lsl	r2, r2, #16
 598 01e4 1A60     		str	r2, [r3]
ARM GAS  C:\Users\GLENNL~1\AppData\Local\Temp\cc3qUjHy.s 			page 20


 478:.\Generated_Source\PSoC4/cyfitter_cfg.c **** 
 479:.\Generated_Source\PSoC4/cyfitter_cfg.c **** 		/* Enable digital routing */
 480:.\Generated_Source\PSoC4/cyfitter_cfg.c **** 		CY_SET_XTND_REG8((void *)CYREG_UDB_UDBIF_BANK_CTL, CY_GET_XTND_REG8((void *)CYREG_UDB_UDBIF_BANK_
 599              		.loc 1 480 0
 600 01e6 1E4B     		ldr	r3, .L22+76
 601 01e8 1D4A     		ldr	r2, .L22+76
 602 01ea 1278     		ldrb	r2, [r2]
 603 01ec D2B2     		uxtb	r2, r2
 604 01ee 0221     		mov	r1, #2
 605 01f0 0A43     		orr	r2, r1
 606 01f2 D2B2     		uxtb	r2, r2
 607 01f4 1A70     		strb	r2, [r3]
 481:.\Generated_Source\PSoC4/cyfitter_cfg.c **** 
 482:.\Generated_Source\PSoC4/cyfitter_cfg.c **** 		/* Enable UDB array */
 483:.\Generated_Source\PSoC4/cyfitter_cfg.c **** 		CY_SET_XTND_REG8((void *)CYREG_UDB_UDBIF_BANK_CTL, CY_GET_XTND_REG8((void *)CYREG_UDB_UDBIF_BANK_
 608              		.loc 1 483 0
 609 01f6 1A4B     		ldr	r3, .L22+76
 610 01f8 194A     		ldr	r2, .L22+76
 611 01fa 1278     		ldrb	r2, [r2]
 612 01fc D2B2     		uxtb	r2, r2
 613 01fe 0621     		mov	r1, #6
 614 0200 0A43     		orr	r2, r1
 615 0202 D2B2     		uxtb	r2, r2
 616 0204 1A70     		strb	r2, [r3]
 617              	.LBE3:
 484:.\Generated_Source\PSoC4/cyfitter_cfg.c **** 	}
 485:.\Generated_Source\PSoC4/cyfitter_cfg.c **** 
 486:.\Generated_Source\PSoC4/cyfitter_cfg.c **** 	/* Setup clocks based on selections from Clock DWR */
 487:.\Generated_Source\PSoC4/cyfitter_cfg.c **** 	ClockSetup();
 618              		.loc 1 487 0
 619 0206 FFF753FF 		bl	ClockSetup
 488:.\Generated_Source\PSoC4/cyfitter_cfg.c **** 
 489:.\Generated_Source\PSoC4/cyfitter_cfg.c **** 	/* Perform basic analog initialization to defaults */
 490:.\Generated_Source\PSoC4/cyfitter_cfg.c **** 	AnalogSetDefault();
 620              		.loc 1 490 0
 621 020a FFF7FEFF 		bl	AnalogSetDefault
 491:.\Generated_Source\PSoC4/cyfitter_cfg.c **** 
 492:.\Generated_Source\PSoC4/cyfitter_cfg.c **** }
 622              		.loc 1 492 0
 623 020e BD46     		mov	sp, r7
 624 0210 02B0     		add	sp, sp, #8
 625              		@ sp needed for prologue
 626 0212 80BD     		pop	{r7, pc}
 627              	.L23:
 628              		.align	2
 629              	.L22:
 630 0214 00000000 		.word	cfg_memset_list.4668
 631 0218 0C000000 		.word	cy_cfg_addr_table.4662
 632 021c 24000000 		.word	cy_cfg_data_table.4663
 633 0220 00000140 		.word	1073807360
 634 0224 08000140 		.word	1073807368
 635 0228 33333300 		.word	3355443
 636 022c 0C000140 		.word	1073807372
 637 0230 00000440 		.word	1074003968
 638 0234 08000440 		.word	1074003976
 639 0238 00020440 		.word	1074004480
 640 023c 08020440 		.word	1074004488
ARM GAS  C:\Users\GLENNL~1\AppData\Local\Temp\cc3qUjHy.s 			page 21


 641 0240 DBB60100 		.word	112347
 642 0244 08030440 		.word	1074004744
 643 0248 00500F40 		.word	1074745344
 644 024c 08500F40 		.word	1074745352
 645 0250 20500F40 		.word	1074745376
 646 0254 28500F40 		.word	1074745384
 647 0258 00008D07 		.word	126681088
 648 025c 30500F40 		.word	1074745392
 649 0260 00700F40 		.word	1074753536
 650              		.cfi_endproc
 651              	.LFE7:
 652              		.size	cyfitter_cfg, .-cyfitter_cfg
 653              		.section	.rodata
 654              		.align	2
 655              		.type	cfg_memset_list.4668, %object
 656              		.size	cfg_memset_list.4668, 12
 657              	cfg_memset_list.4668:
 658 0000 00300F40 		.word	1074737152
 659 0004 0004     		.short	1024
 660 0006 00400F40 		.4byte	1074741248
 661 000a 0004     		.short	1024
 662              		.align	2
 663              		.type	cy_cfg_addr_table.4662, %object
 664              		.size	cy_cfg_addr_table.4662, 24
 665              	cy_cfg_addr_table.4662:
 666 000c 2E320F40 		.word	1074737710
 667 0010 21330F40 		.word	1074737953
 668 0014 02400F40 		.word	1074741250
 669 0018 03410F40 		.word	1074741507
 670 001c 09420F40 		.word	1074741769
 671 0020 0C430F40 		.word	1074742028
 672              		.align	2
 673              		.type	cy_cfg_data_table.4663, %object
 674              		.size	cy_cfg_data_table.4663, 210
 675              	cy_cfg_data_table.4663:
 676 0024 01       		.byte	1
 677 0025 37       		.byte	55
 678 0026 04       		.byte	4
 679 0027 0C       		.byte	12
 680 0028 05       		.byte	5
 681 0029 49       		.byte	73
 682 002a 06       		.byte	6
 683 002b 02       		.byte	2
 684 002c 07       		.byte	7
 685 002d 12       		.byte	18
 686 002e 0C       		.byte	12
 687 002f 08       		.byte	8
 688 0030 0E       		.byte	14
 689 0031 01       		.byte	1
 690 0032 11       		.byte	17
 691 0033 0C       		.byte	12
 692 0034 13       		.byte	19
 693 0035 22       		.byte	34
 694 0036 15       		.byte	21
 695 0037 4A       		.byte	74
 696 0038 17       		.byte	23
 697 0039 05       		.byte	5
ARM GAS  C:\Users\GLENNL~1\AppData\Local\Temp\cc3qUjHy.s 			page 22


 698 003a 18       		.byte	24
 699 003b 0C       		.byte	12
 700 003c 1A       		.byte	26
 701 003d 01       		.byte	1
 702 003e 1C       		.byte	28
 703 003f 03       		.byte	3
 704 0040 1E       		.byte	30
 705 0041 04       		.byte	4
 706 0042 33       		.byte	51
 707 0043 0C       		.byte	12
 708 0044 35       		.byte	53
 709 0045 70       		.byte	112
 710 0046 36       		.byte	54
 711 0047 0F       		.byte	15
 712 0048 37       		.byte	55
 713 0049 0F       		.byte	15
 714 004a 3E       		.byte	62
 715 004b 40       		.byte	64
 716 004c 3F       		.byte	63
 717 004d 54       		.byte	84
 718 004e 58       		.byte	88
 719 004f 04       		.byte	4
 720 0050 59       		.byte	89
 721 0051 04       		.byte	4
 722 0052 5B       		.byte	91
 723 0053 04       		.byte	4
 724 0054 5F       		.byte	95
 725 0055 01       		.byte	1
 726 0056 80       		.byte	-128
 727 0057 33       		.byte	51
 728 0058 82       		.byte	-126
 729 0059 04       		.byte	4
 730 005a 84       		.byte	-124
 731 005b 1C       		.byte	28
 732 005c 86       		.byte	-122
 733 005d 03       		.byte	3
 734 005e 88       		.byte	-120
 735 005f 0D       		.byte	13
 736 0060 8A       		.byte	-118
 737 0061 30       		.byte	48
 738 0062 8C       		.byte	-116
 739 0063 2A       		.byte	42
 740 0064 91       		.byte	-111
 741 0065 02       		.byte	2
 742 0066 93       		.byte	-109
 743 0067 04       		.byte	4
 744 0068 95       		.byte	-107
 745 0069 0A       		.byte	10
 746 006a 97       		.byte	-105
 747 006b 04       		.byte	4
 748 006c 99       		.byte	-103
 749 006d 09       		.byte	9
 750 006e A1       		.byte	-95
 751 006f 07       		.byte	7
 752 0070 B0       		.byte	-80
 753 0071 35       		.byte	53
 754 0072 B6       		.byte	-74
ARM GAS  C:\Users\GLENNL~1\AppData\Local\Temp\cc3qUjHy.s 			page 23


 755 0073 0F       		.byte	15
 756 0074 B7       		.byte	-73
 757 0075 0F       		.byte	15
 758 0076 BE       		.byte	-66
 759 0077 41       		.byte	65
 760 0078 BF       		.byte	-65
 761 0079 40       		.byte	64
 762 007a D8       		.byte	-40
 763 007b 04       		.byte	4
 764 007c D9       		.byte	-39
 765 007d 04       		.byte	4
 766 007e DF       		.byte	-33
 767 007f 01       		.byte	1
 768 0080 03       		.byte	3
 769 0081 A5       		.byte	-91
 770 0082 04       		.byte	4
 771 0083 08       		.byte	8
 772 0084 07       		.byte	7
 773 0085 01       		.byte	1
 774 0086 0E       		.byte	14
 775 0087 05       		.byte	5
 776 0088 18       		.byte	24
 777 0089 02       		.byte	2
 778 008a 1A       		.byte	26
 779 008b 80       		.byte	-128
 780 008c 1F       		.byte	31
 781 008d 40       		.byte	64
 782 008e 23       		.byte	35
 783 008f 01       		.byte	1
 784 0090 26       		.byte	38
 785 0091 60       		.byte	96
 786 0092 27       		.byte	39
 787 0093 10       		.byte	16
 788 0094 2B       		.byte	43
 789 0095 80       		.byte	-128
 790 0096 33       		.byte	51
 791 0097 25       		.byte	37
 792 0098 37       		.byte	55
 793 0099 05       		.byte	5
 794 009a 3E       		.byte	62
 795 009b 05       		.byte	5
 796 009c 6C       		.byte	108
 797 009d 04       		.byte	4
 798 009e 6E       		.byte	110
 799 009f 05       		.byte	5
 800 00a0 6F       		.byte	111
 801 00a1 A5       		.byte	-91
 802 00a2 80       		.byte	-128
 803 00a3 01       		.byte	1
 804 00a4 82       		.byte	-126
 805 00a5 40       		.byte	64
 806 00a6 83       		.byte	-125
 807 00a7 01       		.byte	1
 808 00a8 87       		.byte	-121
 809 00a9 40       		.byte	64
 810 00aa 8A       		.byte	-118
 811 00ab 20       		.byte	32
ARM GAS  C:\Users\GLENNL~1\AppData\Local\Temp\cc3qUjHy.s 			page 24


 812 00ac 8F       		.byte	-113
 813 00ad 10       		.byte	16
 814 00ae A6       		.byte	-90
 815 00af 40       		.byte	64
 816 00b0 AE       		.byte	-82
 817 00b1 40       		.byte	64
 818 00b2 C0       		.byte	-64
 819 00b3 AF       		.byte	-81
 820 00b4 C2       		.byte	-62
 821 00b5 C0       		.byte	-64
 822 00b6 CA       		.byte	-54
 823 00b7 01       		.byte	1
 824 00b8 CC       		.byte	-52
 825 00b9 C7       		.byte	-57
 826 00ba CE       		.byte	-50
 827 00bb C0       		.byte	-64
 828 00bc E0       		.byte	-32
 829 00bd 09       		.byte	9
 830 00be E4       		.byte	-28
 831 00bf 04       		.byte	4
 832 00c0 EC       		.byte	-20
 833 00c1 02       		.byte	2
 834 00c2 57       		.byte	87
 835 00c3 08       		.byte	8
 836 00c4 D4       		.byte	-44
 837 00c5 40       		.byte	64
 838 00c6 83       		.byte	-125
 839 00c7 08       		.byte	8
 840 00c8 A7       		.byte	-89
 841 00c9 08       		.byte	8
 842 00ca E6       		.byte	-26
 843 00cb 80       		.byte	-128
 844 00cc 53       		.byte	83
 845 00cd 10       		.byte	16
 846 00ce 55       		.byte	85
 847 00cf 20       		.byte	32
 848 00d0 58       		.byte	88
 849 00d1 10       		.byte	16
 850 00d2 5E       		.byte	94
 851 00d3 10       		.byte	16
 852 00d4 66       		.byte	102
 853 00d5 20       		.byte	32
 854 00d6 67       		.byte	103
 855 00d7 02       		.byte	2
 856 00d8 D4       		.byte	-44
 857 00d9 07       		.byte	7
 858 00da D6       		.byte	-42
 859 00db 05       		.byte	5
 860 00dc D8       		.byte	-40
 861 00dd 01       		.byte	1
 862 00de 82       		.byte	-126
 863 00df 10       		.byte	16
 864 00e0 83       		.byte	-125
 865 00e1 01       		.byte	1
 866 00e2 85       		.byte	-123
 867 00e3 20       		.byte	32
 868 00e4 8B       		.byte	-117
ARM GAS  C:\Users\GLENNL~1\AppData\Local\Temp\cc3qUjHy.s 			page 25


 869 00e5 10       		.byte	16
 870 00e6 8E       		.byte	-114
 871 00e7 20       		.byte	32
 872 00e8 96       		.byte	-106
 873 00e9 10       		.byte	16
 874 00ea 97       		.byte	-105
 875 00eb 22       		.byte	34
 876 00ec 9E       		.byte	-98
 877 00ed 20       		.byte	32
 878 00ee A5       		.byte	-91
 879 00ef 20       		.byte	32
 880 00f0 AC       		.byte	-84
 881 00f1 10       		.byte	16
 882 00f2 E0       		.byte	-32
 883 00f3 04       		.byte	4
 884 00f4 E4       		.byte	-28
 885 00f5 02       		.byte	2
 886 00f6 0000     		.align	2
 887              		.type	IMO_TRIM_FREQ_TABLE_ENTRIES.4642, %object
 888              		.size	IMO_TRIM_FREQ_TABLE_ENTRIES.4642, 4
 889              	IMO_TRIM_FREQ_TABLE_ENTRIES.4642:
 890 00f8 04000000 		.word	4
 891              		.data
 892              		.align	2
 893              		.type	imo_trim_table.4641, %object
 894              		.size	imo_trim_table.4641, 4
 895              	imo_trim_table.4641:
 896 0000 C0F1FF0F 		.word	268431808
 897              		.text
 898              	.Letext0:
 899              		.file 2 "c:\\program files\\cypress\\psoc creator\\3.0\\psoc creator\\import\\gnu_cs\\arm\\4.7.3\\
 900              		.file 3 "./Generated_Source/PSoC4/cytypes.h"