ARM GAS  C:\Users\GLENNL~1\AppData\Local\Temp\cc5PnVFu.s 			page 1


   1              		.cpu cortex-m0
   2              		.fpu softvfp
   3              		.eabi_attribute 20, 1
   4              		.eabi_attribute 21, 1
   5              		.eabi_attribute 23, 3
   6              		.eabi_attribute 24, 1
   7              		.eabi_attribute 25, 1
   8              		.eabi_attribute 26, 1
   9              		.eabi_attribute 30, 6
  10              		.eabi_attribute 34, 0
  11              		.eabi_attribute 18, 4
  12              		.code	16
  13              		.file	"LED_A.c"
  14              		.text
  15              	.Ltext0:
  16              		.cfi_sections	.debug_frame
  17              		.section	.text.LED_A_Write,"ax",%progbits
  18              		.align	2
  19              		.global	LED_A_Write
  20              		.code	16
  21              		.thumb_func
  22              		.type	LED_A_Write, %function
  23              	LED_A_Write:
  24              	.LFB0:
  25              		.file 1 ".\\Generated_Source\\PSoC4\\LED_A.c"
   1:.\Generated_Source\PSoC4/LED_A.c **** /*******************************************************************************
   2:.\Generated_Source\PSoC4/LED_A.c **** * File Name: LED_A.c  
   3:.\Generated_Source\PSoC4/LED_A.c **** * Version 2.5
   4:.\Generated_Source\PSoC4/LED_A.c **** *
   5:.\Generated_Source\PSoC4/LED_A.c **** * Description:
   6:.\Generated_Source\PSoC4/LED_A.c **** *  This file contains API to enable firmware control of a Pins component.
   7:.\Generated_Source\PSoC4/LED_A.c **** *
   8:.\Generated_Source\PSoC4/LED_A.c **** * Note:
   9:.\Generated_Source\PSoC4/LED_A.c **** *
  10:.\Generated_Source\PSoC4/LED_A.c **** ********************************************************************************
  11:.\Generated_Source\PSoC4/LED_A.c **** * Copyright 2008-2014, Cypress Semiconductor Corporation.  All rights reserved.
  12:.\Generated_Source\PSoC4/LED_A.c **** * You may use this file only in accordance with the license, terms, conditions, 
  13:.\Generated_Source\PSoC4/LED_A.c **** * disclaimers, and limitations in the end user license agreement accompanying 
  14:.\Generated_Source\PSoC4/LED_A.c **** * the software package with which this file was provided.
  15:.\Generated_Source\PSoC4/LED_A.c **** *******************************************************************************/
  16:.\Generated_Source\PSoC4/LED_A.c **** 
  17:.\Generated_Source\PSoC4/LED_A.c **** #include "cytypes.h"
  18:.\Generated_Source\PSoC4/LED_A.c **** #include "LED_A.h"
  19:.\Generated_Source\PSoC4/LED_A.c **** 
  20:.\Generated_Source\PSoC4/LED_A.c **** #define SetP4PinDriveMode(shift, mode)  \
  21:.\Generated_Source\PSoC4/LED_A.c ****     do { \
  22:.\Generated_Source\PSoC4/LED_A.c ****         LED_A_PC =   (LED_A_PC & \
  23:.\Generated_Source\PSoC4/LED_A.c ****                                 (uint32)(~(uint32)(LED_A_DRIVE_MODE_IND_MASK << (LED_A_DRIVE_MODE_B
  24:.\Generated_Source\PSoC4/LED_A.c ****                                 (uint32)((uint32)(mode) << (LED_A_DRIVE_MODE_BITS * (shift))); \
  25:.\Generated_Source\PSoC4/LED_A.c ****     } while (0)
  26:.\Generated_Source\PSoC4/LED_A.c **** 
  27:.\Generated_Source\PSoC4/LED_A.c **** 
  28:.\Generated_Source\PSoC4/LED_A.c **** /*******************************************************************************
  29:.\Generated_Source\PSoC4/LED_A.c **** * Function Name: LED_A_Write
  30:.\Generated_Source\PSoC4/LED_A.c **** ********************************************************************************
  31:.\Generated_Source\PSoC4/LED_A.c **** *
  32:.\Generated_Source\PSoC4/LED_A.c **** * Summary:
ARM GAS  C:\Users\GLENNL~1\AppData\Local\Temp\cc5PnVFu.s 			page 2


  33:.\Generated_Source\PSoC4/LED_A.c **** *  Assign a new value to the digital port's data output register.  
  34:.\Generated_Source\PSoC4/LED_A.c **** *
  35:.\Generated_Source\PSoC4/LED_A.c **** * Parameters:  
  36:.\Generated_Source\PSoC4/LED_A.c **** *  prtValue:  The value to be assigned to the Digital Port. 
  37:.\Generated_Source\PSoC4/LED_A.c **** *
  38:.\Generated_Source\PSoC4/LED_A.c **** * Return: 
  39:.\Generated_Source\PSoC4/LED_A.c **** *  None 
  40:.\Generated_Source\PSoC4/LED_A.c **** *  
  41:.\Generated_Source\PSoC4/LED_A.c **** *******************************************************************************/
  42:.\Generated_Source\PSoC4/LED_A.c **** void LED_A_Write(uint8 value) 
  43:.\Generated_Source\PSoC4/LED_A.c **** {
  26              		.loc 1 43 0
  27              		.cfi_startproc
  28 0000 80B5     		push	{r7, lr}
  29              	.LCFI0:
  30              		.cfi_def_cfa_offset 8
  31              		.cfi_offset 7, -8
  32              		.cfi_offset 14, -4
  33 0002 84B0     		sub	sp, sp, #16
  34              	.LCFI1:
  35              		.cfi_def_cfa_offset 24
  36 0004 00AF     		add	r7, sp, #0
  37              	.LCFI2:
  38              		.cfi_def_cfa_register 7
  39 0006 021C     		mov	r2, r0
  40 0008 FB1D     		add	r3, r7, #7
  41 000a 1A70     		strb	r2, [r3]
  44:.\Generated_Source\PSoC4/LED_A.c ****     uint8 drVal = (uint8)(LED_A_DR & (uint8)(~LED_A_MASK));
  42              		.loc 1 44 0
  43 000c 0D4B     		ldr	r3, .L2
  44 000e 1B68     		ldr	r3, [r3]
  45 0010 DAB2     		uxtb	r2, r3
  46 0012 3B1C     		mov	r3, r7
  47 0014 0F33     		add	r3, r3, #15
  48 0016 0121     		mov	r1, #1
  49 0018 8A43     		bic	r2, r1
  50 001a 1A70     		strb	r2, [r3]
  45:.\Generated_Source\PSoC4/LED_A.c ****     drVal = (drVal | ((uint8)(value << LED_A_SHIFT) & LED_A_MASK));
  51              		.loc 1 45 0
  52 001c FB1D     		add	r3, r7, #7
  53 001e 1A78     		ldrb	r2, [r3]
  54 0020 0123     		mov	r3, #1
  55 0022 1340     		and	r3, r2
  56 0024 D9B2     		uxtb	r1, r3
  57 0026 3B1C     		mov	r3, r7
  58 0028 0F33     		add	r3, r3, #15
  59 002a 3A1C     		mov	r2, r7
  60 002c 0F32     		add	r2, r2, #15
  61 002e 1278     		ldrb	r2, [r2]
  62 0030 0A43     		orr	r2, r1
  63 0032 1A70     		strb	r2, [r3]
  46:.\Generated_Source\PSoC4/LED_A.c ****     LED_A_DR = (uint32)drVal;
  64              		.loc 1 46 0
  65 0034 034B     		ldr	r3, .L2
  66 0036 3A1C     		mov	r2, r7
  67 0038 0F32     		add	r2, r2, #15
  68 003a 1278     		ldrb	r2, [r2]
ARM GAS  C:\Users\GLENNL~1\AppData\Local\Temp\cc5PnVFu.s 			page 3


  69 003c 1A60     		str	r2, [r3]
  47:.\Generated_Source\PSoC4/LED_A.c **** }
  70              		.loc 1 47 0
  71 003e BD46     		mov	sp, r7
  72 0040 04B0     		add	sp, sp, #16
  73              		@ sp needed for prologue
  74 0042 80BD     		pop	{r7, pc}
  75              	.L3:
  76              		.align	2
  77              	.L2:
  78 0044 00020440 		.word	1074004480
  79              		.cfi_endproc
  80              	.LFE0:
  81              		.size	LED_A_Write, .-LED_A_Write
  82              		.section	.text.LED_A_SetDriveMode,"ax",%progbits
  83              		.align	2
  84              		.global	LED_A_SetDriveMode
  85              		.code	16
  86              		.thumb_func
  87              		.type	LED_A_SetDriveMode, %function
  88              	LED_A_SetDriveMode:
  89              	.LFB1:
  48:.\Generated_Source\PSoC4/LED_A.c **** 
  49:.\Generated_Source\PSoC4/LED_A.c **** 
  50:.\Generated_Source\PSoC4/LED_A.c **** /*******************************************************************************
  51:.\Generated_Source\PSoC4/LED_A.c **** * Function Name: LED_A_SetDriveMode
  52:.\Generated_Source\PSoC4/LED_A.c **** ********************************************************************************
  53:.\Generated_Source\PSoC4/LED_A.c **** *
  54:.\Generated_Source\PSoC4/LED_A.c **** * Summary:
  55:.\Generated_Source\PSoC4/LED_A.c **** *  Change the drive mode on the pins of the port.
  56:.\Generated_Source\PSoC4/LED_A.c **** * 
  57:.\Generated_Source\PSoC4/LED_A.c **** * Parameters:  
  58:.\Generated_Source\PSoC4/LED_A.c **** *  mode:  Change the pins to one of the following drive modes.
  59:.\Generated_Source\PSoC4/LED_A.c **** *
  60:.\Generated_Source\PSoC4/LED_A.c **** *  LED_A_DM_STRONG     Strong Drive 
  61:.\Generated_Source\PSoC4/LED_A.c **** *  LED_A_DM_OD_HI      Open Drain, Drives High 
  62:.\Generated_Source\PSoC4/LED_A.c **** *  LED_A_DM_OD_LO      Open Drain, Drives Low 
  63:.\Generated_Source\PSoC4/LED_A.c **** *  LED_A_DM_RES_UP     Resistive Pull Up 
  64:.\Generated_Source\PSoC4/LED_A.c **** *  LED_A_DM_RES_DWN    Resistive Pull Down 
  65:.\Generated_Source\PSoC4/LED_A.c **** *  LED_A_DM_RES_UPDWN  Resistive Pull Up/Down 
  66:.\Generated_Source\PSoC4/LED_A.c **** *  LED_A_DM_DIG_HIZ    High Impedance Digital 
  67:.\Generated_Source\PSoC4/LED_A.c **** *  LED_A_DM_ALG_HIZ    High Impedance Analog 
  68:.\Generated_Source\PSoC4/LED_A.c **** *
  69:.\Generated_Source\PSoC4/LED_A.c **** * Return: 
  70:.\Generated_Source\PSoC4/LED_A.c **** *  None
  71:.\Generated_Source\PSoC4/LED_A.c **** *
  72:.\Generated_Source\PSoC4/LED_A.c **** *******************************************************************************/
  73:.\Generated_Source\PSoC4/LED_A.c **** void LED_A_SetDriveMode(uint8 mode) 
  74:.\Generated_Source\PSoC4/LED_A.c **** {
  90              		.loc 1 74 0
  91              		.cfi_startproc
  92 0000 80B5     		push	{r7, lr}
  93              	.LCFI3:
  94              		.cfi_def_cfa_offset 8
  95              		.cfi_offset 7, -8
  96              		.cfi_offset 14, -4
  97 0002 82B0     		sub	sp, sp, #8
ARM GAS  C:\Users\GLENNL~1\AppData\Local\Temp\cc5PnVFu.s 			page 4


  98              	.LCFI4:
  99              		.cfi_def_cfa_offset 16
 100 0004 00AF     		add	r7, sp, #0
 101              	.LCFI5:
 102              		.cfi_def_cfa_register 7
 103 0006 021C     		mov	r2, r0
 104 0008 FB1D     		add	r3, r7, #7
 105 000a 1A70     		strb	r2, [r3]
  75:.\Generated_Source\PSoC4/LED_A.c **** 	SetP4PinDriveMode(LED_A__0__SHIFT, mode);
 106              		.loc 1 75 0
 107 000c 064B     		ldr	r3, .L5
 108 000e 064A     		ldr	r2, .L5
 109 0010 1268     		ldr	r2, [r2]
 110 0012 0721     		mov	r1, #7
 111 0014 101C     		mov	r0, r2
 112 0016 8843     		bic	r0, r1
 113 0018 011C     		mov	r1, r0
 114 001a FA1D     		add	r2, r7, #7
 115 001c 1278     		ldrb	r2, [r2]
 116 001e 0A43     		orr	r2, r1
 117 0020 1A60     		str	r2, [r3]
  76:.\Generated_Source\PSoC4/LED_A.c **** }
 118              		.loc 1 76 0
 119 0022 BD46     		mov	sp, r7
 120 0024 02B0     		add	sp, sp, #8
 121              		@ sp needed for prologue
 122 0026 80BD     		pop	{r7, pc}
 123              	.L6:
 124              		.align	2
 125              	.L5:
 126 0028 08020440 		.word	1074004488
 127              		.cfi_endproc
 128              	.LFE1:
 129              		.size	LED_A_SetDriveMode, .-LED_A_SetDriveMode
 130              		.section	.text.LED_A_Read,"ax",%progbits
 131              		.align	2
 132              		.global	LED_A_Read
 133              		.code	16
 134              		.thumb_func
 135              		.type	LED_A_Read, %function
 136              	LED_A_Read:
 137              	.LFB2:
  77:.\Generated_Source\PSoC4/LED_A.c **** 
  78:.\Generated_Source\PSoC4/LED_A.c **** 
  79:.\Generated_Source\PSoC4/LED_A.c **** /*******************************************************************************
  80:.\Generated_Source\PSoC4/LED_A.c **** * Function Name: LED_A_Read
  81:.\Generated_Source\PSoC4/LED_A.c **** ********************************************************************************
  82:.\Generated_Source\PSoC4/LED_A.c **** *
  83:.\Generated_Source\PSoC4/LED_A.c **** * Summary:
  84:.\Generated_Source\PSoC4/LED_A.c **** *  Read the current value on the pins of the Digital Port in right justified 
  85:.\Generated_Source\PSoC4/LED_A.c **** *  form.
  86:.\Generated_Source\PSoC4/LED_A.c **** *
  87:.\Generated_Source\PSoC4/LED_A.c **** * Parameters:  
  88:.\Generated_Source\PSoC4/LED_A.c **** *  None 
  89:.\Generated_Source\PSoC4/LED_A.c **** *
  90:.\Generated_Source\PSoC4/LED_A.c **** * Return: 
  91:.\Generated_Source\PSoC4/LED_A.c **** *  Returns the current value of the Digital Port as a right justified number
ARM GAS  C:\Users\GLENNL~1\AppData\Local\Temp\cc5PnVFu.s 			page 5


  92:.\Generated_Source\PSoC4/LED_A.c **** *  
  93:.\Generated_Source\PSoC4/LED_A.c **** * Note:
  94:.\Generated_Source\PSoC4/LED_A.c **** *  Macro LED_A_ReadPS calls this function. 
  95:.\Generated_Source\PSoC4/LED_A.c **** *  
  96:.\Generated_Source\PSoC4/LED_A.c **** *******************************************************************************/
  97:.\Generated_Source\PSoC4/LED_A.c **** uint8 LED_A_Read(void) 
  98:.\Generated_Source\PSoC4/LED_A.c **** {
 138              		.loc 1 98 0
 139              		.cfi_startproc
 140 0000 80B5     		push	{r7, lr}
 141              	.LCFI6:
 142              		.cfi_def_cfa_offset 8
 143              		.cfi_offset 7, -8
 144              		.cfi_offset 14, -4
 145 0002 00AF     		add	r7, sp, #0
 146              	.LCFI7:
 147              		.cfi_def_cfa_register 7
  99:.\Generated_Source\PSoC4/LED_A.c ****     return (uint8)((LED_A_PS & LED_A_MASK) >> LED_A_SHIFT);
 148              		.loc 1 99 0
 149 0004 044B     		ldr	r3, .L9
 150 0006 1B68     		ldr	r3, [r3]
 151 0008 DAB2     		uxtb	r2, r3
 152 000a 0123     		mov	r3, #1
 153 000c 1340     		and	r3, r2
 154 000e DBB2     		uxtb	r3, r3
 100:.\Generated_Source\PSoC4/LED_A.c **** }
 155              		.loc 1 100 0
 156 0010 181C     		mov	r0, r3
 157 0012 BD46     		mov	sp, r7
 158              		@ sp needed for prologue
 159 0014 80BD     		pop	{r7, pc}
 160              	.L10:
 161 0016 C046     		.align	2
 162              	.L9:
 163 0018 04020440 		.word	1074004484
 164              		.cfi_endproc
 165              	.LFE2:
 166              		.size	LED_A_Read, .-LED_A_Read
 167              		.section	.text.LED_A_ReadDataReg,"ax",%progbits
 168              		.align	2
 169              		.global	LED_A_ReadDataReg
 170              		.code	16
 171              		.thumb_func
 172              		.type	LED_A_ReadDataReg, %function
 173              	LED_A_ReadDataReg:
 174              	.LFB3:
 101:.\Generated_Source\PSoC4/LED_A.c **** 
 102:.\Generated_Source\PSoC4/LED_A.c **** 
 103:.\Generated_Source\PSoC4/LED_A.c **** /*******************************************************************************
 104:.\Generated_Source\PSoC4/LED_A.c **** * Function Name: LED_A_ReadDataReg
 105:.\Generated_Source\PSoC4/LED_A.c **** ********************************************************************************
 106:.\Generated_Source\PSoC4/LED_A.c **** *
 107:.\Generated_Source\PSoC4/LED_A.c **** * Summary:
 108:.\Generated_Source\PSoC4/LED_A.c **** *  Read the current value assigned to a Digital Port's data output register
 109:.\Generated_Source\PSoC4/LED_A.c **** *
 110:.\Generated_Source\PSoC4/LED_A.c **** * Parameters:  
 111:.\Generated_Source\PSoC4/LED_A.c **** *  None 
ARM GAS  C:\Users\GLENNL~1\AppData\Local\Temp\cc5PnVFu.s 			page 6


 112:.\Generated_Source\PSoC4/LED_A.c **** *
 113:.\Generated_Source\PSoC4/LED_A.c **** * Return: 
 114:.\Generated_Source\PSoC4/LED_A.c **** *  Returns the current value assigned to the Digital Port's data output register
 115:.\Generated_Source\PSoC4/LED_A.c **** *  
 116:.\Generated_Source\PSoC4/LED_A.c **** *******************************************************************************/
 117:.\Generated_Source\PSoC4/LED_A.c **** uint8 LED_A_ReadDataReg(void) 
 118:.\Generated_Source\PSoC4/LED_A.c **** {
 175              		.loc 1 118 0
 176              		.cfi_startproc
 177 0000 80B5     		push	{r7, lr}
 178              	.LCFI8:
 179              		.cfi_def_cfa_offset 8
 180              		.cfi_offset 7, -8
 181              		.cfi_offset 14, -4
 182 0002 00AF     		add	r7, sp, #0
 183              	.LCFI9:
 184              		.cfi_def_cfa_register 7
 119:.\Generated_Source\PSoC4/LED_A.c ****     return (uint8)((LED_A_DR & LED_A_MASK) >> LED_A_SHIFT);
 185              		.loc 1 119 0
 186 0004 044B     		ldr	r3, .L13
 187 0006 1B68     		ldr	r3, [r3]
 188 0008 DAB2     		uxtb	r2, r3
 189 000a 0123     		mov	r3, #1
 190 000c 1340     		and	r3, r2
 191 000e DBB2     		uxtb	r3, r3
 120:.\Generated_Source\PSoC4/LED_A.c **** }
 192              		.loc 1 120 0
 193 0010 181C     		mov	r0, r3
 194 0012 BD46     		mov	sp, r7
 195              		@ sp needed for prologue
 196 0014 80BD     		pop	{r7, pc}
 197              	.L14:
 198 0016 C046     		.align	2
 199              	.L13:
 200 0018 00020440 		.word	1074004480
 201              		.cfi_endproc
 202              	.LFE3:
 203              		.size	LED_A_ReadDataReg, .-LED_A_ReadDataReg
 204              		.section	.text.LED_A_ClearInterrupt,"ax",%progbits
 205              		.align	2
 206              		.global	LED_A_ClearInterrupt
 207              		.code	16
 208              		.thumb_func
 209              		.type	LED_A_ClearInterrupt, %function
 210              	LED_A_ClearInterrupt:
 211              	.LFB4:
 121:.\Generated_Source\PSoC4/LED_A.c **** 
 122:.\Generated_Source\PSoC4/LED_A.c **** 
 123:.\Generated_Source\PSoC4/LED_A.c **** /* If Interrupts Are Enabled for this Pins component */ 
 124:.\Generated_Source\PSoC4/LED_A.c **** #if defined(LED_A_INTSTAT) 
 125:.\Generated_Source\PSoC4/LED_A.c **** 
 126:.\Generated_Source\PSoC4/LED_A.c ****     /*******************************************************************************
 127:.\Generated_Source\PSoC4/LED_A.c ****     * Function Name: LED_A_ClearInterrupt
 128:.\Generated_Source\PSoC4/LED_A.c ****     ********************************************************************************
 129:.\Generated_Source\PSoC4/LED_A.c ****     *
 130:.\Generated_Source\PSoC4/LED_A.c ****     * Summary:
 131:.\Generated_Source\PSoC4/LED_A.c ****     *  Clears any active interrupts attached to port and returns the value of the 
ARM GAS  C:\Users\GLENNL~1\AppData\Local\Temp\cc5PnVFu.s 			page 7


 132:.\Generated_Source\PSoC4/LED_A.c ****     *  interrupt status register.
 133:.\Generated_Source\PSoC4/LED_A.c ****     *
 134:.\Generated_Source\PSoC4/LED_A.c ****     * Parameters:  
 135:.\Generated_Source\PSoC4/LED_A.c ****     *  None 
 136:.\Generated_Source\PSoC4/LED_A.c ****     *
 137:.\Generated_Source\PSoC4/LED_A.c ****     * Return: 
 138:.\Generated_Source\PSoC4/LED_A.c ****     *  Returns the value of the interrupt status register
 139:.\Generated_Source\PSoC4/LED_A.c ****     *  
 140:.\Generated_Source\PSoC4/LED_A.c ****     *******************************************************************************/
 141:.\Generated_Source\PSoC4/LED_A.c ****     uint8 LED_A_ClearInterrupt(void) 
 142:.\Generated_Source\PSoC4/LED_A.c ****     {
 212              		.loc 1 142 0
 213              		.cfi_startproc
 214 0000 80B5     		push	{r7, lr}
 215              	.LCFI10:
 216              		.cfi_def_cfa_offset 8
 217              		.cfi_offset 7, -8
 218              		.cfi_offset 14, -4
 219 0002 82B0     		sub	sp, sp, #8
 220              	.LCFI11:
 221              		.cfi_def_cfa_offset 16
 222 0004 00AF     		add	r7, sp, #0
 223              	.LCFI12:
 224              		.cfi_def_cfa_register 7
 143:.\Generated_Source\PSoC4/LED_A.c **** 		uint8 maskedStatus = (uint8)(LED_A_INTSTAT & LED_A_MASK);
 225              		.loc 1 143 0
 226 0006 084B     		ldr	r3, .L17
 227 0008 1B68     		ldr	r3, [r3]
 228 000a D9B2     		uxtb	r1, r3
 229 000c FB1D     		add	r3, r7, #7
 230 000e 0122     		mov	r2, #1
 231 0010 0A40     		and	r2, r1
 232 0012 1A70     		strb	r2, [r3]
 144:.\Generated_Source\PSoC4/LED_A.c **** 		LED_A_INTSTAT = maskedStatus;
 233              		.loc 1 144 0
 234 0014 044B     		ldr	r3, .L17
 235 0016 FA1D     		add	r2, r7, #7
 236 0018 1278     		ldrb	r2, [r2]
 237 001a 1A60     		str	r2, [r3]
 145:.\Generated_Source\PSoC4/LED_A.c ****         return maskedStatus >> LED_A_SHIFT;
 238              		.loc 1 145 0
 239 001c FB1D     		add	r3, r7, #7
 240 001e 1B78     		ldrb	r3, [r3]
 146:.\Generated_Source\PSoC4/LED_A.c ****     }
 241              		.loc 1 146 0
 242 0020 181C     		mov	r0, r3
 243 0022 BD46     		mov	sp, r7
 244 0024 02B0     		add	sp, sp, #8
 245              		@ sp needed for prologue
 246 0026 80BD     		pop	{r7, pc}
 247              	.L18:
 248              		.align	2
 249              	.L17:
 250 0028 10020440 		.word	1074004496
 251              		.cfi_endproc
 252              	.LFE4:
 253              		.size	LED_A_ClearInterrupt, .-LED_A_ClearInterrupt
ARM GAS  C:\Users\GLENNL~1\AppData\Local\Temp\cc5PnVFu.s 			page 8


 254              		.text
 255              	.Letext0:
 256              		.file 2 ".\\Generated_Source\\PSoC4\\cytypes.h"