ARM GAS  C:\Users\GLENNL~1\AppData\Local\Temp\ccG2XEDL.s 			page 1


   1              		.cpu cortex-m0
   2              		.fpu softvfp
   3              		.eabi_attribute 20, 1
   4              		.eabi_attribute 21, 1
   5              		.eabi_attribute 23, 3
   6              		.eabi_attribute 24, 1
   7              		.eabi_attribute 25, 1
   8              		.eabi_attribute 26, 1
   9              		.eabi_attribute 30, 6
  10              		.eabi_attribute 34, 0
  11              		.eabi_attribute 18, 4
  12              		.code	16
  13              		.file	"LED_4.c"
  14              		.text
  15              	.Ltext0:
  16              		.cfi_sections	.debug_frame
  17              		.section	.text.LED_4_Write,"ax",%progbits
  18              		.align	2
  19              		.global	LED_4_Write
  20              		.code	16
  21              		.thumb_func
  22              		.type	LED_4_Write, %function
  23              	LED_4_Write:
  24              	.LFB0:
  25              		.file 1 ".\\Generated_Source\\PSoC4\\LED_4.c"
   1:.\Generated_Source\PSoC4/LED_4.c **** /*******************************************************************************
   2:.\Generated_Source\PSoC4/LED_4.c **** * File Name: LED_4.c  
   3:.\Generated_Source\PSoC4/LED_4.c **** * Version 2.5
   4:.\Generated_Source\PSoC4/LED_4.c **** *
   5:.\Generated_Source\PSoC4/LED_4.c **** * Description:
   6:.\Generated_Source\PSoC4/LED_4.c **** *  This file contains API to enable firmware control of a Pins component.
   7:.\Generated_Source\PSoC4/LED_4.c **** *
   8:.\Generated_Source\PSoC4/LED_4.c **** * Note:
   9:.\Generated_Source\PSoC4/LED_4.c **** *
  10:.\Generated_Source\PSoC4/LED_4.c **** ********************************************************************************
  11:.\Generated_Source\PSoC4/LED_4.c **** * Copyright 2008-2014, Cypress Semiconductor Corporation.  All rights reserved.
  12:.\Generated_Source\PSoC4/LED_4.c **** * You may use this file only in accordance with the license, terms, conditions, 
  13:.\Generated_Source\PSoC4/LED_4.c **** * disclaimers, and limitations in the end user license agreement accompanying 
  14:.\Generated_Source\PSoC4/LED_4.c **** * the software package with which this file was provided.
  15:.\Generated_Source\PSoC4/LED_4.c **** *******************************************************************************/
  16:.\Generated_Source\PSoC4/LED_4.c **** 
  17:.\Generated_Source\PSoC4/LED_4.c **** #include "cytypes.h"
  18:.\Generated_Source\PSoC4/LED_4.c **** #include "LED_4.h"
  19:.\Generated_Source\PSoC4/LED_4.c **** 
  20:.\Generated_Source\PSoC4/LED_4.c **** #define SetP4PinDriveMode(shift, mode)  \
  21:.\Generated_Source\PSoC4/LED_4.c ****     do { \
  22:.\Generated_Source\PSoC4/LED_4.c ****         LED_4_PC =   (LED_4_PC & \
  23:.\Generated_Source\PSoC4/LED_4.c ****                                 (uint32)(~(uint32)(LED_4_DRIVE_MODE_IND_MASK << (LED_4_DRIVE_MODE_B
  24:.\Generated_Source\PSoC4/LED_4.c ****                                 (uint32)((uint32)(mode) << (LED_4_DRIVE_MODE_BITS * (shift))); \
  25:.\Generated_Source\PSoC4/LED_4.c ****     } while (0)
  26:.\Generated_Source\PSoC4/LED_4.c **** 
  27:.\Generated_Source\PSoC4/LED_4.c **** 
  28:.\Generated_Source\PSoC4/LED_4.c **** /*******************************************************************************
  29:.\Generated_Source\PSoC4/LED_4.c **** * Function Name: LED_4_Write
  30:.\Generated_Source\PSoC4/LED_4.c **** ********************************************************************************
  31:.\Generated_Source\PSoC4/LED_4.c **** *
  32:.\Generated_Source\PSoC4/LED_4.c **** * Summary:
ARM GAS  C:\Users\GLENNL~1\AppData\Local\Temp\ccG2XEDL.s 			page 2


  33:.\Generated_Source\PSoC4/LED_4.c **** *  Assign a new value to the digital port's data output register.  
  34:.\Generated_Source\PSoC4/LED_4.c **** *
  35:.\Generated_Source\PSoC4/LED_4.c **** * Parameters:  
  36:.\Generated_Source\PSoC4/LED_4.c **** *  prtValue:  The value to be assigned to the Digital Port. 
  37:.\Generated_Source\PSoC4/LED_4.c **** *
  38:.\Generated_Source\PSoC4/LED_4.c **** * Return: 
  39:.\Generated_Source\PSoC4/LED_4.c **** *  None 
  40:.\Generated_Source\PSoC4/LED_4.c **** *  
  41:.\Generated_Source\PSoC4/LED_4.c **** *******************************************************************************/
  42:.\Generated_Source\PSoC4/LED_4.c **** void LED_4_Write(uint8 value) 
  43:.\Generated_Source\PSoC4/LED_4.c **** {
  26              		.loc 1 43 0
  27              		.cfi_startproc
  28 0000 80B5     		push	{r7, lr}
  29              	.LCFI0:
  30              		.cfi_def_cfa_offset 8
  31              		.cfi_offset 7, -8
  32              		.cfi_offset 14, -4
  33 0002 84B0     		sub	sp, sp, #16
  34              	.LCFI1:
  35              		.cfi_def_cfa_offset 24
  36 0004 00AF     		add	r7, sp, #0
  37              	.LCFI2:
  38              		.cfi_def_cfa_register 7
  39 0006 021C     		mov	r2, r0
  40 0008 FB1D     		add	r3, r7, #7
  41 000a 1A70     		strb	r2, [r3]
  44:.\Generated_Source\PSoC4/LED_4.c ****     uint8 drVal = (uint8)(LED_4_DR & (uint8)(~LED_4_MASK));
  42              		.loc 1 44 0
  43 000c 0D4B     		ldr	r3, .L2
  44 000e 1B68     		ldr	r3, [r3]
  45 0010 D9B2     		uxtb	r1, r3
  46 0012 3B1C     		mov	r3, r7
  47 0014 0F33     		add	r3, r3, #15
  48 0016 7F22     		mov	r2, #127
  49 0018 0A40     		and	r2, r1
  50 001a 1A70     		strb	r2, [r3]
  45:.\Generated_Source\PSoC4/LED_4.c ****     drVal = (drVal | ((uint8)(value << LED_4_SHIFT) & LED_4_MASK));
  51              		.loc 1 45 0
  52 001c FB1D     		add	r3, r7, #7
  53 001e 1B78     		ldrb	r3, [r3]
  54 0020 DB01     		lsl	r3, r3, #7
  55 0022 D9B2     		uxtb	r1, r3
  56 0024 3B1C     		mov	r3, r7
  57 0026 0F33     		add	r3, r3, #15
  58 0028 3A1C     		mov	r2, r7
  59 002a 0F32     		add	r2, r2, #15
  60 002c 1278     		ldrb	r2, [r2]
  61 002e 0A43     		orr	r2, r1
  62 0030 1A70     		strb	r2, [r3]
  46:.\Generated_Source\PSoC4/LED_4.c ****     LED_4_DR = (uint32)drVal;
  63              		.loc 1 46 0
  64 0032 044B     		ldr	r3, .L2
  65 0034 3A1C     		mov	r2, r7
  66 0036 0F32     		add	r2, r2, #15
  67 0038 1278     		ldrb	r2, [r2]
  68 003a 1A60     		str	r2, [r3]
ARM GAS  C:\Users\GLENNL~1\AppData\Local\Temp\ccG2XEDL.s 			page 3


  47:.\Generated_Source\PSoC4/LED_4.c **** }
  69              		.loc 1 47 0
  70 003c BD46     		mov	sp, r7
  71 003e 04B0     		add	sp, sp, #16
  72              		@ sp needed for prologue
  73 0040 80BD     		pop	{r7, pc}
  74              	.L3:
  75 0042 C046     		.align	2
  76              	.L2:
  77 0044 00030440 		.word	1074004736
  78              		.cfi_endproc
  79              	.LFE0:
  80              		.size	LED_4_Write, .-LED_4_Write
  81              		.section	.text.LED_4_SetDriveMode,"ax",%progbits
  82              		.align	2
  83              		.global	LED_4_SetDriveMode
  84              		.code	16
  85              		.thumb_func
  86              		.type	LED_4_SetDriveMode, %function
  87              	LED_4_SetDriveMode:
  88              	.LFB1:
  48:.\Generated_Source\PSoC4/LED_4.c **** 
  49:.\Generated_Source\PSoC4/LED_4.c **** 
  50:.\Generated_Source\PSoC4/LED_4.c **** /*******************************************************************************
  51:.\Generated_Source\PSoC4/LED_4.c **** * Function Name: LED_4_SetDriveMode
  52:.\Generated_Source\PSoC4/LED_4.c **** ********************************************************************************
  53:.\Generated_Source\PSoC4/LED_4.c **** *
  54:.\Generated_Source\PSoC4/LED_4.c **** * Summary:
  55:.\Generated_Source\PSoC4/LED_4.c **** *  Change the drive mode on the pins of the port.
  56:.\Generated_Source\PSoC4/LED_4.c **** * 
  57:.\Generated_Source\PSoC4/LED_4.c **** * Parameters:  
  58:.\Generated_Source\PSoC4/LED_4.c **** *  mode:  Change the pins to one of the following drive modes.
  59:.\Generated_Source\PSoC4/LED_4.c **** *
  60:.\Generated_Source\PSoC4/LED_4.c **** *  LED_4_DM_STRONG     Strong Drive 
  61:.\Generated_Source\PSoC4/LED_4.c **** *  LED_4_DM_OD_HI      Open Drain, Drives High 
  62:.\Generated_Source\PSoC4/LED_4.c **** *  LED_4_DM_OD_LO      Open Drain, Drives Low 
  63:.\Generated_Source\PSoC4/LED_4.c **** *  LED_4_DM_RES_UP     Resistive Pull Up 
  64:.\Generated_Source\PSoC4/LED_4.c **** *  LED_4_DM_RES_DWN    Resistive Pull Down 
  65:.\Generated_Source\PSoC4/LED_4.c **** *  LED_4_DM_RES_UPDWN  Resistive Pull Up/Down 
  66:.\Generated_Source\PSoC4/LED_4.c **** *  LED_4_DM_DIG_HIZ    High Impedance Digital 
  67:.\Generated_Source\PSoC4/LED_4.c **** *  LED_4_DM_ALG_HIZ    High Impedance Analog 
  68:.\Generated_Source\PSoC4/LED_4.c **** *
  69:.\Generated_Source\PSoC4/LED_4.c **** * Return: 
  70:.\Generated_Source\PSoC4/LED_4.c **** *  None
  71:.\Generated_Source\PSoC4/LED_4.c **** *
  72:.\Generated_Source\PSoC4/LED_4.c **** *******************************************************************************/
  73:.\Generated_Source\PSoC4/LED_4.c **** void LED_4_SetDriveMode(uint8 mode) 
  74:.\Generated_Source\PSoC4/LED_4.c **** {
  89              		.loc 1 74 0
  90              		.cfi_startproc
  91 0000 80B5     		push	{r7, lr}
  92              	.LCFI3:
  93              		.cfi_def_cfa_offset 8
  94              		.cfi_offset 7, -8
  95              		.cfi_offset 14, -4
  96 0002 82B0     		sub	sp, sp, #8
  97              	.LCFI4:
ARM GAS  C:\Users\GLENNL~1\AppData\Local\Temp\ccG2XEDL.s 			page 4


  98              		.cfi_def_cfa_offset 16
  99 0004 00AF     		add	r7, sp, #0
 100              	.LCFI5:
 101              		.cfi_def_cfa_register 7
 102 0006 021C     		mov	r2, r0
 103 0008 FB1D     		add	r3, r7, #7
 104 000a 1A70     		strb	r2, [r3]
  75:.\Generated_Source\PSoC4/LED_4.c **** 	SetP4PinDriveMode(LED_4__0__SHIFT, mode);
 105              		.loc 1 75 0
 106 000c 064B     		ldr	r3, .L5
 107 000e 064A     		ldr	r2, .L5
 108 0010 1168     		ldr	r1, [r2]
 109 0012 064A     		ldr	r2, .L5+4
 110 0014 1140     		and	r1, r2
 111 0016 FA1D     		add	r2, r7, #7
 112 0018 1278     		ldrb	r2, [r2]
 113 001a 5205     		lsl	r2, r2, #21
 114 001c 0A43     		orr	r2, r1
 115 001e 1A60     		str	r2, [r3]
  76:.\Generated_Source\PSoC4/LED_4.c **** }
 116              		.loc 1 76 0
 117 0020 BD46     		mov	sp, r7
 118 0022 02B0     		add	sp, sp, #8
 119              		@ sp needed for prologue
 120 0024 80BD     		pop	{r7, pc}
 121              	.L6:
 122 0026 C046     		.align	2
 123              	.L5:
 124 0028 08030440 		.word	1074004744
 125 002c FFFF1FFF 		.word	-14680065
 126              		.cfi_endproc
 127              	.LFE1:
 128              		.size	LED_4_SetDriveMode, .-LED_4_SetDriveMode
 129              		.section	.text.LED_4_Read,"ax",%progbits
 130              		.align	2
 131              		.global	LED_4_Read
 132              		.code	16
 133              		.thumb_func
 134              		.type	LED_4_Read, %function
 135              	LED_4_Read:
 136              	.LFB2:
  77:.\Generated_Source\PSoC4/LED_4.c **** 
  78:.\Generated_Source\PSoC4/LED_4.c **** 
  79:.\Generated_Source\PSoC4/LED_4.c **** /*******************************************************************************
  80:.\Generated_Source\PSoC4/LED_4.c **** * Function Name: LED_4_Read
  81:.\Generated_Source\PSoC4/LED_4.c **** ********************************************************************************
  82:.\Generated_Source\PSoC4/LED_4.c **** *
  83:.\Generated_Source\PSoC4/LED_4.c **** * Summary:
  84:.\Generated_Source\PSoC4/LED_4.c **** *  Read the current value on the pins of the Digital Port in right justified 
  85:.\Generated_Source\PSoC4/LED_4.c **** *  form.
  86:.\Generated_Source\PSoC4/LED_4.c **** *
  87:.\Generated_Source\PSoC4/LED_4.c **** * Parameters:  
  88:.\Generated_Source\PSoC4/LED_4.c **** *  None 
  89:.\Generated_Source\PSoC4/LED_4.c **** *
  90:.\Generated_Source\PSoC4/LED_4.c **** * Return: 
  91:.\Generated_Source\PSoC4/LED_4.c **** *  Returns the current value of the Digital Port as a right justified number
  92:.\Generated_Source\PSoC4/LED_4.c **** *  
ARM GAS  C:\Users\GLENNL~1\AppData\Local\Temp\ccG2XEDL.s 			page 5


  93:.\Generated_Source\PSoC4/LED_4.c **** * Note:
  94:.\Generated_Source\PSoC4/LED_4.c **** *  Macro LED_4_ReadPS calls this function. 
  95:.\Generated_Source\PSoC4/LED_4.c **** *  
  96:.\Generated_Source\PSoC4/LED_4.c **** *******************************************************************************/
  97:.\Generated_Source\PSoC4/LED_4.c **** uint8 LED_4_Read(void) 
  98:.\Generated_Source\PSoC4/LED_4.c **** {
 137              		.loc 1 98 0
 138              		.cfi_startproc
 139 0000 80B5     		push	{r7, lr}
 140              	.LCFI6:
 141              		.cfi_def_cfa_offset 8
 142              		.cfi_offset 7, -8
 143              		.cfi_offset 14, -4
 144 0002 00AF     		add	r7, sp, #0
 145              	.LCFI7:
 146              		.cfi_def_cfa_register 7
  99:.\Generated_Source\PSoC4/LED_4.c ****     return (uint8)((LED_4_PS & LED_4_MASK) >> LED_4_SHIFT);
 147              		.loc 1 99 0
 148 0004 044B     		ldr	r3, .L9
 149 0006 1A68     		ldr	r2, [r3]
 150 0008 8023     		mov	r3, #128
 151 000a 1340     		and	r3, r2
 152 000c DB09     		lsr	r3, r3, #7
 153 000e DBB2     		uxtb	r3, r3
 100:.\Generated_Source\PSoC4/LED_4.c **** }
 154              		.loc 1 100 0
 155 0010 181C     		mov	r0, r3
 156 0012 BD46     		mov	sp, r7
 157              		@ sp needed for prologue
 158 0014 80BD     		pop	{r7, pc}
 159              	.L10:
 160 0016 C046     		.align	2
 161              	.L9:
 162 0018 04030440 		.word	1074004740
 163              		.cfi_endproc
 164              	.LFE2:
 165              		.size	LED_4_Read, .-LED_4_Read
 166              		.section	.text.LED_4_ReadDataReg,"ax",%progbits
 167              		.align	2
 168              		.global	LED_4_ReadDataReg
 169              		.code	16
 170              		.thumb_func
 171              		.type	LED_4_ReadDataReg, %function
 172              	LED_4_ReadDataReg:
 173              	.LFB3:
 101:.\Generated_Source\PSoC4/LED_4.c **** 
 102:.\Generated_Source\PSoC4/LED_4.c **** 
 103:.\Generated_Source\PSoC4/LED_4.c **** /*******************************************************************************
 104:.\Generated_Source\PSoC4/LED_4.c **** * Function Name: LED_4_ReadDataReg
 105:.\Generated_Source\PSoC4/LED_4.c **** ********************************************************************************
 106:.\Generated_Source\PSoC4/LED_4.c **** *
 107:.\Generated_Source\PSoC4/LED_4.c **** * Summary:
 108:.\Generated_Source\PSoC4/LED_4.c **** *  Read the current value assigned to a Digital Port's data output register
 109:.\Generated_Source\PSoC4/LED_4.c **** *
 110:.\Generated_Source\PSoC4/LED_4.c **** * Parameters:  
 111:.\Generated_Source\PSoC4/LED_4.c **** *  None 
 112:.\Generated_Source\PSoC4/LED_4.c **** *
ARM GAS  C:\Users\GLENNL~1\AppData\Local\Temp\ccG2XEDL.s 			page 6


 113:.\Generated_Source\PSoC4/LED_4.c **** * Return: 
 114:.\Generated_Source\PSoC4/LED_4.c **** *  Returns the current value assigned to the Digital Port's data output register
 115:.\Generated_Source\PSoC4/LED_4.c **** *  
 116:.\Generated_Source\PSoC4/LED_4.c **** *******************************************************************************/
 117:.\Generated_Source\PSoC4/LED_4.c **** uint8 LED_4_ReadDataReg(void) 
 118:.\Generated_Source\PSoC4/LED_4.c **** {
 174              		.loc 1 118 0
 175              		.cfi_startproc
 176 0000 80B5     		push	{r7, lr}
 177              	.LCFI8:
 178              		.cfi_def_cfa_offset 8
 179              		.cfi_offset 7, -8
 180              		.cfi_offset 14, -4
 181 0002 00AF     		add	r7, sp, #0
 182              	.LCFI9:
 183              		.cfi_def_cfa_register 7
 119:.\Generated_Source\PSoC4/LED_4.c ****     return (uint8)((LED_4_DR & LED_4_MASK) >> LED_4_SHIFT);
 184              		.loc 1 119 0
 185 0004 044B     		ldr	r3, .L13
 186 0006 1A68     		ldr	r2, [r3]
 187 0008 8023     		mov	r3, #128
 188 000a 1340     		and	r3, r2
 189 000c DB09     		lsr	r3, r3, #7
 190 000e DBB2     		uxtb	r3, r3
 120:.\Generated_Source\PSoC4/LED_4.c **** }
 191              		.loc 1 120 0
 192 0010 181C     		mov	r0, r3
 193 0012 BD46     		mov	sp, r7
 194              		@ sp needed for prologue
 195 0014 80BD     		pop	{r7, pc}
 196              	.L14:
 197 0016 C046     		.align	2
 198              	.L13:
 199 0018 00030440 		.word	1074004736
 200              		.cfi_endproc
 201              	.LFE3:
 202              		.size	LED_4_ReadDataReg, .-LED_4_ReadDataReg
 203              		.section	.text.LED_4_ClearInterrupt,"ax",%progbits
 204              		.align	2
 205              		.global	LED_4_ClearInterrupt
 206              		.code	16
 207              		.thumb_func
 208              		.type	LED_4_ClearInterrupt, %function
 209              	LED_4_ClearInterrupt:
 210              	.LFB4:
 121:.\Generated_Source\PSoC4/LED_4.c **** 
 122:.\Generated_Source\PSoC4/LED_4.c **** 
 123:.\Generated_Source\PSoC4/LED_4.c **** /* If Interrupts Are Enabled for this Pins component */ 
 124:.\Generated_Source\PSoC4/LED_4.c **** #if defined(LED_4_INTSTAT) 
 125:.\Generated_Source\PSoC4/LED_4.c **** 
 126:.\Generated_Source\PSoC4/LED_4.c ****     /*******************************************************************************
 127:.\Generated_Source\PSoC4/LED_4.c ****     * Function Name: LED_4_ClearInterrupt
 128:.\Generated_Source\PSoC4/LED_4.c ****     ********************************************************************************
 129:.\Generated_Source\PSoC4/LED_4.c ****     *
 130:.\Generated_Source\PSoC4/LED_4.c ****     * Summary:
 131:.\Generated_Source\PSoC4/LED_4.c ****     *  Clears any active interrupts attached to port and returns the value of the 
 132:.\Generated_Source\PSoC4/LED_4.c ****     *  interrupt status register.
ARM GAS  C:\Users\GLENNL~1\AppData\Local\Temp\ccG2XEDL.s 			page 7


 133:.\Generated_Source\PSoC4/LED_4.c ****     *
 134:.\Generated_Source\PSoC4/LED_4.c ****     * Parameters:  
 135:.\Generated_Source\PSoC4/LED_4.c ****     *  None 
 136:.\Generated_Source\PSoC4/LED_4.c ****     *
 137:.\Generated_Source\PSoC4/LED_4.c ****     * Return: 
 138:.\Generated_Source\PSoC4/LED_4.c ****     *  Returns the value of the interrupt status register
 139:.\Generated_Source\PSoC4/LED_4.c ****     *  
 140:.\Generated_Source\PSoC4/LED_4.c ****     *******************************************************************************/
 141:.\Generated_Source\PSoC4/LED_4.c ****     uint8 LED_4_ClearInterrupt(void) 
 142:.\Generated_Source\PSoC4/LED_4.c ****     {
 211              		.loc 1 142 0
 212              		.cfi_startproc
 213 0000 80B5     		push	{r7, lr}
 214              	.LCFI10:
 215              		.cfi_def_cfa_offset 8
 216              		.cfi_offset 7, -8
 217              		.cfi_offset 14, -4
 218 0002 82B0     		sub	sp, sp, #8
 219              	.LCFI11:
 220              		.cfi_def_cfa_offset 16
 221 0004 00AF     		add	r7, sp, #0
 222              	.LCFI12:
 223              		.cfi_def_cfa_register 7
 143:.\Generated_Source\PSoC4/LED_4.c **** 		uint8 maskedStatus = (uint8)(LED_4_INTSTAT & LED_4_MASK);
 224              		.loc 1 143 0
 225 0006 094B     		ldr	r3, .L17
 226 0008 1B68     		ldr	r3, [r3]
 227 000a DAB2     		uxtb	r2, r3
 228 000c FB1D     		add	r3, r7, #7
 229 000e 7F21     		mov	r1, #127
 230 0010 8A43     		bic	r2, r1
 231 0012 1A70     		strb	r2, [r3]
 144:.\Generated_Source\PSoC4/LED_4.c **** 		LED_4_INTSTAT = maskedStatus;
 232              		.loc 1 144 0
 233 0014 054B     		ldr	r3, .L17
 234 0016 FA1D     		add	r2, r7, #7
 235 0018 1278     		ldrb	r2, [r2]
 236 001a 1A60     		str	r2, [r3]
 145:.\Generated_Source\PSoC4/LED_4.c ****         return maskedStatus >> LED_4_SHIFT;
 237              		.loc 1 145 0
 238 001c FB1D     		add	r3, r7, #7
 239 001e 1B78     		ldrb	r3, [r3]
 240 0020 DB09     		lsr	r3, r3, #7
 241 0022 DBB2     		uxtb	r3, r3
 146:.\Generated_Source\PSoC4/LED_4.c ****     }
 242              		.loc 1 146 0
 243 0024 181C     		mov	r0, r3
 244 0026 BD46     		mov	sp, r7
 245 0028 02B0     		add	sp, sp, #8
 246              		@ sp needed for prologue
 247 002a 80BD     		pop	{r7, pc}
 248              	.L18:
 249              		.align	2
 250              	.L17:
 251 002c 10030440 		.word	1074004752
 252              		.cfi_endproc
 253              	.LFE4:
ARM GAS  C:\Users\GLENNL~1\AppData\Local\Temp\ccG2XEDL.s 			page 8


 254              		.size	LED_4_ClearInterrupt, .-LED_4_ClearInterrupt
 255              		.text
 256              	.Letext0:
 257              		.file 2 ".\\Generated_Source\\PSoC4\\cytypes.h"