ARM GAS  C:\Users\GLENNL~1\AppData\Local\Temp\ccQyzQ85.s 			page 1


   1              		.cpu cortex-m0
   2              		.fpu softvfp
   3              		.eabi_attribute 20, 1
   4              		.eabi_attribute 21, 1
   5              		.eabi_attribute 23, 3
   6              		.eabi_attribute 24, 1
   7              		.eabi_attribute 25, 1
   8              		.eabi_attribute 26, 1
   9              		.eabi_attribute 30, 6
  10              		.eabi_attribute 34, 0
  11              		.eabi_attribute 18, 4
  12              		.code	16
  13              		.file	"main.c"
  14              		.text
  15              	.Ltext0:
  16              		.cfi_sections	.debug_frame
  17              		.comm	i,4,4
  18              		.section	.text.count,"ax",%progbits
  19              		.align	2
  20              		.global	count
  21              		.code	16
  22              		.thumb_func
  23              		.type	count, %function
  24              	count:
  25              	.LFB33:
  26              		.file 1 ".\\main.c"
   1:.\main.c      **** /* ========================================
   2:.\main.c      ****  *
   3:.\main.c      ****  * Copyright YOUR COMPANY, THE YEAR
   4:.\main.c      ****  * All Rights Reserved
   5:.\main.c      ****  * UNPUBLISHED, LICENSED SOFTWARE.
   6:.\main.c      ****  *
   7:.\main.c      ****  * CONFIDENTIAL AND PROPRIETARY INFORMATION
   8:.\main.c      ****  * WHICH IS THE PROPERTY OF your company.
   9:.\main.c      ****  *
  10:.\main.c      ****  * ========================================
  11:.\main.c      **** */
  12:.\main.c      **** #include <project.h>
  13:.\main.c      **** int i;
  14:.\main.c      **** 
  15:.\main.c      **** void count (int j)
  16:.\main.c      ****     {
  27              		.loc 1 16 0
  28              		.cfi_startproc
  29 0000 80B5     		push	{r7, lr}
  30              	.LCFI0:
  31              		.cfi_def_cfa_offset 8
  32              		.cfi_offset 7, -8
  33              		.cfi_offset 14, -4
  34 0002 82B0     		sub	sp, sp, #8
  35              	.LCFI1:
  36              		.cfi_def_cfa_offset 16
  37 0004 00AF     		add	r7, sp, #0
  38              	.LCFI2:
  39              		.cfi_def_cfa_register 7
  40 0006 7860     		str	r0, [r7, #4]
  17:.\main.c      ****         switch(j)
ARM GAS  C:\Users\GLENNL~1\AppData\Local\Temp\ccQyzQ85.s 			page 2


  41              		.loc 1 17 0
  42 0008 7B68     		ldr	r3, [r7, #4]
  43 000a 092B     		cmp	r3, #9
  44 000c 2DD8     		bhi	.L1
  45 000e 7B68     		ldr	r3, [r7, #4]
  46 0010 9A00     		lsl	r2, r3, #2
  47 0012 174B     		ldr	r3, .L14
  48 0014 D318     		add	r3, r2, r3
  49 0016 1B68     		ldr	r3, [r3]
  50 0018 9F46     		mov	pc, r3
  51              		.section	.rodata
  52              		.align	2
  53              	.L13:
  54 0000 1A000000 		.word	.L3
  55 0004 22000000 		.word	.L4
  56 0008 2A000000 		.word	.L5
  57 000c 32000000 		.word	.L6
  58 0010 3A000000 		.word	.L7
  59 0014 42000000 		.word	.L8
  60 0018 4A000000 		.word	.L9
  61 001c 52000000 		.word	.L10
  62 0020 5A000000 		.word	.L11
  63 0024 62000000 		.word	.L12
  64              		.section	.text.count
  65              	.L3:
  18:.\main.c      ****         {
  19:.\main.c      ****             case 0:{binReg_Write(0x00);
  66              		.loc 1 19 0
  67 001a 0020     		mov	r0, #0
  68 001c FFF7FEFF 		bl	binReg_Write
  20:.\main.c      ****             break;}
  69              		.loc 1 20 0
  70 0020 23E0     		b	.L1
  71              	.L4:
  21:.\main.c      ****            
  22:.\main.c      ****             case 1:{binReg_Write(0x01);
  72              		.loc 1 22 0
  73 0022 0120     		mov	r0, #1
  74 0024 FFF7FEFF 		bl	binReg_Write
  23:.\main.c      ****             break;}
  75              		.loc 1 23 0
  76 0028 1FE0     		b	.L1
  77              	.L5:
  24:.\main.c      ****             
  25:.\main.c      ****             case 2:{binReg_Write(0x02);
  78              		.loc 1 25 0
  79 002a 0220     		mov	r0, #2
  80 002c FFF7FEFF 		bl	binReg_Write
  26:.\main.c      ****             break;} 
  81              		.loc 1 26 0
  82 0030 1BE0     		b	.L1
  83              	.L6:
  27:.\main.c      ****             
  28:.\main.c      ****             case 3:{binReg_Write(0x03);
  84              		.loc 1 28 0
  85 0032 0320     		mov	r0, #3
  86 0034 FFF7FEFF 		bl	binReg_Write
ARM GAS  C:\Users\GLENNL~1\AppData\Local\Temp\ccQyzQ85.s 			page 3


  29:.\main.c      ****             break;}
  87              		.loc 1 29 0
  88 0038 17E0     		b	.L1
  89              	.L7:
  30:.\main.c      ****             
  31:.\main.c      ****             case 4:{binReg_Write(0x04);
  90              		.loc 1 31 0
  91 003a 0420     		mov	r0, #4
  92 003c FFF7FEFF 		bl	binReg_Write
  32:.\main.c      ****             break;}
  93              		.loc 1 32 0
  94 0040 13E0     		b	.L1
  95              	.L8:
  33:.\main.c      ****             
  34:.\main.c      ****             case 5:{binReg_Write(0x05);
  96              		.loc 1 34 0
  97 0042 0520     		mov	r0, #5
  98 0044 FFF7FEFF 		bl	binReg_Write
  35:.\main.c      ****             break;}
  99              		.loc 1 35 0
 100 0048 0FE0     		b	.L1
 101              	.L9:
  36:.\main.c      ****            
  37:.\main.c      ****             case 6:{binReg_Write(0x06);
 102              		.loc 1 37 0
 103 004a 0620     		mov	r0, #6
 104 004c FFF7FEFF 		bl	binReg_Write
  38:.\main.c      ****             break;}
 105              		.loc 1 38 0
 106 0050 0BE0     		b	.L1
 107              	.L10:
  39:.\main.c      ****             
  40:.\main.c      ****             case 7:{binReg_Write(0x07);
 108              		.loc 1 40 0
 109 0052 0720     		mov	r0, #7
 110 0054 FFF7FEFF 		bl	binReg_Write
  41:.\main.c      ****             break;} 
 111              		.loc 1 41 0
 112 0058 07E0     		b	.L1
 113              	.L11:
  42:.\main.c      ****             
  43:.\main.c      ****             case 8:{binReg_Write(0x08);
 114              		.loc 1 43 0
 115 005a 0820     		mov	r0, #8
 116 005c FFF7FEFF 		bl	binReg_Write
  44:.\main.c      ****             break;}
 117              		.loc 1 44 0
 118 0060 03E0     		b	.L1
 119              	.L12:
  45:.\main.c      ****             
  46:.\main.c      ****             case 9:{binReg_Write(0x09);
 120              		.loc 1 46 0
 121 0062 0920     		mov	r0, #9
 122 0064 FFF7FEFF 		bl	binReg_Write
  47:.\main.c      ****             break;}          
 123              		.loc 1 47 0
 124 0068 C046     		mov	r8, r8
ARM GAS  C:\Users\GLENNL~1\AppData\Local\Temp\ccQyzQ85.s 			page 4


 125              	.L1:
  48:.\main.c      ****         }
  49:.\main.c      ****     }
 126              		.loc 1 49 0
 127 006a BD46     		mov	sp, r7
 128 006c 02B0     		add	sp, sp, #8
 129              		@ sp needed for prologue
 130 006e 80BD     		pop	{r7, pc}
 131              	.L15:
 132              		.align	2
 133              	.L14:
 134 0070 00000000 		.word	.L13
 135              		.cfi_endproc
 136              	.LFE33:
 137              		.size	count, .-count
 138              		.section	.text.main,"ax",%progbits
 139              		.align	2
 140              		.global	main
 141              		.code	16
 142              		.thumb_func
 143              		.type	main, %function
 144              	main:
 145              	.LFB34:
  50:.\main.c      **** 
  51:.\main.c      **** int main()
  52:.\main.c      **** {
 146              		.loc 1 52 0
 147              		.cfi_startproc
 148 0000 80B5     		push	{r7, lr}
 149              	.LCFI3:
 150              		.cfi_def_cfa_offset 8
 151              		.cfi_offset 7, -8
 152              		.cfi_offset 14, -4
 153 0002 00AF     		add	r7, sp, #0
 154              	.LCFI4:
 155              		.cfi_def_cfa_register 7
 156              	.L19:
  53:.\main.c      ****     /* Place your initialization/startup code here (e.g. MyInst_Start()) */
  54:.\main.c      **** 
  55:.\main.c      ****     /* CyGlobalIntEnable; */ /* Uncomment this line to enable global interrupts. */
  56:.\main.c      ****     for(;;)
  57:.\main.c      ****     {
  58:.\main.c      ****         /* Place your application code here. */
  59:.\main.c      ****         for(i=0;i<=9;i++)
 157              		.loc 1 59 0
 158 0004 0B4B     		ldr	r3, .L20
 159 0006 0022     		mov	r2, #0
 160 0008 1A60     		str	r2, [r3]
 161 000a 0EE0     		b	.L17
 162              	.L18:
  60:.\main.c      ****         {
  61:.\main.c      ****             count(i);
 163              		.loc 1 61 0 discriminator 2
 164 000c 094B     		ldr	r3, .L20
 165 000e 1B68     		ldr	r3, [r3]
 166 0010 181C     		mov	r0, r3
 167 0012 FFF7FEFF 		bl	count
ARM GAS  C:\Users\GLENNL~1\AppData\Local\Temp\ccQyzQ85.s 			page 5


  62:.\main.c      ****             CyDelay(1000);
 168              		.loc 1 62 0 discriminator 2
 169 0016 FA23     		mov	r3, #250
 170 0018 9B00     		lsl	r3, r3, #2
 171 001a 181C     		mov	r0, r3
 172 001c FFF7FEFF 		bl	CyDelay
  59:.\main.c      ****         for(i=0;i<=9;i++)
 173              		.loc 1 59 0 discriminator 2
 174 0020 044B     		ldr	r3, .L20
 175 0022 1B68     		ldr	r3, [r3]
 176 0024 5A1C     		add	r2, r3, #1
 177 0026 034B     		ldr	r3, .L20
 178 0028 1A60     		str	r2, [r3]
 179              	.L17:
  59:.\main.c      ****         for(i=0;i<=9;i++)
 180              		.loc 1 59 0 is_stmt 0 discriminator 1
 181 002a 024B     		ldr	r3, .L20
 182 002c 1B68     		ldr	r3, [r3]
 183 002e 092B     		cmp	r3, #9
 184 0030 ECDD     		ble	.L18
  63:.\main.c      ****         }
  64:.\main.c      ****     }
 185              		.loc 1 64 0 is_stmt 1
 186 0032 E7E7     		b	.L19
 187              	.L21:
 188              		.align	2
 189              	.L20:
 190 0034 00000000 		.word	i
 191              		.cfi_endproc
 192              	.LFE34:
 193              		.size	main, .-main
 194              		.text
 195              	.Letext0: