ARM GAS  C:\Users\GLENNL~1\AppData\Local\Temp\cckl9Whp.s 			page 1


   1              		.cpu cortex-m0
   2              		.fpu softvfp
   3              		.eabi_attribute 20, 1
   4              		.eabi_attribute 21, 1
   5              		.eabi_attribute 23, 3
   6              		.eabi_attribute 24, 1
   7              		.eabi_attribute 25, 1
   8              		.eabi_attribute 26, 1
   9              		.eabi_attribute 30, 6
  10              		.eabi_attribute 34, 0
  11              		.eabi_attribute 18, 4
  12              		.code	16
  13              		.file	"Pin_2.c"
  14              		.text
  15              	.Ltext0:
  16              		.cfi_sections	.debug_frame
  17              		.section	.text.Pin_2_Write,"ax",%progbits
  18              		.align	2
  19              		.global	Pin_2_Write
  20              		.code	16
  21              		.thumb_func
  22              		.type	Pin_2_Write, %function
  23              	Pin_2_Write:
  24              	.LFB0:
  25              		.file 1 ".\\Generated_Source\\PSoC4\\Pin_2.c"
   1:.\Generated_Source\PSoC4/Pin_2.c **** /*******************************************************************************
   2:.\Generated_Source\PSoC4/Pin_2.c **** * File Name: Pin_2.c  
   3:.\Generated_Source\PSoC4/Pin_2.c **** * Version 2.5
   4:.\Generated_Source\PSoC4/Pin_2.c **** *
   5:.\Generated_Source\PSoC4/Pin_2.c **** * Description:
   6:.\Generated_Source\PSoC4/Pin_2.c **** *  This file contains API to enable firmware control of a Pins component.
   7:.\Generated_Source\PSoC4/Pin_2.c **** *
   8:.\Generated_Source\PSoC4/Pin_2.c **** * Note:
   9:.\Generated_Source\PSoC4/Pin_2.c **** *
  10:.\Generated_Source\PSoC4/Pin_2.c **** ********************************************************************************
  11:.\Generated_Source\PSoC4/Pin_2.c **** * Copyright 2008-2014, Cypress Semiconductor Corporation.  All rights reserved.
  12:.\Generated_Source\PSoC4/Pin_2.c **** * You may use this file only in accordance with the license, terms, conditions, 
  13:.\Generated_Source\PSoC4/Pin_2.c **** * disclaimers, and limitations in the end user license agreement accompanying 
  14:.\Generated_Source\PSoC4/Pin_2.c **** * the software package with which this file was provided.
  15:.\Generated_Source\PSoC4/Pin_2.c **** *******************************************************************************/
  16:.\Generated_Source\PSoC4/Pin_2.c **** 
  17:.\Generated_Source\PSoC4/Pin_2.c **** #include "cytypes.h"
  18:.\Generated_Source\PSoC4/Pin_2.c **** #include "Pin_2.h"
  19:.\Generated_Source\PSoC4/Pin_2.c **** 
  20:.\Generated_Source\PSoC4/Pin_2.c **** #define SetP4PinDriveMode(shift, mode)  \
  21:.\Generated_Source\PSoC4/Pin_2.c ****     do { \
  22:.\Generated_Source\PSoC4/Pin_2.c ****         Pin_2_PC =   (Pin_2_PC & \
  23:.\Generated_Source\PSoC4/Pin_2.c ****                                 (uint32)(~(uint32)(Pin_2_DRIVE_MODE_IND_MASK << (Pin_2_DRIVE_MODE_B
  24:.\Generated_Source\PSoC4/Pin_2.c ****                                 (uint32)((uint32)(mode) << (Pin_2_DRIVE_MODE_BITS * (shift))); \
  25:.\Generated_Source\PSoC4/Pin_2.c ****     } while (0)
  26:.\Generated_Source\PSoC4/Pin_2.c **** 
  27:.\Generated_Source\PSoC4/Pin_2.c **** 
  28:.\Generated_Source\PSoC4/Pin_2.c **** /*******************************************************************************
  29:.\Generated_Source\PSoC4/Pin_2.c **** * Function Name: Pin_2_Write
  30:.\Generated_Source\PSoC4/Pin_2.c **** ********************************************************************************
  31:.\Generated_Source\PSoC4/Pin_2.c **** *
  32:.\Generated_Source\PSoC4/Pin_2.c **** * Summary:
ARM GAS  C:\Users\GLENNL~1\AppData\Local\Temp\cckl9Whp.s 			page 2


  33:.\Generated_Source\PSoC4/Pin_2.c **** *  Assign a new value to the digital port's data output register.  
  34:.\Generated_Source\PSoC4/Pin_2.c **** *
  35:.\Generated_Source\PSoC4/Pin_2.c **** * Parameters:  
  36:.\Generated_Source\PSoC4/Pin_2.c **** *  prtValue:  The value to be assigned to the Digital Port. 
  37:.\Generated_Source\PSoC4/Pin_2.c **** *
  38:.\Generated_Source\PSoC4/Pin_2.c **** * Return: 
  39:.\Generated_Source\PSoC4/Pin_2.c **** *  None 
  40:.\Generated_Source\PSoC4/Pin_2.c **** *  
  41:.\Generated_Source\PSoC4/Pin_2.c **** *******************************************************************************/
  42:.\Generated_Source\PSoC4/Pin_2.c **** void Pin_2_Write(uint8 value) 
  43:.\Generated_Source\PSoC4/Pin_2.c **** {
  26              		.loc 1 43 0
  27              		.cfi_startproc
  28 0000 80B5     		push	{r7, lr}
  29              	.LCFI0:
  30              		.cfi_def_cfa_offset 8
  31              		.cfi_offset 7, -8
  32              		.cfi_offset 14, -4
  33 0002 84B0     		sub	sp, sp, #16
  34              	.LCFI1:
  35              		.cfi_def_cfa_offset 24
  36 0004 00AF     		add	r7, sp, #0
  37              	.LCFI2:
  38              		.cfi_def_cfa_register 7
  39 0006 021C     		mov	r2, r0
  40 0008 FB1D     		add	r3, r7, #7
  41 000a 1A70     		strb	r2, [r3]
  44:.\Generated_Source\PSoC4/Pin_2.c ****     uint8 drVal = (uint8)(Pin_2_DR & (uint8)(~Pin_2_MASK));
  42              		.loc 1 44 0
  43 000c 0E4B     		ldr	r3, .L2
  44 000e 1B68     		ldr	r3, [r3]
  45 0010 DAB2     		uxtb	r2, r3
  46 0012 3B1C     		mov	r3, r7
  47 0014 0F33     		add	r3, r3, #15
  48 0016 0221     		mov	r1, #2
  49 0018 8A43     		bic	r2, r1
  50 001a 1A70     		strb	r2, [r3]
  45:.\Generated_Source\PSoC4/Pin_2.c ****     drVal = (drVal | ((uint8)(value << Pin_2_SHIFT) & Pin_2_MASK));
  51              		.loc 1 45 0
  52 001c FB1D     		add	r3, r7, #7
  53 001e 1B78     		ldrb	r3, [r3]
  54 0020 5B00     		lsl	r3, r3, #1
  55 0022 DAB2     		uxtb	r2, r3
  56 0024 0223     		mov	r3, #2
  57 0026 1340     		and	r3, r2
  58 0028 D9B2     		uxtb	r1, r3
  59 002a 3B1C     		mov	r3, r7
  60 002c 0F33     		add	r3, r3, #15
  61 002e 3A1C     		mov	r2, r7
  62 0030 0F32     		add	r2, r2, #15
  63 0032 1278     		ldrb	r2, [r2]
  64 0034 0A43     		orr	r2, r1
  65 0036 1A70     		strb	r2, [r3]
  46:.\Generated_Source\PSoC4/Pin_2.c ****     Pin_2_DR = (uint32)drVal;
  66              		.loc 1 46 0
  67 0038 034B     		ldr	r3, .L2
  68 003a 3A1C     		mov	r2, r7
ARM GAS  C:\Users\GLENNL~1\AppData\Local\Temp\cckl9Whp.s 			page 3


  69 003c 0F32     		add	r2, r2, #15
  70 003e 1278     		ldrb	r2, [r2]
  71 0040 1A60     		str	r2, [r3]
  47:.\Generated_Source\PSoC4/Pin_2.c **** }
  72              		.loc 1 47 0
  73 0042 BD46     		mov	sp, r7
  74 0044 04B0     		add	sp, sp, #16
  75              		@ sp needed for prologue
  76 0046 80BD     		pop	{r7, pc}
  77              	.L3:
  78              		.align	2
  79              	.L2:
  80 0048 00000440 		.word	1074003968
  81              		.cfi_endproc
  82              	.LFE0:
  83              		.size	Pin_2_Write, .-Pin_2_Write
  84              		.section	.text.Pin_2_SetDriveMode,"ax",%progbits
  85              		.align	2
  86              		.global	Pin_2_SetDriveMode
  87              		.code	16
  88              		.thumb_func
  89              		.type	Pin_2_SetDriveMode, %function
  90              	Pin_2_SetDriveMode:
  91              	.LFB1:
  48:.\Generated_Source\PSoC4/Pin_2.c **** 
  49:.\Generated_Source\PSoC4/Pin_2.c **** 
  50:.\Generated_Source\PSoC4/Pin_2.c **** /*******************************************************************************
  51:.\Generated_Source\PSoC4/Pin_2.c **** * Function Name: Pin_2_SetDriveMode
  52:.\Generated_Source\PSoC4/Pin_2.c **** ********************************************************************************
  53:.\Generated_Source\PSoC4/Pin_2.c **** *
  54:.\Generated_Source\PSoC4/Pin_2.c **** * Summary:
  55:.\Generated_Source\PSoC4/Pin_2.c **** *  Change the drive mode on the pins of the port.
  56:.\Generated_Source\PSoC4/Pin_2.c **** * 
  57:.\Generated_Source\PSoC4/Pin_2.c **** * Parameters:  
  58:.\Generated_Source\PSoC4/Pin_2.c **** *  mode:  Change the pins to one of the following drive modes.
  59:.\Generated_Source\PSoC4/Pin_2.c **** *
  60:.\Generated_Source\PSoC4/Pin_2.c **** *  Pin_2_DM_STRONG     Strong Drive 
  61:.\Generated_Source\PSoC4/Pin_2.c **** *  Pin_2_DM_OD_HI      Open Drain, Drives High 
  62:.\Generated_Source\PSoC4/Pin_2.c **** *  Pin_2_DM_OD_LO      Open Drain, Drives Low 
  63:.\Generated_Source\PSoC4/Pin_2.c **** *  Pin_2_DM_RES_UP     Resistive Pull Up 
  64:.\Generated_Source\PSoC4/Pin_2.c **** *  Pin_2_DM_RES_DWN    Resistive Pull Down 
  65:.\Generated_Source\PSoC4/Pin_2.c **** *  Pin_2_DM_RES_UPDWN  Resistive Pull Up/Down 
  66:.\Generated_Source\PSoC4/Pin_2.c **** *  Pin_2_DM_DIG_HIZ    High Impedance Digital 
  67:.\Generated_Source\PSoC4/Pin_2.c **** *  Pin_2_DM_ALG_HIZ    High Impedance Analog 
  68:.\Generated_Source\PSoC4/Pin_2.c **** *
  69:.\Generated_Source\PSoC4/Pin_2.c **** * Return: 
  70:.\Generated_Source\PSoC4/Pin_2.c **** *  None
  71:.\Generated_Source\PSoC4/Pin_2.c **** *
  72:.\Generated_Source\PSoC4/Pin_2.c **** *******************************************************************************/
  73:.\Generated_Source\PSoC4/Pin_2.c **** void Pin_2_SetDriveMode(uint8 mode) 
  74:.\Generated_Source\PSoC4/Pin_2.c **** {
  92              		.loc 1 74 0
  93              		.cfi_startproc
  94 0000 80B5     		push	{r7, lr}
  95              	.LCFI3:
  96              		.cfi_def_cfa_offset 8
  97              		.cfi_offset 7, -8
ARM GAS  C:\Users\GLENNL~1\AppData\Local\Temp\cckl9Whp.s 			page 4


  98              		.cfi_offset 14, -4
  99 0002 82B0     		sub	sp, sp, #8
 100              	.LCFI4:
 101              		.cfi_def_cfa_offset 16
 102 0004 00AF     		add	r7, sp, #0
 103              	.LCFI5:
 104              		.cfi_def_cfa_register 7
 105 0006 021C     		mov	r2, r0
 106 0008 FB1D     		add	r3, r7, #7
 107 000a 1A70     		strb	r2, [r3]
  75:.\Generated_Source\PSoC4/Pin_2.c **** 	SetP4PinDriveMode(Pin_2__0__SHIFT, mode);
 108              		.loc 1 75 0
 109 000c 074B     		ldr	r3, .L5
 110 000e 074A     		ldr	r2, .L5
 111 0010 1268     		ldr	r2, [r2]
 112 0012 3821     		mov	r1, #56
 113 0014 101C     		mov	r0, r2
 114 0016 8843     		bic	r0, r1
 115 0018 011C     		mov	r1, r0
 116 001a FA1D     		add	r2, r7, #7
 117 001c 1278     		ldrb	r2, [r2]
 118 001e D200     		lsl	r2, r2, #3
 119 0020 0A43     		orr	r2, r1
 120 0022 1A60     		str	r2, [r3]
  76:.\Generated_Source\PSoC4/Pin_2.c **** }
 121              		.loc 1 76 0
 122 0024 BD46     		mov	sp, r7
 123 0026 02B0     		add	sp, sp, #8
 124              		@ sp needed for prologue
 125 0028 80BD     		pop	{r7, pc}
 126              	.L6:
 127 002a C046     		.align	2
 128              	.L5:
 129 002c 08000440 		.word	1074003976
 130              		.cfi_endproc
 131              	.LFE1:
 132              		.size	Pin_2_SetDriveMode, .-Pin_2_SetDriveMode
 133              		.section	.text.Pin_2_Read,"ax",%progbits
 134              		.align	2
 135              		.global	Pin_2_Read
 136              		.code	16
 137              		.thumb_func
 138              		.type	Pin_2_Read, %function
 139              	Pin_2_Read:
 140              	.LFB2:
  77:.\Generated_Source\PSoC4/Pin_2.c **** 
  78:.\Generated_Source\PSoC4/Pin_2.c **** 
  79:.\Generated_Source\PSoC4/Pin_2.c **** /*******************************************************************************
  80:.\Generated_Source\PSoC4/Pin_2.c **** * Function Name: Pin_2_Read
  81:.\Generated_Source\PSoC4/Pin_2.c **** ********************************************************************************
  82:.\Generated_Source\PSoC4/Pin_2.c **** *
  83:.\Generated_Source\PSoC4/Pin_2.c **** * Summary:
  84:.\Generated_Source\PSoC4/Pin_2.c **** *  Read the current value on the pins of the Digital Port in right justified 
  85:.\Generated_Source\PSoC4/Pin_2.c **** *  form.
  86:.\Generated_Source\PSoC4/Pin_2.c **** *
  87:.\Generated_Source\PSoC4/Pin_2.c **** * Parameters:  
  88:.\Generated_Source\PSoC4/Pin_2.c **** *  None 
ARM GAS  C:\Users\GLENNL~1\AppData\Local\Temp\cckl9Whp.s 			page 5


  89:.\Generated_Source\PSoC4/Pin_2.c **** *
  90:.\Generated_Source\PSoC4/Pin_2.c **** * Return: 
  91:.\Generated_Source\PSoC4/Pin_2.c **** *  Returns the current value of the Digital Port as a right justified number
  92:.\Generated_Source\PSoC4/Pin_2.c **** *  
  93:.\Generated_Source\PSoC4/Pin_2.c **** * Note:
  94:.\Generated_Source\PSoC4/Pin_2.c **** *  Macro Pin_2_ReadPS calls this function. 
  95:.\Generated_Source\PSoC4/Pin_2.c **** *  
  96:.\Generated_Source\PSoC4/Pin_2.c **** *******************************************************************************/
  97:.\Generated_Source\PSoC4/Pin_2.c **** uint8 Pin_2_Read(void) 
  98:.\Generated_Source\PSoC4/Pin_2.c **** {
 141              		.loc 1 98 0
 142              		.cfi_startproc
 143 0000 80B5     		push	{r7, lr}
 144              	.LCFI6:
 145              		.cfi_def_cfa_offset 8
 146              		.cfi_offset 7, -8
 147              		.cfi_offset 14, -4
 148 0002 00AF     		add	r7, sp, #0
 149              	.LCFI7:
 150              		.cfi_def_cfa_register 7
  99:.\Generated_Source\PSoC4/Pin_2.c ****     return (uint8)((Pin_2_PS & Pin_2_MASK) >> Pin_2_SHIFT);
 151              		.loc 1 99 0
 152 0004 044B     		ldr	r3, .L9
 153 0006 1A68     		ldr	r2, [r3]
 154 0008 0223     		mov	r3, #2
 155 000a 1340     		and	r3, r2
 156 000c 5B08     		lsr	r3, r3, #1
 157 000e DBB2     		uxtb	r3, r3
 100:.\Generated_Source\PSoC4/Pin_2.c **** }
 158              		.loc 1 100 0
 159 0010 181C     		mov	r0, r3
 160 0012 BD46     		mov	sp, r7
 161              		@ sp needed for prologue
 162 0014 80BD     		pop	{r7, pc}
 163              	.L10:
 164 0016 C046     		.align	2
 165              	.L9:
 166 0018 04000440 		.word	1074003972
 167              		.cfi_endproc
 168              	.LFE2:
 169              		.size	Pin_2_Read, .-Pin_2_Read
 170              		.section	.text.Pin_2_ReadDataReg,"ax",%progbits
 171              		.align	2
 172              		.global	Pin_2_ReadDataReg
 173              		.code	16
 174              		.thumb_func
 175              		.type	Pin_2_ReadDataReg, %function
 176              	Pin_2_ReadDataReg:
 177              	.LFB3:
 101:.\Generated_Source\PSoC4/Pin_2.c **** 
 102:.\Generated_Source\PSoC4/Pin_2.c **** 
 103:.\Generated_Source\PSoC4/Pin_2.c **** /*******************************************************************************
 104:.\Generated_Source\PSoC4/Pin_2.c **** * Function Name: Pin_2_ReadDataReg
 105:.\Generated_Source\PSoC4/Pin_2.c **** ********************************************************************************
 106:.\Generated_Source\PSoC4/Pin_2.c **** *
 107:.\Generated_Source\PSoC4/Pin_2.c **** * Summary:
 108:.\Generated_Source\PSoC4/Pin_2.c **** *  Read the current value assigned to a Digital Port's data output register
ARM GAS  C:\Users\GLENNL~1\AppData\Local\Temp\cckl9Whp.s 			page 6


 109:.\Generated_Source\PSoC4/Pin_2.c **** *
 110:.\Generated_Source\PSoC4/Pin_2.c **** * Parameters:  
 111:.\Generated_Source\PSoC4/Pin_2.c **** *  None 
 112:.\Generated_Source\PSoC4/Pin_2.c **** *
 113:.\Generated_Source\PSoC4/Pin_2.c **** * Return: 
 114:.\Generated_Source\PSoC4/Pin_2.c **** *  Returns the current value assigned to the Digital Port's data output register
 115:.\Generated_Source\PSoC4/Pin_2.c **** *  
 116:.\Generated_Source\PSoC4/Pin_2.c **** *******************************************************************************/
 117:.\Generated_Source\PSoC4/Pin_2.c **** uint8 Pin_2_ReadDataReg(void) 
 118:.\Generated_Source\PSoC4/Pin_2.c **** {
 178              		.loc 1 118 0
 179              		.cfi_startproc
 180 0000 80B5     		push	{r7, lr}
 181              	.LCFI8:
 182              		.cfi_def_cfa_offset 8
 183              		.cfi_offset 7, -8
 184              		.cfi_offset 14, -4
 185 0002 00AF     		add	r7, sp, #0
 186              	.LCFI9:
 187              		.cfi_def_cfa_register 7
 119:.\Generated_Source\PSoC4/Pin_2.c ****     return (uint8)((Pin_2_DR & Pin_2_MASK) >> Pin_2_SHIFT);
 188              		.loc 1 119 0
 189 0004 044B     		ldr	r3, .L13
 190 0006 1A68     		ldr	r2, [r3]
 191 0008 0223     		mov	r3, #2
 192 000a 1340     		and	r3, r2
 193 000c 5B08     		lsr	r3, r3, #1
 194 000e DBB2     		uxtb	r3, r3
 120:.\Generated_Source\PSoC4/Pin_2.c **** }
 195              		.loc 1 120 0
 196 0010 181C     		mov	r0, r3
 197 0012 BD46     		mov	sp, r7
 198              		@ sp needed for prologue
 199 0014 80BD     		pop	{r7, pc}
 200              	.L14:
 201 0016 C046     		.align	2
 202              	.L13:
 203 0018 00000440 		.word	1074003968
 204              		.cfi_endproc
 205              	.LFE3:
 206              		.size	Pin_2_ReadDataReg, .-Pin_2_ReadDataReg
 207              		.section	.text.Pin_2_ClearInterrupt,"ax",%progbits
 208              		.align	2
 209              		.global	Pin_2_ClearInterrupt
 210              		.code	16
 211              		.thumb_func
 212              		.type	Pin_2_ClearInterrupt, %function
 213              	Pin_2_ClearInterrupt:
 214              	.LFB4:
 121:.\Generated_Source\PSoC4/Pin_2.c **** 
 122:.\Generated_Source\PSoC4/Pin_2.c **** 
 123:.\Generated_Source\PSoC4/Pin_2.c **** /* If Interrupts Are Enabled for this Pins component */ 
 124:.\Generated_Source\PSoC4/Pin_2.c **** #if defined(Pin_2_INTSTAT) 
 125:.\Generated_Source\PSoC4/Pin_2.c **** 
 126:.\Generated_Source\PSoC4/Pin_2.c ****     /*******************************************************************************
 127:.\Generated_Source\PSoC4/Pin_2.c ****     * Function Name: Pin_2_ClearInterrupt
 128:.\Generated_Source\PSoC4/Pin_2.c ****     ********************************************************************************
ARM GAS  C:\Users\GLENNL~1\AppData\Local\Temp\cckl9Whp.s 			page 7


 129:.\Generated_Source\PSoC4/Pin_2.c ****     *
 130:.\Generated_Source\PSoC4/Pin_2.c ****     * Summary:
 131:.\Generated_Source\PSoC4/Pin_2.c ****     *  Clears any active interrupts attached to port and returns the value of the 
 132:.\Generated_Source\PSoC4/Pin_2.c ****     *  interrupt status register.
 133:.\Generated_Source\PSoC4/Pin_2.c ****     *
 134:.\Generated_Source\PSoC4/Pin_2.c ****     * Parameters:  
 135:.\Generated_Source\PSoC4/Pin_2.c ****     *  None 
 136:.\Generated_Source\PSoC4/Pin_2.c ****     *
 137:.\Generated_Source\PSoC4/Pin_2.c ****     * Return: 
 138:.\Generated_Source\PSoC4/Pin_2.c ****     *  Returns the value of the interrupt status register
 139:.\Generated_Source\PSoC4/Pin_2.c ****     *  
 140:.\Generated_Source\PSoC4/Pin_2.c ****     *******************************************************************************/
 141:.\Generated_Source\PSoC4/Pin_2.c ****     uint8 Pin_2_ClearInterrupt(void) 
 142:.\Generated_Source\PSoC4/Pin_2.c ****     {
 215              		.loc 1 142 0
 216              		.cfi_startproc
 217 0000 80B5     		push	{r7, lr}
 218              	.LCFI10:
 219              		.cfi_def_cfa_offset 8
 220              		.cfi_offset 7, -8
 221              		.cfi_offset 14, -4
 222 0002 82B0     		sub	sp, sp, #8
 223              	.LCFI11:
 224              		.cfi_def_cfa_offset 16
 225 0004 00AF     		add	r7, sp, #0
 226              	.LCFI12:
 227              		.cfi_def_cfa_register 7
 143:.\Generated_Source\PSoC4/Pin_2.c **** 		uint8 maskedStatus = (uint8)(Pin_2_INTSTAT & Pin_2_MASK);
 228              		.loc 1 143 0
 229 0006 094B     		ldr	r3, .L17
 230 0008 1B68     		ldr	r3, [r3]
 231 000a D9B2     		uxtb	r1, r3
 232 000c FB1D     		add	r3, r7, #7
 233 000e 0222     		mov	r2, #2
 234 0010 0A40     		and	r2, r1
 235 0012 1A70     		strb	r2, [r3]
 144:.\Generated_Source\PSoC4/Pin_2.c **** 		Pin_2_INTSTAT = maskedStatus;
 236              		.loc 1 144 0
 237 0014 054B     		ldr	r3, .L17
 238 0016 FA1D     		add	r2, r7, #7
 239 0018 1278     		ldrb	r2, [r2]
 240 001a 1A60     		str	r2, [r3]
 145:.\Generated_Source\PSoC4/Pin_2.c ****         return maskedStatus >> Pin_2_SHIFT;
 241              		.loc 1 145 0
 242 001c FB1D     		add	r3, r7, #7
 243 001e 1B78     		ldrb	r3, [r3]
 244 0020 5B08     		lsr	r3, r3, #1
 245 0022 DBB2     		uxtb	r3, r3
 146:.\Generated_Source\PSoC4/Pin_2.c ****     }
 246              		.loc 1 146 0
 247 0024 181C     		mov	r0, r3
 248 0026 BD46     		mov	sp, r7
 249 0028 02B0     		add	sp, sp, #8
 250              		@ sp needed for prologue
 251 002a 80BD     		pop	{r7, pc}
 252              	.L18:
 253              		.align	2
ARM GAS  C:\Users\GLENNL~1\AppData\Local\Temp\cckl9Whp.s 			page 8


 254              	.L17:
 255 002c 10000440 		.word	1074003984
 256              		.cfi_endproc
 257              	.LFE4:
 258              		.size	Pin_2_ClearInterrupt, .-Pin_2_ClearInterrupt
 259              		.text
 260              	.Letext0:
 261              		.file 2 ".\\Generated_Source\\PSoC4\\cytypes.h"