******************************************************************************
                  TI ARM Linker PC v16.9.0                     
******************************************************************************
>> Linked Sat Apr 01 20:45:01 2017

OUTPUT FILE NAME:   <Function Overloading.out>
ENTRY POINT SYMBOL: "_c_int00"  address: 000195e1


MEMORY CONFIGURATION

         name            origin    length      used     unused   attr    fill
----------------------  --------  ---------  --------  --------  ----  --------
  FLASH                 00000000   00040000  0001e04b  00021fb5  R  X
  SRAM                  20000000   00008000  00001775  0000688b  RW X


SEGMENT ALLOCATION MAP

run origin  load origin   length   init length attrs members
----------  ----------- ---------- ----------- ----- -------
00000000    00000000    0001e050   0001e050    r-x
  00000000    00000000    0000026c   0000026c    r-- .intvecs
  0000026c    0000026c    0001b474   0001b474    r-x .text
  0001b6e0    0001b6e0    0000251b   0000251b    r-- .const
  0001dbfc    0001dbfc    00000008   00000008    r-- .init_array
  0001dc08    0001dc08    00000448   00000448    r-- .cinit
20000000    20000000    00001778   00000000    rw-
  20000000    20000000    00001368   00000000    rw- .data
  20001368    20001368    00000205   00000000    rw- .bss
  20001570    20001570    00000200   00000000    rw- .stack
  20001770    20001770    00000008   00000000    rw- .sysmem


SECTION ALLOCATION MAP

 output                                  attributes/
section   page    origin      length       input sections
--------  ----  ----------  ----------   ----------------
.intvecs   0    00000000    0000026c     
                  00000000    0000026c     tm4c123gh6pm_startup_ccs.obj (.intvecs)

.text      0    0000026c    0001b474     
                  0000026c    00007aec     rtsv7M4_T_le_v4SPD16_eabi.lib : unified_locale.obj (.text)
                  00007d58    0000113a                                   : _printfi.obj (.text)
                  00008e92    00000002                                   : unified_locale.obj (.text:_ZNKSt8messagesIcE8do_closeEi)
                  00008e94    00000714                                   : unified_locale.obj (.text:_ZNSt4priv14__money_do_putIwSt19ostreambuf_iteratorIwSt11char_traitsIwEESbIwS3_SaIwEENS_16__basic_iostringIwEEEET0_S9_bRSt8ios_baseT_RKT2_bPT1_)
                  000095a8    00000710                                   : unified_locale.obj (.text:_ZNSt4priv14__money_do_putIwSt19ostreambuf_iteratorIwSt11char_traitsIwEESbIwS3_SaIwEES6_EET0_S7_bRSt8ios_baseT_RKT2_bPT1_)
                  00009cb8    00000694                                   : unified_locale.obj (.text:_ZNSt4priv14__money_do_putIcSt19ostreambuf_iteratorIcSt11char_traitsIcEESsSsEET0_S5_bRSt8ios_baseT_RKT2_bPT1_)
                  0000a34c    00000680                                   : unified_locale.obj (.text:_ZNSt4priv14__money_do_putIcSt19ostreambuf_iteratorIcSt11char_traitsIcEESsNS_16__basic_iostringIcEEEET0_S7_bRSt8ios_baseT_RKT2_bPT1_)
                  0000a9cc    000005d0                                   : rtti.obj (.text)
                  0000af9c    00000594                                   : unified_locale.obj (.text:_ZNSt4priv14__money_do_getIcSt19istreambuf_iteratorIcSt11char_traitsIcEESsEET0_S5_S5_bRSt8ios_baseRiRT1_RbPT_)
                  0000b530    00000588                                   : unified_locale.obj (.text:_ZNSt4priv14__money_do_getIwSt19istreambuf_iteratorIwSt11char_traitsIwEESbIwS3_SaIwEEEET0_S7_S7_bRSt8ios_baseRiRT1_RbPT_)
                  0000bab8    000003d0                                   : memory.obj (.text)
                  0000be88    000003b8                                   : _ctype.obj (.text)
                  0000c240    0000039c                                   : vec_newdel.obj (.text)
                  0000c5dc    00000324                                   : trgdrv.obj (.text)
                  0000c900    0000030c                                   : lowlev.obj (.text)
                  0000cc0c    000002c6                                   : unified_locale.obj (.text:_ZNSt4priv23__copy_integer_and_fillIwSt19ostreambuf_iteratorIwSt11char_traitsIwEEEET0_PKT_iS5_iiS6_S6_S6_)
                  0000ced2    000002b2                                   : unified_locale.obj (.text:_ZNSt4priv23__copy_integer_and_fillIcSt19ostreambuf_iteratorIcSt11char_traitsIcEEEET0_PKT_iS5_iiS6_S6_S6_)
                  0000d184    000002a8                                   : unified_locale.obj (.text:_ZNSt4priv23__write_formatted_timeTIcNS_10_Time_InfoEEEvRNS_16__basic_iostringIT_EERKSt5ctypeIS3_EccRKT0_PKSt2tm)
                  0000d42c    000002a8                                   : unified_locale.obj (.text:_ZNSt4priv23__write_formatted_timeTIwNS_11_WTime_InfoEEEvRNS_16__basic_iostringIT_EERKSt5ctypeIS3_EccRKT0_PKSt2tm)
                  0000d6d4    00000268                                   : unified_locale.obj (.text:_ZNSt4priv20__get_monetary_valueISt19istreambuf_iteratorIcSt11char_traitsIcEESt20back_insert_iteratorISsEcEEbRT_S7_T0_RKSt5ctypeIT1_ESB_iSB_RKSsRb)
                  0000d93c    00000266                                   : unified_locale.obj (.text:_ZNSt4priv20__get_monetary_valueISt19istreambuf_iteratorIwSt11char_traitsIwEESt20back_insert_iteratorISbIwS3_SaIwEEEwEEbRT_S9_T0_RKSt5ctypeIT1_ESD_iSD_RKSsRb)
                  0000dba2    00000002                                   : unified_locale.obj (.text:_ZNKSt8messagesIwE8do_closeEi)
                  0000dba4    00000248                                   : unified_locale.obj (.text:_ZNSt4priv20__get_formatted_timeISt19istreambuf_iteratorIcSt11char_traitsIcEEcNS_10_Time_InfoEEEPKcT_S8_S7_S7_PT0_RKT1_RKSt8ios_baseRiPSt2tm)
                  0000ddec    0000023c                                   : unified_locale.obj (.text:_ZNSt4priv20__get_formatted_timeISt19istreambuf_iteratorIwSt11char_traitsIwEEwNS_11_WTime_InfoEEEPKcT_S8_S7_S7_PT0_RKT1_RKSt8ios_baseRiPSt2tm)
                  0000e028    0000023c                                   : strtod.obj (.text)
                  0000e264    00000236                                   : unified_locale.obj (.text:_ZNSt4priv12__read_floatISt19istreambuf_iteratorIwSt11char_traitsIwEEwEEbRNS_16__basic_iostringIcEERT_S9_RKSt5ctypeIT0_ERKSt8numpunctISB_E)
                  0000e49a    0000022c                                   : unified_locale.obj (.text:_ZNSt4priv12__read_floatISt19istreambuf_iteratorIcSt11char_traitsIcEEcEEbRNS_16__basic_iostringIcEERT_S9_RKSt5ctypeIT0_ERKSt8numpunctISB_E)
                  0000e6c6    0000021e                                   : ll_div_t2.obj (.text)
                  0000e8e4    00000216                                   : unified_locale.obj (.text:_ZNSt13basic_filebufIwSt11char_traitsIwEE7seekoffElii)
                  0000eafa    00000210                                   : unified_locale.obj (.text:_ZNSt13basic_filebufIcSt11char_traitsIcEE7seekoffElii)
                  0000ed0a    00000206                                   : unified_locale.obj (.text:_ZNSt4priv21__copy_float_and_fillIwSt19ostreambuf_iteratorIwSt11char_traitsIwEEEET0_PKT_S8_S5_iiS6_S6_S6_)
                  0000ef10    00000200                                   : unified_locale.obj (.text:_ZNSt4priv21__copy_float_and_fillIcSt19ostreambuf_iteratorIcSt11char_traitsIcEEEET0_PKT_S8_S5_iiS6_S6_S6_)
                  0000f110    000001f4                                   : ull_div_t2.obj (.text)
                  0000f304    000001d4                                   : unified_locale.obj (.text:_ZNSt4priv13__get_integerISt19istreambuf_iteratorIcSt11char_traitsIcEEycEEbRT_S6_iRT0_ibT1_RKSsRKSt12__false_type)
                  0000f4d8    000001d4                                   : unified_locale.obj (.text:_ZNSt4priv13__get_integerISt19istreambuf_iteratorIwSt11char_traitsIwEEywEEbRT_S6_iRT0_ibT1_RKSsRKSt12__false_type)
                  0000f6ac    000001d0                                   : unified_locale.obj (.text:_ZNSt4priv13__do_put_boolIwSt19ostreambuf_iteratorIwSt11char_traitsIwEEEET0_S5_RSt8ios_baseT_b)
                  0000f87c    000001c8                                   : unified_locale.obj (.text:_ZNSt4priv13__do_put_boolIcSt19ostreambuf_iteratorIcSt11char_traitsIcEEEET0_S5_RSt8ios_baseT_b)
                  0000fa44    000001c8                                   : wctype.obj (.text)
                  0000fc0c    000001c4                                   : fopen.obj (.text)
                  0000fdd0    000001b6                                   : fd_add_t2.obj (.text)
                  0000ff86    00000002                                   : unified_locale.obj (.text:_ZNSt15basic_streambufIcSt11char_traitsIcEE5imbueERKSt6locale)
                  0000ff88    00000178                                   : unified_locale.obj (.text:_ZNSt4priv13__get_integerIPcecEEbRT_S3_iRT0_ibT1_RKSsRKSt12__false_type)
                  00010100    00000178                                   : unified_locale.obj (.text:_ZNSt4priv13__get_integerIPwewEEbRT_S3_iRT0_ibT1_RKSsRKSt12__false_type)
                  00010278    00000174                                   : unified_locale.obj (.text:_ZNSt4priv13__get_integerISt19istreambuf_iteratorIcSt11char_traitsIcEExcEEbRT_S6_iRT0_ibT1_RKSsRKSt11__true_type)
                  000103ec    00000174                                   : unified_locale.obj (.text:_ZNSt4priv13__get_integerISt19istreambuf_iteratorIwSt11char_traitsIwEExwEEbRT_S6_iRT0_ibT1_RKSsRKSt11__true_type)
                  00010560    0000016c                                   : fwrite.obj (.text)
                  000106cc    0000015c                                   : unified_locale.obj (.text:_ZNSt4priv16__do_get_integerISt19istreambuf_iteratorIcSt11char_traitsIcEEycEET_RS5_S6_RSt8ios_baseRiRT0_PT1_)
                  00010828    0000015c                                   : unified_locale.obj (.text:_ZNSt4priv16__do_get_integerISt19istreambuf_iteratorIwSt11char_traitsIwEEywEET_RS5_S6_RSt8ios_baseRiRT0_PT1_)
                  00010984    00000158                                   : unified_locale.obj (.text:_ZNSt9hashtableISt4pairIKSsS0_IPvjEESsSt4hashISsENSt4priv15_HashMapTraitsTIS4_EENS7_10_Select1stIS4_EESt8equal_toISsESaIS4_EE9_M_rehashEj)
                  00010adc    00000144                                   : unified_locale.obj (.text:_ZNSt4priv18__do_get_alphaboolISt19istreambuf_iteratorIwSt11char_traitsIwEEwEET_RS5_S6_RSt8ios_baseRiRbPT0_)
                  00010c20    0000013c                                   : unified_locale.obj (.text:_ZNSt4priv11__put_floatISt19ostreambuf_iteratorIwSt11char_traitsIwEEEET_RNS_16__basic_iostringIcEES5_RSt8ios_basewwwjRKSs)
                  00010d5c    00000138                                   : unified_locale.obj (.text:_ZNSt4priv18__do_get_alphaboolISt19istreambuf_iteratorIcSt11char_traitsIcEEcEET_RS5_S6_RSt8ios_baseRiRbPT0_)
                  00010e94    00000136                                   : fd_div_t2.obj (.text)
                  00010fca    00000002                                   : unified_locale.obj (.text:_ZNSt15basic_streambufIcSt11char_traitsIcEE6setbufEPci)
                  00010fcc    00000134                                   : fputs.obj (.text)
                  00011100    0000012e                                   : unified_locale.obj (.text:_ZNSt4priv18__get_base_or_zeroISt19istreambuf_iteratorIcSt11char_traitsIcEEcEEiRT_S6_iRKSt5ctypeIT0_E)
                  0001122e    0000012e                                   : unified_locale.obj (.text:_ZNSt4priv18__get_base_or_zeroISt19istreambuf_iteratorIwSt11char_traitsIwEEwEEiRT_S6_iRKSt5ctypeIT0_E)
                  0001135c    0000012c                                   : unified_locale.obj (.text:_ZNKSt7num_putIcSt19ostreambuf_iteratorIcSt11char_traitsIcEEE6do_putES3_RSt8ios_basecPKv)
                  00011488    0000012c                                   : unified_locale.obj (.text:_ZNKSt7num_putIwSt19ostreambuf_iteratorIwSt11char_traitsIwEEE6do_putES3_RSt8ios_basewPKv)
                  000115b4    0000012c                                   : unified_locale.obj (.text:_ZNSt9hashtableISt4pairIKiSt6localeEiSt4hashIiENSt4priv15_HashMapTraitsTIS3_EENS6_10_Select1stIS3_EESt8equal_toIiESaIS3_EE9_M_rehashEj)
                  000116e0    00000128                                   : unified_locale.obj (.text:_ZNSt4priv13__put_integerISt19ostreambuf_iteratorIwSt11char_traitsIwEEEET_PcS6_S5_RSt8ios_baseiw)
                  00011808    00000128                                   : unified_locale.obj (.text:_ZNSt4priv24__write_integer_backwardIlEEPcS1_iT_)
                  00011930    0000011e                                   : unified_locale.obj (.text:_ZNSt4priv13__get_integerISt19istreambuf_iteratorIcSt11char_traitsIcEElcEEbRT_S6_iRT0_ibT1_RKSsRKSt11__true_type)
                  00011a4e    0000011e                                   : unified_locale.obj (.text:_ZNSt4priv13__get_integerISt19istreambuf_iteratorIwSt11char_traitsIwEElwEEbRT_S6_iRT0_ibT1_RKSsRKSt11__true_type)
                  00011b6c    00000114                                   : unified_locale.obj (.text:_ZNSt4priv13__get_integerISt19istreambuf_iteratorIcSt11char_traitsIcEEtcEEbRT_S6_iRT0_ibT1_RKSsRKSt12__false_type)
                  00011c80    00000114                                   : unified_locale.obj (.text:_ZNSt4priv13__get_integerISt19istreambuf_iteratorIwSt11char_traitsIwEEtwEEbRT_S6_iRT0_ibT1_RKSsRKSt12__false_type)
                  00011d94    00000112     tm4c123gh6pm_startup_ccs.obj (.text)
                  00011ea6    0000010c     rtsv7M4_T_le_v4SPD16_eabi.lib : unified_locale.obj (.text:_ZNSt4priv13__get_integerISt19istreambuf_iteratorIcSt11char_traitsIcEEicEEbRT_S6_iRT0_ibT1_RKSsRKSt12__false_type)
                  00011fb2    0000010c                                   : unified_locale.obj (.text:_ZNSt4priv13__get_integerISt19istreambuf_iteratorIcSt11char_traitsIcEEjcEEbRT_S6_iRT0_ibT1_RKSsRKSt12__false_type)
                  000120be    0000010c                                   : unified_locale.obj (.text:_ZNSt4priv13__get_integerISt19istreambuf_iteratorIcSt11char_traitsIcEEmcEEbRT_S6_iRT0_ibT1_RKSsRKSt12__false_type)
                  000121ca    0000010c                                   : unified_locale.obj (.text:_ZNSt4priv13__get_integerISt19istreambuf_iteratorIwSt11char_traitsIwEEiwEEbRT_S6_iRT0_ibT1_RKSsRKSt12__false_type)
                  000122d6    0000010c                                   : unified_locale.obj (.text:_ZNSt4priv13__get_integerISt19istreambuf_iteratorIwSt11char_traitsIwEEjwEEbRT_S6_iRT0_ibT1_RKSsRKSt12__false_type)
                  000123e2    0000010c                                   : unified_locale.obj (.text:_ZNSt4priv13__get_integerISt19istreambuf_iteratorIwSt11char_traitsIwEEmwEEbRT_S6_iRT0_ibT1_RKSsRKSt12__false_type)
                  000124ee    0000010c                                   : unified_locale.obj (.text:_ZNSt9hashtableISt4pairIKiSt6localeEiSt4hashIiENSt4priv15_HashMapTraitsTIS3_EENS6_10_Select1stIS3_EESt8equal_toIiESaIS3_EE5eraseERS1_)
                  000125fa    00000002                                   : unified_locale.obj (.text:_ZNSt15basic_streambufIwSt11char_traitsIwEE5imbueERKSt6locale)
                  000125fc    00000104                                   : unified_locale.obj (.text:_ZNSt4priv14__do_put_floatIwSt19ostreambuf_iteratorIwSt11char_traitsIwEEeEET0_S5_RSt8ios_baseT_T1_)
                  00012700    00000100                                   : unified_locale.obj (.text:_ZNSt4priv14__do_put_floatIcSt19ostreambuf_iteratorIcSt11char_traitsIcEEdEET0_S5_RSt8ios_baseT_T1_)
                  00012800    00000100                                   : unified_locale.obj (.text:_ZNSt4priv14__do_put_floatIcSt19ostreambuf_iteratorIcSt11char_traitsIcEEeEET0_S5_RSt8ios_baseT_T1_)
                  00012900    00000100                                   : unified_locale.obj (.text:_ZNSt4priv14__do_put_floatIwSt19ostreambuf_iteratorIwSt11char_traitsIwEEdEET0_S5_RSt8ios_baseT_T1_)
                  00012a00    000000fe                                   : unified_locale.obj (.text:_ZNSt4priv24__write_integer_backwardIxEEPcS1_iT_)
                  00012afe    000000fc                                   : fd_mul_t2.obj (.text)
                  00012bfa    00000002                                   : unified_locale.obj (.text:_ZNSt15basic_streambufIwSt11char_traitsIwEE6setbufEPwi)
                  00012bfc    000000fc                                   : s_scalbn.obj (.text)
                  00012cf8    000000f4                                   : unified_locale.obj (.text:_ZNSt4priv13__put_integerISt19ostreambuf_iteratorIcSt11char_traitsIcEEEET_PcS6_S5_RSt8ios_baseic)
                  00012dec    000000f4                                   : unified_locale.obj (.text:_ZNSt4priv16__do_get_integerISt19istreambuf_iteratorIcSt11char_traitsIcEExcEET_RS5_S6_RSt8ios_baseRiRT0_PT1_)
                  00012ee0    000000f4                                   : unified_locale.obj (.text:_ZNSt4priv16__do_get_integerISt19istreambuf_iteratorIwSt11char_traitsIwEExwEET_RS5_S6_RSt8ios_baseRiRT0_PT1_)
                  00012fd4    000000f4                                   : unified_locale.obj (.text:_ZNSt9hashtableISt4pairIKSsS0_IPvjEESsSt4hashISsENSt4priv15_HashMapTraitsTIS4_EENS7_10_Select1stIS4_EESt8equal_toISsESaIS4_EE5eraseENS7_12_Ht_iteratorINS7_15_Slist_iteratorIS4_St16_Nonconst_traitsIS4_EEENS7_28_ConstNonLocalHashMapTraitsTIS4_EEEE)
                  000130c8    000000f4                                   : dtor_list.obj (.text)
                  000131bc    000000f0                                   : unified_locale.obj (.text:_ZNSt4priv16__do_get_integerISt19istreambuf_iteratorIcSt11char_traitsIcEEjcEET_RS5_S6_RSt8ios_baseRiRT0_PT1_)
                  000132ac    000000f0                                   : unified_locale.obj (.text:_ZNSt4priv16__do_get_integerISt19istreambuf_iteratorIcSt11char_traitsIcEElcEET_RS5_S6_RSt8ios_baseRiRT0_PT1_)
                  0001339c    000000f0                                   : unified_locale.obj (.text:_ZNSt4priv16__do_get_integerISt19istreambuf_iteratorIcSt11char_traitsIcEEmcEET_RS5_S6_RSt8ios_baseRiRT0_PT1_)
                  0001348c    000000f0                                   : unified_locale.obj (.text:_ZNSt4priv16__do_get_integerISt19istreambuf_iteratorIcSt11char_traitsIcEEtcEET_RS5_S6_RSt8ios_baseRiRT0_PT1_)
                  0001357c    000000f0                                   : unified_locale.obj (.text:_ZNSt4priv16__do_get_integerISt19istreambuf_iteratorIwSt11char_traitsIwEEjwEET_RS5_S6_RSt8ios_baseRiRT0_PT1_)
                  0001366c    000000f0                                   : unified_locale.obj (.text:_ZNSt4priv16__do_get_integerISt19istreambuf_iteratorIwSt11char_traitsIwEElwEET_RS5_S6_RSt8ios_baseRiRT0_PT1_)
                  0001375c    000000f0                                   : unified_locale.obj (.text:_ZNSt4priv16__do_get_integerISt19istreambuf_iteratorIwSt11char_traitsIwEEmwEET_RS5_S6_RSt8ios_baseRiRT0_PT1_)
                  0001384c    000000f0                                   : unified_locale.obj (.text:_ZNSt4priv16__do_get_integerISt19istreambuf_iteratorIwSt11char_traitsIwEEtwEET_RS5_S6_RSt8ios_baseRiRT0_PT1_)
                  0001393c    000000ec                                   : unified_locale.obj (.text:_ZNSbIwSt11char_traitsIwENSt4priv20__iostring_allocatorIwEEE10_M_appendTIPKwEERS4_T_S9_RKSt20forward_iterator_tag)
                  00013a28    000000ec                                   : unified_locale.obj (.text:_ZNSbIwSt11char_traitsIwENSt4priv20__iostring_allocatorIwEEE13_M_insert_auxEPww)
                  00013b14    000000ec                                   : unified_locale.obj (.text:_ZNSs18_M_append_fast_posINSt4priv14__bstr_wrapperIcSt11char_traitsIcESaIcEEENS0_10__bstr_sumIcS3_S4_NS0_14__cstr_wrapperIcEENS0_18__sum_storage_elemIcS3_S4_EENS0_10__on_rightEEESB_EEPcRKNS6_IcS3_S4_T_T0_T1_EESD_jj)
                  00013c00    000000ec                                   : fread.obj (.text)
                  00013cec    000000e8                                   : unified_locale.obj (.text:_ZNSt4priv21__copy_grouped_digitsISt19istreambuf_iteratorIwSt11char_traitsIwEEwEEbRT_S5_RNS_16__basic_iostringIcEEPKT0_SA_RKSsRb)
                  00013dd4    000000e8                                   : unified_locale.obj (.text:_ZNSt9hashtableISt4pairIKSsS0_IPvjEESsSt4hashISsENSt4priv15_HashMapTraitsTIS4_EENS7_10_Select1stIS4_EESt8equal_toISsESaIS4_EE22insert_unique_noresizeERKS4_)
                  00013ebc    000000e6                                   : unified_locale.obj (.text:_ZNSt13basic_filebufIcSt11char_traitsIcEE16_M_underflow_auxEv)
                  00013fa2    00000002                                   : unified_locale.obj (.text:_ZNSt4priv6__lessIjEENS_8_ti_lessIT_EEPS2_)
                  00013fa4    000000e4                                   : unified_locale.obj (.text:_ZNKSt8time_putIwSt19ostreambuf_iteratorIwSt11char_traitsIwEEE6do_putES3_RSt8ios_basewPKSt2tmcc)
                  00014088    000000e4                                   : unified_locale.obj (.text:_ZNSbIwSt11char_traitsIwESaIwEE9_M_appendEPKwS4_)
                  0001416c    000000e4                                   : unified_locale.obj (.text:_ZNSt4priv7__matchISt19istreambuf_iteratorIcSt11char_traitsIcEEPKSsEEjRT_S8_T0_S9_)
                  00014250    000000e4                                   : unified_locale.obj (.text:_ZNSt4priv7__matchISt19istreambuf_iteratorIwSt11char_traitsIwEEPKSbIwS3_SaIwEEEEjRT_SA_T0_SB_)
                  00014334    000000e2                                   : unified_locale.obj (.text:_ZNKSt9money_getIcSt19istreambuf_iteratorIcSt11char_traitsIcEEE6do_getES3_S3_bRSt8ios_baseRiRe)
                  00014416    000000de                                   : unified_locale.obj (.text:_ZNSt13basic_filebufIwSt11char_traitsIwEE16_M_underflow_auxEv)
                  000144f4    000000de                                   : _ctype.obj (.text:_ZSt7find_ifIPKwSt12unary_negateISt16_Ctype_w_is_maskEET_S5_S5_T0_)
                  000145d2    00000002                                   : unified_locale.obj (.text:_ZNSt7num_getIcSt19istreambuf_iteratorIcSt11char_traitsIcEEED1Ev)
                  000145d4    000000dc                                   : unified_locale.obj (.text:_ZNKSt8time_putIcSt19ostreambuf_iteratorIcSt11char_traitsIcEEE6do_putES3_RSt8ios_basecPKSt2tmcc)
                  000146b0    000000dc                                   : unified_locale.obj (.text:_ZNSt13basic_filebufIcSt11char_traitsIcEE8overflowEi)
                  0001478c    000000dc     main.obj (.text)
                  00014868    000000dc     rtsv7M4_T_le_v4SPD16_eabi.lib : setvbuf.obj (.text)
                  00014944    000000d6                                   : unified_locale.obj (.text:_ZNSt4priv21__copy_grouped_digitsISt19istreambuf_iteratorIcSt11char_traitsIcEEcEEbRT_S5_RNS_16__basic_iostringIcEEPKT0_SA_RKSsRb)
                  00014a1a    000000d4                                   : unified_locale.obj (.text:_ZNKSt9money_getIwSt19istreambuf_iteratorIwSt11char_traitsIwEEE6do_getES3_S3_bRSt8ios_baseRiRe)
                  00014aee    000000d4                                   : unified_locale.obj (.text:_ZNSt4priv12_String_baseIwSaIwEE7_M_swapERS2_)
                  00014bc2    00000002                                   : unified_locale.obj (.text:_ZNSt7num_getIwSt19istreambuf_iteratorIwSt11char_traitsIwEEED1Ev)
                  00014bc4    000000d4                                   : unified_locale.obj (.text:_ZNSt4priv14__do_get_floatISt19istreambuf_iteratorIcSt11char_traitsIcEEdcEET_RS5_S6_RSt8ios_baseRiRT0_PT1_)
                  00014c98    000000d4                                   : unified_locale.obj (.text:_ZNSt4priv14__do_get_floatISt19istreambuf_iteratorIcSt11char_traitsIcEEecEET_RS5_S6_RSt8ios_baseRiRT0_PT1_)
                  00014d6c    000000d4                                   : unified_locale.obj (.text:_ZNSt4priv14__do_get_floatISt19istreambuf_iteratorIcSt11char_traitsIcEEfcEET_RS5_S6_RSt8ios_baseRiRT0_PT1_)
                  00014e40    000000d4                                   : unified_locale.obj (.text:_ZNSt4priv14__do_get_floatISt19istreambuf_iteratorIwSt11char_traitsIwEEdwEET_RS5_S6_RSt8ios_baseRiRT0_PT1_)
                  00014f14    000000d4                                   : unified_locale.obj (.text:_ZNSt4priv14__do_get_floatISt19istreambuf_iteratorIwSt11char_traitsIwEEewEET_RS5_S6_RSt8ios_baseRiRT0_PT1_)
                  00014fe8    000000d4                                   : unified_locale.obj (.text:_ZNSt4priv14__do_get_floatISt19istreambuf_iteratorIwSt11char_traitsIwEEfwEET_RS5_S6_RSt8ios_baseRiRT0_PT1_)
                  000150bc    000000d4                                   : unified_locale.obj (.text:_ZNSt4priv24__write_integer_backwardIyEEPcS1_iT_)
                  00015190    000000d2                                   : unified_locale.obj (.text:_ZNSt6vectorIPNSt6locale5facetESaIS2_EE18_M_fill_insert_auxEPS2_jRKS2_RKSt12__false_type)
                  00015262    000000cc                                   : unified_locale.obj (.text:_ZNSt13basic_filebufIwSt11char_traitsIwEE8overflowEi)
                  0001532e    000000ca                                   : unified_locale.obj (.text:_ZNSbIcSt11char_traitsIcENSt4priv20__iostring_allocatorIcEEE9_M_appendEPKcS6_)
                  000153f8    000000c8                                   : unified_locale.obj (.text:_ZNSbIcSt11char_traitsIcENSt4priv20__iostring_allocatorIcEEE10_M_appendTIPKcEERS4_T_S9_RKSt20forward_iterator_tag)
                  000154c0    000000c8                                   : unified_locale.obj (.text:_ZNSt6vectorIPNSt6locale5facetESaIS2_EEaSERKS4_)
                  00015588    000000c8                                   : fflush.obj (.text)
                  00015650    000000c6                                   : unified_locale.obj (.text:_ZNSbIcSt11char_traitsIcENSt4priv20__iostring_allocatorIcEEE13_M_insert_auxEPcc)
                  00015716    000000c6                                   : unified_locale.obj (.text:_ZNSt6vectorIPNSt6locale5facetESaIS2_EE14_M_fill_insertEPS2_jRKS2_)
                  000157dc    000000c4                                   : unified_locale.obj (.text:_ZNSt6vectorIPNSt4priv16_Slist_node_baseESaIS2_EE14_M_fill_assignEjRKS2_)
                  000158a0    000000c4                                   : unified_locale.obj (.text:_ZNSt9hashtableISt4pairIKSsS0_IPvjEESsSt4hashISsENSt4priv15_HashMapTraitsTIS4_EENS7_10_Select1stIS4_EESt8equal_toISsESaIS4_EE9_M_reduceEv)
                  00015964    000000c4                                   : unified_locale.obj (.text:_ZNSt9hashtableISt4pairIKiSt6localeEiSt4hashIiENSt4priv15_HashMapTraitsTIS3_EENS6_10_Select1stIS3_EESt8equal_toIiESaIS3_EE9_M_reduceEv)
                  00015a28    000000c2                                   : unified_locale.obj (.text:_ZNSt4priv24__write_integer_backwardImEEPcS1_iT_)
                  00015aea    00000002                                   : unified_locale.obj (.text:_ZNSt7num_putIcSt19ostreambuf_iteratorIcSt11char_traitsIcEEED1Ev)
                  00015aec    000000bc                                   : typeinfo_.obj (.text)
                  00015ba8    000000b8                                   : unified_locale.obj (.text:_ZNSbIwSt11char_traitsIwESaIwEE6assignEjw)
                  00015c60    000000b4                                   : unified_locale.obj (.text:_ZNSs9_M_appendEPKcS0_)
                  00015d14    000000b4                                   : unified_locale.obj (.text:_ZNSt9hashtableISt4pairIKiSt6localeEiSt4hashIiENSt4priv15_HashMapTraitsTIS3_EENS6_10_Select1stIS3_EESt8equal_toIiESaIS3_EE22insert_unique_noresizeERKS3_)
                  00015dc8    000000b0                                   : unified_locale.obj (.text:_ZNKSt9money_putIwSt19ostreambuf_iteratorIwSt11char_traitsIwEEE6do_putES3_bRSt8ios_basewe)
                  00015e78    000000b0                                   : unified_locale.obj (.text:_ZNSs6assignEjc)
                  00015f28    000000ac                                   : _io_perm.obj (.text)
                  00015fd4    000000aa                                   : unified_locale.obj (.text:_ZSt7find_ifIPKwSt12unary_negateINSt4priv23_Ctype_byname_w_is_maskEEET_S6_S6_T0_)
                  0001607e    000000a2                                   : unified_locale.obj (.text:_ZNKSt9money_putIcSt19ostreambuf_iteratorIcSt11char_traitsIcEEE6do_putES3_bRSt8ios_basece)
                  00016120    000000a0                                   : unified_locale.obj (.text:_ZNSt6vectorIPNSt4priv16_Slist_node_baseESaIS2_EE7reserveEj)
                  000161c0    000000a0                                   : _bufread.obj (.text)
                  00016260    0000009e                                   : unified_locale.obj (.text:_ZNSt4priv12_String_baseIcSaIcEE7_M_swapERS2_)
                  000162fe    0000009e                                   : unified_locale.obj (.text:_ZSt7find_ifIPcNSt4priv8GroupPosEET_S3_S3_T0_)
                  0001639c    0000009c                                   : unified_locale.obj (.text:_ZNSt6vectorIPNSt6locale5facetESaIS2_EE7reserveEj)
                  00016438    0000009c                                   : memcpy_t2.obj (.text)
                  000164d4    00000098                                   : unified_locale.obj (.text:_ZNSt4priv18__get_money_digitsIwEEvRNS_16__basic_iostringIT_EERSt8ios_basee)
                  0001656c    00000098                                   : fclose.obj (.text)
                  00016604    00000098                                   : fputc.obj (.text)
                  0001669c    00000094                                   : unified_locale.obj (.text:_ZNSt13basic_filebufIcSt11char_traitsIcEE9pbackfailEi)
                  00016730    00000094                                   : unified_locale.obj (.text:_ZNSt13basic_filebufIwSt11char_traitsIwEE9pbackfailEi)
                  000167c4    00000094                                   : unified_locale.obj (.text:_ZNSt15time_get_bynameIcSt19istreambuf_iteratorIcSt11char_traitsIcEEED0Ev)
                  00016858    00000094                                   : unified_locale.obj (.text:_ZNSt15time_get_bynameIwSt19istreambuf_iteratorIwSt11char_traitsIwEEED0Ev)
                  000168ec    00000094                                   : unified_locale.obj (.text:_ZNSt15time_put_bynameIcSt19ostreambuf_iteratorIcSt11char_traitsIcEEED0Ev)
                  00016980    00000094                                   : unified_locale.obj (.text:_ZNSt15time_put_bynameIwSt19ostreambuf_iteratorIwSt11char_traitsIwEEED0Ev)
                  00016a14    00000094                                   : unified_locale.obj (.text:_ZNSt4priv13__copy_digitsISt19istreambuf_iteratorIwSt11char_traitsIwEEwEEbRT_S5_RNS_16__basic_iostringIcEEPKT0_)
                  00016aa8    00000094                                   : unified_locale.obj (.text:_ZNSt8time_getIcSt19istreambuf_iteratorIcSt11char_traitsIcEEED0Ev)
                  00016b3c    00000094                                   : unified_locale.obj (.text:_ZNSt8time_getIwSt19istreambuf_iteratorIwSt11char_traitsIwEEED0Ev)
                  00016bd0    00000094                                   : unified_locale.obj (.text:_ZNSt8time_putIcSt19ostreambuf_iteratorIcSt11char_traitsIcEEED0Ev)
                  00016c64    00000094                                   : unified_locale.obj (.text:_ZNSt8time_putIwSt19ostreambuf_iteratorIwSt11char_traitsIwEEED0Ev)
                  00016cf8    00000094                                   : snprintf.obj (.text)
                  00016d8c    00000092                                   : unified_locale.obj (.text:_ZSt7find_ifIPKwNSt4priv23_Ctype_byname_w_is_maskEET_S4_S4_T0_)
                  00016e1e    00000090                                   : unified_locale.obj (.text:_ZNSt4priv11__put_floatISt19ostreambuf_iteratorIcSt11char_traitsIcEEEET_RNS_16__basic_iostringIcEES5_RSt8ios_basecccjRKSs)
                  00016eae    00000002                                   : unified_locale.obj (.text:_ZNSt7num_putIwSt19ostreambuf_iteratorIwSt11char_traitsIwEEED1Ev)
                  00016eb0    00000090                                   : fgetc.obj (.text)
                  00016f40    0000008e                                   : unified_locale.obj (.text:_ZNSt13basic_filebufIcSt11char_traitsIcEE5closeEv)
                  00016fce    00000002                                   : unified_locale.obj (.text:_ZNSt8messagesIcED1Ev)
                  00016fd0    0000008c                                   : unified_locale.obj (.text:_ZNSt15time_get_bynameIcSt19istreambuf_iteratorIcSt11char_traitsIcEEED1Ev)
                  0001705c    0000008c                                   : unified_locale.obj (.text:_ZNSt15time_get_bynameIwSt19istreambuf_iteratorIwSt11char_traitsIwEEED1Ev)
                  000170e8    0000008c                                   : unified_locale.obj (.text:_ZNSt15time_put_bynameIcSt19ostreambuf_iteratorIcSt11char_traitsIcEEED1Ev)
                  00017174    0000008c                                   : unified_locale.obj (.text:_ZNSt15time_put_bynameIwSt19ostreambuf_iteratorIwSt11char_traitsIwEEED1Ev)
                  00017200    0000008c                                   : unified_locale.obj (.text:_ZNSt4priv11__copy_signISt19istreambuf_iteratorIcSt11char_traitsIcEEcEET_S5_S5_RNS_16__basic_iostringIcEET0_S9_)
                  0001728c    0000008c                                   : unified_locale.obj (.text:_ZNSt4priv11__copy_signISt19istreambuf_iteratorIwSt11char_traitsIwEEwEET_S5_S5_RNS_16__basic_iostringIcEET0_S9_)
                  00017318    0000008c                                   : unified_locale.obj (.text:_ZNSt8time_getIcSt19istreambuf_iteratorIcSt11char_traitsIcEEED1Ev)
                  000173a4    0000008c                                   : unified_locale.obj (.text:_ZNSt8time_getIwSt19istreambuf_iteratorIwSt11char_traitsIwEEED1Ev)
                  00017430    0000008c                                   : unified_locale.obj (.text:_ZNSt8time_putIcSt19ostreambuf_iteratorIcSt11char_traitsIcEEED1Ev)
                  000174bc    0000008c                                   : unified_locale.obj (.text:_ZNSt8time_putIwSt19ostreambuf_iteratorIwSt11char_traitsIwEEED1Ev)
                  00017548    00000088                                   : unified_locale.obj (.text:_ZNSt13basic_filebufIwSt11char_traitsIwEED1Ev)
                  000175d0    00000088                                   : unified_locale.obj (.text:_ZStplIcSt11char_traitsIcESaIcEENSt4priv10__bstr_sumIT_T0_T1_NS3_14__bstr_wrapperIS5_S6_S7_EENS4_IS5_S6_S7_NS3_14__cstr_wrapperIS5_EENS3_18__sum_storage_elemIS5_S6_S7_EENS3_10__on_rightEEESE_EERKSbIS5_S6_S7_EPKS5_)
                  00017658    00000086                                   : unified_locale.obj (.text:_ZNSt4priv13__copy_digitsISt19istreambuf_iteratorIcSt11char_traitsIcEEcEEbRT_S5_RNS_16__basic_iostringIcEEPKT0_)
                  000176de    00000086                                   : fd_cmp_t2.obj (.text:__aeabi_cdcmple)
                  00017764    00000086                                   : fd_cmp_t2.obj (.text:__aeabi_cdrcmple)
                  000177ea    00000002                                   : unified_locale.obj (.text:_ZNSt8messagesIwED1Ev)
                  000177ec    00000084                                   : unified_locale.obj (.text:_ZNSbIwSt11char_traitsIwENSt4priv20__iostring_allocatorIwEEE6appendEjw)
                  00017870    00000084                                   : unified_locale.obj (.text:_ZNSdC2EPSt15basic_streambufIcSt11char_traitsIcEE)
                  000178f4    00000080                                   : unified_locale.obj (.text:_ZNSbIwSt11char_traitsIwESaIwEE6appendEjw)
                  00017974    00000080                                   : unified_locale.obj (.text:_ZNSt13basic_filebufIcSt11char_traitsIcEE16_M_setup_codecvtERKSt6localeb)
                  000179f4    00000080                                   : unified_locale.obj (.text:_ZNSt13basic_filebufIwSt11char_traitsIwEE16_M_setup_codecvtERKSt6localeb)
                  00017a74    00000080                                   : unified_locale.obj (.text:_ZNSt9hashtableISt4pairIKSsS0_IPvjEESsSt4hashISsENSt4priv15_HashMapTraitsTIS4_EENS7_10_Select1stIS4_EESt8equal_toISsESaIS4_EE18_M_insert_noresizeEjRKS4_)
                  00017af4    00000080                                   : ungetc.obj (.text)
                  00017b74    0000007c                                   : unified_locale.obj (.text:_ZNKSt8time_getIcSt19istreambuf_iteratorIcSt11char_traitsIcEEE11do_get_dateES3_S3_RSt8ios_baseRiPSt2tm)
                  00017bf0    0000007c                                   : unified_locale.obj (.text:_ZNKSt8time_getIcSt19istreambuf_iteratorIcSt11char_traitsIcEEE11do_get_timeES3_S3_RSt8ios_baseRiPSt2tm)
                  00017c6c    0000007c                                   : unified_locale.obj (.text:_ZNKSt8time_getIwSt19istreambuf_iteratorIwSt11char_traitsIwEEE11do_get_dateES3_S3_RSt8ios_baseRiPSt2tm)
                  00017ce8    0000007c                                   : unified_locale.obj (.text:_ZNKSt8time_getIwSt19istreambuf_iteratorIwSt11char_traitsIwEEE11do_get_timeES3_S3_RSt8ios_baseRiPSt2tm)
                  00017d64    0000007c                                   : unified_locale.obj (.text:_ZNSt9hashtableISt4pairIKiSt6localeEiSt4hashIiENSt4priv15_HashMapTraitsTIS3_EENS6_10_Select1stIS3_EESt8equal_toIiESaIS3_EE18_M_insert_noresizeEjRKS3_)
                  00017de0    0000007a                                   : memset_t2.obj (.text)
                  00017e5a    00000002                                   : unified_locale.obj (.text:_ZNSt9money_getIcSt19istreambuf_iteratorIcSt11char_traitsIcEEED1Ev)
                  00017e5c    00000078                                   : unified_locale.obj (.text:_ZNSbIwSt11char_traitsIwENSt4priv20__iostring_allocatorIwEEE10_M_reserveEj)
                  00017ed4    00000076                                   : unified_locale.obj (.text:_ZNSt13basic_filebufIcSt11char_traitsIcEE12_M_seek_initEb)
                  00017f4a    00000076                                   : unified_locale.obj (.text:_ZNSt13basic_filebufIwSt11char_traitsIwEE12_M_seek_initEb)
                  00017fc0    00000074                                   : unified_locale.obj (.text:_ZNSbIcSt11char_traitsIcENSt4priv20__iostring_allocatorIcEEE6appendEjc)
                  00018034    00000074                                   : unified_locale.obj (.text:_ZNSt13basic_filebufIcSt11char_traitsIcEEC1Ev)
                  000180a8    00000074                                   : unified_locale.obj (.text:_ZNSt13basic_filebufIwSt11char_traitsIwEEC1Ev)
                  0001811c    00000072                                   : unified_locale.obj (.text:_ZNKSt7num_getIcSt19istreambuf_iteratorIcSt11char_traitsIcEEE6do_getES3_S3_RSt8ios_baseRiRb)
                  0001818e    00000072                                   : unified_locale.obj (.text:_ZNKSt7num_getIwSt19istreambuf_iteratorIwSt11char_traitsIwEEE6do_getES3_S3_RSt8ios_baseRiRb)
                  00018200    00000070                                   : unified_locale.obj (.text:_ZNKSt19istreambuf_iteratorIcSt11char_traitsIcEE5equalERKS2_)
                  00018270    00000070                                   : unified_locale.obj (.text:_ZNKSt19istreambuf_iteratorIwSt11char_traitsIwEE5equalERKS2_)
                  000182e0    00000070                                   : unified_locale.obj (.text:_ZNSs6appendEjc)
                  00018350    00000070                                   : unified_locale.obj (.text:_ZNSt13basic_filebufIcSt11char_traitsIcEE7seekposESt4fposIiEi)
                  000183c0    00000070                                   : unified_locale.obj (.text:_ZNSt13basic_filebufIwSt11char_traitsIwEE7seekposESt4fposIiEi)
                  00018430    00000070                                   : unified_locale.obj (.text:_ZStneIcSt11char_traitsIcEEbRKSt19istreambuf_iteratorIT_T0_ES7_)
                  000184a0    00000070                                   : unified_locale.obj (.text:_ZStneIwSt11char_traitsIwEEbRKSt19istreambuf_iteratorIT_T0_ES7_)
                  00018510    00000070                                   : autoinit.obj (.text)
                  00018580    0000006e                                   : unified_locale.obj (.text:_ZNSbIcSt11char_traitsIcENSt4priv20__iostring_allocatorIcEEE9_M_assignEPKcS6_)
                  000185ee    0000006e                                   : unified_locale.obj (.text:_ZNSt13basic_filebufIwSt11char_traitsIwEE9underflowEv)
                  0001865c    0000006e                                   : fd_tos_t2.obj (.text)
                  000186ca    00000002                                   : unified_locale.obj (.text:_ZNSt9money_getIwSt19istreambuf_iteratorIwSt11char_traitsIwEEED1Ev)
                  000186cc    0000006c                                   : unified_locale.obj (.text:_ZNSbIwSt11char_traitsIwESaIwEE10_M_reserveEj)
                  00018738    0000006a                                   : unified_locale.obj (.text:_ZNKSt8time_getIcSt19istreambuf_iteratorIcSt11char_traitsIcEEE11do_get_yearES3_S3_RSt8ios_baseRiPSt2tm)
                  000187a2    0000006a                                   : unified_locale.obj (.text:_ZNKSt8time_getIwSt19istreambuf_iteratorIwSt11char_traitsIwEEE11do_get_yearES3_S3_RSt8ios_baseRiPSt2tm)
                  0001880c    0000006a                                   : unified_locale.obj (.text:_ZNSt13basic_filebufIwSt11char_traitsIwEE19_M_allocate_buffersEPwi)
                  00018876    0000006a                                   : unified_locale.obj (.text:_ZSt7find_ifIPKcNSt4priv14_Eq_char_boundISt11char_traitsIcEEEET_S7_S7_T0_)
                  000188e0    00000068                                   : unified_locale.obj (.text:_ZNSs9_M_assignEPKcS0_)
                  00018948    00000068                                   : unified_locale.obj (.text:_ZNSt13basic_filebufIcSt11char_traitsIcEE19_M_allocate_buffersEPci)
                  000189b0    00000068                                   : copy_decompress_lzss.obj (.text:decompress:lzss)
                  00018a18    00000068                                   : trgmsg.obj (.text)
                  00018a80    00000066                                   : unified_locale.obj (.text:_ZNKSt7num_putIcSt19ostreambuf_iteratorIcSt11char_traitsIcEEE6do_putES3_RSt8ios_basecb)
                  00018ae6    00000066                                   : unified_locale.obj (.text:_ZNKSt7num_putIwSt19ostreambuf_iteratorIwSt11char_traitsIwEEE6do_putES3_RSt8ios_basewb)
                  00018b4c    00000066                                   : unified_locale.obj (.text:_ZNSs18_M_append_fast_posINSt4priv14__cstr_wrapperIcEENS0_18__sum_storage_elemIcSt11char_traitsIcESaIcEEENS0_10__on_rightEEEPcRKNS0_10__bstr_sumIcS5_S6_T_T0_T1_EES9_jj)
                  00018bb2    00000066                                   : unified_locale.obj (.text:_ZNSt15basic_streambufIwSt11char_traitsIwEE6xsgetnEPwi)
                  00018c18    00000066                                   : unified_locale.obj (.text:_ZNSt15basic_streambufIwSt11char_traitsIwEE6xsputnEPKwi)
                  00018c7e    00000064                                   : unified_locale.obj (.text:_ZNSt15basic_streambufIcSt11char_traitsIcEE6xsgetnEPci)
                  00018ce2    00000064                                   : unified_locale.obj (.text:_ZNSt15basic_streambufIcSt11char_traitsIcEE6xsputnEPKci)
                  00018d46    00000064                                   : unified_locale.obj (.text:_ZNSt4priv12__get_stringISt19istreambuf_iteratorIcSt11char_traitsIcEEPcEESt4pairIT_bES7_S7_T0_S9_)
                  00018daa    00000064                                   : unified_locale.obj (.text:_ZNSt4priv12__get_stringISt19istreambuf_iteratorIwSt11char_traitsIwEEPwEESt4pairIT_bES7_S7_T0_S9_)
                  00018e0e    00000064                                   : unified_locale.obj (.text:_ZSt4findIPKwwET_S2_S2_RKT0_)
                  00018e72    00000002                                   : unified_locale.obj (.text:_ZNSt9money_putIcSt19ostreambuf_iteratorIcSt11char_traitsIcEEED1Ev)
                  00018e74    00000064                                   : fseek.obj (.text)
                  00018ed8    00000064                                   : ftell.obj (.text)
                  00018f3c    00000064                                   : s_frexp.obj (.text)
                  00018fa0    00000062                                   : unified_locale.obj (.text:_ZNSbIwSt11char_traitsIwESaIwEE9_M_assignEPKwS4_)
                  00019002    00000060                                   : unified_locale.obj (.text:_ZNSt4priv10_Stl_primeIbE13_S_prev_sizesEjRPKjS4_)
                  00019062    00000002                                   : unified_locale.obj (.text:_ZNSt9money_putIwSt19ostreambuf_iteratorIwSt11char_traitsIwEEED1Ev)
                  00019064    00000060                                   : sprintf.obj (.text)
                  000190c4    0000005e                                   : unified_locale.obj (.text:_ZNSt15basic_streambufIwSt11char_traitsIwEE10_M_xsputncEwi)
                  00019122    0000005c                                   : unified_locale.obj (.text:_ZNSbIcSt11char_traitsIcENSt4priv20__iostring_allocatorIcEEE10_M_reserveEj)
                  0001917e    0000005a                                   : unified_locale.obj (.text:_ZNSt15basic_streambufIcSt11char_traitsIcEE10_M_xsputncEci)
                  000191d8    00000058                                   : unified_locale.obj (.text:_ZNKSt9money_getIcSt19istreambuf_iteratorIcSt11char_traitsIcEEE6do_getES3_S3_bRSt8ios_baseRiRSs)
                  00019230    00000058                                   : unified_locale.obj (.text:_ZNKSt9money_getIwSt19istreambuf_iteratorIwSt11char_traitsIwEEE6do_getES3_S3_bRSt8ios_baseRiRSbIwS2_SaIwEE)
                  00019288    00000058                                   : unified_locale.obj (.text:_ZNSt13basic_filebufIcSt11char_traitsIcEE10_M_unshiftEv)
                  000192e0    00000058                                   : unified_locale.obj (.text:_ZNSt13basic_filebufIwSt11char_traitsIwEE10_M_unshiftEv)
                  00019338    00000056                                   : unified_locale.obj (.text:_ZNKSt8time_getIcSt19istreambuf_iteratorIcSt11char_traitsIcEEE14do_get_weekdayES3_S3_RSt8ios_baseRiPSt2tm)
                  0001938e    00000056                                   : unified_locale.obj (.text:_ZNKSt8time_getIcSt19istreambuf_iteratorIcSt11char_traitsIcEEE16do_get_monthnameES3_S3_RSt8ios_baseRiPSt2tm)
                  000193e4    00000056                                   : ltoa.obj (.text)
                  0001943a    00000054                                   : unified_locale.obj (.text:_ZNSt13basic_filebufIwSt11char_traitsIwEE9showmanycEv)
                  0001948e    00000054                                   : unified_locale.obj (.text:_ZNSt4priv16__do_put_integerIcSt19ostreambuf_iteratorIcSt11char_traitsIcEExEET0_S5_RSt8ios_baseT_T1_)
                  000194e2    00000054                                   : unified_locale.obj (.text:_ZNSt4priv16__do_put_integerIcSt19ostreambuf_iteratorIcSt11char_traitsIcEEyEET0_S5_RSt8ios_baseT_T1_)
                  00019536    00000054                                   : unified_locale.obj (.text:_ZNSt4priv16__do_put_integerIwSt19ostreambuf_iteratorIwSt11char_traitsIwEExEET0_S5_RSt8ios_baseT_T1_)
                  0001958a    00000054                                   : unified_locale.obj (.text:_ZNSt4priv16__do_put_integerIwSt19ostreambuf_iteratorIwSt11char_traitsIwEEyEET0_S5_RSt8ios_baseT_T1_)
                  000195de    00000002                                   : i_div0.obj (.text)
                  000195e0    00000054                                   : boot.obj (.text)
                  00019634    00000054                                   : exit.obj (.text)
                  00019688    00000052                                   : unified_locale.obj (.text:_ZNSt13basic_filebufIcSt11char_traitsIcEE9showmanycEv)
                  000196da    00000052                                   : unified_locale.obj (.text:_ZNSt4priv11__subformatIcNS_10_Time_InfoEEEvRNS_16__basic_iostringIT_EERKSt5ctypeIS3_ERKSsRKT0_PKSt2tm)
                  0001972c    00000052                                   : unified_locale.obj (.text:_ZNSt4priv11__subformatIwNS_11_WTime_InfoEEEvRNS_16__basic_iostringIT_EERKSt5ctypeIS3_ERKSsRKT0_PKSt2tm)
                  0001977e    00000052                                   : unified_locale.obj (.text:_ZNSt4priv21__get_decimal_integerIPcecEEbRT_S3_RT0_PT1_)
                  000197d0    00000052                                   : unified_locale.obj (.text:_ZNSt4priv21__get_decimal_integerIPwewEEbRT_S3_RT0_PT1_)
                  00019822    00000052                                   : unified_locale.obj (.text:_ZNSt4priv21__get_decimal_integerISt19istreambuf_iteratorIcSt11char_traitsIcEEicEEbRT_S6_RT0_PT1_)
                  00019874    00000052                                   : unified_locale.obj (.text:_ZNSt4priv21__get_decimal_integerISt19istreambuf_iteratorIwSt11char_traitsIwEEiwEEbRT_S6_RT0_PT1_)
                  000198c6    00000052                                   : unified_locale.obj (.text:_ZNSt9basic_iosIwSt11char_traitsIwEE4initEPSt15basic_streambufIwS1_E)
                  00019918    00000050                                   : unified_locale.obj (.text:_ZNSt4priv16__do_put_integerIcSt19ostreambuf_iteratorIcSt11char_traitsIcEElEET0_S5_RSt8ios_baseT_T1_)
                  00019968    00000050                                   : unified_locale.obj (.text:_ZNSt4priv16__do_put_integerIcSt19ostreambuf_iteratorIcSt11char_traitsIcEEmEET0_S5_RSt8ios_baseT_T1_)
                  000199b8    00000050                                   : unified_locale.obj (.text:_ZNSt4priv16__do_put_integerIwSt19ostreambuf_iteratorIwSt11char_traitsIwEElEET0_S5_RSt8ios_baseT_T1_)
                  00019a08    00000050                                   : unified_locale.obj (.text:_ZNSt4priv16__do_put_integerIwSt19ostreambuf_iteratorIwSt11char_traitsIwEEmEET0_S5_RSt8ios_baseT_T1_)
                  00019a58    0000004c                                   : atoi.obj (.text)
                  00019aa4    0000004c                                   : cpy_tbl.obj (.text)
                  00019af0    0000004a                                   : unified_locale.obj (.text:_ZNSt13basic_filebufIcSt11char_traitsIcEE24_M_switch_to_output_modeEv)
                  00019b3a    0000004a                                   : unified_locale.obj (.text:_ZNSt13basic_filebufIwSt11char_traitsIwEE24_M_switch_to_output_modeEv)
                  00019b84    00000048                                   : unified_locale.obj (.text:_ZNKSt8time_getIwSt19istreambuf_iteratorIwSt11char_traitsIwEEE14do_get_weekdayES3_S3_RSt8ios_baseRiPSt2tm)
                  00019bcc    00000048                                   : unified_locale.obj (.text:_ZNKSt8time_getIwSt19istreambuf_iteratorIwSt11char_traitsIwEEE16do_get_monthnameES3_S3_RSt8ios_baseRiPSt2tm)
                  00019c14    00000048                                   : unified_locale.obj (.text:_ZNSt13basic_filebufIcSt11char_traitsIcEE14_M_seek_returnEli)
                  00019c5c    00000048                                   : unified_locale.obj (.text:_ZNSt13basic_filebufIwSt11char_traitsIwEE14_M_seek_returnEli)
                  00019ca4    00000048                                   : unified_locale.obj (.text:_ZNSt9basic_iosIcSt11char_traitsIcEE4initEPSt15basic_streambufIcS1_E)
                  00019cec    00000048                                   : dll_main.obj (.text)
                  00019d34    00000048                                   : fd_toi_t2.obj (.text)
                  00019d7c    00000046                                   : unified_locale.obj (.text:_ZNSs10_M_reserveEj)
                  00019dc2    00000044                                   : unified_locale.obj (.text:_ZNKSt7num_getIcSt19istreambuf_iteratorIcSt11char_traitsIcEEE6do_getES3_S3_RSt8ios_baseRiRPv)
                  00019e06    00000044                                   : unified_locale.obj (.text:_ZNKSt7num_getIwSt19istreambuf_iteratorIwSt11char_traitsIwEEE6do_getES3_S3_RSt8ios_baseRiRPv)
                  00019e4a    00000042                                   : unified_locale.obj (.text:_ZNSbIwSt11char_traitsIwESaIwEEC1EPKwRKS1_)
                  00019e8c    00000042                                   : unified_locale.obj (.text:_ZNSt4priv10_Stl_primeIbE12_S_next_sizeEj)
                  00019ece    00000002                                   : l_div0.obj (.text)
                  00019ed0    00000040                                   : unified_locale.obj (.text:_ZNSbIwSt11char_traitsIwENSt4priv20__iostring_allocatorIwEEE20_M_compute_next_sizeEj)
                  00019f10    00000040                                   : unified_locale.obj (.text:_ZNSt9basic_iosIcSt11char_traitsIcEE5imbueERKSt6locale)
                  00019f50    00000040                                   : unified_locale.obj (.text:_ZNSt9basic_iosIwSt11char_traitsIwEE5imbueERKSt6locale)
                  00019f90    00000040                                   : u_divt2.obj (.text)
                  00019fd0    0000003e                                   : unified_locale.obj (.text:_ZNSt13basic_filebufIcSt11char_traitsIcEE23_M_switch_to_input_modeEv)
                  0001a00e    0000003e                                   : unified_locale.obj (.text:_ZNSt9hashtableISt4pairIKSsS0_IPvjEESsSt4hashISsENSt4priv15_HashMapTraitsTIS4_EENS7_10_Select1stIS4_EESt8equal_toISsESaIS4_EE15_S_before_beginERKSt5slistIS4_SE_ERKSt6vectorIPNS7_16_Slist_node_baseESaISM_EERj)
                  0001a04c    0000003e                                   : unified_locale.obj (.text:_ZNSt9hashtableISt4pairIKiSt6localeEiSt4hashIiENSt4priv15_HashMapTraitsTIS3_EENS6_10_Select1stIS3_EESt8equal_toIiESaIS3_EE15_S_before_beginERKSt5slistIS3_SD_ERKSt6vectorIPNS6_16_Slist_node_baseESaISL_EERj)
                  0001a08a    0000003c                                   : unified_locale.obj (.text:_ZNKSt9money_putIcSt19ostreambuf_iteratorIcSt11char_traitsIcEEE6do_putES3_bRSt8ios_basecRKSs)
                  0001a0c6    0000003c                                   : unified_locale.obj (.text:_ZNKSt9money_putIwSt19ostreambuf_iteratorIwSt11char_traitsIwEEE6do_putES3_bRSt8ios_basewRKSbIwS2_SaIwEE)
                  0001a102    00000002                                   : mpu_init.obj (.text)
                  0001a104    0000003c                                   : unified_locale.obj (.text:_ZNSbIwSt11char_traitsIwESaIwEE20_M_compute_next_sizeEj)
                  0001a140    0000003c                                   : unified_locale.obj (.text:_ZNSdD2Ev)
                  0001a17c    0000003c                                   : unified_locale.obj (.text:_ZNSoC2EPSt15basic_streambufIcSt11char_traitsIcEE)
                  0001a1b8    0000003c                                   : unified_locale.obj (.text:_ZNSt4priv12_String_baseIwNS_20__iostring_allocatorIwEEE17_M_allocate_blockEj)
                  0001a1f4    0000003a                                   : unified_locale.obj (.text:_ZNSbIcSt11char_traitsIcENSt4priv20__iostring_allocatorIcEEE20_M_compute_next_sizeEj)
                  0001a22e    00000038                                   : unified_locale.obj (.text:_ZNKSt7num_putIcSt19ostreambuf_iteratorIcSt11char_traitsIcEEE6do_putES3_RSt8ios_basecx)
                  0001a266    00000038                                   : unified_locale.obj (.text:_ZNKSt7num_putIcSt19ostreambuf_iteratorIcSt11char_traitsIcEEE6do_putES3_RSt8ios_basecy)
                  0001a29e    00000038                                   : unified_locale.obj (.text:_ZNKSt7num_putIwSt19ostreambuf_iteratorIwSt11char_traitsIwEEE6do_putES3_RSt8ios_basewx)
                  0001a2d6    00000038                                   : unified_locale.obj (.text:_ZNKSt7num_putIwSt19ostreambuf_iteratorIwSt11char_traitsIwEEE6do_putES3_RSt8ios_basewy)
                  0001a30e    00000038                                   : unified_locale.obj (.text:_ZNSs20_M_compute_next_sizeEj)
                  0001a346    00000038                                   : unified_locale.obj (.text:_ZNSt9hashtableISt4pairIKiSt6localeEiSt4hashIiENSt4priv15_HashMapTraitsTIS3_EENS6_10_Select1stIS3_EESt8equal_toIiESaIS3_EE10_M_enlargeEj)
                  0001a37e    00000036                                   : unified_locale.obj (.text:_ZNSt15basic_streambufIcSt11char_traitsIcEE8pubimbueERKSt6locale)
                  0001a3b4    00000036                                   : unified_locale.obj (.text:_ZNSt15basic_streambufIwSt11char_traitsIwEE8pubimbueERKSt6locale)
                  0001a3ea    00000036                                   : strncpy.obj (.text)
                  0001a420    00000034                                   : unified_locale.obj (.text:_ZNKSt7num_putIcSt19ostreambuf_iteratorIcSt11char_traitsIcEEE6do_putES3_RSt8ios_basecd)
                  0001a454    00000034                                   : unified_locale.obj (.text:_ZNKSt7num_putIcSt19ostreambuf_iteratorIcSt11char_traitsIcEEE6do_putES3_RSt8ios_basece)
                  0001a488    00000034                                   : unified_locale.obj (.text:_ZNKSt7num_putIwSt19ostreambuf_iteratorIwSt11char_traitsIwEEE6do_putES3_RSt8ios_basewd)
                  0001a4bc    00000034                                   : unified_locale.obj (.text:_ZNKSt7num_putIwSt19ostreambuf_iteratorIwSt11char_traitsIwEEE6do_putES3_RSt8ios_basewe)
                  0001a4f0    00000034                                   : unified_locale.obj (.text:_ZNSbIwSt11char_traitsIwESaIwEEC1ERKS2_)
                  0001a524    00000034                                   : unified_locale.obj (.text:_ZNSt13basic_ostreamIwSt11char_traitsIwEEC1EPSt15basic_streambufIwS1_E)
                  0001a558    00000032                                   : unified_locale.obj (.text:_ZNKSt19istreambuf_iteratorIcSt11char_traitsIcEE7_M_getcEv)
                  0001a58a    00000032                                   : unified_locale.obj (.text:_ZNKSt19istreambuf_iteratorIwSt11char_traitsIwEE7_M_getcEv)
                  0001a5bc    00000032                                   : unified_locale.obj (.text:_ZNSsC1EPKcRKSaIcE)
                  0001a5ee    00000032                                   : unified_locale.obj (.text:_ZNSsC1ERKSs)
                  0001a620    00000032                                   : unified_locale.obj (.text:_ZNSt13basic_filebufIcSt11char_traitsIcEE6setbufEPci)
                  0001a652    00000032                                   : unified_locale.obj (.text:_ZNSt13basic_filebufIwSt11char_traitsIwEE6setbufEPwi)
                  0001a684    00000032                                   : unified_locale.obj (.text:_ZNSt19ostreambuf_iteratorIcSt11char_traitsIcEEaSEc)
                  0001a6b6    00000032                                   : unified_locale.obj (.text:_ZNSt19ostreambuf_iteratorIwSt11char_traitsIwEEaSEw)
                  0001a6e8    00000032                                   : unified_locale.obj (.text:_ZNSt4priv12_String_baseIcNS_20__iostring_allocatorIcEEE17_M_allocate_blockEj)
                  0001a71a    00000030                                   : unified_locale.obj (.text:_ZNKSt7num_putIcSt19ostreambuf_iteratorIcSt11char_traitsIcEEE6do_putES3_RSt8ios_basecl)
                  0001a74a    00000030                                   : unified_locale.obj (.text:_ZNKSt7num_putIcSt19ostreambuf_iteratorIcSt11char_traitsIcEEE6do_putES3_RSt8ios_basecm)
                  0001a77a    00000030                                   : unified_locale.obj (.text:_ZNKSt7num_putIwSt19ostreambuf_iteratorIwSt11char_traitsIwEEE6do_putES3_RSt8ios_basewl)
                  0001a7aa    00000030                                   : unified_locale.obj (.text:_ZNKSt7num_putIwSt19ostreambuf_iteratorIwSt11char_traitsIwEEE6do_putES3_RSt8ios_basewm)
                  0001a7da    00000030                                   : unified_locale.obj (.text:_ZNSt4priv12_String_baseIwSaIwEE17_M_allocate_blockEj)
                  0001a80a    00000002                                   : newhandler.obj (.text)
                  0001a80c    00000030                                   : new_.obj (.text)
                  0001a83c    0000002e                                   : unified_locale.obj (.text:_ZNSt4priv11_Slist_baseISt4pairIKSsS1_IPvjEESaIS5_EE14_M_erase_afterEPNS_16_Slist_node_baseES9_)
                  0001a86a    0000002e                                   : unified_locale.obj (.text:_ZNSt4priv13__lower_boundIPKjjNS_8_ti_lessIjEES4_iEET_S5_S5_RKT0_T1_T2_PT3_)
                  0001a898    0000002e                                   : i_tofd_t2.obj (.text)
                  0001a8c6    0000002e                                   : wcsncpy.obj (.text)
                  0001a8f4    0000002c                                   : unified_locale.obj (.text:_ZNKSt7num_getIcSt19istreambuf_iteratorIcSt11char_traitsIcEEE6do_getES3_S3_RSt8ios_baseRiRd)
                  0001a920    0000002c                                   : unified_locale.obj (.text:_ZNKSt7num_getIcSt19istreambuf_iteratorIcSt11char_traitsIcEEE6do_getES3_S3_RSt8ios_baseRiRe)
                  0001a94c    0000002c                                   : unified_locale.obj (.text:_ZNKSt7num_getIcSt19istreambuf_iteratorIcSt11char_traitsIcEEE6do_getES3_S3_RSt8ios_baseRiRf)
                  0001a978    0000002c                                   : unified_locale.obj (.text:_ZNKSt7num_getIcSt19istreambuf_iteratorIcSt11char_traitsIcEEE6do_getES3_S3_RSt8ios_baseRiRj)
                  0001a9a4    0000002c                                   : unified_locale.obj (.text:_ZNKSt7num_getIcSt19istreambuf_iteratorIcSt11char_traitsIcEEE6do_getES3_S3_RSt8ios_baseRiRl)
                  0001a9d0    0000002c                                   : unified_locale.obj (.text:_ZNKSt7num_getIcSt19istreambuf_iteratorIcSt11char_traitsIcEEE6do_getES3_S3_RSt8ios_baseRiRm)
                  0001a9fc    0000002c                                   : unified_locale.obj (.text:_ZNKSt7num_getIcSt19istreambuf_iteratorIcSt11char_traitsIcEEE6do_getES3_S3_RSt8ios_baseRiRt)
                  0001aa28    0000002c                                   : unified_locale.obj (.text:_ZNKSt7num_getIcSt19istreambuf_iteratorIcSt11char_traitsIcEEE6do_getES3_S3_RSt8ios_baseRiRx)
                  0001aa54    0000002c                                   : unified_locale.obj (.text:_ZNKSt7num_getIcSt19istreambuf_iteratorIcSt11char_traitsIcEEE6do_getES3_S3_RSt8ios_baseRiRy)
                  0001aa80    0000002c                                   : unified_locale.obj (.text:_ZNKSt7num_getIwSt19istreambuf_iteratorIwSt11char_traitsIwEEE6do_getES3_S3_RSt8ios_baseRiRd)
                  0001aaac    0000002c                                   : unified_locale.obj (.text:_ZNKSt7num_getIwSt19istreambuf_iteratorIwSt11char_traitsIwEEE6do_getES3_S3_RSt8ios_baseRiRe)
                  0001aad8    0000002c                                   : unified_locale.obj (.text:_ZNKSt7num_getIwSt19istreambuf_iteratorIwSt11char_traitsIwEEE6do_getES3_S3_RSt8ios_baseRiRf)
                  0001ab04    0000002c                                   : unified_locale.obj (.text:_ZNKSt7num_getIwSt19istreambuf_iteratorIwSt11char_traitsIwEEE6do_getES3_S3_RSt8ios_baseRiRj)
                  0001ab30    0000002c                                   : unified_locale.obj (.text:_ZNKSt7num_getIwSt19istreambuf_iteratorIwSt11char_traitsIwEEE6do_getES3_S3_RSt8ios_baseRiRl)
                  0001ab5c    0000002c                                   : unified_locale.obj (.text:_ZNKSt7num_getIwSt19istreambuf_iteratorIwSt11char_traitsIwEEE6do_getES3_S3_RSt8ios_baseRiRm)
                  0001ab88    0000002c                                   : unified_locale.obj (.text:_ZNKSt7num_getIwSt19istreambuf_iteratorIwSt11char_traitsIwEEE6do_getES3_S3_RSt8ios_baseRiRt)
                  0001abb4    0000002c                                   : unified_locale.obj (.text:_ZNKSt7num_getIwSt19istreambuf_iteratorIwSt11char_traitsIwEEE6do_getES3_S3_RSt8ios_baseRiRx)
                  0001abe0    0000002c                                   : unified_locale.obj (.text:_ZNKSt7num_getIwSt19istreambuf_iteratorIwSt11char_traitsIwEEE6do_getES3_S3_RSt8ios_baseRiRy)
                  0001ac0c    0000002c                                   : setlocale.obj (.text)
                  0001ac38    0000002a                                   : unified_locale.obj (.text:_ZNSt19istreambuf_iteratorIcSt11char_traitsIcEEppEi)
                  0001ac62    0000002a                                   : unified_locale.obj (.text:_ZNSt19istreambuf_iteratorIwSt11char_traitsIwEEppEi)
                  0001ac8c    00000028                                   : unified_locale.obj (.text:_ZNKSbIcSt11char_traitsIcENSt4priv20__iostring_allocatorIcEEE4findEcj)
                  0001acb4    00000028                                   : unified_locale.obj (.text:_ZNSt15basic_streambufIcSt11char_traitsIcEEC2Ev)
                  0001acdc    00000028                                   : unified_locale.obj (.text:_ZNSt15basic_streambufIwSt11char_traitsIwEEC1Ev)
                  0001ad04    00000028                                   : unified_locale.obj (.text:_ZNSt4priv11_Slist_baseISt4pairIKiSt6localeESaIS4_EE14_M_erase_afterEPNS_16_Slist_node_baseES8_)
                  0001ad2c    00000028                                   : unified_locale.obj (.text:_ZNSt9hashtableISt4pairIKiSt6localeEiSt4hashIiENSt4priv15_HashMapTraitsTIS3_EENS6_10_Select1stIS3_EESt8equal_toIiESaIS3_EE5clearEv)
                  0001ad54    00000028                                   : fgetpos.obj (.text)
                  0001ad7c    00000026                                   : unified_locale.obj (.text:_ZNSt4priv27__get_short_or_long_daynameISt19istreambuf_iteratorIwSt11char_traitsIwEENS_11_WTime_InfoEEEbRT_S7_RKT0_PSt2tm)
                  0001ada2    00000026                                   : unified_locale.obj (.text:_ZNSt4priv29__get_short_or_long_monthnameISt19istreambuf_iteratorIwSt11char_traitsIwEENS_11_WTime_InfoEEEbRT_S7_RKT0_PSt2tm)
                  0001adc8    00000024                                   : unified_locale.obj (.text:_ZNSt13basic_filebufIcSt11char_traitsIcEE4syncEv)
                  0001adec    00000024                                   : unified_locale.obj (.text:_ZNSt13basic_filebufIwSt11char_traitsIwEE4syncEv)
                  0001ae10    00000024                                   : unified_locale.obj (.text:_ZNSt15basic_streambufIcSt11char_traitsIcEE5uflowEv)
                  0001ae34    00000024                                   : unified_locale.obj (.text:_ZNSt15basic_streambufIwSt11char_traitsIwEE5uflowEv)
                  0001ae58    00000024                                   : memcmp.obj (.text)
                  0001ae7c    00000024                                   : memmov.obj (.text)
                  0001aea0    00000022                                   : unified_locale.obj (.text:_ZNSt13basic_filebufIcSt11char_traitsIcEE21_M_deallocate_buffersEv)
                  0001aec2    00000022                                   : unified_locale.obj (.text:_ZNSt13basic_filebufIwSt11char_traitsIwEE21_M_deallocate_buffersEv)
                  0001aee4    00000022                                   : unified_locale.obj (.text:_ZNSt4priv12_String_baseIcSaIcEE17_M_allocate_blockEj)
                  0001af06    00000020                                   : unified_locale.obj (.text:_ZNSt13basic_filebufIcSt11char_traitsIcEE14_M_input_errorEv)
                  0001af26    00000020                                   : unified_locale.obj (.text:_ZNSt13basic_filebufIcSt11char_traitsIcEE15_M_output_errorEv)
                  0001af46    00000002                                   : startup.obj (.text)
                  0001af48    00000020                                   : unified_locale.obj (.text:_ZNSt13basic_filebufIcSt11char_traitsIcEED1Ev)
                  0001af68    00000020                                   : unified_locale.obj (.text:_ZNSt13basic_filebufIwSt11char_traitsIwEE14_M_input_errorEv)
                  0001af88    00000020                                   : unified_locale.obj (.text:_ZNSt13basic_filebufIwSt11char_traitsIwEE15_M_output_errorEv)
                  0001afa8    00000020                                   : guard.obj (.text)
                  0001afc8    00000020                                   : memchr.obj (.text)
                  0001afe8    00000020                                   : wcscmp.obj (.text)
                  0001b008    0000001e                                   : unified_locale.obj (.text:_ZNSt13basic_filebufIcSt11char_traitsIcEE5imbueERKSt6locale)
                  0001b026    0000001e                                   : unified_locale.obj (.text:_ZNSt13basic_filebufIwSt11char_traitsIwEE5imbueERKSt6locale)
                  0001b044    0000001e                                   : unified_locale.obj (.text:_ZNSt9basic_iosIcSt11char_traitsIcEE5rdbufEPSt15basic_streambufIcS1_E)
                  0001b062    0000001e                                   : unified_locale.obj (.text:_ZNSt9basic_iosIwSt11char_traitsIwEE5rdbufEPSt15basic_streambufIwS1_E)
                  0001b080    0000001c                                   : unified_locale.obj (.text:_ZNSt15basic_streambufIcSt11char_traitsIcEE7seekposESt4fposIiEi)
                  0001b09c    0000001c                                   : unified_locale.obj (.text:_ZNSt15basic_streambufIwSt11char_traitsIwEE7seekposESt4fposIiEi)
                  0001b0b8    0000001c                                   : unified_locale.obj (.text:_ZNSt9basic_iosIcSt11char_traitsIcEEC2Ev)
                  0001b0d4    0000001c                                   : unified_locale.obj (.text:_ZNSt9basic_iosIwSt11char_traitsIwEEC2Ev)
                  0001b0f0    0000001c                                   : unified_locale.obj (.text:_ZTv0_n12_NSiD0Ev)
                  0001b10c    0000001c                                   : unified_locale.obj (.text:_ZTv0_n12_NSt13basic_istreamIwSt11char_traitsIwEED0Ev)
                  0001b128    0000001c                                   : memccpy.obj (.text)
                  0001b144    0000001a                                   : unified_locale.obj (.text:_ZNSt15basic_streambufIcSt11char_traitsIcEE6sbumpcEv)
                  0001b15e    0000001a                                   : unified_locale.obj (.text:_ZNSt15basic_streambufIcSt11char_traitsIcEE7seekoffElii)
                  0001b178    0000001a                                   : unified_locale.obj (.text:_ZNSt15basic_streambufIwSt11char_traitsIwEE6sbumpcEv)
                  0001b192    0000001a                                   : unified_locale.obj (.text:_ZNSt15basic_streambufIwSt11char_traitsIwEE7seekoffElii)
                  0001b1ac    00000018                                   : unified_locale.obj (.text:_ZNSt13basic_filebufIcSt11char_traitsIcEE19_M_allocate_buffersEv)
                  0001b1c4    00000018                                   : unified_locale.obj (.text:_ZNSt13basic_filebufIwSt11char_traitsIwEE19_M_allocate_buffersEv)
                  0001b1dc    00000018                                   : unified_locale.obj (.text:_ZNSt4priv10_Sl_globalIbE14__splice_afterEPNS_16_Slist_node_baseES3_S3_)
                  0001b1f4    00000018                                   : args_main.obj (.text)
                  0001b20c    00000018                                   : ll_mul_t2.obj (.text)
                  0001b224    00000018                                   : strcmp.obj (.text)
                  0001b23c    00000016                                   : unified_locale.obj (.text:_ZNSiD0Ev)
                  0001b252    00000016                                   : unified_locale.obj (.text:_ZNSt13basic_istreamIwSt11char_traitsIwEED0Ev)
                  0001b268    00000016                                   : unified_locale.obj (.text:_ZTv0_n12_NSiD1Ev)
                  0001b27e    00000016                                   : unified_locale.obj (.text:_ZTv0_n12_NSt13basic_istreamIwSt11char_traitsIwEED1Ev)
                  0001b294    00000016                                   : strchr.obj (.text)
                  0001b2aa    00000014                                   : unified_locale.obj (.text:_ZNKSt9hashtableISt4pairIKSsS0_IPvjEESsSt4hashISsENSt4priv15_HashMapTraitsTIS4_EENS7_10_Select1stIS4_EESt8equal_toISsESaIS4_EE15_M_before_beginERj)
                  0001b2be    00000014                                   : unified_locale.obj (.text:_ZNKSt9hashtableISt4pairIKiSt6localeEiSt4hashIiENSt4priv15_HashMapTraitsTIS3_EENS6_10_Select1stIS3_EESt8equal_toIiESaIS3_EE15_M_before_beginERj)
                  0001b2d2    00000014                                   : unified_locale.obj (.text:_ZNSbIwSt11char_traitsIwESaIwEED1Ev)
                  0001b2e6    00000014                                   : unified_locale.obj (.text:_ZNSsD1Ev)
                  0001b2fa    00000014                                   : unified_locale.obj (.text:_ZNSt13basic_filebufIcSt11char_traitsIcEE18_M_exit_input_modeEv)
                  0001b30e    00000014                                   : unified_locale.obj (.text:_ZNSt13basic_filebufIwSt11char_traitsIwEE18_M_exit_input_modeEv)
                  0001b322    00000002     --HOLE-- [fill = 0]
                  0001b324    00000014                                   : _lock.obj (.text)
                  0001b338    00000014                                   : s_copysign.obj (.text)
                  0001b34c    00000014                                   : strcpy.obj (.text)
                  0001b360    00000014                                   : strlen.obj (.text)
                  0001b374    00000014                                   : wmemset.obj (.text)
                  0001b388    00000012                                   : unified_locale.obj (.text:_ZNSoD2Ev)
                  0001b39a    00000012                                   : wcslen.obj (.text)
                  0001b3ac    00000010                                   : unified_locale.obj (.text:_ZNSiD1Ev)
                  0001b3bc    00000010                                   : unified_locale.obj (.text:_ZNSt13basic_istreamIwSt11char_traitsIwEED1Ev)
                  0001b3cc    00000010                                   : unified_locale.obj (.text:_ZNSt15basic_streambufIcSt11char_traitsIcEED1Ev)
                  0001b3dc    00000010                                   : unified_locale.obj (.text:_ZNSt15basic_streambufIwSt11char_traitsIwEED1Ev)
                  0001b3ec    00000010                                   : unified_locale.obj (.text:_ZNSt4priv10_Stl_primeIbE9_S_primesERj)
                  0001b3fc    00000010                                   : setbuf.obj (.text)
                  0001b40c    0000000e                                   : unified_locale.obj (.text:_ZNSdD0Ev)
                  0001b41a    0000000e                                   : unified_locale.obj (.text:_ZNSoD0Ev)
                  0001b428    0000000e                                   : unified_locale.obj (.text:_ZNSt13basic_filebufIcSt11char_traitsIcEED0Ev)
                  0001b436    0000000e                                   : unified_locale.obj (.text:_ZNSt13basic_filebufIwSt11char_traitsIwEED0Ev)
                  0001b444    0000000e                                   : unified_locale.obj (.text:_ZNSt13basic_ostreamIwSt11char_traitsIwEED0Ev)
                  0001b452    0000000e                                   : unified_locale.obj (.text:_ZNSt13basic_ostreamIwSt11char_traitsIwEED1Ev)
                  0001b460    0000000e                                   : unified_locale.obj (.text:_ZNSt15basic_streambufIcSt11char_traitsIcEED0Ev)
                  0001b46e    0000000e                                   : unified_locale.obj (.text:_ZNSt15basic_streambufIwSt11char_traitsIwEED0Ev)
                  0001b47c    0000000e                                   : unified_locale.obj (.text:_ZNSt9basic_iosIcSt11char_traitsIcEED0Ev)
                  0001b48a    0000000e                                   : unified_locale.obj (.text:_ZNSt9basic_iosIwSt11char_traitsIwEED0Ev)
                  0001b498    0000000e                                   : unified_locale.obj (.text:_ZTv0_n12_NSdD0Ev)
                  0001b4a6    0000000e                                   : unified_locale.obj (.text:_ZTv0_n12_NSdD1Ev)
                  0001b4b4    0000000e                                   : unified_locale.obj (.text:_ZTv0_n12_NSoD0Ev)
                  0001b4c2    0000000e                                   : unified_locale.obj (.text:_ZTv0_n12_NSoD1Ev)
                  0001b4d0    0000000e                                   : unified_locale.obj (.text:_ZTv0_n12_NSt13basic_ostreamIwSt11char_traitsIwEED0Ev)
                  0001b4de    0000000e                                   : unified_locale.obj (.text:_ZTv0_n12_NSt13basic_ostreamIwSt11char_traitsIwEED1Ev)
                  0001b4ec    0000000e                                   : copy_decompress_none.obj (.text:decompress:none)
                  0001b4fa    00000002     --HOLE-- [fill = 0]
                  0001b4fc    0000000c                                   : unified_locale.obj (.text:_ZNKSt4priv12_String_baseIcNS_20__iostring_allocatorIcEEE21_M_throw_length_errorEv)
                  0001b508    0000000c                                   : unified_locale.obj (.text:_ZNKSt4priv12_String_baseIcSaIcEE21_M_throw_length_errorEv)
                  0001b514    0000000c                                   : unified_locale.obj (.text:_ZNKSt4priv12_String_baseIwNS_20__iostring_allocatorIwEEE21_M_throw_length_errorEv)
                  0001b520    0000000c                                   : unified_locale.obj (.text:_ZNKSt4priv12_String_baseIwSaIwEE21_M_throw_length_errorEv)
                  0001b52c    0000000c                                   : unified_locale.obj (.text:_ZNKSt4priv12_Vector_baseIPNSt6locale5facetESaIS3_EE21_M_throw_length_errorEv)
                  0001b538    0000000c                                   : copy_zero_init.obj (.text:decompress:ZI)
                  0001b544    0000000a                                   : unified_locale.obj (.text:_ZNKSt10moneypunctIcLb0EE13decimal_pointEv)
                  0001b54e    0000000a                                   : unified_locale.obj (.text:_ZNKSt10moneypunctIwLb0EE13decimal_pointEv)
                  0001b558    0000000a                                   : unified_locale.obj (.text:_ZNKSt10moneypunctIwLb1EE13decimal_pointEv)
                  0001b562    0000000a                                   : unified_locale.obj (.text:_ZNKSt5ctypeIcE5widenEc)
                  0001b56c    0000000a                                   : unified_locale.obj (.text:_ZNKSt5ctypeIwE5widenEPKcS2_Pw)
                  0001b576    0000000a                                   : unified_locale.obj (.text:_ZNKSt5ctypeIwE5widenEc)
                  0001b580    0000000a                                   : unified_locale.obj (.text:_ZNKSt8numpunctIcE13decimal_pointEv)
                  0001b58a    0000000a                                   : unified_locale.obj (.text:_ZNKSt8numpunctIcE13thousands_sepEv)
                  0001b594    0000000a                                   : unified_locale.obj (.text:_ZNKSt8numpunctIcE8groupingEv)
                  0001b59e    0000000a                                   : unified_locale.obj (.text:_ZNKSt8numpunctIcE9falsenameEv)
                  0001b5a8    0000000a                                   : unified_locale.obj (.text:_ZNKSt8numpunctIwE13thousands_sepEv)
                  0001b5b2    0000000a                                   : unified_locale.obj (.text:_ZNKSt8numpunctIwE8groupingEv)
                  0001b5bc    0000000a                                   : unified_locale.obj (.text:_ZNKSt8numpunctIwE9falsenameEv)
                  0001b5c6    0000000a                                   : unified_locale.obj (.text:_ZNSt6vectorIPNSt6locale5facetESaIS2_EE8_M_clearEv)
                  0001b5d0    00000008                                   : unified_locale.obj (.text:_ZNSoC1EPSt15basic_streambufIcSt11char_traitsIcEE)
                  0001b5d8    00000008                                   : unified_locale.obj (.text:_ZNSt7num_getIcSt19istreambuf_iteratorIcSt11char_traitsIcEEED0Ev)
                  0001b5e0    00000008                                   : unified_locale.obj (.text:_ZNSt7num_getIwSt19istreambuf_iteratorIwSt11char_traitsIwEEED0Ev)
                  0001b5e8    00000008                                   : unified_locale.obj (.text:_ZNSt7num_putIcSt19ostreambuf_iteratorIcSt11char_traitsIcEEED0Ev)
                  0001b5f0    00000008                                   : unified_locale.obj (.text:_ZNSt7num_putIwSt19ostreambuf_iteratorIwSt11char_traitsIwEEED0Ev)
                  0001b5f8    00000008                                   : unified_locale.obj (.text:_ZNSt8messagesIcED0Ev)
                  0001b600    00000008                                   : unified_locale.obj (.text:_ZNSt8messagesIwED0Ev)
                  0001b608    00000008                                   : unified_locale.obj (.text:_ZNSt9money_getIcSt19istreambuf_iteratorIcSt11char_traitsIcEEED0Ev)
                  0001b610    00000008                                   : unified_locale.obj (.text:_ZNSt9money_getIwSt19istreambuf_iteratorIwSt11char_traitsIwEEED0Ev)
                  0001b618    00000008                                   : unified_locale.obj (.text:_ZNSt9money_putIcSt19ostreambuf_iteratorIcSt11char_traitsIcEEED0Ev)
                  0001b620    00000008                                   : unified_locale.obj (.text:_ZNSt9money_putIwSt19ostreambuf_iteratorIwSt11char_traitsIwEEED0Ev)
                  0001b628    00000008                                   : delete.obj (.text)
                  0001b630    00000008                                   : fsetpos.obj (.text)
                  0001b638    00000006                                   : unified_locale.obj (.text:_ZNKSt15time_get_bynameIcSt19istreambuf_iteratorIcSt11char_traitsIcEEE13do_date_orderEv)
                  0001b63e    00000006                                   : unified_locale.obj (.text:_ZNKSt15time_get_bynameIwSt19istreambuf_iteratorIwSt11char_traitsIwEEE13do_date_orderEv)
                  0001b644    00000006                                   : unified_locale.obj (.text:_ZNKSt8messagesIcE6do_getEiiiRKSs)
                  0001b64a    00000006                                   : unified_locale.obj (.text:_ZNKSt8messagesIcE7do_openERKSsRKSt6locale)
                  0001b650    00000006                                   : unified_locale.obj (.text:_ZNKSt8messagesIwE6do_getEiiiRKSbIwSt11char_traitsIwESaIwEE)
                  0001b656    00000006                                   : unified_locale.obj (.text:_ZNKSt8messagesIwE7do_openERKSsRKSt6locale)
                  0001b65c    00000006                                   : unified_locale.obj (.text:_ZNKSt8time_getIcSt19istreambuf_iteratorIcSt11char_traitsIcEEE13do_date_orderEv)
                  0001b662    00000006                                   : unified_locale.obj (.text:_ZNKSt8time_getIwSt19istreambuf_iteratorIwSt11char_traitsIwEEE13do_date_orderEv)
                  0001b668    00000006                                   : unified_locale.obj (.text:_ZNSdD1Ev)
                  0001b66e    00000006                                   : unified_locale.obj (.text:_ZNSoD1Ev)
                  0001b674    00000006                                   : unified_locale.obj (.text:_ZNSt15basic_streambufIcSt11char_traitsIcEE8overflowEi)
                  0001b67a    00000006                                   : unified_locale.obj (.text:_ZNSt15basic_streambufIcSt11char_traitsIcEE9pbackfailEi)
                  0001b680    00000006                                   : unified_locale.obj (.text:_ZNSt15basic_streambufIcSt11char_traitsIcEE9underflowEv)
                  0001b686    00000006                                   : unified_locale.obj (.text:_ZNSt15basic_streambufIwSt11char_traitsIwEE8overflowEi)
                  0001b68c    00000006                                   : unified_locale.obj (.text:_ZNSt15basic_streambufIwSt11char_traitsIwEE9pbackfailEi)
                  0001b692    00000006                                   : unified_locale.obj (.text:_ZNSt15basic_streambufIwSt11char_traitsIwEE9underflowEv)
                  0001b698    00000006                                   : unified_locale.obj (.text:_ZThn8_NSdD0Ev)
                  0001b69e    00000006                                   : unified_locale.obj (.text:_ZThn8_NSdD1Ev)
                  0001b6a4    00000006                                   : wmemcpy.obj (.text)
                  0001b6aa    00000006                                   : wmemmove.obj (.text)
                  0001b6b0    00000004                                   : unified_locale.obj (.text:_ZNSt13basic_filebufIcSt11char_traitsIcEE9underflowEv)
                  0001b6b4    00000004                                   : unified_locale.obj (.text:_ZNSt15basic_streambufIcSt11char_traitsIcEE4syncEv)
                  0001b6b8    00000004                                   : unified_locale.obj (.text:_ZNSt15basic_streambufIcSt11char_traitsIcEE9showmanycEv)
                  0001b6bc    00000004                                   : unified_locale.obj (.text:_ZNSt15basic_streambufIcSt11char_traitsIcEED2Ev)
                  0001b6c0    00000004                                   : unified_locale.obj (.text:_ZNSt15basic_streambufIwSt11char_traitsIwEE4syncEv)
                  0001b6c4    00000004                                   : unified_locale.obj (.text:_ZNSt15basic_streambufIwSt11char_traitsIwEE9showmanycEv)
                  0001b6c8    00000004                                   : unified_locale.obj (.text:_ZNSt9basic_iosIcSt11char_traitsIcEED1Ev)
                  0001b6cc    00000004                                   : unified_locale.obj (.text:_ZNSt9basic_iosIcSt11char_traitsIcEED2Ev)
                  0001b6d0    00000004                                   : unified_locale.obj (.text:_ZNSt9basic_iosIwSt11char_traitsIwEED1Ev)
                  0001b6d4    00000004                                   : error.obj (.text)
                  0001b6d8    00000004                                   : placenew.obj (.text)
                  0001b6dc    00000004                                   : pre_init.obj (.text)

.const     0    0001b6e0    0000251b     
                  0001b6e0    00000400     rtsv7M4_T_le_v4SPD16_eabi.lib : _ctype.obj (.const:$O1$$)
                  0001bae0    000002c8                                   : unified_locale.obj (.const:.string)
                  0001bda8    00000101                                   : ctype.obj (.const:.string:_ctypes_)
                  0001bea9    00000003                                   : unified_locale.obj (.const:.typeinfo:_ZTSSd)
                  0001beac    000000f0                                   : unified_locale.obj (.const:_ZTVSt9strstream)
                  0001bf9c    000000a8                                   : unified_locale.obj (.const:_ZTVSd)
                  0001c044    00000004                                   : unified_locale.obj (.const:.string:_ZZNSt4priv23__write_formatted_timeTIcNS_10_Time_InfoEEEvRNS_16__basic_iostringIT_EERKSt5ctypeIS3_EccRKT0_PKSt2tmEs_0)
                  0001c048    00000098                                   : strtod.obj (.const:$O1$$)
                  0001c0e0    00000078                                   : unified_locale.obj (.const:_ZZNSt4priv10_Stl_primeIbE9_S_primesERjE5_list)
                  0001c158    00000070                                   : wctype.obj (.const:.string)
                  0001c1c8    00000060                                   : unified_locale.obj (.const:_ZTVSt10istrstream)
                  0001c228    00000060                                   : unified_locale.obj (.const:_ZTVSt10ostrstream)
                  0001c288    00000044                                   : unified_locale.obj (.const:_ZTVNSt4priv16stdio_istreambufE)
                  0001c2cc    00000044                                   : unified_locale.obj (.const:_ZTVNSt4priv16stdio_ostreambufE)
                  0001c310    00000044                                   : unified_locale.obj (.const:_ZTVNSt4priv20stdio_streambuf_baseE)
                  0001c354    00000044                                   : unified_locale.obj (.const:_ZTVSt12strstreambuf)
                  0001c398    00000044                                   : unified_locale.obj (.const:_ZTVSt13basic_filebufIcSt11char_traitsIcEE)
                  0001c3dc    00000044                                   : unified_locale.obj (.const:_ZTVSt13basic_filebufIwSt11char_traitsIwEE)
                  0001c420    00000044                                   : unified_locale.obj (.const:_ZTVSt15basic_streambufIcSt11char_traitsIcEE)
                  0001c464    00000044                                   : unified_locale.obj (.const:_ZTVSt15basic_streambufIwSt11char_traitsIwEE)
                  0001c4a8    00000043                                   : unified_locale.obj (.const:.typeinfo:_ZTSSt15time_get_bynameIcSt19istreambuf_iteratorIcSt11char_traitsIcEEE)
                  0001c4eb    00000043                                   : unified_locale.obj (.const:.typeinfo:_ZTSSt15time_get_bynameIwSt19istreambuf_iteratorIwSt11char_traitsIwEEE)
                  0001c52e    00000043                                   : unified_locale.obj (.const:.typeinfo:_ZTSSt15time_put_bynameIcSt19ostreambuf_iteratorIcSt11char_traitsIcEEE)
                  0001c571    00000043                                   : unified_locale.obj (.const:.typeinfo:_ZTSSt15time_put_bynameIwSt19ostreambuf_iteratorIwSt11char_traitsIwEEE)
                  0001c5b4    00000040                                   : unified_locale.obj (.const:_ZTVSt12ctype_bynameIwE)
                  0001c5f4    00000040                                   : _ctype.obj (.const:_ZTVSt5ctypeIwE)
                  0001c634    0000003c                                   : unified_locale.obj (.const:.typeinfo:_ZTSSt9money_getIcSt19istreambuf_iteratorIcSt11char_traitsIcEEE)
                  0001c670    0000003c                                   : unified_locale.obj (.const:.typeinfo:_ZTSSt9money_getIwSt19istreambuf_iteratorIwSt11char_traitsIwEEE)
                  0001c6ac    0000003c                                   : unified_locale.obj (.const:.typeinfo:_ZTSSt9money_putIcSt19ostreambuf_iteratorIcSt11char_traitsIcEEE)
                  0001c6e8    0000003c                                   : unified_locale.obj (.const:.typeinfo:_ZTSSt9money_putIwSt19ostreambuf_iteratorIwSt11char_traitsIwEEE)
                  0001c724    0000003c                                   : unified_locale.obj (.const:_ZTVSt7num_getIcSt19istreambuf_iteratorIcSt11char_traitsIcEEE)
                  0001c760    0000003c                                   : unified_locale.obj (.const:_ZTVSt7num_getIwSt19istreambuf_iteratorIwSt11char_traitsIwEEE)
                  0001c79c    0000003b                                   : unified_locale.obj (.const:.typeinfo:_ZTSSt8time_getIcSt19istreambuf_iteratorIcSt11char_traitsIcEEE)
                  0001c7d7    0000003b                                   : unified_locale.obj (.const:.typeinfo:_ZTSSt8time_getIwSt19istreambuf_iteratorIwSt11char_traitsIwEEE)
                  0001c812    0000003b                                   : unified_locale.obj (.const:.typeinfo:_ZTSSt8time_putIcSt19ostreambuf_iteratorIcSt11char_traitsIcEEE)
                  0001c84d    0000003b                                   : unified_locale.obj (.const:.typeinfo:_ZTSSt8time_putIwSt19ostreambuf_iteratorIwSt11char_traitsIwEEE)
                  0001c888    0000003a                                   : unified_locale.obj (.const:.typeinfo:_ZTSSt7num_getIcSt19istreambuf_iteratorIcSt11char_traitsIcEEE)
                  0001c8c2    0000003a                                   : unified_locale.obj (.const:.typeinfo:_ZTSSt7num_getIwSt19istreambuf_iteratorIwSt11char_traitsIwEEE)
                  0001c8fc    0000003a                                   : unified_locale.obj (.const:.typeinfo:_ZTSSt7num_putIcSt19ostreambuf_iteratorIcSt11char_traitsIcEEE)
                  0001c936    0000003a                                   : unified_locale.obj (.const:.typeinfo:_ZTSSt7num_putIwSt19ostreambuf_iteratorIwSt11char_traitsIwEEE)
                  0001c970    00000034                                   : unified_locale.obj (.const:_ZTVSt10moneypunctIcLb0EE)
                  0001c9a4    00000034                                   : unified_locale.obj (.const:_ZTVSt10moneypunctIcLb1EE)
                  0001c9d8    00000034                                   : unified_locale.obj (.const:_ZTVSt10moneypunctIwLb0EE)
                  0001ca0c    00000034                                   : unified_locale.obj (.const:_ZTVSt10moneypunctIwLb1EE)
                  0001ca40    00000034                                   : unified_locale.obj (.const:_ZTVSt17moneypunct_bynameIcLb0EE)
                  0001ca74    00000034                                   : unified_locale.obj (.const:_ZTVSt17moneypunct_bynameIcLb1EE)
                  0001caa8    00000034                                   : unified_locale.obj (.const:_ZTVSt17moneypunct_bynameIwLb0EE)
                  0001cadc    00000034                                   : unified_locale.obj (.const:_ZTVSt17moneypunct_bynameIwLb1EE)
                  0001cb10    00000030                                   : unified_locale.obj (.const:_ZTVSi)
                  0001cb40    00000030                                   : unified_locale.obj (.const:_ZTVSo)
                  0001cb70    00000030                                   : unified_locale.obj (.const:_ZTVSt12ctype_bynameIcE)
                  0001cba0    00000030                                   : unified_locale.obj (.const:_ZTVSt13basic_istreamIwSt11char_traitsIwEE)
                  0001cbd0    00000030                                   : unified_locale.obj (.const:_ZTVSt13basic_ostreamIwSt11char_traitsIwEE)
                  0001cc00    00000030                                   : _ctype.obj (.const:_ZTVSt5ctypeIcE)
                  0001cc30    00000030                                   : unified_locale.obj (.const:_ZTVSt7num_putIcSt19ostreambuf_iteratorIcSt11char_traitsIcEEE)
                  0001cc60    00000030                                   : unified_locale.obj (.const:_ZTVSt7num_putIwSt19ostreambuf_iteratorIwSt11char_traitsIwEEE)
                  0001cc90    0000002c                                   : unified_locale.obj (.const:_ZTVSt14codecvt_bynameIcciE)
                  0001ccbc    0000002c                                   : unified_locale.obj (.const:_ZTVSt14codecvt_bynameIwciE)
                  0001cce8    0000002c                                   : unified_locale.obj (.const:_ZTVSt7codecvtIcciE)
                  0001cd14    0000002c                                   : unified_locale.obj (.const:_ZTVSt7codecvtIwciE)
                  0001cd40    00000029                                   : unified_locale.obj (.const:.typeinfo:_ZTSSt15basic_streambufIcSt11char_traitsIcEE)
                  0001cd69    00000029                                   : unified_locale.obj (.const:.typeinfo:_ZTSSt15basic_streambufIwSt11char_traitsIwEE)
                  0001cd92    00000002                                   : typeinfo_.obj (.const:.typeinfo:_ZTSe)
                  0001cd94    00000028                                   : unified_locale.obj (.const:.typeinfo:_ZTISt8time_getIcSt19istreambuf_iteratorIcSt11char_traitsIcEEE)
                  0001cdbc    00000028                                   : unified_locale.obj (.const:.typeinfo:_ZTISt8time_getIwSt19istreambuf_iteratorIwSt11char_traitsIwEEE)
                  0001cde4    00000028                                   : unified_locale.obj (.const:.typeinfo:_ZTISt8time_putIcSt19ostreambuf_iteratorIcSt11char_traitsIcEEE)
                  0001ce0c    00000028                                   : unified_locale.obj (.const:.typeinfo:_ZTISt8time_putIwSt19ostreambuf_iteratorIwSt11char_traitsIwEEE)
                  0001ce34    00000028                                   : typeinfo_.obj (.const:.typeinfo:_ZTSN10__cxxabiv123__fundamental_type_infoE)
                  0001ce5c    00000028                                   : unified_locale.obj (.const:_ZTVSt15time_get_bynameIcSt19istreambuf_iteratorIcSt11char_traitsIcEEE)
                  0001ce84    00000028                                   : unified_locale.obj (.const:_ZTVSt15time_get_bynameIwSt19istreambuf_iteratorIwSt11char_traitsIwEEE)
                  0001ceac    00000028                                   : unified_locale.obj (.const:_ZTVSt8time_getIcSt19istreambuf_iteratorIcSt11char_traitsIcEEE)
                  0001ced4    00000028                                   : unified_locale.obj (.const:_ZTVSt8time_getIwSt19istreambuf_iteratorIwSt11char_traitsIwEEE)
                  0001cefc    00000027                                   : unified_locale.obj (.const:.typeinfo:_ZTSSt13basic_filebufIcSt11char_traitsIcEE)
                  0001cf23    00000027                                   : unified_locale.obj (.const:.typeinfo:_ZTSSt13basic_filebufIwSt11char_traitsIwEE)
                  0001cf4a    00000027                                   : unified_locale.obj (.const:.typeinfo:_ZTSSt13basic_istreamIwSt11char_traitsIwEE)
                  0001cf71    00000027                                   : unified_locale.obj (.const:.typeinfo:_ZTSSt13basic_ostreamIwSt11char_traitsIwEE)
                  0001cf98    00000026                                   : typeinfo_.obj (.const:.typeinfo:_ZTSN10__cxxabiv121__vmi_class_type_infoE)
                  0001cfbe    00000025                                   : typeinfo_.obj (.const:.typeinfo:_ZTSN10__cxxabiv120__si_class_type_infoE)
                  0001cfe3    00000024                                   : typeinfo_.obj (.const:.typeinfo:_ZTSN10__cxxabiv119__pointer_type_infoE)
                  0001d007    00000001     --HOLE-- [fill = 0]
                  0001d008    00000024                                   : unified_locale.obj (.const:_ZTVSt15numpunct_bynameIcE)
                  0001d02c    00000024                                   : unified_locale.obj (.const:_ZTVSt15numpunct_bynameIwE)
                  0001d050    00000024                                   : unified_locale.obj (.const:_ZTVSt8numpunctIcE)
                  0001d074    00000024                                   : unified_locale.obj (.const:_ZTVSt8numpunctIwE)
                  0001d098    00000022                                   : typeinfo_.obj (.const:.typeinfo:_ZTSN10__cxxabiv117__class_type_infoE)
                  0001d0ba    00000022                                   : typeinfo_.obj (.const:.typeinfo:_ZTSN10__cxxabiv117__pbase_type_infoE)
                  0001d0dc    00000022                                   : unified_locale.obj (.const:.typeinfo:_ZTSSt9basic_iosIcSt11char_traitsIcEE)
                  0001d0fe    00000022                                   : unified_locale.obj (.const:.typeinfo:_ZTSSt9basic_iosIwSt11char_traitsIwEE)
                  0001d120    00000020                                   : unified_locale.obj (.const:.typeinfo:_ZTISd)
                  0001d140    00000020                                   : unified_locale.obj (.const:.typeinfo:_ZTISt10moneypunctIcLb0EE)
                  0001d160    00000020                                   : unified_locale.obj (.const:.typeinfo:_ZTISt10moneypunctIcLb1EE)
                  0001d180    00000020                                   : unified_locale.obj (.const:.typeinfo:_ZTISt10moneypunctIwLb0EE)
                  0001d1a0    00000020                                   : unified_locale.obj (.const:.typeinfo:_ZTISt10moneypunctIwLb1EE)
                  0001d1c0    00000020                                   : unified_locale.obj (.const:.typeinfo:_ZTISt5ctypeIcE)
                  0001d1e0    00000020                                   : unified_locale.obj (.const:.typeinfo:_ZTISt5ctypeIwE)
                  0001d200    00000020                                   : unified_locale.obj (.const:.typeinfo:_ZTISt7codecvtIcciE)
                  0001d220    00000020                                   : unified_locale.obj (.const:.typeinfo:_ZTISt7codecvtIwciE)
                  0001d240    00000020                                   : unified_locale.obj (.const:.typeinfo:_ZTISt8messagesIcE)
                  0001d260    00000020                                   : unified_locale.obj (.const:.typeinfo:_ZTISt8messagesIwE)
                  0001d280    00000020                                   : unified_locale.obj (.const:.typeinfo:_ZTSNSt4priv20stdio_streambuf_baseE)
                  0001d2a0    0000001d                                   : unified_locale.obj (.const:.typeinfo:_ZTSSt17moneypunct_bynameIcLb0EE)
                  0001d2bd    0000001d                                   : unified_locale.obj (.const:.typeinfo:_ZTSSt17moneypunct_bynameIcLb1EE)
                  0001d2da    0000001d                                   : unified_locale.obj (.const:.typeinfo:_ZTSSt17moneypunct_bynameIwLb0EE)
                  0001d2f7    0000001d                                   : unified_locale.obj (.const:.typeinfo:_ZTSSt17moneypunct_bynameIwLb1EE)
                  0001d314    0000001c                                   : unified_locale.obj (.const:.typeinfo:_ZTSNSt4priv16stdio_istreambufE)
                  0001d330    0000001c                                   : unified_locale.obj (.const:.typeinfo:_ZTSNSt4priv16stdio_ostreambufE)
                  0001d34c    0000001c                                   : unified_locale.obj (.const:_ZTVSt14collate_bynameIcE)
                  0001d368    0000001c                                   : unified_locale.obj (.const:_ZTVSt14collate_bynameIwE)
                  0001d384    0000001c                                   : unified_locale.obj (.const:_ZTVSt15messages_bynameIcE)
                  0001d3a0    0000001c                                   : unified_locale.obj (.const:_ZTVSt15messages_bynameIwE)
                  0001d3bc    0000001c                                   : unified_locale.obj (.const:_ZTVSt7collateIcE)
                  0001d3d8    0000001c                                   : unified_locale.obj (.const:_ZTVSt7collateIwE)
                  0001d3f4    0000001c                                   : unified_locale.obj (.const:_ZTVSt8messagesIcE)
                  0001d410    0000001c                                   : unified_locale.obj (.const:_ZTVSt8messagesIwE)
                  0001d42c    00000018                                   : unified_locale.obj (.const:.typeinfo:_ZTINSt6locale5facetE)
                  0001d444    00000018                                   : unified_locale.obj (.const:.typeinfo:_ZTISi)
                  0001d45c    00000018                                   : unified_locale.obj (.const:.typeinfo:_ZTISo)
                  0001d474    00000018                                   : unified_locale.obj (.const:.typeinfo:_ZTISt13basic_istreamIwSt11char_traitsIwEE)
                  0001d48c    00000018                                   : unified_locale.obj (.const:.typeinfo:_ZTISt13basic_ostreamIwSt11char_traitsIwEE)
                  0001d4a4    00000018                                   : unified_locale.obj (.const:.typeinfo:_ZTSSt14codecvt_bynameIcciE)
                  0001d4bc    00000018                                   : unified_locale.obj (.const:.typeinfo:_ZTSSt14codecvt_bynameIwciE)
                  0001d4d4    00000018                                   : unified_locale.obj (.const:_ZTVSt9money_getIcSt19istreambuf_iteratorIcSt11char_traitsIcEEE)
                  0001d4ec    00000018                                   : unified_locale.obj (.const:_ZTVSt9money_getIwSt19istreambuf_iteratorIwSt11char_traitsIwEEE)
                  0001d504    00000018                                   : unified_locale.obj (.const:_ZTVSt9money_putIcSt19ostreambuf_iteratorIcSt11char_traitsIcEEE)
                  0001d51c    00000018                                   : unified_locale.obj (.const:_ZTVSt9money_putIwSt19ostreambuf_iteratorIwSt11char_traitsIwEEE)
                  0001d534    00000017                                   : unified_locale.obj (.const:.typeinfo:_ZTSNSt4priv9time_initIcEE)
                  0001d54b    00000017                                   : unified_locale.obj (.const:.typeinfo:_ZTSNSt4priv9time_initIwEE)
                  0001d562    00000017                                   : unified_locale.obj (.const:.typeinfo:_ZTSSt15messages_bynameIcE)
                  0001d579    00000017                                   : unified_locale.obj (.const:.typeinfo:_ZTSSt15messages_bynameIwE)
                  0001d590    00000017                                   : unified_locale.obj (.const:.typeinfo:_ZTSSt15numpunct_bynameIcE)
                  0001d5a7    00000017                                   : unified_locale.obj (.const:.typeinfo:_ZTSSt15numpunct_bynameIwE)
                  0001d5be    00000016                                   : unified_locale.obj (.const:.typeinfo:_ZTSSt10moneypunctIcLb0EE)
                  0001d5d4    00000016                                   : unified_locale.obj (.const:.typeinfo:_ZTSSt10moneypunctIcLb1EE)
                  0001d5ea    00000016                                   : unified_locale.obj (.const:.typeinfo:_ZTSSt10moneypunctIwLb0EE)
                  0001d600    00000016                                   : unified_locale.obj (.const:.typeinfo:_ZTSSt10moneypunctIwLb1EE)
                  0001d616    00000016                                   : unified_locale.obj (.const:.typeinfo:_ZTSSt14collate_bynameIcE)
                  0001d62c    00000016                                   : unified_locale.obj (.const:.typeinfo:_ZTSSt14collate_bynameIwE)
                  0001d642    00000014                                   : unified_locale.obj (.const:.typeinfo:_ZTSSt12ctype_bynameIcE)
                  0001d656    00000014                                   : unified_locale.obj (.const:.typeinfo:_ZTSSt12ctype_bynameIwE)
                  0001d66a    00000002     --HOLE-- [fill = 0]
                  0001d66c    00000014                                   : unified_locale.obj (.const:_ZTVSt15time_put_bynameIcSt19ostreambuf_iteratorIcSt11char_traitsIcEEE)
                  0001d680    00000014                                   : unified_locale.obj (.const:_ZTVSt15time_put_bynameIwSt19ostreambuf_iteratorIwSt11char_traitsIwEEE)
                  0001d694    00000014                                   : unified_locale.obj (.const:_ZTVSt8time_putIcSt19ostreambuf_iteratorIcSt11char_traitsIcEEE)
                  0001d6a8    00000014                                   : unified_locale.obj (.const:_ZTVSt8time_putIwSt19ostreambuf_iteratorIwSt11char_traitsIwEEE)
                  0001d6bc    00000013                                   : unified_locale.obj (.const:.typeinfo:_ZTSSt14_Refcount_Base)
                  0001d6cf    00000012                                   : unified_locale.obj (.const:.typeinfo:_ZTSNSt6locale5facetE)
                  0001d6e1    00000012                                   : unified_locale.obj (.const:.typeinfo:_ZTSSt13messages_base)
                  0001d6f3    00000011                                   : unified_locale.obj (.const:.typeinfo:_ZTSSt12codecvt_base)
                  0001d704    00000011                                   : unified_locale.obj (.const:.typeinfo:_ZTSSt12strstreambuf)
                  0001d715    00000003                                   : unified_locale.obj (.const:.typeinfo:_ZTSSi)
                  0001d718    00000010                                   : typeinfo_.obj (.const:.typeinfo:_ZTIPKe)
                  0001d728    00000010                                   : unified_locale.obj (.const:.typeinfo:_ZTSSt7codecvtIcciE)
                  0001d738    00000010                                   : unified_locale.obj (.const:.typeinfo:_ZTSSt7codecvtIwciE)
                  0001d748    00000010                                   : typeinfo_.obj (.const:_ZTVN10__cxxabiv117__class_type_infoE)
                  0001d758    00000010                                   : typeinfo_.obj (.const:_ZTVN10__cxxabiv119__pointer_type_infoE)
                  0001d768    00000010                                   : typeinfo_.obj (.const:_ZTVN10__cxxabiv120__si_class_type_infoE)
                  0001d778    00000010                                   : typeinfo_.obj (.const:_ZTVN10__cxxabiv121__vmi_class_type_infoE)
                  0001d788    00000010                                   : typeinfo_.obj (.const:_ZTVN10__cxxabiv123__fundamental_type_infoE)
                  0001d798    00000010                                   : unified_locale.obj (.const:_ZTVNSt6locale5facetE)
                  0001d7a8    00000010                                   : unified_locale.obj (.const:_ZTVSt8ios_base)
                  0001d7b8    00000010                                   : unified_locale.obj (.const:_ZTVSt9basic_iosIcSt11char_traitsIcEE)
                  0001d7c8    00000010                                   : unified_locale.obj (.const:_ZTVSt9basic_iosIwSt11char_traitsIwEE)
                  0001d7d8    0000000f                                   : unified_locale.obj (.const:.string:_ZZNSaIPNSt4priv16_Slist_node_baseEE11_M_allocateEjRjEs)
                  0001d7e7    0000000f                                   : unified_locale.obj (.const:.string:_ZZNSaIPNSt6locale5facetEE11_M_allocateEjRjEs)
                  0001d7f6    0000000f                                   : unified_locale.obj (.const:.string:_ZZNSaIwE11_M_allocateEjRjEs)
                  0001d805    0000000f                                   : unified_locale.obj (.const:.string:_ZZNSaIwE8allocateEjPKvEs)
                  0001d814    0000000f                                   : unified_locale.obj (.const:.typeinfo:_ZTSSt10ctype_base)
                  0001d823    0000000f                                   : unified_locale.obj (.const:.typeinfo:_ZTSSt10istrstream)
                  0001d832    0000000f                                   : unified_locale.obj (.const:.typeinfo:_ZTSSt10money_base)
                  0001d841    0000000f                                   : unified_locale.obj (.const:.typeinfo:_ZTSSt10ostrstream)
                  0001d850    0000000f                                   : unified_locale.obj (.const:.typeinfo:_ZTSSt8messagesIcE)
                  0001d85f    0000000f                                   : unified_locale.obj (.const:.typeinfo:_ZTSSt8messagesIwE)
                  0001d86e    0000000f                                   : unified_locale.obj (.const:.typeinfo:_ZTSSt8numpunctIcE)
                  0001d87d    0000000f                                   : unified_locale.obj (.const:.typeinfo:_ZTSSt8numpunctIwE)
                  0001d88c    0000000e                                   : unified_locale.obj (.const:.typeinfo:_ZTSSt7collateIcE)
                  0001d89a    0000000e                                   : unified_locale.obj (.const:.typeinfo:_ZTSSt7collateIwE)
                  0001d8a8    0000000d                                   : unified_locale.obj (.const:.string:_ZZNKSt4priv12_String_baseIcNS_20__iostring_allocatorIcEEE21_M_throw_length_errorEvEs)
                  0001d8b5    0000000d                                   : unified_locale.obj (.const:.string:_ZZNKSt4priv12_String_baseIcSaIcEE21_M_throw_length_errorEvEs)
                  0001d8c2    0000000d                                   : unified_locale.obj (.const:.string:_ZZNKSt4priv12_String_baseIwNS_20__iostring_allocatorIwEEE21_M_throw_length_errorEvEs)
                  0001d8cf    0000000d                                   : unified_locale.obj (.const:.string:_ZZNKSt4priv12_String_baseIwSaIwEE21_M_throw_length_errorEvEs)
                  0001d8dc    0000000d                                   : unified_locale.obj (.const:.typeinfo:_ZTSSt9strstream)
                  0001d8e9    0000000d                                   : unified_locale.obj (.const:.typeinfo:_ZTSSt9time_base)
                  0001d8f6    0000000d                                   : typeinfo_.obj (.const:.typeinfo:_ZTSSt9type_info)
                  0001d903    00000001     --HOLE-- [fill = 0]
                  0001d904    0000000c                                   : typeinfo_.obj (.const:.typeinfo:_ZTIN10__cxxabiv117__class_type_infoE)
                  0001d910    0000000c                                   : typeinfo_.obj (.const:.typeinfo:_ZTIN10__cxxabiv117__pbase_type_infoE)
                  0001d91c    0000000c                                   : typeinfo_.obj (.const:.typeinfo:_ZTIN10__cxxabiv119__pointer_type_infoE)
                  0001d928    0000000c                                   : typeinfo_.obj (.const:.typeinfo:_ZTIN10__cxxabiv120__si_class_type_infoE)
                  0001d934    0000000c                                   : typeinfo_.obj (.const:.typeinfo:_ZTIN10__cxxabiv121__vmi_class_type_infoE)
                  0001d940    0000000c                                   : typeinfo_.obj (.const:.typeinfo:_ZTIN10__cxxabiv123__fundamental_type_infoE)
                  0001d94c    0000000c                                   : unified_locale.obj (.const:.typeinfo:_ZTINSt4priv16stdio_istreambufE)
                  0001d958    0000000c                                   : unified_locale.obj (.const:.typeinfo:_ZTINSt4priv16stdio_ostreambufE)
                  0001d964    0000000c                                   : unified_locale.obj (.const:.typeinfo:_ZTINSt4priv20stdio_streambuf_baseE)
                  0001d970    0000000c                                   : unified_locale.obj (.const:.typeinfo:_ZTISt10istrstream)
                  0001d97c    0000000c                                   : unified_locale.obj (.const:.typeinfo:_ZTISt10ostrstream)
                  0001d988    0000000c                                   : unified_locale.obj (.const:.typeinfo:_ZTISt12ctype_bynameIcE)
                  0001d994    0000000c                                   : unified_locale.obj (.const:.typeinfo:_ZTISt12ctype_bynameIwE)
                  0001d9a0    0000000c                                   : unified_locale.obj (.const:.typeinfo:_ZTISt12strstreambuf)
                  0001d9ac    0000000c                                   : unified_locale.obj (.const:.typeinfo:_ZTISt13basic_filebufIcSt11char_traitsIcEE)
                  0001d9b8    0000000c                                   : unified_locale.obj (.const:.typeinfo:_ZTISt13basic_filebufIwSt11char_traitsIwEE)
                  0001d9c4    0000000c                                   : unified_locale.obj (.const:.typeinfo:_ZTISt14codecvt_bynameIcciE)
                  0001d9d0    0000000c                                   : unified_locale.obj (.const:.typeinfo:_ZTISt14codecvt_bynameIwciE)
                  0001d9dc    0000000c                                   : unified_locale.obj (.const:.typeinfo:_ZTISt14collate_bynameIcE)
                  0001d9e8    0000000c                                   : unified_locale.obj (.const:.typeinfo:_ZTISt14collate_bynameIwE)
                  0001d9f4    0000000c                                   : unified_locale.obj (.const:.typeinfo:_ZTISt15messages_bynameIcE)
                  0001da00    0000000c                                   : unified_locale.obj (.const:.typeinfo:_ZTISt15messages_bynameIwE)
                  0001da0c    0000000c                                   : unified_locale.obj (.const:.typeinfo:_ZTISt15numpunct_bynameIcE)
                  0001da18    0000000c                                   : unified_locale.obj (.const:.typeinfo:_ZTISt15numpunct_bynameIwE)
                  0001da24    0000000c                                   : unified_locale.obj (.const:.typeinfo:_ZTISt15time_get_bynameIcSt19istreambuf_iteratorIcSt11char_traitsIcEEE)
                  0001da30    0000000c                                   : unified_locale.obj (.const:.typeinfo:_ZTISt15time_get_bynameIwSt19istreambuf_iteratorIwSt11char_traitsIwEEE)
                  0001da3c    0000000c                                   : unified_locale.obj (.const:.typeinfo:_ZTISt15time_put_bynameIcSt19ostreambuf_iteratorIcSt11char_traitsIcEEE)
                  0001da48    0000000c                                   : unified_locale.obj (.const:.typeinfo:_ZTISt15time_put_bynameIwSt19ostreambuf_iteratorIwSt11char_traitsIwEEE)
                  0001da54    0000000c                                   : unified_locale.obj (.const:.typeinfo:_ZTISt17moneypunct_bynameIcLb0EE)
                  0001da60    0000000c                                   : unified_locale.obj (.const:.typeinfo:_ZTISt17moneypunct_bynameIcLb1EE)
                  0001da6c    0000000c                                   : unified_locale.obj (.const:.typeinfo:_ZTISt17moneypunct_bynameIwLb0EE)
                  0001da78    0000000c                                   : unified_locale.obj (.const:.typeinfo:_ZTISt17moneypunct_bynameIwLb1EE)
                  0001da84    0000000c                                   : unified_locale.obj (.const:.typeinfo:_ZTISt7collateIcE)
                  0001da90    0000000c                                   : unified_locale.obj (.const:.typeinfo:_ZTISt7collateIwE)
                  0001da9c    0000000c                                   : unified_locale.obj (.const:.typeinfo:_ZTISt7num_getIcSt19istreambuf_iteratorIcSt11char_traitsIcEEE)
                  0001daa8    0000000c                                   : unified_locale.obj (.const:.typeinfo:_ZTISt7num_getIwSt19istreambuf_iteratorIwSt11char_traitsIwEEE)
                  0001dab4    0000000c                                   : unified_locale.obj (.const:.typeinfo:_ZTISt7num_putIcSt19ostreambuf_iteratorIcSt11char_traitsIcEEE)
                  0001dac0    0000000c                                   : unified_locale.obj (.const:.typeinfo:_ZTISt7num_putIwSt19ostreambuf_iteratorIwSt11char_traitsIwEEE)
                  0001dacc    0000000c                                   : unified_locale.obj (.const:.typeinfo:_ZTISt8numpunctIcE)
                  0001dad8    0000000c                                   : unified_locale.obj (.const:.typeinfo:_ZTISt8numpunctIwE)
                  0001dae4    0000000c                                   : unified_locale.obj (.const:.typeinfo:_ZTISt9basic_iosIcSt11char_traitsIcEE)
                  0001daf0    0000000c                                   : unified_locale.obj (.const:.typeinfo:_ZTISt9basic_iosIwSt11char_traitsIwEE)
                  0001dafc    0000000c                                   : unified_locale.obj (.const:.typeinfo:_ZTISt9money_getIcSt19istreambuf_iteratorIcSt11char_traitsIcEEE)
                  0001db08    0000000c                                   : unified_locale.obj (.const:.typeinfo:_ZTISt9money_getIwSt19istreambuf_iteratorIwSt11char_traitsIwEEE)
                  0001db14    0000000c                                   : unified_locale.obj (.const:.typeinfo:_ZTISt9money_putIcSt19ostreambuf_iteratorIcSt11char_traitsIcEEE)
                  0001db20    0000000c                                   : unified_locale.obj (.const:.typeinfo:_ZTISt9money_putIwSt19ostreambuf_iteratorIwSt11char_traitsIwEEE)
                  0001db2c    0000000c                                   : unified_locale.obj (.const:.typeinfo:_ZTISt9strstream)
                  0001db38    0000000c                                   : unified_locale.obj (.const:.typeinfo:_ZTSSt5ctypeIcE)
                  0001db44    0000000c                                   : unified_locale.obj (.const:.typeinfo:_ZTSSt5ctypeIwE)
                  0001db50    0000000c                                   : unified_locale.obj (.const:.typeinfo:_ZTSSt8ios_base)
                  0001db5c    00000008                                   : unified_locale.obj (.const:.typeinfo:_ZTINSt4priv9time_initIcEE)
                  0001db64    00000008                                   : unified_locale.obj (.const:.typeinfo:_ZTINSt4priv9time_initIwEE)
                  0001db6c    00000008                                   : unified_locale.obj (.const:.typeinfo:_ZTISt10ctype_base)
                  0001db74    00000008                                   : unified_locale.obj (.const:.typeinfo:_ZTISt10money_base)
                  0001db7c    00000008                                   : unified_locale.obj (.const:.typeinfo:_ZTISt12codecvt_base)
                  0001db84    00000008                                   : unified_locale.obj (.const:.typeinfo:_ZTISt13messages_base)
                  0001db8c    00000008                                   : unified_locale.obj (.const:.typeinfo:_ZTISt14_Refcount_Base)
                  0001db94    00000008                                   : unified_locale.obj (.const:.typeinfo:_ZTISt15basic_streambufIcSt11char_traitsIcEE)
                  0001db9c    00000008                                   : unified_locale.obj (.const:.typeinfo:_ZTISt15basic_streambufIwSt11char_traitsIwEE)
                  0001dba4    00000008                                   : unified_locale.obj (.const:.typeinfo:_ZTISt8ios_base)
                  0001dbac    00000008                                   : unified_locale.obj (.const:.typeinfo:_ZTISt9time_base)
                  0001dbb4    00000008                                   : typeinfo_.obj (.const:.typeinfo:_ZTISt9type_info)
                  0001dbbc    00000008                                   : typeinfo_.obj (.const:.typeinfo:_ZTIe)
                  0001dbc4    00000007                                   : unified_locale.obj (.const:.string:_ZZNKSt4priv12_Vector_baseIPNS_16_Slist_node_baseESaIS2_EE21_M_throw_length_errorEvEs)
                  0001dbcb    00000007                                   : unified_locale.obj (.const:.string:_ZZNKSt4priv12_Vector_baseIPNSt6locale5facetESaIS3_EE21_M_throw_length_errorEvEs)
                  0001dbd2    00000006                                   : unified_locale.obj (.const:.string:_ZZNSt4priv23__write_formatted_timeTIcNS_10_Time_InfoEEEvRNS_16__basic_iostringIT_EERKSt5ctypeIS3_EccRKT0_PKSt2tmEs)
                  0001dbd8    00000006                                   : unified_locale.obj (.const:.string:_ZZNSt4priv23__write_formatted_timeTIwNS_11_WTime_InfoEEEvRNS_16__basic_iostringIT_EERKSt5ctypeIS3_EccRKT0_PKSt2tmEs)
                  0001dbde    00000002     --HOLE-- [fill = 0]
                  0001dbe0    00000006                                   : setlocale.obj (.const:.string)
                  0001dbe6    00000005                                   : unified_locale.obj (.const:.string:_ZZNSt4priv23__write_formatted_timeTIcNS_10_Time_InfoEEEvRNS_16__basic_iostringIT_EERKSt5ctypeIS3_EccRKT0_PKSt2tmEs_1)
                  0001dbeb    00000005                                   : unified_locale.obj (.const:.string:_ZZNSt4priv23__write_formatted_timeTIwNS_11_WTime_InfoEEEvRNS_16__basic_iostringIT_EERKSt5ctypeIS3_EccRKT0_PKSt2tmEs_1)
                  0001dbf0    00000004                                   : unified_locale.obj (.const:.string:_ZZNSt4priv23__write_formatted_timeTIwNS_11_WTime_InfoEEEvRNS_16__basic_iostringIT_EERKSt5ctypeIS3_EccRKT0_PKSt2tmEs_0)
                  0001dbf4    00000004                                   : typeinfo_.obj (.const:.typeinfo:_ZTSPKe)
                  0001dbf8    00000003                                   : unified_locale.obj (.const:.typeinfo:_ZTSSo)

.init_array 
*          0    0001dbfc    00000008     
                  0001dbfc    00000004     main.obj (.init_array)
                  0001dc00    00000004     rtsv7M4_T_le_v4SPD16_eabi.lib : unified_locale.obj (.init_array)

.cinit     0    0001dc08    00000448     
                  0001dc08    00000421     (.cinit..data.load) [load image, compression = lzss]
                  0001e029    00000003     --HOLE-- [fill = 0]
                  0001e02c    0000000c     (__TI_handler_table)
                  0001e038    00000008     (.cinit..bss.load) [load image, compression = zero_init]
                  0001e040    00000010     (__TI_cinit_table)

.data      0    20000000    00001368     UNINITIALIZED
                  20000000    000009f0     rtsv7M4_T_le_v4SPD16_eabi.lib : unified_locale.obj (.data:$O2$$)
                  200009f0    000006c0                                   : unified_locale.obj (.data:$O1$$)
                  200010b0    000000f0                                   : defs.obj (.data:_ftable)
                  200011a0    000000d0                                   : lowlev.obj (.data:$O1$$)
                  20001270    00000080                                   : wctype.obj (.data:$O1$$)
                  200012f0    00000034                                   : setlocale.obj (.data:C_locale)
                  20001324    00000010                                   : defs.obj (.data)
                  20001334    0000000c                                   : exit.obj (.data:$O1$$)
                  20001340    0000000c                                   : memory.obj (.data:$O1$$)
                  2000134c    00000008                                   : _lock.obj (.data:$O1$$)
                  20001354    00000004                                   : dtor_list.obj (.data)
                  20001358    00000004                                   : errno.obj (.data)
                  2000135c    00000004                                   : fopen.obj (.data)
                  20001360    00000004                                   : stkdepth_vars.obj (.data)
                  20001364    00000004                                   : vars.obj (.data)

.bss       0    20001368    00000205     UNINITIALIZED
                  20001368    00000120     rtsv7M4_T_le_v4SPD16_eabi.lib : trgmsg.obj (.bss:_CIOBUF_)
                  20001488    000000a0     (.common:__TI_tmpnams)
                  20001528    00000008                                   : trgdrv.obj (.bss:parmbuf)
                  20001530    00000004                                   : unified_locale.obj (.bss:_ZNSt7num_getIcSt19istreambuf_iteratorIcSt11char_traitsIcEEE2idE)
                  20001534    00000004                                   : unified_locale.obj (.bss:_ZNSt7num_getIwSt19istreambuf_iteratorIwSt11char_traitsIwEEE2idE)
                  20001538    00000004                                   : unified_locale.obj (.bss:_ZNSt7num_putIcSt19ostreambuf_iteratorIcSt11char_traitsIcEEE2idE)
                  2000153c    00000004                                   : unified_locale.obj (.bss:_ZNSt7num_putIwSt19ostreambuf_iteratorIwSt11char_traitsIwEEE2idE)
                  20001540    00000004                                   : unified_locale.obj (.bss:_ZNSt8time_getIcSt19istreambuf_iteratorIcSt11char_traitsIcEEE2idE)
                  20001544    00000004                                   : unified_locale.obj (.bss:_ZNSt8time_getIwSt19istreambuf_iteratorIwSt11char_traitsIwEEE2idE)
                  20001548    00000004                                   : unified_locale.obj (.bss:_ZNSt8time_putIcSt19ostreambuf_iteratorIcSt11char_traitsIcEEE2idE)
                  2000154c    00000004                                   : unified_locale.obj (.bss:_ZNSt8time_putIwSt19ostreambuf_iteratorIwSt11char_traitsIwEEE2idE)
                  20001550    00000004                                   : unified_locale.obj (.bss:_ZNSt9money_getIcSt19istreambuf_iteratorIcSt11char_traitsIcEEE2idE)
                  20001554    00000004                                   : unified_locale.obj (.bss:_ZNSt9money_getIwSt19istreambuf_iteratorIwSt11char_traitsIwEEE2idE)
                  20001558    00000004                                   : unified_locale.obj (.bss:_ZNSt9money_putIcSt19ostreambuf_iteratorIcSt11char_traitsIcEEE2idE)
                  2000155c    00000004                                   : unified_locale.obj (.bss:_ZNSt9money_putIwSt19ostreambuf_iteratorIwSt11char_traitsIwEEE2idE)
                  20001560    00000004     (.common:_ZSt16__dummy_typeinfo)
                  20001564    00000004     (.common:__dso_handle)
                  20001568    00000001     main.obj (.bss:_ZSt11_ios_initer)
                  20001569    00000001     rtsv7M4_T_le_v4SPD16_eabi.lib : unified_locale.obj (.bss:_ZSt8_IosInit)
                  2000156a    00000001                                   : unified_locale.obj (.bss:_ZZSt22_Stl_get_global_localevE4init)
                  2000156b    00000001                                   : unified_locale.obj (.bss:_ZZSt23_Stl_get_classic_localevE4init)
                  2000156c    00000001                                   : unified_locale.obj (.bss:lock$16)

.stack     0    20001570    00000200     UNINITIALIZED
                  20001570    00000200     --HOLE--

.sysmem    0    20001770    00000008     UNINITIALIZED
                  20001770    00000008     rtsv7M4_T_le_v4SPD16_eabi.lib : memory.obj (.sysmem)

MODULE SUMMARY

       Module                         code     ro data   rw data
       ------                         ----     -------   -------
    .\
       tm4c123gh6pm_startup_ccs.obj   274      620       0      
       main.obj                       220      4         1      
    +--+------------------------------+--------+---------+---------+
       Total:                         494      624       1      
                                                                
    D:\EngineeringSoftware\CCS\ccsv7\tools\compiler\ti-cgt-arm_16.9.0.LTS\lib\rtsv7M4_T_le_v4SPD16_eabi.lib
       unified_locale.obj             91324    9956      1780   
       _printfi.obj                   4410     0         0      
       _ctype.obj                     1174     1136      0      
       rtti.obj                       1488     0         0      
       lowlev.obj                     780      0         208    
       memory.obj                     976      0         12     
       vec_newdel.obj                 924      0         0      
       trgdrv.obj                     804      0         8      
       strtod.obj                     572      152       0      
       wctype.obj                     456      112       128    
       typeinfo_.obj                  188      422       4      
       ll_div_t2.obj                  542      0         0      
       ull_div_t2.obj                 500      0         0      
       fopen.obj                      452      0         4      
       fd_add_t2.obj                  438      0         0      
       defs.obj                       0        0         416    
       trgmsg.obj                     104      0         288    
       fwrite.obj                     364      0         0      
       fd_div_t2.obj                  310      0         0      
       fputs.obj                      308      0         0      
       fd_cmp_t2.obj                  268      0         0      
       ctype.obj                      0        257       0      
       dtor_list.obj                  244      0         8      
       fd_mul_t2.obj                  252      0         0      
       s_scalbn.obj                   252      0         0      
       fread.obj                      236      0         0      
       setvbuf.obj                    220      0         0      
       fflush.obj                     200      0         0      
       _io_perm.obj                   172      0         0      
       _bufread.obj                   160      0         0      
       memcpy_t2.obj                  156      0         0      
       fclose.obj                     152      0         0      
       fputc.obj                      152      0         0      
       snprintf.obj                   148      0         0      
       fgetc.obj                      144      0         0      
       ungetc.obj                     128      0         0      
       memset_t2.obj                  122      0         0      
       autoinit.obj                   112      0         0      
       fd_tos_t2.obj                  110      0         0      
       copy_decompress_lzss.obj       104      0         0      
       setlocale.obj                  44       6         52     
       fseek.obj                      100      0         0      
       ftell.obj                      100      0         0      
       s_frexp.obj                    100      0         0      
       exit.obj                       84       0         12     
       sprintf.obj                    96       0         0      
       ltoa.obj                       86       0         0      
       boot.obj                       84       0         0      
       atoi.obj                       76       0         0      
       cpy_tbl.obj                    76       0         0      
       dll_main.obj                   72       0         0      
       fd_toi_t2.obj                  72       0         0      
       u_divt2.obj                    64       0         0      
       strncpy.obj                    54       0         0      
       new_.obj                       48       0         0      
       i_tofd_t2.obj                  46       0         0      
       wcsncpy.obj                    46       0         0      
       fgetpos.obj                    40       0         0      
       memcmp.obj                     36       0         0      
       memmov.obj                     36       0         0      
       guard.obj                      32       0         0      
       memchr.obj                     32       0         0      
       wcscmp.obj                     32       0         0      
       _lock.obj                      20       0         8      
       memccpy.obj                    28       0         0      
       args_main.obj                  24       0         0      
       ll_mul_t2.obj                  24       0         0      
       strcmp.obj                     24       0         0      
       strchr.obj                     22       0         0      
       s_copysign.obj                 20       0         0      
       strcpy.obj                     20       0         0      
       strlen.obj                     20       0         0      
       wmemset.obj                    20       0         0      
       wcslen.obj                     18       0         0      
       setbuf.obj                     16       0         0      
       copy_decompress_none.obj       14       0         0      
       copy_zero_init.obj             12       0         0      
       delete.obj                     8        0         0      
       fsetpos.obj                    8        0         0      
       wmemcpy.obj                    6        0         0      
       wmemmove.obj                   6        0         0      
       errno.obj                      0        0         4      
       error.obj                      4        0         0      
       placenew.obj                   4        0         0      
       pre_init.obj                   4        0         0      
       stkdepth_vars.obj              0        0         4      
       vars.obj                       0        0         4      
       i_div0.obj                     2        0         0      
       l_div0.obj                     2        0         0      
       mpu_init.obj                   2        0         0      
       newhandler.obj                 2        0         0      
       startup.obj                    2        0         0      
    +--+------------------------------+--------+---------+---------+
       Total:                         111234   12041     2940   
                                                                
       Heap:                          0        0         8      
       Stack:                         0        0         512    
       Linker Generated:              0        1093      0      
    +--+------------------------------+--------+---------+---------+
       Grand Total:                   111728   13758     3461   


LINKER GENERATED COPY TABLES

__TI_cinit_table @ 0001e040 records: 2, size/record: 8, table size: 16
	.data: load addr=0001dc08, load size=00000421 bytes, run addr=20000000, run size=00001368 bytes, compression=lzss
	.bss: load addr=0001e038, load size=00000008 bytes, run addr=20001368, run size=00000205 bytes, compression=zero_init


LINKER GENERATED HANDLER TABLE

__TI_handler_table @ 0001e02c records: 3, size/record: 4, table size: 12
	index: 0, handler: __TI_decompress_lzss
	index: 1, handler: __TI_decompress_none
	index: 2, handler: __TI_zero_init


GLOBAL SYMBOLS: SORTED ALPHABETICALLY BY Name 

address   name                                                                                                                                                                                                                                                 
-------   ----                                                                                                                                                                                                                                                 
00011dc5  ADC0Seq0_Handler                                                                                                                                                                                                                                     
00011dc7  ADC0Seq1_Handler                                                                                                                                                                                                                                     
00011dc9  ADC0Seq2_Handler                                                                                                                                                                                                                                     
00011dcb  ADC0Seq3_Handler                                                                                                                                                                                                                                     
00011e09  ADC1Seq0_Handler                                                                                                                                                                                                                                     
00011e0b  ADC1Seq1_Handler                                                                                                                                                                                                                                     
00011e0d  ADC1Seq2_Handler                                                                                                                                                                                                                                     
00011e0f  ADC1Seq3_Handler                                                                                                                                                                                                                                     
00019635  C$$EXIT                                                                                                                                                                                                                                              
00018a47  C$$IO$$                                                                                                                                                                                                                                              
00011df7  CAN0_Handler                                                                                                                                                                                                                                         
00011df9  CAN1_Handler                                                                                                                                                                                                                                         
00011dfb  CAN2_Handler                                                                                                                                                                                                                                         
00011ddb  Comp0_Handler                                                                                                                                                                                                                                        
00011ddd  Comp1_Handler                                                                                                                                                                                                                                        
00011ddf  Comp2_Handler                                                                                                                                                                                                                                        
00011da3  DebugMon_Handler                                                                                                                                                                                                                                     
00011e8d  DisableInterrupts                                                                                                                                                                                                                                    
00011e91  EnableInterrupts                                                                                                                                                                                                                                     
00011e9d  EndCritical                                                                                                                                                                                                                                          
00011dfd  Ethernet_Handler                                                                                                                                                                                                                                     
00011e13  ExtBus_Handler                                                                                                                                                                                                                                       
00011e4d  FPU_Handler                                                                                                                                                                                                                                          
00011e5d  Fan0_Handler                                                                                                                                                                                                                                         
00011de3  FlashCtl_Handler                                                                                                                                                                                                                                     
00011da9  GPIOPortA_Handler                                                                                                                                                                                                                                    
00011dab  GPIOPortB_Handler                                                                                                                                                                                                                                    
00011dad  GPIOPortC_Handler                                                                                                                                                                                                                                    
00011daf  GPIOPortD_Handler                                                                                                                                                                                                                                    
00011db1  GPIOPortE_Handler                                                                                                                                                                                                                                    
00011de5  GPIOPortF_Handler                                                                                                                                                                                                                                    
00011de7  GPIOPortG_Handler                                                                                                                                                                                                                                    
00011de9  GPIOPortH_Handler                                                                                                                                                                                                                                    
00011e15  GPIOPortJ_Handler                                                                                                                                                                                                                                    
00011e17  GPIOPortK_Handler                                                                                                                                                                                                                                    
00011e19  GPIOPortL_Handler                                                                                                                                                                                                                                    
00011e57  GPIOPortM_Handler                                                                                                                                                                                                                                    
00011e59  GPIOPortN_Handler                                                                                                                                                                                                                                    
00011e61  GPIOPortP1_Handler                                                                                                                                                                                                                                   
00011e63  GPIOPortP2_Handler                                                                                                                                                                                                                                   
00011e65  GPIOPortP3_Handler                                                                                                                                                                                                                                   
00011e67  GPIOPortP4_Handler                                                                                                                                                                                                                                   
00011e69  GPIOPortP5_Handler                                                                                                                                                                                                                                   
00011e6b  GPIOPortP6_Handler                                                                                                                                                                                                                                   
00011e6d  GPIOPortP7_Handler                                                                                                                                                                                                                                   
00011e5f  GPIOPortP_Handler                                                                                                                                                                                                                                    
00011e71  GPIOPortQ1_Handler                                                                                                                                                                                                                                   
00011e73  GPIOPortQ2_Handler                                                                                                                                                                                                                                   
00011e75  GPIOPortQ3_Handler                                                                                                                                                                                                                                   
00011e77  GPIOPortQ4_Handler                                                                                                                                                                                                                                   
00011e79  GPIOPortQ5_Handler                                                                                                                                                                                                                                   
00011e7b  GPIOPortQ6_Handler                                                                                                                                                                                                                                   
00011e7d  GPIOPortQ7_Handler                                                                                                                                                                                                                                   
00011e6f  GPIOPortQ_Handler                                                                                                                                                                                                                                    
00011e7f  GPIOPortR_Handler                                                                                                                                                                                                                                    
00011e81  GPIOPortS_Handler                                                                                                                                                                                                                                    
0000c8b7  HOSTclock                                                                                                                                                                                                                                            
0000c87f  HOSTclose                                                                                                                                                                                                                                            
0000c841  HOSTgetenv                                                                                                                                                                                                                                           
0000c7e5  HOSTlseek                                                                                                                                                                                                                                            
0000c793  HOSTopen                                                                                                                                                                                                                                             
0000c747  HOSTread                                                                                                                                                                                                                                             
0000c6e9  HOSTrename                                                                                                                                                                                                                                           
0000c6af  HOSTtime                                                                                                                                                                                                                                             
0000c661  HOSTtime64                                                                                                                                                                                                                                           
0000c629  HOSTunlink                                                                                                                                                                                                                                           
0000c5dd  HOSTwrite                                                                                                                                                                                                                                            
00011dff  Hibernate_Handler                                                                                                                                                                                                                                    
00011db9  I2C0_Handler                                                                                                                                                                                                                                         
00011df3  I2C1_Handler                                                                                                                                                                                                                                         
00011e29  I2C2_Handler                                                                                                                                                                                                                                         
00011e2b  I2C3_Handler                                                                                                                                                                                                                                         
00011e53  I2C4_Handler                                                                                                                                                                                                                                         
00011e55  I2C5_Handler                                                                                                                                                                                                                                         
00011e11  I2S0_Handler                                                                                                                                                                                                                                         
00011e51  LPC0_Handler                                                                                                                                                                                                                                         
00011e4f  PECI0_Handler                                                                                                                                                                                                                                        
00011dbb  PWM0Fault_Handler                                                                                                                                                                                                                                    
00011dbd  PWM0Generator0_Handler                                                                                                                                                                                                                               
00011dbf  PWM0Generator1_Handler                                                                                                                                                                                                                               
00011dc1  PWM0Generator2_Handler                                                                                                                                                                                                                               
00011e03  PWM0Generator3_Handler                                                                                                                                                                                                                               
00011e8b  PWM1Fault_Handler                                                                                                                                                                                                                                    
00011e83  PWM1Generator0_Handler                                                                                                                                                                                                                               
00011e85  PWM1Generator1_Handler                                                                                                                                                                                                                               
00011e87  PWM1Generator2_Handler                                                                                                                                                                                                                               
00011e89  PWM1Generator3_Handler                                                                                                                                                                                                                               
00011da5  PendSV_Handler                                                                                                                                                                                                                                       
00011dc3  Quadrature0_Handler                                                                                                                                                                                                                                  
00011df5  Quadrature1_Handler                                                                                                                                                                                                                                  
00011e5b  Quadrature2_Handler                                                                                                                                                                                                                                  
00011d95  ResetISR                                                                                                                                                                                                                                             
0001dbfc  SHT$$INIT_ARRAY$$Base                                                                                                                                                                                                                                
0001dc04  SHT$$INIT_ARRAY$$Limit                                                                                                                                                                                                                               
00011db7  SSI0_Handler                                                                                                                                                                                                                                         
00011ded  SSI1_Handler                                                                                                                                                                                                                                         
00011e1b  SSI2_Handler                                                                                                                                                                                                                                         
00011e1d  SSI3_Handler                                                                                                                                                                                                                                         
00011da1  SVC_Handler                                                                                                                                                                                                                                          
00011e95  StartCritical                                                                                                                                                                                                                                        
00011de1  SysCtl_Handler                                                                                                                                                                                                                                       
00011da7  SysTick_Handler                                                                                                                                                                                                                                      
00011dcf  Timer0A_Handler                                                                                                                                                                                                                                      
00011dd1  Timer0B_Handler                                                                                                                                                                                                                                      
00011dd3  Timer1A_Handler                                                                                                                                                                                                                                      
00011dd5  Timer1B_Handler                                                                                                                                                                                                                                      
00011dd7  Timer2A_Handler                                                                                                                                                                                                                                      
00011dd9  Timer2B_Handler                                                                                                                                                                                                                                      
00011def  Timer3A_Handler                                                                                                                                                                                                                                      
00011df1  Timer3B_Handler                                                                                                                                                                                                                                      
00011e2d  Timer4A_Handler                                                                                                                                                                                                                                      
00011e2f  Timer4B_Handler                                                                                                                                                                                                                                      
00011e31  Timer5A_Handler                                                                                                                                                                                                                                      
00011e33  Timer5B_Handler                                                                                                                                                                                                                                      
00011db3  UART0_Handler                                                                                                                                                                                                                                        
00011db5  UART1_Handler                                                                                                                                                                                                                                        
00011deb  UART2_Handler                                                                                                                                                                                                                                        
00011e1f  UART3_Handler                                                                                                                                                                                                                                        
00011e21  UART4_Handler                                                                                                                                                                                                                                        
00011e23  UART5_Handler                                                                                                                                                                                                                                        
00011e25  UART6_Handler                                                                                                                                                                                                                                        
00011e27  UART7_Handler                                                                                                                                                                                                                                        
00011e01  USB0_Handler                                                                                                                                                                                                                                         
00011dcd  WDT_Handler                                                                                                                                                                                                                                          
00011ea3  WaitForInterrupt                                                                                                                                                                                                                                     
00011e35  WideTimer0A_Handler                                                                                                                                                                                                                                  
00011e37  WideTimer0B_Handler                                                                                                                                                                                                                                  
00011e39  WideTimer1A_Handler                                                                                                                                                                                                                                  
00011e3b  WideTimer1B_Handler                                                                                                                                                                                                                                  
00011e3d  WideTimer2A_Handler                                                                                                                                                                                                                                  
00011e3f  WideTimer2B_Handler                                                                                                                                                                                                                                  
00011e41  WideTimer3A_Handler                                                                                                                                                                                                                                  
00011e43  WideTimer3B_Handler                                                                                                                                                                                                                                  
00011e45  WideTimer4A_Handler                                                                                                                                                                                                                                  
00011e47  WideTimer4B_Handler                                                                                                                                                                                                                                  
00011e49  WideTimer5A_Handler                                                                                                                                                                                                                                  
00011e4b  WideTimer5B_Handler                                                                                                                                                                                                                                  
00004281  _Locale_abbrev_dayofweek                                                                                                                                                                                                                             
00004297  _Locale_abbrev_monthname                                                                                                                                                                                                                             
000042ab  _Locale_am_str                                                                                                                                                                                                                                       
00007d47  _Locale_catclose                                                                                                                                                                                                                                     
000019b5  _Locale_catgets                                                                                                                                                                                                                                      
00001a85  _Locale_catopen                                                                                                                                                                                                                                      
00000d1d  _Locale_codecvt_create                                                                                                                                                                                                                               
00007d45  _Locale_codecvt_destroy                                                                                                                                                                                                                              
00000c47  _Locale_codecvt_name                                                                                                                                                                                                                                 
00000cd5  _Locale_collate_create                                                                                                                                                                                                                               
00000cdf  _Locale_collate_default                                                                                                                                                                                                                              
00007d43  _Locale_collate_destroy                                                                                                                                                                                                                              
00000c29  _Locale_collate_name                                                                                                                                                                                                                                 
00000d39  _Locale_ctype_create                                                                                                                                                                                                                                 
00000d43  _Locale_ctype_default                                                                                                                                                                                                                                
00007d41  _Locale_ctype_destroy                                                                                                                                                                                                                                
00000c51  _Locale_ctype_name                                                                                                                                                                                                                                   
00005f01  _Locale_ctype_table                                                                                                                                                                                                                                  
00001e2d  _Locale_currency_symbol                                                                                                                                                                                                                              
00003f67  _Locale_d_fmt                                                                                                                                                                                                                                        
00003f6b  _Locale_d_t_fmt                                                                                                                                                                                                                                      
000022e1  _Locale_decimal_point                                                                                                                                                                                                                                
00000ccb  _Locale_extract_collate_name                                                                                                                                                                                                                         
00000d2d  _Locale_extract_ctype_name                                                                                                                                                                                                                           
00000c77  _Locale_extract_messages_name                                                                                                                                                                                                                        
00000caf  _Locale_extract_monetary_name                                                                                                                                                                                                                        
00000d05  _Locale_extract_numeric_name                                                                                                                                                                                                                         
00000ce7  _Locale_extract_time_name                                                                                                                                                                                                                            
0000228b  _Locale_false                                                                                                                                                                                                                                        
00007d3f  _Locale_final                                                                                                                                                                                                                                        
00001cd3  _Locale_frac_digits                                                                                                                                                                                                                                  
0000428d  _Locale_full_dayofweek                                                                                                                                                                                                                               
000042a1  _Locale_full_monthname                                                                                                                                                                                                                               
000064d9  _Locale_get_collate_hint                                                                                                                                                                                                                             
00005efd  _Locale_get_ctype_hint                                                                                                                                                                                                                               
00007d3b  _Locale_get_messages_hint                                                                                                                                                                                                                            
00006625  _Locale_get_monetary_hint                                                                                                                                                                                                                            
000060f5  _Locale_get_numeric_hint                                                                                                                                                                                                                             
0000631d  _Locale_get_time_hint                                                                                                                                                                                                                                
0000221b  _Locale_grouping                                                                                                                                                                                                                                     
0000026d  _Locale_init                                                                                                                                                                                                                                         
00001da9  _Locale_int_curr_symbol                                                                                                                                                                                                                              
00001bfd  _Locale_int_frac_digits                                                                                                                                                                                                                              
00003f6f  _Locale_long_d_fmt                                                                                                                                                                                                                                   
00003f73  _Locale_long_d_t_fmt                                                                                                                                                                                                                                 
00000c9d  _Locale_messages_create                                                                                                                                                                                                                              
00000ca7  _Locale_messages_default                                                                                                                                                                                                                             
00007d39  _Locale_messages_destroy                                                                                                                                                                                                                             
00000c15  _Locale_messages_name                                                                                                                                                                                                                                
00001c91  _Locale_mon_decimal_point                                                                                                                                                                                                                            
00001c71  _Locale_mon_grouping                                                                                                                                                                                                                                 
00001c89  _Locale_mon_thousands_sep                                                                                                                                                                                                                            
00000cb9  _Locale_monetary_create                                                                                                                                                                                                                              
00000cc3  _Locale_monetary_default                                                                                                                                                                                                                             
00007d37  _Locale_monetary_destroy                                                                                                                                                                                                                             
00000c1f  _Locale_monetary_name                                                                                                                                                                                                                                
00006645  _Locale_n_cs_precedes                                                                                                                                                                                                                                
00006649  _Locale_n_sep_by_space                                                                                                                                                                                                                               
00006641  _Locale_n_sign_posn                                                                                                                                                                                                                                  
00001d75  _Locale_negative_sign                                                                                                                                                                                                                                
00000d0b  _Locale_numeric_create                                                                                                                                                                                                                               
00000d15  _Locale_numeric_default                                                                                                                                                                                                                              
00007d35  _Locale_numeric_destroy                                                                                                                                                                                                                              
00000c3d  _Locale_numeric_name                                                                                                                                                                                                                                 
00006635  _Locale_p_cs_precedes                                                                                                                                                                                                                                
00006639  _Locale_p_sep_by_space                                                                                                                                                                                                                               
0000662d  _Locale_p_sign_posn                                                                                                                                                                                                                                  
000042af  _Locale_pm_str                                                                                                                                                                                                                                       
00001d8d  _Locale_positive_sign                                                                                                                                                                                                                                
000025fd  _Locale_strcmp                                                                                                                                                                                                                                       
00002535  _Locale_strxfrm                                                                                                                                                                                                                                      
00003f63  _Locale_t_fmt                                                                                                                                                                                                                                        
000022d9  _Locale_thousands_sep                                                                                                                                                                                                                                
00000ced  _Locale_time_create                                                                                                                                                                                                                                  
00000cf7  _Locale_time_default                                                                                                                                                                                                                                 
00007d33  _Locale_time_destroy                                                                                                                                                                                                                                 
00000c33  _Locale_time_name                                                                                                                                                                                                                                    
00002c07  _Locale_tolower                                                                                                                                                                                                                                      
00002c33  _Locale_toupper                                                                                                                                                                                                                                      
000022a3  _Locale_true                                                                                                                                                                                                                                         
00003f35  _WLocale_abbrev_dayofweek                                                                                                                                                                                                                            
00003f47  _WLocale_abbrev_monthname                                                                                                                                                                                                                            
00003f5b  _WLocale_am_str                                                                                                                                                                                                                                      
00002a99  _WLocale_ctype                                                                                                                                                                                                                                       
00001d17  _WLocale_currency_symbol                                                                                                                                                                                                                             
00002245  _WLocale_decimal_point                                                                                                                                                                                                                               
000021df  _WLocale_false                                                                                                                                                                                                                                       
00003f3d  _WLocale_full_dayofweek                                                                                                                                                                                                                              
00003f51  _WLocale_full_monthname                                                                                                                                                                                                                              
00001c53  _WLocale_int_curr_symbol                                                                                                                                                                                                                             
00002803  _WLocale_is_stateless                                                                                                                                                                                                                                
000027b5  _WLocale_mb_cur_max                                                                                                                                                                                                                                  
00002811  _WLocale_mb_cur_min                                                                                                                                                                                                                                  
000027bd  _WLocale_mbtowc                                                                                                                                                                                                                                      
00007d2f  _WLocale_mon_decimal_point                                                                                                                                                                                                                           
00007d2b  _WLocale_mon_thousands_sep                                                                                                                                                                                                                           
00001c05  _WLocale_negative_sign                                                                                                                                                                                                                               
00003f5f  _WLocale_pm_str                                                                                                                                                                                                                                      
00001c27  _WLocale_positive_sign                                                                                                                                                                                                                               
00002449  _WLocale_strcmp                                                                                                                                                                                                                                      
00002397  _WLocale_strxfrm                                                                                                                                                                                                                                     
0000223d  _WLocale_thousands_sep                                                                                                                                                                                                                               
00002a39  _WLocale_tolower                                                                                                                                                                                                                                     
00002a69  _WLocale_toupper                                                                                                                                                                                                                                     
000021fd  _WLocale_true                                                                                                                                                                                                                                        
00002839  _WLocale_unshift                                                                                                                                                                                                                                     
000028ad  _WLocale_wctomb                                                                                                                                                                                                                                      
00000c81  _Z14_Locale_createPKcPi                                                                                                                                                                                                                              
0001a80b  _Z21__default_new_handlerv                                                                                                                                                                                                                           
000147f1  _Z5delayj                                                                                                                                                                                                                                            
000147a7  _Z9initPortFv                                                                                                                                                                                                                                        
00015b99  _ZN10__cxxabiv116__enum_type_infoD0Ev                                                                                                                                                                                                                
00015b97  _ZN10__cxxabiv116__enum_type_infoD1Ev                                                                                                                                                                                                                
00015b97  _ZN10__cxxabiv116__enum_type_infoD2Ev                                                                                                                                                                                                                
00015b8f  _ZN10__cxxabiv117__array_type_infoD0Ev                                                                                                                                                                                                               
00015b8d  _ZN10__cxxabiv117__array_type_infoD1Ev                                                                                                                                                                                                               
00015b8d  _ZN10__cxxabiv117__array_type_infoD2Ev                                                                                                                                                                                                               
00015b85  _ZN10__cxxabiv117__class_type_infoD0Ev                                                                                                                                                                                                               
00015b83  _ZN10__cxxabiv117__class_type_infoD1Ev                                                                                                                                                                                                               
00015b83  _ZN10__cxxabiv117__class_type_infoD2Ev                                                                                                                                                                                                               
00015b7b  _ZN10__cxxabiv117__pbase_type_infoD0Ev                                                                                                                                                                                                               
00015b79  _ZN10__cxxabiv117__pbase_type_infoD1Ev                                                                                                                                                                                                               
00015b79  _ZN10__cxxabiv117__pbase_type_infoD2Ev                                                                                                                                                                                                               
00015b71  _ZN10__cxxabiv119__pointer_type_infoD0Ev                                                                                                                                                                                                             
00015b6f  _ZN10__cxxabiv119__pointer_type_infoD1Ev                                                                                                                                                                                                             
00015b6f  _ZN10__cxxabiv119__pointer_type_infoD2Ev                                                                                                                                                                                                             
00015b67  _ZN10__cxxabiv120__function_type_infoD0Ev                                                                                                                                                                                                            
00015b65  _ZN10__cxxabiv120__function_type_infoD1Ev                                                                                                                                                                                                            
00015b65  _ZN10__cxxabiv120__function_type_infoD2Ev                                                                                                                                                                                                            
00015b5d  _ZN10__cxxabiv120__si_class_type_infoD0Ev                                                                                                                                                                                                            
00015b5b  _ZN10__cxxabiv120__si_class_type_infoD1Ev                                                                                                                                                                                                            
00015b5b  _ZN10__cxxabiv120__si_class_type_infoD2Ev                                                                                                                                                                                                            
00015b53  _ZN10__cxxabiv121__vmi_class_type_infoD0Ev                                                                                                                                                                                                           
00015b51  _ZN10__cxxabiv121__vmi_class_type_infoD1Ev                                                                                                                                                                                                           
00015b51  _ZN10__cxxabiv121__vmi_class_type_infoD2Ev                                                                                                                                                                                                           
00015b49  _ZN10__cxxabiv123__fundamental_type_infoD0Ev                                                                                                                                                                                                         
00015b47  _ZN10__cxxabiv123__fundamental_type_infoD1Ev                                                                                                                                                                                                         
00015b47  _ZN10__cxxabiv123__fundamental_type_infoD2Ev                                                                                                                                                                                                         
00015b3f  _ZN10__cxxabiv129__pointer_to_member_type_infoD0Ev                                                                                                                                                                                                   
00015b3d  _ZN10__cxxabiv129__pointer_to_member_type_infoD1Ev                                                                                                                                                                                                   
00015b3d  _ZN10__cxxabiv129__pointer_to_member_type_infoD2Ev                                                                                                                                                                                                   
0001ac8d  _ZNKSbIcSt11char_traitsIcENSt4priv20__iostring_allocatorIcEEE4findEcj                                                                                                                                                                                
00007d27  _ZNKSt10istrstream5rdbufEv                                                                                                                                                                                                                           
00002185  _ZNKSt10moneypunctIcLb0EE11do_groupingEv                                                                                                                                                                                                             
0001b545  _ZNKSt10moneypunctIcLb0EE13decimal_pointEv                                                                                                                                                                                                           
00002161  _ZNKSt10moneypunctIcLb0EE13do_neg_formatEv                                                                                                                                                                                                           
00002165  _ZNKSt10moneypunctIcLb0EE13do_pos_formatEv                                                                                                                                                                                                           
0000217d  _ZNKSt10moneypunctIcLb0EE14do_curr_symbolEv                                                                                                                                                                                                          
00002169  _ZNKSt10moneypunctIcLb0EE14do_frac_digitsEv                                                                                                                                                                                                          
00002191  _ZNKSt10moneypunctIcLb0EE16do_decimal_pointEv                                                                                                                                                                                                        
0000216d  _ZNKSt10moneypunctIcLb0EE16do_negative_signEv                                                                                                                                                                                                        
00002175  _ZNKSt10moneypunctIcLb0EE16do_positive_signEv                                                                                                                                                                                                        
0000218d  _ZNKSt10moneypunctIcLb0EE16do_thousands_sepEv                                                                                                                                                                                                        
000021c7  _ZNKSt10moneypunctIcLb1EE11do_groupingEv                                                                                                                                                                                                             
0000219f  _ZNKSt10moneypunctIcLb1EE13do_neg_formatEv                                                                                                                                                                                                           
000021a3  _ZNKSt10moneypunctIcLb1EE13do_pos_formatEv                                                                                                                                                                                                           
000021c1  _ZNKSt10moneypunctIcLb1EE14do_curr_symbolEv                                                                                                                                                                                                          
000021a7  _ZNKSt10moneypunctIcLb1EE14do_frac_digitsEv                                                                                                                                                                                                          
000021d1  _ZNKSt10moneypunctIcLb1EE16do_decimal_pointEv                                                                                                                                                                                                        
000021b1  _ZNKSt10moneypunctIcLb1EE16do_negative_signEv                                                                                                                                                                                                        
000021b9  _ZNKSt10moneypunctIcLb1EE16do_positive_signEv                                                                                                                                                                                                        
000021cd  _ZNKSt10moneypunctIcLb1EE16do_thousands_sepEv                                                                                                                                                                                                        
00002109  _ZNKSt10moneypunctIwLb0EE11do_groupingEv                                                                                                                                                                                                             
0001b54f  _ZNKSt10moneypunctIwLb0EE13decimal_pointEv                                                                                                                                                                                                           
000020eb  _ZNKSt10moneypunctIwLb0EE13do_neg_formatEv                                                                                                                                                                                                           
000020ef  _ZNKSt10moneypunctIwLb0EE13do_pos_formatEv                                                                                                                                                                                                           
00002103  _ZNKSt10moneypunctIwLb0EE14do_curr_symbolEv                                                                                                                                                                                                          
000020f3  _ZNKSt10moneypunctIwLb0EE14do_frac_digitsEv                                                                                                                                                                                                          
00002115  _ZNKSt10moneypunctIwLb0EE16do_decimal_pointEv                                                                                                                                                                                                        
000020f7  _ZNKSt10moneypunctIwLb0EE16do_negative_signEv                                                                                                                                                                                                        
000020fd  _ZNKSt10moneypunctIwLb0EE16do_positive_signEv                                                                                                                                                                                                        
00002111  _ZNKSt10moneypunctIwLb0EE16do_thousands_sepEv                                                                                                                                                                                                        
00002147  _ZNKSt10moneypunctIwLb1EE11do_groupingEv                                                                                                                                                                                                             
0001b559  _ZNKSt10moneypunctIwLb1EE13decimal_pointEv                                                                                                                                                                                                           
00002123  _ZNKSt10moneypunctIwLb1EE13do_neg_formatEv                                                                                                                                                                                                           
00002127  _ZNKSt10moneypunctIwLb1EE13do_pos_formatEv                                                                                                                                                                                                           
00002141  _ZNKSt10moneypunctIwLb1EE14do_curr_symbolEv                                                                                                                                                                                                          
00002131  _ZNKSt10moneypunctIwLb1EE14do_frac_digitsEv                                                                                                                                                                                                          
00002153  _ZNKSt10moneypunctIwLb1EE16do_decimal_pointEv                                                                                                                                                                                                        
00002135  _ZNKSt10moneypunctIwLb1EE16do_negative_signEv                                                                                                                                                                                                        
0000213b  _ZNKSt10moneypunctIwLb1EE16do_positive_signEv                                                                                                                                                                                                        
0000214f  _ZNKSt10moneypunctIwLb1EE16do_thousands_sepEv                                                                                                                                                                                                        
00007d23  _ZNKSt10ostrstream5rdbufEv                                                                                                                                                                                                                           
00007d1d  _ZNKSt10ostrstream6pcountEv                                                                                                                                                                                                                          
0000032f  _ZNKSt12_Locale_impl4Init8_M_countEv                                                                                                                                                                                                                 
00002c15  _ZNKSt12ctype_bynameIcE10do_tolowerEPcPKc                                                                                                                                                                                                            
00002c5f  _ZNKSt12ctype_bynameIcE10do_tolowerEc                                                                                                                                                                                                                
00002c41  _ZNKSt12ctype_bynameIcE10do_toupperEPcPKc                                                                                                                                                                                                            
00002c69  _ZNKSt12ctype_bynameIcE10do_toupperEc                                                                                                                                                                                                                
00002b5f  _ZNKSt12ctype_bynameIwE10do_scan_isENSt10ctype_base4maskEPKwS4_                                                                                                                                                                                      
00002a3f  _ZNKSt12ctype_bynameIwE10do_tolowerEPwPKw                                                                                                                                                                                                            
00002a5f  _ZNKSt12ctype_bynameIwE10do_tolowerEw                                                                                                                                                                                                                
00002a6f  _ZNKSt12ctype_bynameIwE10do_toupperEPwPKw                                                                                                                                                                                                            
00002a8f  _ZNKSt12ctype_bynameIwE10do_toupperEw                                                                                                                                                                                                                
00002b33  _ZNKSt12ctype_bynameIwE11do_scan_notENSt10ctype_base4maskEPKwS4_                                                                                                                                                                                     
00002b9f  _ZNKSt12ctype_bynameIwE5do_isENSt10ctype_base4maskEw                                                                                                                                                                                                 
00002b77  _ZNKSt12ctype_bynameIwE5do_isEPKwS2_PNSt10ctype_base4maskE                                                                                                                                                                                           
00007d03  _ZNKSt12strstreambuf6pcountEv                                                                                                                                                                                                                        
00002841  _ZNKSt14codecvt_bynameIwciE10do_unshiftERiPcS2_RS2_                                                                                                                                                                                                  
00002819  _ZNKSt14codecvt_bynameIwciE11do_encodingEv                                                                                                                                                                                                           
000027b9  _ZNKSt14codecvt_bynameIwciE13do_max_lengthEv                                                                                                                                                                                                         
000027ff  _ZNKSt14codecvt_bynameIwciE16do_always_noconvEv                                                                                                                                                                                                      
0000286d  _ZNKSt14codecvt_bynameIwciE5do_inERiPKcS3_RS3_PwS5_RS5_                                                                                                                                                                                              
000028b3  _ZNKSt14codecvt_bynameIwciE6do_outERiPKwS3_RS3_PcS5_RS5_                                                                                                                                                                                             
000027c9  _ZNKSt14codecvt_bynameIwciE9do_lengthERiPKcS3_j                                                                                                                                                                                                      
0000266f  _ZNKSt14collate_bynameIcE10do_compareEPKcS2_S2_S2_                                                                                                                                                                                                   
00002575  _ZNKSt14collate_bynameIcE12do_transformEPKcS2_                                                                                                                                                                                                       
000024c3  _ZNKSt14collate_bynameIwE10do_compareEPKwS2_S2_S2_                                                                                                                                                                                                   
000023b9  _ZNKSt14collate_bynameIwE12do_transformEPKwS2_                                                                                                                                                                                                       
00001bc3  _ZNKSt15messages_bynameIcE6do_getEiiiRKSs                                                                                                                                                                                                            
00001bd5  _ZNKSt15messages_bynameIcE7do_openERKSsRKSt6locale                                                                                                                                                                                                   
00001b77  _ZNKSt15messages_bynameIcE8do_closeEi                                                                                                                                                                                                                
00001a73  _ZNKSt15messages_bynameIwE6do_getEiiiRKSbIwSt11char_traitsIwESaIwEE                                                                                                                                                                                  
00001b6d  _ZNKSt15messages_bynameIwE7do_openERKSsRKSt6locale                                                                                                                                                                                                   
00001921  _ZNKSt15messages_bynameIwE8do_closeEi                                                                                                                                                                                                                
000022bb  _ZNKSt15numpunct_bynameIcE11do_groupingEv                                                                                                                                                                                                            
000022a7  _ZNKSt15numpunct_bynameIcE11do_truenameEv                                                                                                                                                                                                            
0000228f  _ZNKSt15numpunct_bynameIcE12do_falsenameEv                                                                                                                                                                                                           
000022e5  _ZNKSt15numpunct_bynameIcE16do_decimal_pointEv                                                                                                                                                                                                       
000022dd  _ZNKSt15numpunct_bynameIcE16do_thousands_sepEv                                                                                                                                                                                                       
0000221f  _ZNKSt15numpunct_bynameIwE11do_groupingEv                                                                                                                                                                                                            
00002201  _ZNKSt15numpunct_bynameIwE11do_truenameEv                                                                                                                                                                                                            
000021e3  _ZNKSt15numpunct_bynameIwE12do_falsenameEv                                                                                                                                                                                                           
00002249  _ZNKSt15numpunct_bynameIwE16do_decimal_pointEv                                                                                                                                                                                                       
00002241  _ZNKSt15numpunct_bynameIwE16do_thousands_sepEv                                                                                                                                                                                                       
0001b639  _ZNKSt15time_get_bynameIcSt19istreambuf_iteratorIcSt11char_traitsIcEEE13do_date_orderEv                                                                                                                                                              
0001b63f  _ZNKSt15time_get_bynameIwSt19istreambuf_iteratorIwSt11char_traitsIwEEE13do_date_orderEv                                                                                                                                                              
00001e45  _ZNKSt17moneypunct_bynameIcLb0EE11do_groupingEv                                                                                                                                                                                                      
00001e31  _ZNKSt17moneypunct_bynameIcLb0EE14do_curr_symbolEv                                                                                                                                                                                                   
00001e01  _ZNKSt17moneypunct_bynameIcLb0EE14do_frac_digitsEv                                                                                                                                                                                                   
00001e5d  _ZNKSt17moneypunct_bynameIcLb0EE16do_decimal_pointEv                                                                                                                                                                                                 
00001e05  _ZNKSt17moneypunct_bynameIcLb0EE16do_negative_signEv                                                                                                                                                                                                 
00001e19  _ZNKSt17moneypunct_bynameIcLb0EE16do_positive_signEv                                                                                                                                                                                                 
00001e59  _ZNKSt17moneypunct_bynameIcLb0EE16do_thousands_sepEv                                                                                                                                                                                                 
00001dc5  _ZNKSt17moneypunct_bynameIcLb1EE11do_groupingEv                                                                                                                                                                                                      
00001dad  _ZNKSt17moneypunct_bynameIcLb1EE14do_curr_symbolEv                                                                                                                                                                                                   
00001d71  _ZNKSt17moneypunct_bynameIcLb1EE14do_frac_digitsEv                                                                                                                                                                                                   
00001ddd  _ZNKSt17moneypunct_bynameIcLb1EE16do_decimal_pointEv                                                                                                                                                                                                 
00001d79  _ZNKSt17moneypunct_bynameIcLb1EE16do_negative_signEv                                                                                                                                                                                                 
00001d95  _ZNKSt17moneypunct_bynameIcLb1EE16do_positive_signEv                                                                                                                                                                                                 
00001dd9  _ZNKSt17moneypunct_bynameIcLb1EE16do_thousands_sepEv                                                                                                                                                                                                 
00001d35  _ZNKSt17moneypunct_bynameIwLb0EE11do_groupingEv                                                                                                                                                                                                      
00001d1b  _ZNKSt17moneypunct_bynameIwLb0EE14do_curr_symbolEv                                                                                                                                                                                                   
00001cd7  _ZNKSt17moneypunct_bynameIwLb0EE14do_frac_digitsEv                                                                                                                                                                                                   
00001d4d  _ZNKSt17moneypunct_bynameIwLb0EE16do_decimal_pointEv                                                                                                                                                                                                 
00001ce3  _ZNKSt17moneypunct_bynameIwLb0EE16do_negative_signEv                                                                                                                                                                                                 
00001cfd  _ZNKSt17moneypunct_bynameIwLb0EE16do_positive_signEv                                                                                                                                                                                                 
00001d49  _ZNKSt17moneypunct_bynameIwLb0EE16do_thousands_sepEv                                                                                                                                                                                                 
00001c75  _ZNKSt17moneypunct_bynameIwLb1EE11do_groupingEv                                                                                                                                                                                                      
00001c57  _ZNKSt17moneypunct_bynameIwLb1EE14do_curr_symbolEv                                                                                                                                                                                                   
00001c01  _ZNKSt17moneypunct_bynameIwLb1EE14do_frac_digitsEv                                                                                                                                                                                                   
00001c95  _ZNKSt17moneypunct_bynameIwLb1EE16do_decimal_pointEv                                                                                                                                                                                                 
00001c0d  _ZNKSt17moneypunct_bynameIwLb1EE16do_negative_signEv                                                                                                                                                                                                 
00001c39  _ZNKSt17moneypunct_bynameIwLb1EE16do_positive_signEv                                                                                                                                                                                                 
00001c8d  _ZNKSt17moneypunct_bynameIwLb1EE16do_thousands_sepEv                                                                                                                                                                                                 
00018201  _ZNKSt19istreambuf_iteratorIcSt11char_traitsIcEE5equalERKS2_                                                                                                                                                                                         
0001a559  _ZNKSt19istreambuf_iteratorIcSt11char_traitsIcEE7_M_getcEv                                                                                                                                                                                           
00018271  _ZNKSt19istreambuf_iteratorIwSt11char_traitsIwEE5equalERKS2_                                                                                                                                                                                         
0001a58b  _ZNKSt19istreambuf_iteratorIwSt11char_traitsIwEE7_M_getcEv                                                                                                                                                                                           
0001b4fd  _ZNKSt4priv12_String_baseIcNS_20__iostring_allocatorIcEEE21_M_throw_length_errorEv                                                                                                                                                                   
0001b509  _ZNKSt4priv12_String_baseIcSaIcEE21_M_throw_length_errorEv                                                                                                                                                                                           
0001b515  _ZNKSt4priv12_String_baseIwNS_20__iostring_allocatorIwEEE21_M_throw_length_errorEv                                                                                                                                                                   
0001b521  _ZNKSt4priv12_String_baseIwSaIwEE21_M_throw_length_errorEv                                                                                                                                                                                           
0001b52d  _ZNKSt4priv12_Vector_baseIPNSt6locale5facetESaIS3_EE21_M_throw_length_errorEv                                                                                                                                                                        
00001959  _ZNKSt4priv19_Catalog_locale_map6lookupEi                                                                                                                                                                                                            
000019c1  _ZNKSt4priv9_Messages6do_getEiiiRKSbIwSt11char_traitsIwESaIwEE                                                                                                                                                                                       
00001b7d  _ZNKSt4priv9_Messages6do_getEiiiRKSs                                                                                                                                                                                                                 
00001b45  _ZNKSt4priv9_Messages7do_openERKSsRKSt6locale                                                                                                                                                                                                        
00001917  _ZNKSt4priv9_Messages8do_closeEi                                                                                                                                                                                                                     
0000c21f  _ZNKSt5ctypeIcE10do_tolowerEPcPKc                                                                                                                                                                                                                    
0000c219  _ZNKSt5ctypeIcE10do_tolowerEc                                                                                                                                                                                                                        
0000c1ff  _ZNKSt5ctypeIcE10do_toupperEPcPKc                                                                                                                                                                                                                    
0000c1f9  _ZNKSt5ctypeIcE10do_toupperEc                                                                                                                                                                                                                        
0001b563  _ZNKSt5ctypeIcE5widenEc                                                                                                                                                                                                                              
0000c17d  _ZNKSt5ctypeIcE7scan_isENSt10ctype_base4maskEPKcS4_                                                                                                                                                                                                  
0000c161  _ZNKSt5ctypeIcE8do_widenEPKcS2_Pc                                                                                                                                                                                                                    
0000c15d  _ZNKSt5ctypeIcE8do_widenEc                                                                                                                                                                                                                           
0000c0e1  _ZNKSt5ctypeIcE8scan_notENSt10ctype_base4maskEPKcS4_                                                                                                                                                                                                 
0000c0cd  _ZNKSt5ctypeIcE9do_narrowEPKcS2_cPc                                                                                                                                                                                                                  
0000c0c9  _ZNKSt5ctypeIcE9do_narrowEcc                                                                                                                                                                                                                         
0000c013  _ZNKSt5ctypeIwE10do_scan_isENSt10ctype_base4maskEPKwS4_                                                                                                                                                                                              
0000bff1  _ZNKSt5ctypeIwE10do_tolowerEPwPKw                                                                                                                                                                                                                    
0000bfe5  _ZNKSt5ctypeIwE10do_tolowerEw                                                                                                                                                                                                                        
0000bfc3  _ZNKSt5ctypeIwE10do_toupperEPwPKw                                                                                                                                                                                                                    
0000bfb7  _ZNKSt5ctypeIwE10do_toupperEw                                                                                                                                                                                                                        
0000bf89  _ZNKSt5ctypeIwE11do_scan_notENSt10ctype_base4maskEPKwS4_                                                                                                                                                                                             
0000bf73  _ZNKSt5ctypeIwE5do_isENSt10ctype_base4maskEw                                                                                                                                                                                                         
0000bf49  _ZNKSt5ctypeIwE5do_isEPKwS2_PNSt10ctype_base4maskE                                                                                                                                                                                                   
0001b56d  _ZNKSt5ctypeIwE5widenEPKcS2_Pw                                                                                                                                                                                                                       
0001b577  _ZNKSt5ctypeIwE5widenEc                                                                                                                                                                                                                              
0000bf31  _ZNKSt5ctypeIwE8do_widenEPKcS2_Pw                                                                                                                                                                                                                    
0000bf2d  _ZNKSt5ctypeIwE8do_widenEc                                                                                                                                                                                                                           
0000bf09  _ZNKSt5ctypeIwE9do_narrowEPKwS2_cPc                                                                                                                                                                                                                  
0000befd  _ZNKSt5ctypeIwE9do_narrowEwc                                                                                                                                                                                                                         
0000107d  _ZNKSt6locale12_M_get_facetERKNS_2idE                                                                                                                                                                                                                
00001097  _ZNKSt6locale12_M_use_facetERKNS_2idE                                                                                                                                                                                                                
000036eb  _ZNKSt6locale4nameEv                                                                                                                                                                                                                                 
000036f3  _ZNKSt6localeeqERKS_                                                                                                                                                                                                                                 
0000379f  _ZNKSt6localeneERKS_                                                                                                                                                                                                                                 
00002a0b  _ZNKSt7codecvtIcciE10do_unshiftERiPcS2_RS2_                                                                                                                                                                                                          
00002a07  _ZNKSt7codecvtIcciE11do_encodingEv                                                                                                                                                                                                                   
000029eb  _ZNKSt7codecvtIcciE13do_max_lengthEv                                                                                                                                                                                                                 
00002a03  _ZNKSt7codecvtIcciE16do_always_noconvEv                                                                                                                                                                                                              
00002a13  _ZNKSt7codecvtIcciE5do_inERiPKcS3_RS3_PcS5_RS5_                                                                                                                                                                                                      
00002a21  _ZNKSt7codecvtIcciE6do_outERiPKcS3_RS3_PcS5_RS5_                                                                                                                                                                                                     
000029ef  _ZNKSt7codecvtIcciE9do_lengthERiPKcS3_j                                                                                                                                                                                                              
0000294d  _ZNKSt7codecvtIwciE10do_unshiftERiPcS2_RS2_                                                                                                                                                                                                          
00002949  _ZNKSt7codecvtIwciE11do_encodingEv                                                                                                                                                                                                                   
0000292d  _ZNKSt7codecvtIwciE13do_max_lengthEv                                                                                                                                                                                                                 
00002945  _ZNKSt7codecvtIwciE16do_always_noconvEv                                                                                                                                                                                                              
00002959  _ZNKSt7codecvtIwciE5do_inERiPKcS3_RS3_PwS5_RS5_                                                                                                                                                                                                      
0000299b  _ZNKSt7codecvtIwciE6do_outERiPKwS3_RS3_PcS5_RS5_                                                                                                                                                                                                     
00002931  _ZNKSt7codecvtIwciE9do_lengthERiPKcS3_j                                                                                                                                                                                                              
00002773  _ZNKSt7collateIcE10do_compareEPKcS2_S2_S2_                                                                                                                                                                                                           
00002747  _ZNKSt7collateIcE12do_transformEPKcS2_                                                                                                                                                                                                               
0000272b  _ZNKSt7collateIcE7do_hashEPKcS2_                                                                                                                                                                                                                     
000026eb  _ZNKSt7collateIwE10do_compareEPKwS2_S2_S2_                                                                                                                                                                                                           
000026bd  _ZNKSt7collateIwE12do_transformEPKwS2_                                                                                                                                                                                                               
0000269f  _ZNKSt7collateIwE7do_hashEPKwS2_                                                                                                                                                                                                                     
00019dc3  _ZNKSt7num_getIcSt19istreambuf_iteratorIcSt11char_traitsIcEEE6do_getES3_S3_RSt8ios_baseRiRPv                                                                                                                                                         
0001811d  _ZNKSt7num_getIcSt19istreambuf_iteratorIcSt11char_traitsIcEEE6do_getES3_S3_RSt8ios_baseRiRb                                                                                                                                                          
0001a8f5  _ZNKSt7num_getIcSt19istreambuf_iteratorIcSt11char_traitsIcEEE6do_getES3_S3_RSt8ios_baseRiRd                                                                                                                                                          
0001a921  _ZNKSt7num_getIcSt19istreambuf_iteratorIcSt11char_traitsIcEEE6do_getES3_S3_RSt8ios_baseRiRe                                                                                                                                                          
0001a94d  _ZNKSt7num_getIcSt19istreambuf_iteratorIcSt11char_traitsIcEEE6do_getES3_S3_RSt8ios_baseRiRf                                                                                                                                                          
0001a979  _ZNKSt7num_getIcSt19istreambuf_iteratorIcSt11char_traitsIcEEE6do_getES3_S3_RSt8ios_baseRiRj                                                                                                                                                          
0001a9a5  _ZNKSt7num_getIcSt19istreambuf_iteratorIcSt11char_traitsIcEEE6do_getES3_S3_RSt8ios_baseRiRl                                                                                                                                                          
0001a9d1  _ZNKSt7num_getIcSt19istreambuf_iteratorIcSt11char_traitsIcEEE6do_getES3_S3_RSt8ios_baseRiRm                                                                                                                                                          
0001a9fd  _ZNKSt7num_getIcSt19istreambuf_iteratorIcSt11char_traitsIcEEE6do_getES3_S3_RSt8ios_baseRiRt                                                                                                                                                          
0001aa29  _ZNKSt7num_getIcSt19istreambuf_iteratorIcSt11char_traitsIcEEE6do_getES3_S3_RSt8ios_baseRiRx                                                                                                                                                          
0001aa55  _ZNKSt7num_getIcSt19istreambuf_iteratorIcSt11char_traitsIcEEE6do_getES3_S3_RSt8ios_baseRiRy                                                                                                                                                          
00019e07  _ZNKSt7num_getIwSt19istreambuf_iteratorIwSt11char_traitsIwEEE6do_getES3_S3_RSt8ios_baseRiRPv                                                                                                                                                         
0001818f  _ZNKSt7num_getIwSt19istreambuf_iteratorIwSt11char_traitsIwEEE6do_getES3_S3_RSt8ios_baseRiRb                                                                                                                                                          
0001aa81  _ZNKSt7num_getIwSt19istreambuf_iteratorIwSt11char_traitsIwEEE6do_getES3_S3_RSt8ios_baseRiRd                                                                                                                                                          
0001aaad  _ZNKSt7num_getIwSt19istreambuf_iteratorIwSt11char_traitsIwEEE6do_getES3_S3_RSt8ios_baseRiRe                                                                                                                                                          
0001aad9  _ZNKSt7num_getIwSt19istreambuf_iteratorIwSt11char_traitsIwEEE6do_getES3_S3_RSt8ios_baseRiRf                                                                                                                                                          
0001ab05  _ZNKSt7num_getIwSt19istreambuf_iteratorIwSt11char_traitsIwEEE6do_getES3_S3_RSt8ios_baseRiRj                                                                                                                                                          
0001ab31  _ZNKSt7num_getIwSt19istreambuf_iteratorIwSt11char_traitsIwEEE6do_getES3_S3_RSt8ios_baseRiRl                                                                                                                                                          
0001ab5d  _ZNKSt7num_getIwSt19istreambuf_iteratorIwSt11char_traitsIwEEE6do_getES3_S3_RSt8ios_baseRiRm                                                                                                                                                          
0001ab89  _ZNKSt7num_getIwSt19istreambuf_iteratorIwSt11char_traitsIwEEE6do_getES3_S3_RSt8ios_baseRiRt                                                                                                                                                          
0001abb5  _ZNKSt7num_getIwSt19istreambuf_iteratorIwSt11char_traitsIwEEE6do_getES3_S3_RSt8ios_baseRiRx                                                                                                                                                          
0001abe1  _ZNKSt7num_getIwSt19istreambuf_iteratorIwSt11char_traitsIwEEE6do_getES3_S3_RSt8ios_baseRiRy                                                                                                                                                          
0001135d  _ZNKSt7num_putIcSt19ostreambuf_iteratorIcSt11char_traitsIcEEE6do_putES3_RSt8ios_basecPKv                                                                                                                                                             
00018a81  _ZNKSt7num_putIcSt19ostreambuf_iteratorIcSt11char_traitsIcEEE6do_putES3_RSt8ios_basecb                                                                                                                                                               
0001a421  _ZNKSt7num_putIcSt19ostreambuf_iteratorIcSt11char_traitsIcEEE6do_putES3_RSt8ios_basecd                                                                                                                                                               
0001a455  _ZNKSt7num_putIcSt19ostreambuf_iteratorIcSt11char_traitsIcEEE6do_putES3_RSt8ios_basece                                                                                                                                                               
0001a71b  _ZNKSt7num_putIcSt19ostreambuf_iteratorIcSt11char_traitsIcEEE6do_putES3_RSt8ios_basecl                                                                                                                                                               
0001a74b  _ZNKSt7num_putIcSt19ostreambuf_iteratorIcSt11char_traitsIcEEE6do_putES3_RSt8ios_basecm                                                                                                                                                               
0001a22f  _ZNKSt7num_putIcSt19ostreambuf_iteratorIcSt11char_traitsIcEEE6do_putES3_RSt8ios_basecx                                                                                                                                                               
0001a267  _ZNKSt7num_putIcSt19ostreambuf_iteratorIcSt11char_traitsIcEEE6do_putES3_RSt8ios_basecy                                                                                                                                                               
00011489  _ZNKSt7num_putIwSt19ostreambuf_iteratorIwSt11char_traitsIwEEE6do_putES3_RSt8ios_basewPKv                                                                                                                                                             
00018ae7  _ZNKSt7num_putIwSt19ostreambuf_iteratorIwSt11char_traitsIwEEE6do_putES3_RSt8ios_basewb                                                                                                                                                               
0001a489  _ZNKSt7num_putIwSt19ostreambuf_iteratorIwSt11char_traitsIwEEE6do_putES3_RSt8ios_basewd                                                                                                                                                               
0001a4bd  _ZNKSt7num_putIwSt19ostreambuf_iteratorIwSt11char_traitsIwEEE6do_putES3_RSt8ios_basewe                                                                                                                                                               
0001a77b  _ZNKSt7num_putIwSt19ostreambuf_iteratorIwSt11char_traitsIwEEE6do_putES3_RSt8ios_basewl                                                                                                                                                               
0001a7ab  _ZNKSt7num_putIwSt19ostreambuf_iteratorIwSt11char_traitsIwEEE6do_putES3_RSt8ios_basewm                                                                                                                                                               
0001a29f  _ZNKSt7num_putIwSt19ostreambuf_iteratorIwSt11char_traitsIwEEE6do_putES3_RSt8ios_basewx                                                                                                                                                               
0001a2d7  _ZNKSt7num_putIwSt19ostreambuf_iteratorIwSt11char_traitsIwEEE6do_putES3_RSt8ios_basewy                                                                                                                                                               
0001b645  _ZNKSt8messagesIcE6do_getEiiiRKSs                                                                                                                                                                                                                    
0001b64b  _ZNKSt8messagesIcE7do_openERKSsRKSt6locale                                                                                                                                                                                                           
00008e93  _ZNKSt8messagesIcE8do_closeEi                                                                                                                                                                                                                        
0001b651  _ZNKSt8messagesIwE6do_getEiiiRKSbIwSt11char_traitsIwESaIwEE                                                                                                                                                                                          
0001b657  _ZNKSt8messagesIwE7do_openERKSsRKSt6locale                                                                                                                                                                                                           
0000dba3  _ZNKSt8messagesIwE8do_closeEi                                                                                                                                                                                                                        
00002361  _ZNKSt8numpunctIcE11do_groupingEv                                                                                                                                                                                                                    
00002355  _ZNKSt8numpunctIcE11do_truenameEv                                                                                                                                                                                                                    
00002349  _ZNKSt8numpunctIcE12do_falsenameEv                                                                                                                                                                                                                   
0001b581  _ZNKSt8numpunctIcE13decimal_pointEv                                                                                                                                                                                                                  
0001b58b  _ZNKSt8numpunctIcE13thousands_sepEv                                                                                                                                                                                                                  
0000237b  _ZNKSt8numpunctIcE16do_decimal_pointEv                                                                                                                                                                                                               
00002377  _ZNKSt8numpunctIcE16do_thousands_sepEv                                                                                                                                                                                                               
0001b595  _ZNKSt8numpunctIcE8groupingEv                                                                                                                                                                                                                        
0001b59f  _ZNKSt8numpunctIcE9falsenameEv                                                                                                                                                                                                                       
00002321  _ZNKSt8numpunctIwE11do_groupingEv                                                                                                                                                                                                                    
00002315  _ZNKSt8numpunctIwE11do_truenameEv                                                                                                                                                                                                                    
00002309  _ZNKSt8numpunctIwE12do_falsenameEv                                                                                                                                                                                                                   
0001b5a9  _ZNKSt8numpunctIwE13thousands_sepEv                                                                                                                                                                                                                  
0000233b  _ZNKSt8numpunctIwE16do_decimal_pointEv                                                                                                                                                                                                               
00002337  _ZNKSt8numpunctIwE16do_thousands_sepEv                                                                                                                                                                                                               
0001b5b3  _ZNKSt8numpunctIwE8groupingEv                                                                                                                                                                                                                        
0001b5bd  _ZNKSt8numpunctIwE9falsenameEv                                                                                                                                                                                                                       
00017b75  _ZNKSt8time_getIcSt19istreambuf_iteratorIcSt11char_traitsIcEEE11do_get_dateES3_S3_RSt8ios_baseRiPSt2tm                                                                                                                                               
00017bf1  _ZNKSt8time_getIcSt19istreambuf_iteratorIcSt11char_traitsIcEEE11do_get_timeES3_S3_RSt8ios_baseRiPSt2tm                                                                                                                                               
00018739  _ZNKSt8time_getIcSt19istreambuf_iteratorIcSt11char_traitsIcEEE11do_get_yearES3_S3_RSt8ios_baseRiPSt2tm                                                                                                                                               
0001b65d  _ZNKSt8time_getIcSt19istreambuf_iteratorIcSt11char_traitsIcEEE13do_date_orderEv                                                                                                                                                                      
00019339  _ZNKSt8time_getIcSt19istreambuf_iteratorIcSt11char_traitsIcEEE14do_get_weekdayES3_S3_RSt8ios_baseRiPSt2tm                                                                                                                                            
0001938f  _ZNKSt8time_getIcSt19istreambuf_iteratorIcSt11char_traitsIcEEE16do_get_monthnameES3_S3_RSt8ios_baseRiPSt2tm                                                                                                                                          
00017c6d  _ZNKSt8time_getIwSt19istreambuf_iteratorIwSt11char_traitsIwEEE11do_get_dateES3_S3_RSt8ios_baseRiPSt2tm                                                                                                                                               
00017ce9  _ZNKSt8time_getIwSt19istreambuf_iteratorIwSt11char_traitsIwEEE11do_get_timeES3_S3_RSt8ios_baseRiPSt2tm                                                                                                                                               
000187a3  _ZNKSt8time_getIwSt19istreambuf_iteratorIwSt11char_traitsIwEEE11do_get_yearES3_S3_RSt8ios_baseRiPSt2tm                                                                                                                                               
0001b663  _ZNKSt8time_getIwSt19istreambuf_iteratorIwSt11char_traitsIwEEE13do_date_orderEv                                                                                                                                                                      
00019b85  _ZNKSt8time_getIwSt19istreambuf_iteratorIwSt11char_traitsIwEEE14do_get_weekdayES3_S3_RSt8ios_baseRiPSt2tm                                                                                                                                            
00019bcd  _ZNKSt8time_getIwSt19istreambuf_iteratorIwSt11char_traitsIwEEE16do_get_monthnameES3_S3_RSt8ios_baseRiPSt2tm                                                                                                                                          
000145d5  _ZNKSt8time_putIcSt19ostreambuf_iteratorIcSt11char_traitsIcEEE6do_putES3_RSt8ios_basecPKSt2tmcc                                                                                                                                                      
00013fa5  _ZNKSt8time_putIwSt19ostreambuf_iteratorIwSt11char_traitsIwEEE6do_putES3_RSt8ios_basewPKSt2tmcc                                                                                                                                                      
0001b2ab  _ZNKSt9hashtableISt4pairIKSsS0_IPvjEESsSt4hashISsENSt4priv15_HashMapTraitsTIS4_EENS7_10_Select1stIS4_EESt8equal_toISsESaIS4_EE15_M_before_beginERj                                                                                                   
0001b2bf  _ZNKSt9hashtableISt4pairIKiSt6localeEiSt4hashIiENSt4priv15_HashMapTraitsTIS3_EENS6_10_Select1stIS3_EESt8equal_toIiESaIS3_EE15_M_before_beginERj                                                                                                      
000191d9  _ZNKSt9money_getIcSt19istreambuf_iteratorIcSt11char_traitsIcEEE6do_getES3_S3_bRSt8ios_baseRiRSs                                                                                                                                                      
00014335  _ZNKSt9money_getIcSt19istreambuf_iteratorIcSt11char_traitsIcEEE6do_getES3_S3_bRSt8ios_baseRiRe                                                                                                                                                       
00019231  _ZNKSt9money_getIwSt19istreambuf_iteratorIwSt11char_traitsIwEEE6do_getES3_S3_bRSt8ios_baseRiRSbIwS2_SaIwEE                                                                                                                                           
00014a1b  _ZNKSt9money_getIwSt19istreambuf_iteratorIwSt11char_traitsIwEEE6do_getES3_S3_bRSt8ios_baseRiRe                                                                                                                                                       
0001a08b  _ZNKSt9money_putIcSt19ostreambuf_iteratorIcSt11char_traitsIcEEE6do_putES3_bRSt8ios_basecRKSs                                                                                                                                                         
0001607f  _ZNKSt9money_putIcSt19ostreambuf_iteratorIcSt11char_traitsIcEEE6do_putES3_bRSt8ios_basece                                                                                                                                                            
0001a0c7  _ZNKSt9money_putIwSt19ostreambuf_iteratorIwSt11char_traitsIwEEE6do_putES3_bRSt8ios_basewRKSbIwS2_SaIwEE                                                                                                                                              
00015dc9  _ZNKSt9money_putIwSt19ostreambuf_iteratorIwSt11char_traitsIwEEE6do_putES3_bRSt8ios_basewe                                                                                                                                                            
00007d19  _ZNKSt9strstream5rdbufEv                                                                                                                                                                                                                             
00007d13  _ZNKSt9strstream6pcountEv                                                                                                                                                                                                                            
00015aff  _ZNKSt9type_info4nameEv                                                                                                                                                                                                                              
00015b2f  _ZNKSt9type_info6beforeERKS_                                                                                                                                                                                                                         
00015b19  _ZNKSt9type_infoeqERKS_                                                                                                                                                                                                                              
00015b03  _ZNKSt9type_infoneERKS_                                                                                                                                                                                                                              
000153f9  _ZNSbIcSt11char_traitsIcENSt4priv20__iostring_allocatorIcEEE10_M_appendTIPKcEERS4_T_S9_RKSt20forward_iterator_tag                                                                                                                                    
00019123  _ZNSbIcSt11char_traitsIcENSt4priv20__iostring_allocatorIcEEE10_M_reserveEj                                                                                                                                                                           
00015651  _ZNSbIcSt11char_traitsIcENSt4priv20__iostring_allocatorIcEEE13_M_insert_auxEPcc                                                                                                                                                                      
0001a1f5  _ZNSbIcSt11char_traitsIcENSt4priv20__iostring_allocatorIcEEE20_M_compute_next_sizeEj                                                                                                                                                                 
00017fc1  _ZNSbIcSt11char_traitsIcENSt4priv20__iostring_allocatorIcEEE6appendEjc                                                                                                                                                                               
0001532f  _ZNSbIcSt11char_traitsIcENSt4priv20__iostring_allocatorIcEEE9_M_appendEPKcS6_                                                                                                                                                                        
00018581  _ZNSbIcSt11char_traitsIcENSt4priv20__iostring_allocatorIcEEE9_M_assignEPKcS6_                                                                                                                                                                        
0001393d  _ZNSbIwSt11char_traitsIwENSt4priv20__iostring_allocatorIwEEE10_M_appendTIPKwEERS4_T_S9_RKSt20forward_iterator_tag                                                                                                                                    
00017e5d  _ZNSbIwSt11char_traitsIwENSt4priv20__iostring_allocatorIwEEE10_M_reserveEj                                                                                                                                                                           
00013a29  _ZNSbIwSt11char_traitsIwENSt4priv20__iostring_allocatorIwEEE13_M_insert_auxEPww                                                                                                                                                                      
00019ed1  _ZNSbIwSt11char_traitsIwENSt4priv20__iostring_allocatorIwEEE20_M_compute_next_sizeEj                                                                                                                                                                 
000177ed  _ZNSbIwSt11char_traitsIwENSt4priv20__iostring_allocatorIwEEE6appendEjw                                                                                                                                                                               
000186cd  _ZNSbIwSt11char_traitsIwESaIwEE10_M_reserveEj                                                                                                                                                                                                        
0001a105  _ZNSbIwSt11char_traitsIwESaIwEE20_M_compute_next_sizeEj                                                                                                                                                                                              
000178f5  _ZNSbIwSt11char_traitsIwESaIwEE6appendEjw                                                                                                                                                                                                            
00015ba9  _ZNSbIwSt11char_traitsIwESaIwEE6assignEjw                                                                                                                                                                                                            
00014089  _ZNSbIwSt11char_traitsIwESaIwEE9_M_appendEPKwS4_                                                                                                                                                                                                     
00018fa1  _ZNSbIwSt11char_traitsIwESaIwEE9_M_assignEPKwS4_                                                                                                                                                                                                     
00019e4b  _ZNSbIwSt11char_traitsIwESaIwEEC1EPKwRKS1_                                                                                                                                                                                                           
0001a4f1  _ZNSbIwSt11char_traitsIwESaIwEEC1ERKS2_                                                                                                                                                                                                              
0001b2d3  _ZNSbIwSt11char_traitsIwESaIwEED1Ev                                                                                                                                                                                                                  
00017871  _ZNSdC2EPSt15basic_streambufIcSt11char_traitsIcEE                                                                                                                                                                                                    
0001b40d  _ZNSdD0Ev                                                                                                                                                                                                                                            
0001b669  _ZNSdD1Ev                                                                                                                                                                                                                                            
0001a141  _ZNSdD2Ev                                                                                                                                                                                                                                            
0001b23d  _ZNSiD0Ev                                                                                                                                                                                                                                            
0001b3ad  _ZNSiD1Ev                                                                                                                                                                                                                                            
0001b5d1  _ZNSoC1EPSt15basic_streambufIcSt11char_traitsIcEE                                                                                                                                                                                                    
0001a17d  _ZNSoC2EPSt15basic_streambufIcSt11char_traitsIcEE                                                                                                                                                                                                    
0001b41b  _ZNSoD0Ev                                                                                                                                                                                                                                            
0001b66f  _ZNSoD1Ev                                                                                                                                                                                                                                            
0001b389  _ZNSoD2Ev                                                                                                                                                                                                                                            
00019d7d  _ZNSs10_M_reserveEj                                                                                                                                                                                                                                  
00013b15  _ZNSs18_M_append_fast_posINSt4priv14__bstr_wrapperIcSt11char_traitsIcESaIcEEENS0_10__bstr_sumIcS3_S4_NS0_14__cstr_wrapperIcEENS0_18__sum_storage_elemIcS3_S4_EENS0_10__on_rightEEESB_EEPcRKNS6_IcS3_S4_T_T0_T1_EESD_jj                               
00018b4d  _ZNSs18_M_append_fast_posINSt4priv14__cstr_wrapperIcEENS0_18__sum_storage_elemIcSt11char_traitsIcESaIcEEENS0_10__on_rightEEEPcRKNS0_10__bstr_sumIcS5_S6_T_T0_T1_EES9_jj                                                                              
0001a30f  _ZNSs20_M_compute_next_sizeEj                                                                                                                                                                                                                        
000182e1  _ZNSs6appendEjc                                                                                                                                                                                                                                      
00015e79  _ZNSs6assignEjc                                                                                                                                                                                                                                      
00015c61  _ZNSs9_M_appendEPKcS0_                                                                                                                                                                                                                               
000188e1  _ZNSs9_M_assignEPKcS0_                                                                                                                                                                                                                               
0001a5bd  _ZNSsC1EPKcRKSaIcE                                                                                                                                                                                                                                   
0001a5ef  _ZNSsC1ERKSs                                                                                                                                                                                                                                         
0001b2e7  _ZNSsD1Ev                                                                                                                                                                                                                                            
0000300d  _ZNSt10_UnderflowIcSt11char_traitsIcEE7_M_doitEPSt13basic_filebufIcS1_E                                                                                                                                                                              
00007cfd  _ZNSt10istrstream3strEv                                                                                                                                                                                                                              
00007cef  _ZNSt10istrstreamC1EPKc                                                                                                                                                                                                                              
00007cdf  _ZNSt10istrstreamC1EPKci                                                                                                                                                                                                                             
00007cd7  _ZNSt10istrstreamC1EPc                                                                                                                                                                                                                               
00007cc7  _ZNSt10istrstreamC1EPci                                                                                                                                                                                                                              
00007c4d  _ZNSt10istrstreamC2EPKc                                                                                                                                                                                                                              
00007bd5  _ZNSt10istrstreamC2EPKci                                                                                                                                                                                                                             
00007b59  _ZNSt10istrstreamC2EPc                                                                                                                                                                                                                               
00007ad7  _ZNSt10istrstreamC2EPci                                                                                                                                                                                                                              
00000ed3  _ZNSt10istrstreamD0Ev                                                                                                                                                                                                                                
00000ecd  _ZNSt10istrstreamD1Ev                                                                                                                                                                                                                                
00000e9b  _ZNSt10istrstreamD2Ev                                                                                                                                                                                                                                
20000a34  _ZNSt10moneypunctIcLb0EE2idE                                                                                                                                                                                                                         
000003cb  _ZNSt10moneypunctIcLb0EEC1Ej                                                                                                                                                                                                                         
000003cb  _ZNSt10moneypunctIcLb0EEC2Ej                                                                                                                                                                                                                         
00002195  _ZNSt10moneypunctIcLb0EED0Ev                                                                                                                                                                                                                         
0000219d  _ZNSt10moneypunctIcLb0EED1Ev                                                                                                                                                                                                                         
0000219d  _ZNSt10moneypunctIcLb0EED2Ev                                                                                                                                                                                                                         
20000a30  _ZNSt10moneypunctIcLb1EE2idE                                                                                                                                                                                                                         
000003a9  _ZNSt10moneypunctIcLb1EEC1Ej                                                                                                                                                                                                                         
000003a9  _ZNSt10moneypunctIcLb1EEC2Ej                                                                                                                                                                                                                         
000021d5  _ZNSt10moneypunctIcLb1EED0Ev                                                                                                                                                                                                                         
000021dd  _ZNSt10moneypunctIcLb1EED1Ev                                                                                                                                                                                                                         
000021dd  _ZNSt10moneypunctIcLb1EED2Ev                                                                                                                                                                                                                         
20000a3c  _ZNSt10moneypunctIwLb0EE2idE                                                                                                                                                                                                                         
0000054b  _ZNSt10moneypunctIwLb0EEC1Ej                                                                                                                                                                                                                         
0000054b  _ZNSt10moneypunctIwLb0EEC2Ej                                                                                                                                                                                                                         
00002119  _ZNSt10moneypunctIwLb0EED0Ev                                                                                                                                                                                                                         
00002121  _ZNSt10moneypunctIwLb0EED1Ev                                                                                                                                                                                                                         
00002121  _ZNSt10moneypunctIwLb0EED2Ev                                                                                                                                                                                                                         
20000a38  _ZNSt10moneypunctIwLb1EE2idE                                                                                                                                                                                                                         
00000529  _ZNSt10moneypunctIwLb1EEC1Ej                                                                                                                                                                                                                         
00000529  _ZNSt10moneypunctIwLb1EEC2Ej                                                                                                                                                                                                                         
00002157  _ZNSt10moneypunctIwLb1EED0Ev                                                                                                                                                                                                                         
0000215f  _ZNSt10moneypunctIwLb1EED1Ev                                                                                                                                                                                                                         
0000215f  _ZNSt10moneypunctIwLb1EED2Ev                                                                                                                                                                                                                         
00007abb  _ZNSt10ostrstream3strEv                                                                                                                                                                                                                              
00007aad  _ZNSt10ostrstream6freezeEb                                                                                                                                                                                                                           
00007a93  _ZNSt10ostrstreamC1EPcii                                                                                                                                                                                                                             
00007a8d  _ZNSt10ostrstreamC1Ev                                                                                                                                                                                                                                
00007a2d  _ZNSt10ostrstreamC2EPcii                                                                                                                                                                                                                             
000079e5  _ZNSt10ostrstreamC2Ev                                                                                                                                                                                                                                
00000e55  _ZNSt10ostrstreamD0Ev                                                                                                                                                                                                                                
00000e45  _ZNSt10ostrstreamD1Ev                                                                                                                                                                                                                                
00000e07  _ZNSt10ostrstreamD2Ev                                                                                                                                                                                                                                
00000af5  _ZNSt12_Locale_impl13_S_initializeEv                                                                                                                                                                                                                 
000079dd  _ZNSt12_Locale_impl15_S_uninitializeEv                                                                                                                                                                                                               
00001095  _ZNSt12_Locale_impl17_M_throw_bad_castEv                                                                                                                                                                                                             
00006359  _ZNSt12_Locale_impl18insert_time_facetsERPKcPcP17_Locale_name_hint                                                                                                                                                                                   
00005f6d  _ZNSt12_Locale_impl19insert_ctype_facetsERPKcPcP17_Locale_name_hint                                                                                                                                                                                  
00000729  _ZNSt12_Locale_impl19make_classic_localeEv                                                                                                                                                                                                           
00006501  _ZNSt12_Locale_impl21insert_collate_facetsERPKcPcP17_Locale_name_hint                                                                                                                                                                                
000061dd  _ZNSt12_Locale_impl21insert_numeric_facetsERPKcPcP17_Locale_name_hint                                                                                                                                                                                
00006be1  _ZNSt12_Locale_impl22insert_messages_facetsERPKcPcP17_Locale_name_hint                                                                                                                                                                               
00006965  _ZNSt12_Locale_impl22insert_monetary_facetsERPKcPcP17_Locale_name_hint                                                                                                                                                                               
00000b61  _ZNSt12_Locale_impl4InitC1Ev                                                                                                                                                                                                                         
00000b61  _ZNSt12_Locale_impl4InitC2Ev                                                                                                                                                                                                                         
00000bf9  _ZNSt12_Locale_impl4InitD1Ev                                                                                                                                                                                                                         
00000bf9  _ZNSt12_Locale_impl4InitD2Ev                                                                                                                                                                                                                         
000059a7  _ZNSt12_Locale_impl6insertEPNSt6locale5facetERKNS0_2idE                                                                                                                                                                                              
00005a33  _ZNSt12_Locale_impl6insertEPS_RKNSt6locale2idE                                                                                                                                                                                                       
00000357  _ZNSt12_Locale_implC1EPKc                                                                                                                                                                                                                            
00003ccd  _ZNSt12_Locale_implC1ERKS_                                                                                                                                                                                                                           
00006ecd  _ZNSt12_Locale_implC1EjPKc                                                                                                                                                                                                                           
00000357  _ZNSt12_Locale_implC2EPKc                                                                                                                                                                                                                            
00003ccd  _ZNSt12_Locale_implC2ERKS_                                                                                                                                                                                                                           
00006ecd  _ZNSt12_Locale_implC2EjPKc                                                                                                                                                                                                                           
000032bb  _ZNSt12_Locale_implD1Ev                                                                                                                                                                                                                              
000032bb  _ZNSt12_Locale_implD2Ev                                                                                                                                                                                                                              
00005f05  _ZNSt12ctype_bynameIcE7_M_initEv                                                                                                                                                                                                                     
0000799d  _ZNSt12ctype_bynameIcEC1EPKcj                                                                                                                                                                                                                        
0000799d  _ZNSt12ctype_bynameIcEC2EPKcj                                                                                                                                                                                                                        
00002c8b  _ZNSt12ctype_bynameIcED0Ev                                                                                                                                                                                                                           
00002c73  _ZNSt12ctype_bynameIcED1Ev                                                                                                                                                                                                                           
00002c73  _ZNSt12ctype_bynameIcED2Ev                                                                                                                                                                                                                           
00007961  _ZNSt12ctype_bynameIwEC1EPKcj                                                                                                                                                                                                                        
00007961  _ZNSt12ctype_bynameIwEC2EPKcj                                                                                                                                                                                                                        
00002bf9  _ZNSt12ctype_bynameIwED0Ev                                                                                                                                                                                                                           
00002bd5  _ZNSt12ctype_bynameIwED1Ev                                                                                                                                                                                                                           
00002bd5  _ZNSt12ctype_bynameIwED2Ev                                                                                                                                                                                                                           
00003f23  _ZNSt12strstreambuf3strEv                                                                                                                                                                                                                            
00003f07  _ZNSt12strstreambuf6freezeEb                                                                                                                                                                                                                         
0000106d  _ZNSt12strstreambuf6setbufEPci                                                                                                                                                                                                                       
0000320f  _ZNSt12strstreambuf7_M_freeEPc                                                                                                                                                                                                                       
00000f7d  _ZNSt12strstreambuf7seekoffElii                                                                                                                                                                                                                      
000030c1  _ZNSt12strstreambuf7seekposESt4fposIiEi                                                                                                                                                                                                              
000030e3  _ZNSt12strstreambuf8_M_allocEj                                                                                                                                                                                                                       
00003df5  _ZNSt12strstreambuf8_M_setupEPcS0_i                                                                                                                                                                                                                  
000030ff  _ZNSt12strstreambuf8overflowEi                                                                                                                                                                                                                       
00000f0d  _ZNSt12strstreambuf9pbackfailEi                                                                                                                                                                                                                      
00000f55  _ZNSt12strstreambuf9underflowEv                                                                                                                                                                                                                      
00007911  _ZNSt12strstreambufC1EPFPvjEPFvS0_E                                                                                                                                                                                                                  
000078d9  _ZNSt12strstreambufC1EPKai                                                                                                                                                                                                                           
000078a1  _ZNSt12strstreambufC1EPKci                                                                                                                                                                                                                           
00007869  _ZNSt12strstreambufC1EPKhi                                                                                                                                                                                                                           
00007831  _ZNSt12strstreambufC1EPaiS0_                                                                                                                                                                                                                         
00003e39  _ZNSt12strstreambufC1EPciS0_                                                                                                                                                                                                                         
000077f9  _ZNSt12strstreambufC1EPhiS0_                                                                                                                                                                                                                         
00003d4d  _ZNSt12strstreambufC1Ei                                                                                                                                                                                                                              
00007911  _ZNSt12strstreambufC2EPFPvjEPFvS0_E                                                                                                                                                                                                                  
000078d9  _ZNSt12strstreambufC2EPKai                                                                                                                                                                                                                           
000078a1  _ZNSt12strstreambufC2EPKci                                                                                                                                                                                                                           
00007869  _ZNSt12strstreambufC2EPKhi                                                                                                                                                                                                                           
00007831  _ZNSt12strstreambufC2EPaiS0_                                                                                                                                                                                                                         
00003e39  _ZNSt12strstreambufC2EPciS0_                                                                                                                                                                                                                         
000077f9  _ZNSt12strstreambufC2EPhiS0_                                                                                                                                                                                                                         
00003d4d  _ZNSt12strstreambufC2Ei                                                                                                                                                                                                                              
0000106f  _ZNSt12strstreambufD0Ev                                                                                                                                                                                                                              
00003227  _ZNSt12strstreambufD1Ev                                                                                                                                                                                                                              
00003227  _ZNSt12strstreambufD2Ev                                                                                                                                                                                                                              
000010bb  _ZNSt13_Filebuf_base12_M_file_sizeEv                                                                                                                                                                                                                 
20000a48  _ZNSt13_Filebuf_base12_M_page_sizeE                                                                                                                                                                                                                  
00003a8d  _ZNSt13_Filebuf_base13_S_initializeEv                                                                                                                                                                                                                
00001131  _ZNSt13_Filebuf_base7_M_mmapEll                                                                                                                                                                                                                      
000077ed  _ZNSt13_Filebuf_base7_M_openEPKci                                                                                                                                                                                                                    
00007731  _ZNSt13_Filebuf_base7_M_openEPKcil                                                                                                                                                                                                                   
00003621  _ZNSt13_Filebuf_base7_M_openEii                                                                                                                                                                                                                      
000010b1  _ZNSt13_Filebuf_base7_M_readEPci                                                                                                                                                                                                                     
000010bf  _ZNSt13_Filebuf_base7_M_seekEli                                                                                                                                                                                                                      
00001101  _ZNSt13_Filebuf_base8_M_closeEv                                                                                                                                                                                                                      
00007715  _ZNSt13_Filebuf_base8_M_unmapEPvl                                                                                                                                                                                                                    
00002fdf  _ZNSt13_Filebuf_base8_M_writeEPci                                                                                                                                                                                                                    
000035d1  _ZNSt13_Filebuf_baseC1Ev                                                                                                                                                                                                                             
000035d1  _ZNSt13_Filebuf_baseC2Ev                                                                                                                                                                                                                             
00019289  _ZNSt13basic_filebufIcSt11char_traitsIcEE10_M_unshiftEv                                                                                                                                                                                              
00017ed5  _ZNSt13basic_filebufIcSt11char_traitsIcEE12_M_seek_initEb                                                                                                                                                                                            
0001af07  _ZNSt13basic_filebufIcSt11char_traitsIcEE14_M_input_errorEv                                                                                                                                                                                          
00019c15  _ZNSt13basic_filebufIcSt11char_traitsIcEE14_M_seek_returnEli                                                                                                                                                                                         
0001af27  _ZNSt13basic_filebufIcSt11char_traitsIcEE15_M_output_errorEv                                                                                                                                                                                         
00017975  _ZNSt13basic_filebufIcSt11char_traitsIcEE16_M_setup_codecvtERKSt6localeb                                                                                                                                                                             
00013ebd  _ZNSt13basic_filebufIcSt11char_traitsIcEE16_M_underflow_auxEv                                                                                                                                                                                        
0001b2fb  _ZNSt13basic_filebufIcSt11char_traitsIcEE18_M_exit_input_modeEv                                                                                                                                                                                      
00018949  _ZNSt13basic_filebufIcSt11char_traitsIcEE19_M_allocate_buffersEPci                                                                                                                                                                                   
0001b1ad  _ZNSt13basic_filebufIcSt11char_traitsIcEE19_M_allocate_buffersEv                                                                                                                                                                                     
0001aea1  _ZNSt13basic_filebufIcSt11char_traitsIcEE21_M_deallocate_buffersEv                                                                                                                                                                                   
00019fd1  _ZNSt13basic_filebufIcSt11char_traitsIcEE23_M_switch_to_input_modeEv                                                                                                                                                                                 
00019af1  _ZNSt13basic_filebufIcSt11char_traitsIcEE24_M_switch_to_output_modeEv                                                                                                                                                                                
0001adc9  _ZNSt13basic_filebufIcSt11char_traitsIcEE4syncEv                                                                                                                                                                                                     
00016f41  _ZNSt13basic_filebufIcSt11char_traitsIcEE5closeEv                                                                                                                                                                                                    
0001b009  _ZNSt13basic_filebufIcSt11char_traitsIcEE5imbueERKSt6locale                                                                                                                                                                                          
0001a621  _ZNSt13basic_filebufIcSt11char_traitsIcEE6setbufEPci                                                                                                                                                                                                 
0000eafb  _ZNSt13basic_filebufIcSt11char_traitsIcEE7seekoffElii                                                                                                                                                                                                
00018351  _ZNSt13basic_filebufIcSt11char_traitsIcEE7seekposESt4fposIiEi                                                                                                                                                                                        
000146b1  _ZNSt13basic_filebufIcSt11char_traitsIcEE8overflowEi                                                                                                                                                                                                 
0001669d  _ZNSt13basic_filebufIcSt11char_traitsIcEE9pbackfailEi                                                                                                                                                                                                
00019689  _ZNSt13basic_filebufIcSt11char_traitsIcEE9showmanycEv                                                                                                                                                                                                
0001b6b1  _ZNSt13basic_filebufIcSt11char_traitsIcEE9underflowEv                                                                                                                                                                                                
00018035  _ZNSt13basic_filebufIcSt11char_traitsIcEEC1Ev                                                                                                                                                                                                        
0001b429  _ZNSt13basic_filebufIcSt11char_traitsIcEED0Ev                                                                                                                                                                                                        
0001af49  _ZNSt13basic_filebufIcSt11char_traitsIcEED1Ev                                                                                                                                                                                                        
000192e1  _ZNSt13basic_filebufIwSt11char_traitsIwEE10_M_unshiftEv                                                                                                                                                                                              
00017f4b  _ZNSt13basic_filebufIwSt11char_traitsIwEE12_M_seek_initEb                                                                                                                                                                                            
0001af69  _ZNSt13basic_filebufIwSt11char_traitsIwEE14_M_input_errorEv                                                                                                                                                                                          
00019c5d  _ZNSt13basic_filebufIwSt11char_traitsIwEE14_M_seek_returnEli                                                                                                                                                                                         
0001af89  _ZNSt13basic_filebufIwSt11char_traitsIwEE15_M_output_errorEv                                                                                                                                                                                         
000179f5  _ZNSt13basic_filebufIwSt11char_traitsIwEE16_M_setup_codecvtERKSt6localeb                                                                                                                                                                             
00014417  _ZNSt13basic_filebufIwSt11char_traitsIwEE16_M_underflow_auxEv                                                                                                                                                                                        
0001b30f  _ZNSt13basic_filebufIwSt11char_traitsIwEE18_M_exit_input_modeEv                                                                                                                                                                                      
0001880d  _ZNSt13basic_filebufIwSt11char_traitsIwEE19_M_allocate_buffersEPwi                                                                                                                                                                                   
0001b1c5  _ZNSt13basic_filebufIwSt11char_traitsIwEE19_M_allocate_buffersEv                                                                                                                                                                                     
0001aec3  _ZNSt13basic_filebufIwSt11char_traitsIwEE21_M_deallocate_buffersEv                                                                                                                                                                                   
00019b3b  _ZNSt13basic_filebufIwSt11char_traitsIwEE24_M_switch_to_output_modeEv                                                                                                                                                                                
0001aded  _ZNSt13basic_filebufIwSt11char_traitsIwEE4syncEv                                                                                                                                                                                                     
0001b027  _ZNSt13basic_filebufIwSt11char_traitsIwEE5imbueERKSt6locale                                                                                                                                                                                          
0001a653  _ZNSt13basic_filebufIwSt11char_traitsIwEE6setbufEPwi                                                                                                                                                                                                 
0000e8e5  _ZNSt13basic_filebufIwSt11char_traitsIwEE7seekoffElii                                                                                                                                                                                                
000183c1  _ZNSt13basic_filebufIwSt11char_traitsIwEE7seekposESt4fposIiEi                                                                                                                                                                                        
00015263  _ZNSt13basic_filebufIwSt11char_traitsIwEE8overflowEi                                                                                                                                                                                                 
00016731  _ZNSt13basic_filebufIwSt11char_traitsIwEE9pbackfailEi                                                                                                                                                                                                
0001943b  _ZNSt13basic_filebufIwSt11char_traitsIwEE9showmanycEv                                                                                                                                                                                                
000185ef  _ZNSt13basic_filebufIwSt11char_traitsIwEE9underflowEv                                                                                                                                                                                                
000180a9  _ZNSt13basic_filebufIwSt11char_traitsIwEEC1Ev                                                                                                                                                                                                        
0001b437  _ZNSt13basic_filebufIwSt11char_traitsIwEED0Ev                                                                                                                                                                                                        
00017549  _ZNSt13basic_filebufIwSt11char_traitsIwEED1Ev                                                                                                                                                                                                        
0001b253  _ZNSt13basic_istreamIwSt11char_traitsIwEED0Ev                                                                                                                                                                                                        
0001b3bd  _ZNSt13basic_istreamIwSt11char_traitsIwEED1Ev                                                                                                                                                                                                        
0001a525  _ZNSt13basic_ostreamIwSt11char_traitsIwEEC1EPSt15basic_streambufIwS1_E                                                                                                                                                                               
0001b445  _ZNSt13basic_ostreamIwSt11char_traitsIwEED0Ev                                                                                                                                                                                                        
0001b453  _ZNSt13basic_ostreamIwSt11char_traitsIwEED1Ev                                                                                                                                                                                                        
00005f2d  _ZNSt14codecvt_bynameIcciEC1EPKcj                                                                                                                                                                                                                    
00005f2d  _ZNSt14codecvt_bynameIcciEC2EPKcj                                                                                                                                                                                                                    
000020e1  _ZNSt14codecvt_bynameIcciED0Ev                                                                                                                                                                                                                       
000020e9  _ZNSt14codecvt_bynameIcciED1Ev                                                                                                                                                                                                                       
000020e9  _ZNSt14codecvt_bynameIcciED2Ev                                                                                                                                                                                                                       
000076dd  _ZNSt14codecvt_bynameIwciEC1EPKcj                                                                                                                                                                                                                    
000076dd  _ZNSt14codecvt_bynameIwciEC2EPKcj                                                                                                                                                                                                                    
0000291f  _ZNSt14codecvt_bynameIwciED0Ev                                                                                                                                                                                                                       
0000290d  _ZNSt14codecvt_bynameIwciED1Ev                                                                                                                                                                                                                       
0000290d  _ZNSt14codecvt_bynameIwciED2Ev                                                                                                                                                                                                                       
0000766f  _ZNSt14collate_bynameIcEC1EPKcj                                                                                                                                                                                                                      
0000766f  _ZNSt14collate_bynameIcEC2EPKcj                                                                                                                                                                                                                      
00002691  _ZNSt14collate_bynameIcED0Ev                                                                                                                                                                                                                         
0000267f  _ZNSt14collate_bynameIcED1Ev                                                                                                                                                                                                                         
0000267f  _ZNSt14collate_bynameIcED2Ev                                                                                                                                                                                                                         
0000762b  _ZNSt14collate_bynameIwEC1EPKcj                                                                                                                                                                                                                      
0000762b  _ZNSt14collate_bynameIwEC2EPKcj                                                                                                                                                                                                                      
00002521  _ZNSt14collate_bynameIwED0Ev                                                                                                                                                                                                                         
0000250b  _ZNSt14collate_bynameIwED1Ev                                                                                                                                                                                                                         
0000250b  _ZNSt14collate_bynameIwED2Ev                                                                                                                                                                                                                         
0001917f  _ZNSt15basic_streambufIcSt11char_traitsIcEE10_M_xsputncEci                                                                                                                                                                                           
0001b6b5  _ZNSt15basic_streambufIcSt11char_traitsIcEE4syncEv                                                                                                                                                                                                   
0000ff87  _ZNSt15basic_streambufIcSt11char_traitsIcEE5imbueERKSt6locale                                                                                                                                                                                        
0001ae11  _ZNSt15basic_streambufIcSt11char_traitsIcEE5uflowEv                                                                                                                                                                                                  
0001b145  _ZNSt15basic_streambufIcSt11char_traitsIcEE6sbumpcEv                                                                                                                                                                                                 
00010fcb  _ZNSt15basic_streambufIcSt11char_traitsIcEE6setbufEPci                                                                                                                                                                                               
00018c7f  _ZNSt15basic_streambufIcSt11char_traitsIcEE6xsgetnEPci                                                                                                                                                                                               
00018ce3  _ZNSt15basic_streambufIcSt11char_traitsIcEE6xsputnEPKci                                                                                                                                                                                              
0001b15f  _ZNSt15basic_streambufIcSt11char_traitsIcEE7seekoffElii                                                                                                                                                                                              
0001b081  _ZNSt15basic_streambufIcSt11char_traitsIcEE7seekposESt4fposIiEi                                                                                                                                                                                      
0001b675  _ZNSt15basic_streambufIcSt11char_traitsIcEE8overflowEi                                                                                                                                                                                               
0001a37f  _ZNSt15basic_streambufIcSt11char_traitsIcEE8pubimbueERKSt6locale                                                                                                                                                                                     
0001b67b  _ZNSt15basic_streambufIcSt11char_traitsIcEE9pbackfailEi                                                                                                                                                                                              
0001b6b9  _ZNSt15basic_streambufIcSt11char_traitsIcEE9showmanycEv                                                                                                                                                                                              
0001b681  _ZNSt15basic_streambufIcSt11char_traitsIcEE9underflowEv                                                                                                                                                                                              
0001acb5  _ZNSt15basic_streambufIcSt11char_traitsIcEEC2Ev                                                                                                                                                                                                      
0001b461  _ZNSt15basic_streambufIcSt11char_traitsIcEED0Ev                                                                                                                                                                                                      
0001b3cd  _ZNSt15basic_streambufIcSt11char_traitsIcEED1Ev                                                                                                                                                                                                      
0001b6bd  _ZNSt15basic_streambufIcSt11char_traitsIcEED2Ev                                                                                                                                                                                                      
000190c5  _ZNSt15basic_streambufIwSt11char_traitsIwEE10_M_xsputncEwi                                                                                                                                                                                           
0001b6c1  _ZNSt15basic_streambufIwSt11char_traitsIwEE4syncEv                                                                                                                                                                                                   
000125fb  _ZNSt15basic_streambufIwSt11char_traitsIwEE5imbueERKSt6locale                                                                                                                                                                                        
0001ae35  _ZNSt15basic_streambufIwSt11char_traitsIwEE5uflowEv                                                                                                                                                                                                  
0001b179  _ZNSt15basic_streambufIwSt11char_traitsIwEE6sbumpcEv                                                                                                                                                                                                 
00012bfb  _ZNSt15basic_streambufIwSt11char_traitsIwEE6setbufEPwi                                                                                                                                                                                               
00018bb3  _ZNSt15basic_streambufIwSt11char_traitsIwEE6xsgetnEPwi                                                                                                                                                                                               
00018c19  _ZNSt15basic_streambufIwSt11char_traitsIwEE6xsputnEPKwi                                                                                                                                                                                              
0001b193  _ZNSt15basic_streambufIwSt11char_traitsIwEE7seekoffElii                                                                                                                                                                                              
0001b09d  _ZNSt15basic_streambufIwSt11char_traitsIwEE7seekposESt4fposIiEi                                                                                                                                                                                      
0001b687  _ZNSt15basic_streambufIwSt11char_traitsIwEE8overflowEi                                                                                                                                                                                               
0001a3b5  _ZNSt15basic_streambufIwSt11char_traitsIwEE8pubimbueERKSt6locale                                                                                                                                                                                     
0001b68d  _ZNSt15basic_streambufIwSt11char_traitsIwEE9pbackfailEi                                                                                                                                                                                              
0001b6c5  _ZNSt15basic_streambufIwSt11char_traitsIwEE9showmanycEv                                                                                                                                                                                              
0001b693  _ZNSt15basic_streambufIwSt11char_traitsIwEE9underflowEv                                                                                                                                                                                              
0001acdd  _ZNSt15basic_streambufIwSt11char_traitsIwEEC1Ev                                                                                                                                                                                                      
0001b46f  _ZNSt15basic_streambufIwSt11char_traitsIwEED0Ev                                                                                                                                                                                                      
0001b3dd  _ZNSt15basic_streambufIwSt11char_traitsIwEED1Ev                                                                                                                                                                                                      
00006b6f  _ZNSt15messages_bynameIcEC1EP16_Locale_messages                                                                                                                                                                                                      
00007601  _ZNSt15messages_bynameIcEC1EPKcj                                                                                                                                                                                                                     
00006b6f  _ZNSt15messages_bynameIcEC2EP16_Locale_messages                                                                                                                                                                                                      
00007601  _ZNSt15messages_bynameIcEC2EPKcj                                                                                                                                                                                                                     
00001bef  _ZNSt15messages_bynameIcED0Ev                                                                                                                                                                                                                        
00001bdb  _ZNSt15messages_bynameIcED1Ev                                                                                                                                                                                                                        
00001bdb  _ZNSt15messages_bynameIcED2Ev                                                                                                                                                                                                                        
00006b99  _ZNSt15messages_bynameIwEC1EP16_Locale_messages                                                                                                                                                                                                      
000075cd  _ZNSt15messages_bynameIwEC1EPKcj                                                                                                                                                                                                                     
00006b99  _ZNSt15messages_bynameIwEC2EP16_Locale_messages                                                                                                                                                                                                      
000075cd  _ZNSt15messages_bynameIwEC2EPKcj                                                                                                                                                                                                                     
00002e0f  _ZNSt15messages_bynameIwED0Ev                                                                                                                                                                                                                        
00002dfb  _ZNSt15messages_bynameIwED1Ev                                                                                                                                                                                                                        
00002dfb  _ZNSt15messages_bynameIwED2Ev                                                                                                                                                                                                                        
0000758f  _ZNSt15numpunct_bynameIcEC1EPKcj                                                                                                                                                                                                                     
0000758f  _ZNSt15numpunct_bynameIcEC2EPKcj                                                                                                                                                                                                                     
000022fb  _ZNSt15numpunct_bynameIcED0Ev                                                                                                                                                                                                                        
000022e9  _ZNSt15numpunct_bynameIcED1Ev                                                                                                                                                                                                                        
000022e9  _ZNSt15numpunct_bynameIcED2Ev                                                                                                                                                                                                                        
00007551  _ZNSt15numpunct_bynameIwEC1EPKcj                                                                                                                                                                                                                     
00007551  _ZNSt15numpunct_bynameIwEC2EPKcj                                                                                                                                                                                                                     
0000227d  _ZNSt15numpunct_bynameIwED0Ev                                                                                                                                                                                                                        
0000226b  _ZNSt15numpunct_bynameIwED1Ev                                                                                                                                                                                                                        
0000226b  _ZNSt15numpunct_bynameIwED2Ev                                                                                                                                                                                                                        
000167c5  _ZNSt15time_get_bynameIcSt19istreambuf_iteratorIcSt11char_traitsIcEEED0Ev                                                                                                                                                                            
00016fd1  _ZNSt15time_get_bynameIcSt19istreambuf_iteratorIcSt11char_traitsIcEEED1Ev                                                                                                                                                                            
00016859  _ZNSt15time_get_bynameIwSt19istreambuf_iteratorIwSt11char_traitsIwEEED0Ev                                                                                                                                                                            
0001705d  _ZNSt15time_get_bynameIwSt19istreambuf_iteratorIwSt11char_traitsIwEEED1Ev                                                                                                                                                                            
000168ed  _ZNSt15time_put_bynameIcSt19ostreambuf_iteratorIcSt11char_traitsIcEEED0Ev                                                                                                                                                                            
000170e9  _ZNSt15time_put_bynameIcSt19ostreambuf_iteratorIcSt11char_traitsIcEEED1Ev                                                                                                                                                                            
00016981  _ZNSt15time_put_bynameIwSt19ostreambuf_iteratorIwSt11char_traitsIwEEED0Ev                                                                                                                                                                            
00017175  _ZNSt15time_put_bynameIwSt19ostreambuf_iteratorIwSt11char_traitsIwEEED1Ev                                                                                                                                                                            
0000681d  _ZNSt17moneypunct_bynameIcLb0EEC1EP16_Locale_monetary                                                                                                                                                                                                
00007505  _ZNSt17moneypunct_bynameIcLb0EEC1EPKcj                                                                                                                                                                                                               
0000681d  _ZNSt17moneypunct_bynameIcLb0EEC2EP16_Locale_monetary                                                                                                                                                                                                
00007505  _ZNSt17moneypunct_bynameIcLb0EEC2EPKcj                                                                                                                                                                                                               
00001e79  _ZNSt17moneypunct_bynameIcLb0EED0Ev                                                                                                                                                                                                                  
00001e61  _ZNSt17moneypunct_bynameIcLb0EED1Ev                                                                                                                                                                                                                  
00001e61  _ZNSt17moneypunct_bynameIcLb0EED2Ev                                                                                                                                                                                                                  
000068eb  _ZNSt17moneypunct_bynameIcLb1EEC1EP16_Locale_monetary                                                                                                                                                                                                
000074bf  _ZNSt17moneypunct_bynameIcLb1EEC1EPKcj                                                                                                                                                                                                               
000068eb  _ZNSt17moneypunct_bynameIcLb1EEC2EP16_Locale_monetary                                                                                                                                                                                                
000074bf  _ZNSt17moneypunct_bynameIcLb1EEC2EPKcj                                                                                                                                                                                                               
00001df3  _ZNSt17moneypunct_bynameIcLb1EED0Ev                                                                                                                                                                                                                  
00001de1  _ZNSt17moneypunct_bynameIcLb1EED1Ev                                                                                                                                                                                                                  
00001de1  _ZNSt17moneypunct_bynameIcLb1EED2Ev                                                                                                                                                                                                                  
0000691d  _ZNSt17moneypunct_bynameIwLb0EEC1EP16_Locale_monetary                                                                                                                                                                                                
0000747d  _ZNSt17moneypunct_bynameIwLb0EEC1EPKcj                                                                                                                                                                                                               
0000691d  _ZNSt17moneypunct_bynameIwLb0EEC2EP16_Locale_monetary                                                                                                                                                                                                
0000747d  _ZNSt17moneypunct_bynameIwLb0EEC2EPKcj                                                                                                                                                                                                               
00001d63  _ZNSt17moneypunct_bynameIwLb0EED0Ev                                                                                                                                                                                                                  
00001d51  _ZNSt17moneypunct_bynameIwLb0EED1Ev                                                                                                                                                                                                                  
00001d51  _ZNSt17moneypunct_bynameIwLb0EED2Ev                                                                                                                                                                                                                  
00006941  _ZNSt17moneypunct_bynameIwLb1EEC1EP16_Locale_monetary                                                                                                                                                                                                
00007411  _ZNSt17moneypunct_bynameIwLb1EEC1EPKcj                                                                                                                                                                                                               
00006941  _ZNSt17moneypunct_bynameIwLb1EEC2EP16_Locale_monetary                                                                                                                                                                                                
00007411  _ZNSt17moneypunct_bynameIwLb1EEC2EPKcj                                                                                                                                                                                                               
00001cc5  _ZNSt17moneypunct_bynameIwLb1EED0Ev                                                                                                                                                                                                                  
00001cb3  _ZNSt17moneypunct_bynameIwLb1EED1Ev                                                                                                                                                                                                                  
00001cb3  _ZNSt17moneypunct_bynameIwLb1EED2Ev                                                                                                                                                                                                                  
0001ac39  _ZNSt19istreambuf_iteratorIcSt11char_traitsIcEEppEi                                                                                                                                                                                                  
0001ac63  _ZNSt19istreambuf_iteratorIwSt11char_traitsIwEEppEi                                                                                                                                                                                                  
0001a685  _ZNSt19ostreambuf_iteratorIcSt11char_traitsIcEEaSEc                                                                                                                                                                                                  
0001a6b7  _ZNSt19ostreambuf_iteratorIwSt11char_traitsIwEEaSEw                                                                                                                                                                                                  
0001b1dd  _ZNSt4priv10_Sl_globalIbE14__splice_afterEPNS_16_Slist_node_baseES3_S3_                                                                                                                                                                              
00019e8d  _ZNSt4priv10_Stl_primeIbE12_S_next_sizeEj                                                                                                                                                                                                            
00019003  _ZNSt4priv10_Stl_primeIbE13_S_prev_sizesEjRPKjS4_                                                                                                                                                                                                    
0001b3ed  _ZNSt4priv10_Stl_primeIbE9_S_primesERj                                                                                                                                                                                                               
0000740d  _ZNSt4priv11_GetFacetIdEPKSt7num_getIcSt19istreambuf_iteratorIcSt11char_traitsIcEEE                                                                                                                                                                  
00007409  _ZNSt4priv11_GetFacetIdEPKSt7num_getIwSt19istreambuf_iteratorIwSt11char_traitsIwEEE                                                                                                                                                                  
00007405  _ZNSt4priv11_GetFacetIdEPKSt7num_putIcSt19ostreambuf_iteratorIcSt11char_traitsIcEEE                                                                                                                                                                  
00007401  _ZNSt4priv11_GetFacetIdEPKSt7num_putIwSt19ostreambuf_iteratorIwSt11char_traitsIwEEE                                                                                                                                                                  
000073fd  _ZNSt4priv11_GetFacetIdEPKSt8time_getIcSt19istreambuf_iteratorIcSt11char_traitsIcEEE                                                                                                                                                                 
000073f9  _ZNSt4priv11_GetFacetIdEPKSt8time_getIwSt19istreambuf_iteratorIwSt11char_traitsIwEEE                                                                                                                                                                 
000073f5  _ZNSt4priv11_GetFacetIdEPKSt8time_putIcSt19ostreambuf_iteratorIcSt11char_traitsIcEEE                                                                                                                                                                 
000073f1  _ZNSt4priv11_GetFacetIdEPKSt8time_putIwSt19ostreambuf_iteratorIwSt11char_traitsIwEEE                                                                                                                                                                 
000073ed  _ZNSt4priv11_GetFacetIdEPKSt9money_getIcSt19istreambuf_iteratorIcSt11char_traitsIcEEE                                                                                                                                                                
000073e9  _ZNSt4priv11_GetFacetIdEPKSt9money_getIwSt19istreambuf_iteratorIwSt11char_traitsIwEEE                                                                                                                                                                
000073e5  _ZNSt4priv11_GetFacetIdEPKSt9money_putIcSt19ostreambuf_iteratorIcSt11char_traitsIcEEE                                                                                                                                                                
000073e1  _ZNSt4priv11_GetFacetIdEPKSt9money_putIwSt19ostreambuf_iteratorIwSt11char_traitsIwEEE                                                                                                                                                                
0001a83d  _ZNSt4priv11_Slist_baseISt4pairIKSsS1_IPvjEESaIS5_EE14_M_erase_afterEPNS_16_Slist_node_baseES9_                                                                                                                                                      
0001ad05  _ZNSt4priv11_Slist_baseISt4pairIKiSt6localeESaIS4_EE14_M_erase_afterEPNS_16_Slist_node_baseES8_                                                                                                                                                      
00017201  _ZNSt4priv11__copy_signISt19istreambuf_iteratorIcSt11char_traitsIcEEcEET_S5_S5_RNS_16__basic_iostringIcEET0_S9_                                                                                                                                      
0001728d  _ZNSt4priv11__copy_signISt19istreambuf_iteratorIwSt11char_traitsIwEEwEET_S5_S5_RNS_16__basic_iostringIcEET0_S9_                                                                                                                                      
00016e1f  _ZNSt4priv11__put_floatISt19ostreambuf_iteratorIcSt11char_traitsIcEEEET_RNS_16__basic_iostringIcEES5_RSt8ios_basecccjRKSs                                                                                                                            
00010c21  _ZNSt4priv11__put_floatISt19ostreambuf_iteratorIwSt11char_traitsIwEEEET_RNS_16__basic_iostringIcEES5_RSt8ios_basewwwjRKSs                                                                                                                            
000196db  _ZNSt4priv11__subformatIcNS_10_Time_InfoEEEvRNS_16__basic_iostringIT_EERKSt5ctypeIS3_ERKSsRKT0_PKSt2tm                                                                                                                                               
0001972d  _ZNSt4priv11__subformatIwNS_11_WTime_InfoEEEvRNS_16__basic_iostringIT_EERKSt5ctypeIS3_ERKSsRKT0_PKSt2tm                                                                                                                                              
0001a6e9  _ZNSt4priv12_String_baseIcNS_20__iostring_allocatorIcEEE17_M_allocate_blockEj                                                                                                                                                                        
0001aee5  _ZNSt4priv12_String_baseIcSaIcEE17_M_allocate_blockEj                                                                                                                                                                                                
00016261  _ZNSt4priv12_String_baseIcSaIcEE7_M_swapERS2_                                                                                                                                                                                                        
0001a1b9  _ZNSt4priv12_String_baseIwNS_20__iostring_allocatorIwEEE17_M_allocate_blockEj                                                                                                                                                                        
0001a7db  _ZNSt4priv12_String_baseIwSaIwEE17_M_allocate_blockEj                                                                                                                                                                                                
00014aef  _ZNSt4priv12_String_baseIwSaIwEE7_M_swapERS2_                                                                                                                                                                                                        
00002f05  _ZNSt4priv12__get_fdigitERwPKw                                                                                                                                                                                                                       
00018d47  _ZNSt4priv12__get_stringISt19istreambuf_iteratorIcSt11char_traitsIcEEPcEESt4pairIT_bES7_S7_T0_S9_                                                                                                                                                    
00018dab  _ZNSt4priv12__get_stringISt19istreambuf_iteratorIwSt11char_traitsIwEEPwEESt4pairIT_bES7_S7_T0_S9_                                                                                                                                                    
0000e49b  _ZNSt4priv12__read_floatISt19istreambuf_iteratorIcSt11char_traitsIcEEcEEbRNS_16__basic_iostringIcEERT_S9_RKSt5ctypeIT0_ERKSt8numpunctISB_E                                                                                                           
0000e265  _ZNSt4priv12__read_floatISt19istreambuf_iteratorIwSt11char_traitsIwEEwEEbRNS_16__basic_iostringIcEERT_S9_RKSt5ctypeIT0_ERKSt8numpunctISB_E                                                                                                           
00017659  _ZNSt4priv13__copy_digitsISt19istreambuf_iteratorIcSt11char_traitsIcEEcEEbRT_S5_RNS_16__basic_iostringIcEEPKT0_                                                                                                                                      
00016a15  _ZNSt4priv13__copy_digitsISt19istreambuf_iteratorIwSt11char_traitsIwEEwEEbRT_S5_RNS_16__basic_iostringIcEEPKT0_                                                                                                                                      
0000f87d  _ZNSt4priv13__do_put_boolIcSt19ostreambuf_iteratorIcSt11char_traitsIcEEEET0_S5_RSt8ios_baseT_b                                                                                                                                                       
0000f6ad  _ZNSt4priv13__do_put_boolIwSt19ostreambuf_iteratorIwSt11char_traitsIwEEEET0_S5_RSt8ios_baseT_b                                                                                                                                                       
0000ff89  _ZNSt4priv13__get_integerIPcecEEbRT_S3_iRT0_ibT1_RKSsRKSt12__false_type                                                                                                                                                                              
00010101  _ZNSt4priv13__get_integerIPwewEEbRT_S3_iRT0_ibT1_RKSsRKSt12__false_type                                                                                                                                                                              
00011ea7  _ZNSt4priv13__get_integerISt19istreambuf_iteratorIcSt11char_traitsIcEEicEEbRT_S6_iRT0_ibT1_RKSsRKSt12__false_type                                                                                                                                    
00011fb3  _ZNSt4priv13__get_integerISt19istreambuf_iteratorIcSt11char_traitsIcEEjcEEbRT_S6_iRT0_ibT1_RKSsRKSt12__false_type                                                                                                                                    
00011931  _ZNSt4priv13__get_integerISt19istreambuf_iteratorIcSt11char_traitsIcEElcEEbRT_S6_iRT0_ibT1_RKSsRKSt11__true_type                                                                                                                                     
000120bf  _ZNSt4priv13__get_integerISt19istreambuf_iteratorIcSt11char_traitsIcEEmcEEbRT_S6_iRT0_ibT1_RKSsRKSt12__false_type                                                                                                                                    
00011b6d  _ZNSt4priv13__get_integerISt19istreambuf_iteratorIcSt11char_traitsIcEEtcEEbRT_S6_iRT0_ibT1_RKSsRKSt12__false_type                                                                                                                                    
00010279  _ZNSt4priv13__get_integerISt19istreambuf_iteratorIcSt11char_traitsIcEExcEEbRT_S6_iRT0_ibT1_RKSsRKSt11__true_type                                                                                                                                     
0000f305  _ZNSt4priv13__get_integerISt19istreambuf_iteratorIcSt11char_traitsIcEEycEEbRT_S6_iRT0_ibT1_RKSsRKSt12__false_type                                                                                                                                    
000121cb  _ZNSt4priv13__get_integerISt19istreambuf_iteratorIwSt11char_traitsIwEEiwEEbRT_S6_iRT0_ibT1_RKSsRKSt12__false_type                                                                                                                                    
000122d7  _ZNSt4priv13__get_integerISt19istreambuf_iteratorIwSt11char_traitsIwEEjwEEbRT_S6_iRT0_ibT1_RKSsRKSt12__false_type                                                                                                                                    
00011a4f  _ZNSt4priv13__get_integerISt19istreambuf_iteratorIwSt11char_traitsIwEElwEEbRT_S6_iRT0_ibT1_RKSsRKSt11__true_type                                                                                                                                     
000123e3  _ZNSt4priv13__get_integerISt19istreambuf_iteratorIwSt11char_traitsIwEEmwEEbRT_S6_iRT0_ibT1_RKSsRKSt12__false_type                                                                                                                                    
00011c81  _ZNSt4priv13__get_integerISt19istreambuf_iteratorIwSt11char_traitsIwEEtwEEbRT_S6_iRT0_ibT1_RKSsRKSt12__false_type                                                                                                                                    
000103ed  _ZNSt4priv13__get_integerISt19istreambuf_iteratorIwSt11char_traitsIwEExwEEbRT_S6_iRT0_ibT1_RKSsRKSt11__true_type                                                                                                                                     
0000f4d9  _ZNSt4priv13__get_integerISt19istreambuf_iteratorIwSt11char_traitsIwEEywEEbRT_S6_iRT0_ibT1_RKSsRKSt12__false_type                                                                                                                                    
0001a86b  _ZNSt4priv13__lower_boundIPKjjNS_8_ti_lessIjEES4_iEET_S5_S5_RKT0_T1_T2_PT3_                                                                                                                                                                          
00012cf9  _ZNSt4priv13__put_integerISt19ostreambuf_iteratorIcSt11char_traitsIcEEEET_PcS6_S5_RSt8ios_baseic                                                                                                                                                     
000116e1  _ZNSt4priv13__put_integerISt19ostreambuf_iteratorIwSt11char_traitsIwEEEET_PcS6_S5_RSt8ios_baseiw                                                                                                                                                     
0000143d  _ZNSt4priv13__write_floatERNS_16__basic_iostringIcEEiid                                                                                                                                                                                              
000013dd  _ZNSt4priv13__write_floatERNS_16__basic_iostringIcEEiie                                                                                                                                                                                              
000062f9  _ZNSt4priv14__acquire_timeERPKcPcP17_Locale_name_hintPi                                                                                                                                                                                              
00014bc5  _ZNSt4priv14__do_get_floatISt19istreambuf_iteratorIcSt11char_traitsIcEEdcEET_RS5_S6_RSt8ios_baseRiRT0_PT1_                                                                                                                                           
00014c99  _ZNSt4priv14__do_get_floatISt19istreambuf_iteratorIcSt11char_traitsIcEEecEET_RS5_S6_RSt8ios_baseRiRT0_PT1_                                                                                                                                           
00014d6d  _ZNSt4priv14__do_get_floatISt19istreambuf_iteratorIcSt11char_traitsIcEEfcEET_RS5_S6_RSt8ios_baseRiRT0_PT1_                                                                                                                                           
00014e41  _ZNSt4priv14__do_get_floatISt19istreambuf_iteratorIwSt11char_traitsIwEEdwEET_RS5_S6_RSt8ios_baseRiRT0_PT1_                                                                                                                                           
00014f15  _ZNSt4priv14__do_get_floatISt19istreambuf_iteratorIwSt11char_traitsIwEEewEET_RS5_S6_RSt8ios_baseRiRT0_PT1_                                                                                                                                           
00014fe9  _ZNSt4priv14__do_get_floatISt19istreambuf_iteratorIwSt11char_traitsIwEEfwEET_RS5_S6_RSt8ios_baseRiRT0_PT1_                                                                                                                                           
00012701  _ZNSt4priv14__do_put_floatIcSt19ostreambuf_iteratorIcSt11char_traitsIcEEdEET0_S5_RSt8ios_baseT_T1_                                                                                                                                                   
00012801  _ZNSt4priv14__do_put_floatIcSt19ostreambuf_iteratorIcSt11char_traitsIcEEeEET0_S5_RSt8ios_baseT_T1_                                                                                                                                                   
00012901  _ZNSt4priv14__do_put_floatIwSt19ostreambuf_iteratorIwSt11char_traitsIwEEdEET0_S5_RSt8ios_baseT_T1_                                                                                                                                                   
000125fd  _ZNSt4priv14__do_put_floatIwSt19ostreambuf_iteratorIwSt11char_traitsIwEEeEET0_S5_RSt8ios_baseT_T1_                                                                                                                                                   
0000af9d  _ZNSt4priv14__money_do_getIcSt19istreambuf_iteratorIcSt11char_traitsIcEESsEET0_S5_S5_bRSt8ios_baseRiRT1_RbPT_                                                                                                                                        
0000b531  _ZNSt4priv14__money_do_getIwSt19istreambuf_iteratorIwSt11char_traitsIwEESbIwS3_SaIwEEEET0_S7_S7_bRSt8ios_baseRiRT1_RbPT_                                                                                                                             
0000a34d  _ZNSt4priv14__money_do_putIcSt19ostreambuf_iteratorIcSt11char_traitsIcEESsNS_16__basic_iostringIcEEEET0_S7_bRSt8ios_baseT_RKT2_bPT1_                                                                                                                 
00009cb9  _ZNSt4priv14__money_do_putIcSt19ostreambuf_iteratorIcSt11char_traitsIcEESsSsEET0_S5_bRSt8ios_baseT_RKT2_bPT1_                                                                                                                                        
00008e95  _ZNSt4priv14__money_do_putIwSt19ostreambuf_iteratorIwSt11char_traitsIwEESbIwS3_SaIwEENS_16__basic_iostringIwEEEET0_S9_bRSt8ios_baseT_RKT2_bPT1_                                                                                                      
000095a9  _ZNSt4priv14__money_do_putIwSt19ostreambuf_iteratorIwSt11char_traitsIwEESbIwS3_SaIwEES6_EET0_S7_bRSt8ios_baseT_RKT2_bPT1_                                                                                                                            
00002e1d  _ZNSt4priv14__narrow_atomsEv                                                                                                                                                                                                                         
00006325  _ZNSt4priv14__release_timeEP12_Locale_time                                                                                                                                                                                                           
00005dc5  _ZNSt4priv15__acquire_ctypeERPKcPcP17_Locale_name_hintPi                                                                                                                                                                                             
00002bb9  _ZNSt4priv15__release_ctypeEP13_Locale_ctype                                                                                                                                                                                                         
00001f8d  _ZNSt4priv15__write_integerEPcil                                                                                                                                                                                                                     
000131bd  _ZNSt4priv16__do_get_integerISt19istreambuf_iteratorIcSt11char_traitsIcEEjcEET_RS5_S6_RSt8ios_baseRiRT0_PT1_                                                                                                                                         
000132ad  _ZNSt4priv16__do_get_integerISt19istreambuf_iteratorIcSt11char_traitsIcEElcEET_RS5_S6_RSt8ios_baseRiRT0_PT1_                                                                                                                                         
0001339d  _ZNSt4priv16__do_get_integerISt19istreambuf_iteratorIcSt11char_traitsIcEEmcEET_RS5_S6_RSt8ios_baseRiRT0_PT1_                                                                                                                                         
0001348d  _ZNSt4priv16__do_get_integerISt19istreambuf_iteratorIcSt11char_traitsIcEEtcEET_RS5_S6_RSt8ios_baseRiRT0_PT1_                                                                                                                                         
00012ded  _ZNSt4priv16__do_get_integerISt19istreambuf_iteratorIcSt11char_traitsIcEExcEET_RS5_S6_RSt8ios_baseRiRT0_PT1_                                                                                                                                         
000106cd  _ZNSt4priv16__do_get_integerISt19istreambuf_iteratorIcSt11char_traitsIcEEycEET_RS5_S6_RSt8ios_baseRiRT0_PT1_                                                                                                                                         
0001357d  _ZNSt4priv16__do_get_integerISt19istreambuf_iteratorIwSt11char_traitsIwEEjwEET_RS5_S6_RSt8ios_baseRiRT0_PT1_                                                                                                                                         
0001366d  _ZNSt4priv16__do_get_integerISt19istreambuf_iteratorIwSt11char_traitsIwEElwEET_RS5_S6_RSt8ios_baseRiRT0_PT1_                                                                                                                                         
0001375d  _ZNSt4priv16__do_get_integerISt19istreambuf_iteratorIwSt11char_traitsIwEEmwEET_RS5_S6_RSt8ios_baseRiRT0_PT1_                                                                                                                                         
0001384d  _ZNSt4priv16__do_get_integerISt19istreambuf_iteratorIwSt11char_traitsIwEEtwEET_RS5_S6_RSt8ios_baseRiRT0_PT1_                                                                                                                                         
00012ee1  _ZNSt4priv16__do_get_integerISt19istreambuf_iteratorIwSt11char_traitsIwEExwEET_RS5_S6_RSt8ios_baseRiRT0_PT1_                                                                                                                                         
00010829  _ZNSt4priv16__do_get_integerISt19istreambuf_iteratorIwSt11char_traitsIwEEywEET_RS5_S6_RSt8ios_baseRiRT0_PT1_                                                                                                                                         
00019919  _ZNSt4priv16__do_put_integerIcSt19ostreambuf_iteratorIcSt11char_traitsIcEElEET0_S5_RSt8ios_baseT_T1_                                                                                                                                                 
00019969  _ZNSt4priv16__do_put_integerIcSt19ostreambuf_iteratorIcSt11char_traitsIcEEmEET0_S5_RSt8ios_baseT_T1_                                                                                                                                                 
0001948f  _ZNSt4priv16__do_put_integerIcSt19ostreambuf_iteratorIcSt11char_traitsIcEExEET0_S5_RSt8ios_baseT_T1_                                                                                                                                                 
000194e3  _ZNSt4priv16__do_put_integerIcSt19ostreambuf_iteratorIcSt11char_traitsIcEEyEET0_S5_RSt8ios_baseT_T1_                                                                                                                                                 
000199b9  _ZNSt4priv16__do_put_integerIwSt19ostreambuf_iteratorIwSt11char_traitsIwEElEET0_S5_RSt8ios_baseT_T1_                                                                                                                                                 
00019a09  _ZNSt4priv16__do_put_integerIwSt19ostreambuf_iteratorIwSt11char_traitsIwEEmEET0_S5_RSt8ios_baseT_T1_                                                                                                                                                 
00019537  _ZNSt4priv16__do_put_integerIwSt19ostreambuf_iteratorIwSt11char_traitsIwEExEET0_S5_RSt8ios_baseT_T1_                                                                                                                                                 
0001958b  _ZNSt4priv16__do_put_integerIwSt19ostreambuf_iteratorIwSt11char_traitsIwEEyEET0_S5_RSt8ios_baseT_T1_                                                                                                                                                 
000016f3  _ZNSt4priv16__valid_groupingEPKcS1_S1_S1_                                                                                                                                                                                                            
000011dd  _ZNSt4priv16stdio_istreambuf5uflowEv                                                                                                                                                                                                                 
000011a9  _ZNSt4priv16stdio_istreambuf9pbackfailEi                                                                                                                                                                                                             
00001213  _ZNSt4priv16stdio_istreambuf9showmanycEv                                                                                                                                                                                                             
000011f1  _ZNSt4priv16stdio_istreambuf9underflowEv                                                                                                                                                                                                             
0000121b  _ZNSt4priv16stdio_istreambufD0Ev                                                                                                                                                                                                                     
00001217  _ZNSt4priv16stdio_istreambufD1Ev                                                                                                                                                                                                                     
00001217  _ZNSt4priv16stdio_istreambufD2Ev                                                                                                                                                                                                                     
00001135  _ZNSt4priv16stdio_ostreambuf8overflowEi                                                                                                                                                                                                              
00001175  _ZNSt4priv16stdio_ostreambuf9showmanycEv                                                                                                                                                                                                             
00001195  _ZNSt4priv16stdio_ostreambufD0Ev                                                                                                                                                                                                                     
00001191  _ZNSt4priv16stdio_ostreambufD1Ev                                                                                                                                                                                                                     
00001191  _ZNSt4priv16stdio_ostreambufD2Ev                                                                                                                                                                                                                     
00005f3d  _ZNSt4priv17__acquire_codecvtERPKcPcP17_Locale_name_hintPi                                                                                                                                                                                           
000064b5  _ZNSt4priv17__acquire_collateERPKcPcP17_Locale_name_hintPi                                                                                                                                                                                           
000060d1  _ZNSt4priv17__acquire_numericERPKcPcP17_Locale_name_hintPi                                                                                                                                                                                           
000016ed  _ZNSt4priv17__digit_val_tableEj                                                                                                                                                                                                                      
00002e21  _ZNSt4priv17__insert_groupingEPcS0_RKSsccci                                                                                                                                                                                                          
00002f55  _ZNSt4priv17__insert_groupingEPwS0_RKSswwwi                                                                                                                                                                                                          
00001837  _ZNSt4priv17__insert_groupingERNS_16__basic_iostringIcEEjRKSsccci                                                                                                                                                                                    
000015ef  _ZNSt4priv17__insert_groupingERNS_16__basic_iostringIwEEjRKSswwwi                                                                                                                                                                                    
000028f7  _ZNSt4priv17__release_codecvtEP15_Locale_codecvt                                                                                                                                                                                                     
000024e9  _ZNSt4priv17__release_collateEP15_Locale_collate                                                                                                                                                                                                     
00002255  _ZNSt4priv17__release_numericEP15_Locale_numeric                                                                                                                                                                                                     
000016b5  _ZNSt4priv17__string_to_floatERKNS_16__basic_iostringIcEERd                                                                                                                                                                                          
000018ef  _ZNSt4priv17__string_to_floatERKNS_16__basic_iostringIcEERe                                                                                                                                                                                          
000016cd  _ZNSt4priv17__string_to_floatERKNS_16__basic_iostringIcEERf                                                                                                                                                                                          
00006b25  _ZNSt4priv18__acquire_messagesERPKcPcP17_Locale_name_hintPi                                                                                                                                                                                          
00006601  _ZNSt4priv18__acquire_monetaryERPKcPcP17_Locale_name_hintPi                                                                                                                                                                                          
00010d5d  _ZNSt4priv18__do_get_alphaboolISt19istreambuf_iteratorIcSt11char_traitsIcEEcEET_RS5_S6_RSt8ios_baseRiRbPT0_                                                                                                                                          
00010add  _ZNSt4priv18__do_get_alphaboolISt19istreambuf_iteratorIwSt11char_traitsIwEEwEET_RS5_S6_RSt8ios_baseRiRbPT0_                                                                                                                                          
00011101  _ZNSt4priv18__get_base_or_zeroISt19istreambuf_iteratorIcSt11char_traitsIcEEcEEiRT_S6_iRKSt5ctypeIT0_E                                                                                                                                                
0001122f  _ZNSt4priv18__get_base_or_zeroISt19istreambuf_iteratorIwSt11char_traitsIwEEwEEiRT_S6_iRKSt5ctypeIT0_E                                                                                                                                                
0000172b  _ZNSt4priv18__get_floor_digitsERNS_16__basic_iostringIcEEe                                                                                                                                                                                           
000164d5  _ZNSt4priv18__get_money_digitsIwEEvRNS_16__basic_iostringIT_EERSt8ios_basee                                                                                                                                                                          
00002da9  _ZNSt4priv18__release_messagesEP16_Locale_messages                                                                                                                                                                                                   
00001c9d  _ZNSt4priv18__release_monetaryEP16_Locale_monetary                                                                                                                                                                                                   
00001907  _ZNSt4priv19_Catalog_locale_map5eraseEi                                                                                                                                                                                                              
00001a8b  _ZNSt4priv19_Catalog_locale_map6insertEiRKSt6locale                                                                                                                                                                                                  
00002f33  _ZNSt4priv19__get_fdigit_or_sepERwwPKw                                                                                                                                                                                                               
00001323  _ZNSt4priv19__hex_char_table_hiEv                                                                                                                                                                                                                    
0000131f  _ZNSt4priv19__hex_char_table_loEv                                                                                                                                                                                                                    
0000dba5  _ZNSt4priv20__get_formatted_timeISt19istreambuf_iteratorIcSt11char_traitsIcEEcNS_10_Time_InfoEEEPKcT_S8_S7_S7_PT0_RKT1_RKSt8ios_baseRiPSt2tm                                                                                                         
0000dded  _ZNSt4priv20__get_formatted_timeISt19istreambuf_iteratorIwSt11char_traitsIwEEwNS_11_WTime_InfoEEEPKcT_S8_S7_S7_PT0_RKT1_RKSt8ios_baseRiPSt2tm                                                                                                        
0000d6d5  _ZNSt4priv20__get_monetary_valueISt19istreambuf_iteratorIcSt11char_traitsIcEESt20back_insert_iteratorISsEcEEbRT_S7_T0_RKSt5ctypeIT1_ESB_iSB_RKSsRb                                                                                                   
0000d93d  _ZNSt4priv20__get_monetary_valueISt19istreambuf_iteratorIwSt11char_traitsIwEESt20back_insert_iteratorISbIwS3_SaIwEEEwEEbRT_S9_T0_RKSt5ctypeIT1_ESD_iSD_RKSsRb                                                                                        
00001229  _ZNSt4priv20stdio_streambuf_base4syncEv                                                                                                                                                                                                              
000012e5  _ZNSt4priv20stdio_streambuf_base6setbufEPci                                                                                                                                                                                                          
0000127f  _ZNSt4priv20stdio_streambuf_base7seekoffElii                                                                                                                                                                                                         
0000123d  _ZNSt4priv20stdio_streambuf_base7seekposESt4fposIiEi                                                                                                                                                                                                 
00000bd7  _ZNSt4priv20stdio_streambuf_baseC1EPSt4FILE                                                                                                                                                                                                          
00000bd7  _ZNSt4priv20stdio_streambuf_baseC2EPSt4FILE                                                                                                                                                                                                          
000012ff  _ZNSt4priv20stdio_streambuf_baseD0Ev                                                                                                                                                                                                                 
0000117b  _ZNSt4priv20stdio_streambuf_baseD1Ev                                                                                                                                                                                                                 
0000117b  _ZNSt4priv20stdio_streambuf_baseD2Ev                                                                                                                                                                                                                 
00002eb5  _ZNSt4priv21_Initialize_get_floatERKSt5ctypeIwERwS4_S4_S4_Pw                                                                                                                                                                                         
000073c1  _ZNSt4priv21__adjust_float_bufferERNS_16__basic_iostringIcEEc                                                                                                                                                                                        
0000ef11  _ZNSt4priv21__copy_float_and_fillIcSt19ostreambuf_iteratorIcSt11char_traitsIcEEEET0_PKT_S8_S5_iiS6_S6_S6_                                                                                                                                            
0000ed0b  _ZNSt4priv21__copy_float_and_fillIwSt19ostreambuf_iteratorIwSt11char_traitsIwEEEET0_PKT_S8_S5_iiS6_S6_S6_                                                                                                                                            
00014945  _ZNSt4priv21__copy_grouped_digitsISt19istreambuf_iteratorIcSt11char_traitsIcEEcEEbRT_S5_RNS_16__basic_iostringIcEEPKT0_SA_RKSsRb                                                                                                                     
00013ced  _ZNSt4priv21__copy_grouped_digitsISt19istreambuf_iteratorIwSt11char_traitsIwEEwEEbRT_S5_RNS_16__basic_iostringIcEEPKT0_SA_RKSsRb                                                                                                                     
0001977f  _ZNSt4priv21__get_decimal_integerIPcecEEbRT_S3_RT0_PT1_                                                                                                                                                                                              
000197d1  _ZNSt4priv21__get_decimal_integerIPwewEEbRT_S3_RT0_PT1_                                                                                                                                                                                              
00019823  _ZNSt4priv21__get_decimal_integerISt19istreambuf_iteratorIcSt11char_traitsIcEEicEEbRT_S6_RT0_PT1_                                                                                                                                                    
00019875  _ZNSt4priv21__get_decimal_integerISt19istreambuf_iteratorIwSt11char_traitsIwEEiwEEbRT_S6_RT0_PT1_                                                                                                                                                    
00001451  _ZNSt4priv22__convert_float_bufferERKNS_16__basic_iostringIcEERNS0_IwEERKSt5ctypeIwEwb                                                                                                                                                               
000020d1  _ZNSt4priv22__write_formatted_timeERNS_16__basic_iostringIcEERKSt5ctypeIcEccRKNS_10_Time_InfoEPKSt2tm                                                                                                                                                
00001fd9  _ZNSt4priv22__write_formatted_timeERNS_16__basic_iostringIwEERKSt5ctypeIwEccRKNS_11_WTime_InfoEPKSt2tm                                                                                                                                               
0000ced3  _ZNSt4priv23__copy_integer_and_fillIcSt19ostreambuf_iteratorIcSt11char_traitsIcEEEET0_PKT_iS5_iiS6_S6_S6_                                                                                                                                            
0000cc0d  _ZNSt4priv23__copy_integer_and_fillIwSt19ostreambuf_iteratorIwSt11char_traitsIwEEEET0_PKT_iS5_iiS6_S6_S6_                                                                                                                                            
0000d185  _ZNSt4priv23__write_formatted_timeTIcNS_10_Time_InfoEEEvRNS_16__basic_iostringIT_EERKSt5ctypeIS3_EccRKT0_PKSt2tm                                                                                                                                     
0000d42d  _ZNSt4priv23__write_formatted_timeTIwNS_11_WTime_InfoEEEvRNS_16__basic_iostringIT_EERKSt5ctypeIS3_EccRKT0_PKSt2tm                                                                                                                                    
00011809  _ZNSt4priv24__write_integer_backwardIlEEPcS1_iT_                                                                                                                                                                                                     
00015a29  _ZNSt4priv24__write_integer_backwardImEEPcS1_iT_                                                                                                                                                                                                     
00012a01  _ZNSt4priv24__write_integer_backwardIxEEPcS1_iT_                                                                                                                                                                                                     
000150bd  _ZNSt4priv24__write_integer_backwardIyEEPcS1_iT_                                                                                                                                                                                                     
0001ad7d  _ZNSt4priv27__get_short_or_long_daynameISt19istreambuf_iteratorIwSt11char_traitsIwEENS_11_WTime_InfoEEEbRT_S7_RKT0_PSt2tm                                                                                                                            
0001ada3  _ZNSt4priv29__get_short_or_long_monthnameISt19istreambuf_iteratorIwSt11char_traitsIwEENS_11_WTime_InfoEEEbRT_S7_RKT0_PSt2tm                                                                                                                          
00013fa3  _ZNSt4priv6__lessIjEENS_8_ti_lessIT_EEPS2_                                                                                                                                                                                                           
0001416d  _ZNSt4priv7__matchISt19istreambuf_iteratorIcSt11char_traitsIcEEPKSsEEjRT_S8_T0_S9_                                                                                                                                                                   
00014251  _ZNSt4priv7__matchISt19istreambuf_iteratorIwSt11char_traitsIwEEPKSbIwS3_SaIwEEEEjRT_SA_T0_SB_                                                                                                                                                        
00006b4d  _ZNSt4priv9_MessagesC1EbP16_Locale_messages                                                                                                                                                                                                          
0000737d  _ZNSt4priv9_MessagesC1EbPKc                                                                                                                                                                                                                          
00006b4d  _ZNSt4priv9_MessagesC2EbP16_Locale_messages                                                                                                                                                                                                          
0000737d  _ZNSt4priv9_MessagesC2EbPKc                                                                                                                                                                                                                          
00002dbf  _ZNSt4priv9_MessagesD1Ev                                                                                                                                                                                                                             
00002dbf  _ZNSt4priv9_MessagesD2Ev                                                                                                                                                                                                                             
000043a1  _ZNSt4priv9time_initIcEC1EP12_Locale_time                                                                                                                                                                                                            
000072a3  _ZNSt4priv9time_initIcEC1EPKc                                                                                                                                                                                                                        
0000048d  _ZNSt4priv9time_initIcEC1Ev                                                                                                                                                                                                                          
000043a1  _ZNSt4priv9time_initIcEC2EP12_Locale_time                                                                                                                                                                                                            
000072a3  _ZNSt4priv9time_initIcEC2EPKc                                                                                                                                                                                                                        
0000048d  _ZNSt4priv9time_initIcEC2Ev                                                                                                                                                                                                                          
000041d1  _ZNSt4priv9time_initIwEC1EP12_Locale_time                                                                                                                                                                                                            
000071cd  _ZNSt4priv9time_initIwEC1EPKc                                                                                                                                                                                                                        
00000609  _ZNSt4priv9time_initIwEC1Ev                                                                                                                                                                                                                          
000041d1  _ZNSt4priv9time_initIwEC2EP12_Locale_time                                                                                                                                                                                                            
000071cd  _ZNSt4priv9time_initIwEC2EPKc                                                                                                                                                                                                                        
00000609  _ZNSt4priv9time_initIwEC2Ev                                                                                                                                                                                                                          
0000becd  _ZNSt5ctypeIcE13classic_tableEv                                                                                                                                                                                                                      
20000a0c  _ZNSt5ctypeIcE2idE                                                                                                                                                                                                                                   
0000bed1  _ZNSt5ctypeIcEC1EPKNSt10ctype_base4maskEbj                                                                                                                                                                                                           
0000bed1  _ZNSt5ctypeIcEC2EPKNSt10ctype_base4maskEbj                                                                                                                                                                                                           
0000beb1  _ZNSt5ctypeIcED0Ev                                                                                                                                                                                                                                   
0000be9b  _ZNSt5ctypeIcED1Ev                                                                                                                                                                                                                                   
0000be9b  _ZNSt5ctypeIcED2Ev                                                                                                                                                                                                                                   
20000a10  _ZNSt5ctypeIwE2idE                                                                                                                                                                                                                                   
0000be8d  _ZNSt5ctypeIwED0Ev                                                                                                                                                                                                                                   
0000be89  _ZNSt5ctypeIwED1Ev                                                                                                                                                                                                                                   
0000be89  _ZNSt5ctypeIwED2Ev                                                                                                                                                                                                                                   
00005c8f  _ZNSt6locale21_M_throw_on_null_nameEv                                                                                                                                                                                                                
0000716b  _ZNSt6locale25_M_throw_on_combine_errorERKSs                                                                                                                                                                                                         
00005e1d  _ZNSt6locale28_M_throw_on_creation_failureEiPKcS1_                                                                                                                                                                                                   
20000a08  _ZNSt6locale2id6_S_maxE                                                                                                                                                                                                                              
00002c99  _ZNSt6locale5facetD0Ev                                                                                                                                                                                                                               
000016b3  _ZNSt6locale5facetD1Ev                                                                                                                                                                                                                               
000016b3  _ZNSt6locale5facetD2Ev                                                                                                                                                                                                                               
000070b9  _ZNSt6locale6globalERKS_                                                                                                                                                                                                                             
00001927  _ZNSt6locale7classicEv                                                                                                                                                                                                                               
00007063  _ZNSt6locale9_M_insertEPNS_5facetERNS_2idE                                                                                                                                                                                                           
00006f45  _ZNSt6localeC1EPKc                                                                                                                                                                                                                                   
000006a5  _ZNSt6localeC1EPSt12_Locale_impl                                                                                                                                                                                                                     
0000130d  _ZNSt6localeC1ERKS_                                                                                                                                                                                                                                  
00006db9  _ZNSt6localeC1ERKS_PKci                                                                                                                                                                                                                              
00005a4f  _ZNSt6localeC1ERKS_S1_i                                                                                                                                                                                                                              
00000bc1  _ZNSt6localeC1Ev                                                                                                                                                                                                                                     
00006f45  _ZNSt6localeC2EPKc                                                                                                                                                                                                                                   
000006a5  _ZNSt6localeC2EPSt12_Locale_impl                                                                                                                                                                                                                     
0000130d  _ZNSt6localeC2ERKS_                                                                                                                                                                                                                                  
00006db9  _ZNSt6localeC2ERKS_PKci                                                                                                                                                                                                                              
00005a4f  _ZNSt6localeC2ERKS_S1_i                                                                                                                                                                                                                              
00000bc1  _ZNSt6localeC2Ev                                                                                                                                                                                                                                     
00003329  _ZNSt6localeD1Ev                                                                                                                                                                                                                                     
00003329  _ZNSt6localeD2Ev                                                                                                                                                                                                                                     
000037af  _ZNSt6localeaSERKS_                                                                                                                                                                                                                                  
000157dd  _ZNSt6vectorIPNSt4priv16_Slist_node_baseESaIS2_EE14_M_fill_assignEjRKS2_                                                                                                                                                                             
00016121  _ZNSt6vectorIPNSt4priv16_Slist_node_baseESaIS2_EE7reserveEj                                                                                                                                                                                          
00015717  _ZNSt6vectorIPNSt6locale5facetESaIS2_EE14_M_fill_insertEPS2_jRKS2_                                                                                                                                                                                   
00015191  _ZNSt6vectorIPNSt6locale5facetESaIS2_EE18_M_fill_insert_auxEPS2_jRKS2_RKSt12__false_type                                                                                                                                                             
0001639d  _ZNSt6vectorIPNSt6locale5facetESaIS2_EE7reserveEj                                                                                                                                                                                                    
0001b5c7  _ZNSt6vectorIPNSt6locale5facetESaIS2_EE8_M_clearEv                                                                                                                                                                                                   
000154c1  _ZNSt6vectorIPNSt6locale5facetESaIS2_EEaSERKS4_                                                                                                                                                                                                      
20000a14  _ZNSt7codecvtIcciE2idE                                                                                                                                                                                                                               
00002a2f  _ZNSt7codecvtIcciED0Ev                                                                                                                                                                                                                               
00002a37  _ZNSt7codecvtIcciED1Ev                                                                                                                                                                                                                               
00002a37  _ZNSt7codecvtIcciED2Ev                                                                                                                                                                                                                               
20000a18  _ZNSt7codecvtIwciE2idE                                                                                                                                                                                                                               
000029e1  _ZNSt7codecvtIwciED0Ev                                                                                                                                                                                                                               
000029e9  _ZNSt7codecvtIwciED1Ev                                                                                                                                                                                                                               
000029e9  _ZNSt7codecvtIwciED2Ev                                                                                                                                                                                                                               
20000a1c  _ZNSt7collateIcE2idE                                                                                                                                                                                                                                 
000027ab  _ZNSt7collateIcED0Ev                                                                                                                                                                                                                                 
000027b3  _ZNSt7collateIcED1Ev                                                                                                                                                                                                                                 
000027b3  _ZNSt7collateIcED2Ev                                                                                                                                                                                                                                 
20000a20  _ZNSt7collateIwE2idE                                                                                                                                                                                                                                 
00002721  _ZNSt7collateIwED0Ev                                                                                                                                                                                                                                 
00002729  _ZNSt7collateIwED1Ev                                                                                                                                                                                                                                 
00002729  _ZNSt7collateIwED2Ev                                                                                                                                                                                                                                 
20001530  _ZNSt7num_getIcSt19istreambuf_iteratorIcSt11char_traitsIcEEE2idE                                                                                                                                                                                     
0001b5d9  _ZNSt7num_getIcSt19istreambuf_iteratorIcSt11char_traitsIcEEED0Ev                                                                                                                                                                                     
000145d3  _ZNSt7num_getIcSt19istreambuf_iteratorIcSt11char_traitsIcEEED1Ev                                                                                                                                                                                     
20001534  _ZNSt7num_getIwSt19istreambuf_iteratorIwSt11char_traitsIwEEE2idE                                                                                                                                                                                     
0001b5e1  _ZNSt7num_getIwSt19istreambuf_iteratorIwSt11char_traitsIwEEED0Ev                                                                                                                                                                                     
00014bc3  _ZNSt7num_getIwSt19istreambuf_iteratorIwSt11char_traitsIwEEED1Ev                                                                                                                                                                                     
20001538  _ZNSt7num_putIcSt19ostreambuf_iteratorIcSt11char_traitsIcEEE2idE                                                                                                                                                                                     
0001b5e9  _ZNSt7num_putIcSt19ostreambuf_iteratorIcSt11char_traitsIcEEED0Ev                                                                                                                                                                                     
00015aeb  _ZNSt7num_putIcSt19ostreambuf_iteratorIcSt11char_traitsIcEEED1Ev                                                                                                                                                                                     
2000153c  _ZNSt7num_putIwSt19ostreambuf_iteratorIwSt11char_traitsIwEEE2idE                                                                                                                                                                                     
0001b5f1  _ZNSt7num_putIwSt19ostreambuf_iteratorIwSt11char_traitsIwEEED0Ev                                                                                                                                                                                     
00016eaf  _ZNSt7num_putIwSt19ostreambuf_iteratorIwSt11char_traitsIwEEED1Ev                                                                                                                                                                                     
200009f0  _ZNSt8ios_base12_S_is_syncedE                                                                                                                                                                                                                        
00004821  _ZNSt8ios_base13_M_copy_stateERKS_                                                                                                                                                                                                                   
00003871  _ZNSt8ios_base13_S_initializeEv                                                                                                                                                                                                                      
0000334d  _ZNSt8ios_base15_S_uninitializeEv                                                                                                                                                                                                                    
00004625  _ZNSt8ios_base15sync_with_stdioEb                                                                                                                                                                                                                    
00000bed  _ZNSt8ios_base16_M_throw_failureEv                                                                                                                                                                                                                   
000045d1  _ZNSt8ios_base17register_callbackEPFvNS_5eventERS_iEi                                                                                                                                                                                                
000031b5  _ZNSt8ios_base19_M_invoke_callbacksENS_5eventE                                                                                                                                                                                                       
20000a24  _ZNSt8ios_base4Init8_S_countE                                                                                                                                                                                                                        
00003a8f  _ZNSt8ios_base4InitC1Ev                                                                                                                                                                                                                              
00003a8f  _ZNSt8ios_base4InitC2Ev                                                                                                                                                                                                                              
000035bb  _ZNSt8ios_base4InitD1Ev                                                                                                                                                                                                                              
000035bb  _ZNSt8ios_base4InitD2Ev                                                                                                                                                                                                                              
000037d1  _ZNSt8ios_base5imbueERKSt6locale                                                                                                                                                                                                                     
0000451b  _ZNSt8ios_base5iwordEi                                                                                                                                                                                                                               
00004497  _ZNSt8ios_base5pwordEi                                                                                                                                                                                                                               
00004441  _ZNSt8ios_base6xallocEv                                                                                                                                                                                                                              
000036b9  _ZNSt8ios_baseC1Ev                                                                                                                                                                                                                                   
000036b9  _ZNSt8ios_baseC2Ev                                                                                                                                                                                                                                   
00002389  _ZNSt8ios_baseD0Ev                                                                                                                                                                                                                                   
000031e1  _ZNSt8ios_baseD1Ev                                                                                                                                                                                                                                   
000031e1  _ZNSt8ios_baseD2Ev                                                                                                                                                                                                                                   
20000a40  _ZNSt8messagesIcE2idE                                                                                                                                                                                                                                
000003ed  _ZNSt8messagesIcEC1Ej                                                                                                                                                                                                                                
000003ed  _ZNSt8messagesIcEC2Ej                                                                                                                                                                                                                                
0001b5f9  _ZNSt8messagesIcED0Ev                                                                                                                                                                                                                                
00016fcf  _ZNSt8messagesIcED1Ev                                                                                                                                                                                                                                
20000a44  _ZNSt8messagesIwE2idE                                                                                                                                                                                                                                
0000056d  _ZNSt8messagesIwEC1Ej                                                                                                                                                                                                                                
0000056d  _ZNSt8messagesIwEC2Ej                                                                                                                                                                                                                                
0001b601  _ZNSt8messagesIwED0Ev                                                                                                                                                                                                                                
000177eb  _ZNSt8messagesIwED1Ev                                                                                                                                                                                                                                
20000a28  _ZNSt8numpunctIcE2idE                                                                                                                                                                                                                                
0000237f  _ZNSt8numpunctIcED0Ev                                                                                                                                                                                                                                
00002387  _ZNSt8numpunctIcED1Ev                                                                                                                                                                                                                                
00002387  _ZNSt8numpunctIcED2Ev                                                                                                                                                                                                                                
20000a2c  _ZNSt8numpunctIwE2idE                                                                                                                                                                                                                                
0000233f  _ZNSt8numpunctIwED0Ev                                                                                                                                                                                                                                
00002347  _ZNSt8numpunctIwED1Ev                                                                                                                                                                                                                                
00002347  _ZNSt8numpunctIwED2Ev                                                                                                                                                                                                                                
20001540  _ZNSt8time_getIcSt19istreambuf_iteratorIcSt11char_traitsIcEEE2idE                                                                                                                                                                                    
00016aa9  _ZNSt8time_getIcSt19istreambuf_iteratorIcSt11char_traitsIcEEED0Ev                                                                                                                                                                                    
00017319  _ZNSt8time_getIcSt19istreambuf_iteratorIcSt11char_traitsIcEEED1Ev                                                                                                                                                                                    
20001544  _ZNSt8time_getIwSt19istreambuf_iteratorIwSt11char_traitsIwEEE2idE                                                                                                                                                                                    
00016b3d  _ZNSt8time_getIwSt19istreambuf_iteratorIwSt11char_traitsIwEEED0Ev                                                                                                                                                                                    
000173a5  _ZNSt8time_getIwSt19istreambuf_iteratorIwSt11char_traitsIwEEED1Ev                                                                                                                                                                                    
20001548  _ZNSt8time_putIcSt19ostreambuf_iteratorIcSt11char_traitsIcEEE2idE                                                                                                                                                                                    
00016bd1  _ZNSt8time_putIcSt19ostreambuf_iteratorIcSt11char_traitsIcEEED0Ev                                                                                                                                                                                    
00017431  _ZNSt8time_putIcSt19ostreambuf_iteratorIcSt11char_traitsIcEEED1Ev                                                                                                                                                                                    
2000154c  _ZNSt8time_putIwSt19ostreambuf_iteratorIwSt11char_traitsIwEEE2idE                                                                                                                                                                                    
00016c65  _ZNSt8time_putIwSt19ostreambuf_iteratorIwSt11char_traitsIwEEED0Ev                                                                                                                                                                                    
000174bd  _ZNSt8time_putIwSt19ostreambuf_iteratorIwSt11char_traitsIwEEED1Ev                                                                                                                                                                                    
00019ca5  _ZNSt9basic_iosIcSt11char_traitsIcEE4initEPSt15basic_streambufIcS1_E                                                                                                                                                                                 
00019f11  _ZNSt9basic_iosIcSt11char_traitsIcEE5imbueERKSt6locale                                                                                                                                                                                               
0001b045  _ZNSt9basic_iosIcSt11char_traitsIcEE5rdbufEPSt15basic_streambufIcS1_E                                                                                                                                                                                
0001b0b9  _ZNSt9basic_iosIcSt11char_traitsIcEEC2Ev                                                                                                                                                                                                             
0001b47d  _ZNSt9basic_iosIcSt11char_traitsIcEED0Ev                                                                                                                                                                                                             
0001b6c9  _ZNSt9basic_iosIcSt11char_traitsIcEED1Ev                                                                                                                                                                                                             
0001b6cd  _ZNSt9basic_iosIcSt11char_traitsIcEED2Ev                                                                                                                                                                                                             
000198c7  _ZNSt9basic_iosIwSt11char_traitsIwEE4initEPSt15basic_streambufIwS1_E                                                                                                                                                                                 
00019f51  _ZNSt9basic_iosIwSt11char_traitsIwEE5imbueERKSt6locale                                                                                                                                                                                               
0001b063  _ZNSt9basic_iosIwSt11char_traitsIwEE5rdbufEPSt15basic_streambufIwS1_E                                                                                                                                                                                
0001b0d5  _ZNSt9basic_iosIwSt11char_traitsIwEEC2Ev                                                                                                                                                                                                             
0001b48b  _ZNSt9basic_iosIwSt11char_traitsIwEED0Ev                                                                                                                                                                                                             
0001b6d1  _ZNSt9basic_iosIwSt11char_traitsIwEED1Ev                                                                                                                                                                                                             
0001a00f  _ZNSt9hashtableISt4pairIKSsS0_IPvjEESsSt4hashISsENSt4priv15_HashMapTraitsTIS4_EENS7_10_Select1stIS4_EESt8equal_toISsESaIS4_EE15_S_before_beginERKSt5slistIS4_SE_ERKSt6vectorIPNS7_16_Slist_node_baseESaISM_EERj                                      
00017a75  _ZNSt9hashtableISt4pairIKSsS0_IPvjEESsSt4hashISsENSt4priv15_HashMapTraitsTIS4_EENS7_10_Select1stIS4_EESt8equal_toISsESaIS4_EE18_M_insert_noresizeEjRKS4_                                                                                             
00013dd5  _ZNSt9hashtableISt4pairIKSsS0_IPvjEESsSt4hashISsENSt4priv15_HashMapTraitsTIS4_EENS7_10_Select1stIS4_EESt8equal_toISsESaIS4_EE22insert_unique_noresizeERKS4_                                                                                          
00012fd5  _ZNSt9hashtableISt4pairIKSsS0_IPvjEESsSt4hashISsENSt4priv15_HashMapTraitsTIS4_EENS7_10_Select1stIS4_EESt8equal_toISsESaIS4_EE5eraseENS7_12_Ht_iteratorINS7_15_Slist_iteratorIS4_St16_Nonconst_traitsIS4_EEENS7_28_ConstNonLocalHashMapTraitsTIS4_EEEE
000158a1  _ZNSt9hashtableISt4pairIKSsS0_IPvjEESsSt4hashISsENSt4priv15_HashMapTraitsTIS4_EENS7_10_Select1stIS4_EESt8equal_toISsESaIS4_EE9_M_reduceEv                                                                                                            
00010985  _ZNSt9hashtableISt4pairIKSsS0_IPvjEESsSt4hashISsENSt4priv15_HashMapTraitsTIS4_EENS7_10_Select1stIS4_EESt8equal_toISsESaIS4_EE9_M_rehashEj                                                                                                            
0001a347  _ZNSt9hashtableISt4pairIKiSt6localeEiSt4hashIiENSt4priv15_HashMapTraitsTIS3_EENS6_10_Select1stIS3_EESt8equal_toIiESaIS3_EE10_M_enlargeEj                                                                                                             
0001a04d  _ZNSt9hashtableISt4pairIKiSt6localeEiSt4hashIiENSt4priv15_HashMapTraitsTIS3_EENS6_10_Select1stIS3_EESt8equal_toIiESaIS3_EE15_S_before_beginERKSt5slistIS3_SD_ERKSt6vectorIPNS6_16_Slist_node_baseESaISL_EERj                                         
00017d65  _ZNSt9hashtableISt4pairIKiSt6localeEiSt4hashIiENSt4priv15_HashMapTraitsTIS3_EENS6_10_Select1stIS3_EESt8equal_toIiESaIS3_EE18_M_insert_noresizeEjRKS3_                                                                                                
00015d15  _ZNSt9hashtableISt4pairIKiSt6localeEiSt4hashIiENSt4priv15_HashMapTraitsTIS3_EENS6_10_Select1stIS3_EESt8equal_toIiESaIS3_EE22insert_unique_noresizeERKS3_                                                                                             
0001ad2d  _ZNSt9hashtableISt4pairIKiSt6localeEiSt4hashIiENSt4priv15_HashMapTraitsTIS3_EENS6_10_Select1stIS3_EESt8equal_toIiESaIS3_EE5clearEv                                                                                                                   
000124ef  _ZNSt9hashtableISt4pairIKiSt6localeEiSt4hashIiENSt4priv15_HashMapTraitsTIS3_EENS6_10_Select1stIS3_EESt8equal_toIiESaIS3_EE5eraseERS1_                                                                                                                
00015965  _ZNSt9hashtableISt4pairIKiSt6localeEiSt4hashIiENSt4priv15_HashMapTraitsTIS3_EENS6_10_Select1stIS3_EESt8equal_toIiESaIS3_EE9_M_reduceEv                                                                                                               
000115b5  _ZNSt9hashtableISt4pairIKiSt6localeEiSt4hashIiENSt4priv15_HashMapTraitsTIS3_EENS6_10_Select1stIS3_EESt8equal_toIiESaIS3_EE9_M_rehashEj                                                                                                               
20001550  _ZNSt9money_getIcSt19istreambuf_iteratorIcSt11char_traitsIcEEE2idE                                                                                                                                                                                   
0001b609  _ZNSt9money_getIcSt19istreambuf_iteratorIcSt11char_traitsIcEEED0Ev                                                                                                                                                                                   
00017e5b  _ZNSt9money_getIcSt19istreambuf_iteratorIcSt11char_traitsIcEEED1Ev                                                                                                                                                                                   
20001554  _ZNSt9money_getIwSt19istreambuf_iteratorIwSt11char_traitsIwEEE2idE                                                                                                                                                                                   
0001b611  _ZNSt9money_getIwSt19istreambuf_iteratorIwSt11char_traitsIwEEED0Ev                                                                                                                                                                                   
000186cb  _ZNSt9money_getIwSt19istreambuf_iteratorIwSt11char_traitsIwEEED1Ev                                                                                                                                                                                   
20001558  _ZNSt9money_putIcSt19ostreambuf_iteratorIcSt11char_traitsIcEEE2idE                                                                                                                                                                                   
0001b619  _ZNSt9money_putIcSt19ostreambuf_iteratorIcSt11char_traitsIcEEED0Ev                                                                                                                                                                                   
00018e73  _ZNSt9money_putIcSt19ostreambuf_iteratorIcSt11char_traitsIcEEED1Ev                                                                                                                                                                                   
2000155c  _ZNSt9money_putIwSt19ostreambuf_iteratorIwSt11char_traitsIwEEE2idE                                                                                                                                                                                   
0001b621  _ZNSt9money_putIwSt19ostreambuf_iteratorIwSt11char_traitsIwEEED0Ev                                                                                                                                                                                   
00019063  _ZNSt9money_putIwSt19ostreambuf_iteratorIwSt11char_traitsIwEEED1Ev                                                                                                                                                                                   
00003f2f  _ZNSt9strstream3strEv                                                                                                                                                                                                                                
00003f1d  _ZNSt9strstream6freezeEb                                                                                                                                                                                                                             
00003ef5  _ZNSt9strstreamC1EPcii                                                                                                                                                                                                                               
00003ee9  _ZNSt9strstreamC1Ev                                                                                                                                                                                                                                  
00003e7d  _ZNSt9strstreamC2EPcii                                                                                                                                                                                                                               
00003d9d  _ZNSt9strstreamC2Ev                                                                                                                                                                                                                                  
0000327f  _ZNSt9strstreamD0Ev                                                                                                                                                                                                                                  
00003279  _ZNSt9strstreamD1Ev                                                                                                                                                                                                                                  
0000324b  _ZNSt9strstreamD2Ev                                                                                                                                                                                                                                  
00015af7  _ZNSt9type_infoD0Ev                                                                                                                                                                                                                                  
00015af5  _ZNSt9type_infoD1Ev                                                                                                                                                                                                                                  
00015af5  _ZNSt9type_infoD2Ev                                                                                                                                                                                                                                  
00000d4b  _ZSt10_get_facetPNSt6locale5facetE                                                                                                                                                                                                                   
0000329b  _ZSt14_release_facetRPNSt6locale5facetE                                                                                                                                                                                                              
20001560  _ZSt16__dummy_typeinfo                                                                                                                                                                                                                               
00000327  _ZSt16_get_Locale_implPSt12_Locale_impl                                                                                                                                                                                                              
000032f7  _ZSt20_release_Locale_implRPSt12_Locale_impl                                                                                                                                                                                                         
00015aed  _ZSt21__gen_dummy_typeinfosv                                                                                                                                                                                                                         
00000b89  _ZSt22_Stl_get_global_localev                                                                                                                                                                                                                        
00001927  _ZSt23_Stl_get_classic_localev                                                                                                                                                                                                                       
00019d29  _ZSt23__stl_throw_range_errorPKc                                                                                                                                                                                                                     
00019d1d  _ZSt24__stl_throw_length_errorPKc                                                                                                                                                                                                                    
00019d11  _ZSt24__stl_throw_out_of_rangePKc                                                                                                                                                                                                                    
00019d05  _ZSt25__stl_throw_runtime_errorPKc                                                                                                                                                                                                                   
00019cf9  _ZSt26__stl_throw_overflow_errorPKc                                                                                                                                                                                                                  
00003d1b  _ZSt26_copy_Nameless_Locale_implPSt12_Locale_impl                                                                                                                                                                                                    
00019ced  _ZSt28__stl_throw_invalid_argumentPKc                                                                                                                                                                                                                
20000e00  _ZSt3cin                                                                                                                                                                                                                                             
20000c5c  _ZSt4cerr                                                                                                                                                                                                                                            
20000cb0  _ZSt4clog                                                                                                                                                                                                                                            
20000c08  _ZSt4cout                                                                                                                                                                                                                                            
00018e0f  _ZSt4findIPKwwET_S2_S2_RKT0_                                                                                                                                                                                                                         
20000e58  _ZSt4wcin                                                                                                                                                                                                                                            
20000d58  _ZSt5wcerr                                                                                                                                                                                                                                           
20000dac  _ZSt5wclog                                                                                                                                                                                                                                           
20000d04  _ZSt5wcout                                                                                                                                                                                                                                           
00018877  _ZSt7find_ifIPKcNSt4priv14_Eq_char_boundISt11char_traitsIcEEEET_S7_S7_T0_                                                                                                                                                                            
00016d8d  _ZSt7find_ifIPKwNSt4priv23_Ctype_byname_w_is_maskEET_S4_S4_T0_                                                                                                                                                                                       
00015fd5  _ZSt7find_ifIPKwSt12unary_negateINSt4priv23_Ctype_byname_w_is_maskEEET_S6_S6_T0_                                                                                                                                                                     
000144f5  _ZSt7find_ifIPKwSt12unary_negateISt16_Ctype_w_is_maskEET_S5_S5_T0_                                                                                                                                                                                   
000162ff  _ZSt7find_ifIPcNSt4priv8GroupPosEET_S3_S3_T0_                                                                                                                                                                                                        
00018431  _ZStneIcSt11char_traitsIcEEbRKSt19istreambuf_iteratorIT_T0_ES7_                                                                                                                                                                                      
000184a1  _ZStneIwSt11char_traitsIwEEbRKSt19istreambuf_iteratorIT_T0_ES7_                                                                                                                                                                                      
000175d1  _ZStplIcSt11char_traitsIcESaIcEENSt4priv10__bstr_sumIT_T0_T1_NS3_14__bstr_wrapperIS5_S6_S7_EENS4_IS5_S6_S7_NS3_14__cstr_wrapperIS5_EENS3_18__sum_storage_elemIS5_S6_S7_EENS3_10__on_rightEEESE_EERKSbIS5_S6_S7_EPKS5_                                
0001d904  _ZTIN10__cxxabiv117__class_type_infoE                                                                                                                                                                                                                
0001d910  _ZTIN10__cxxabiv117__pbase_type_infoE                                                                                                                                                                                                                
0001d91c  _ZTIN10__cxxabiv119__pointer_type_infoE                                                                                                                                                                                                              
0001d928  _ZTIN10__cxxabiv120__si_class_type_infoE                                                                                                                                                                                                             
0001d934  _ZTIN10__cxxabiv121__vmi_class_type_infoE                                                                                                                                                                                                            
0001d940  _ZTIN10__cxxabiv123__fundamental_type_infoE                                                                                                                                                                                                          
0001d94c  _ZTINSt4priv16stdio_istreambufE                                                                                                                                                                                                                      
0001d958  _ZTINSt4priv16stdio_ostreambufE                                                                                                                                                                                                                      
0001d964  _ZTINSt4priv20stdio_streambuf_baseE                                                                                                                                                                                                                  
0001db5c  _ZTINSt4priv9time_initIcEE                                                                                                                                                                                                                           
0001db64  _ZTINSt4priv9time_initIwEE                                                                                                                                                                                                                           
0001d42c  _ZTINSt6locale5facetE                                                                                                                                                                                                                                
0001d718  _ZTIPKe                                                                                                                                                                                                                                              
0001d120  _ZTISd                                                                                                                                                                                                                                               
0001d444  _ZTISi                                                                                                                                                                                                                                               
0001d45c  _ZTISo                                                                                                                                                                                                                                               
0001db6c  _ZTISt10ctype_base                                                                                                                                                                                                                                   
0001d970  _ZTISt10istrstream                                                                                                                                                                                                                                   
0001db74  _ZTISt10money_base                                                                                                                                                                                                                                   
0001d140  _ZTISt10moneypunctIcLb0EE                                                                                                                                                                                                                            
0001d160  _ZTISt10moneypunctIcLb1EE                                                                                                                                                                                                                            
0001d180  _ZTISt10moneypunctIwLb0EE                                                                                                                                                                                                                            
0001d1a0  _ZTISt10moneypunctIwLb1EE                                                                                                                                                                                                                            
0001d97c  _ZTISt10ostrstream                                                                                                                                                                                                                                   
0001db7c  _ZTISt12codecvt_base                                                                                                                                                                                                                                 
0001d988  _ZTISt12ctype_bynameIcE                                                                                                                                                                                                                              
0001d994  _ZTISt12ctype_bynameIwE                                                                                                                                                                                                                              
0001d9a0  _ZTISt12strstreambuf                                                                                                                                                                                                                                 
0001d9ac  _ZTISt13basic_filebufIcSt11char_traitsIcEE                                                                                                                                                                                                           
0001d9b8  _ZTISt13basic_filebufIwSt11char_traitsIwEE                                                                                                                                                                                                           
0001d474  _ZTISt13basic_istreamIwSt11char_traitsIwEE                                                                                                                                                                                                           
0001d48c  _ZTISt13basic_ostreamIwSt11char_traitsIwEE                                                                                                                                                                                                           
0001db84  _ZTISt13messages_base                                                                                                                                                                                                                                
0001db8c  _ZTISt14_Refcount_Base                                                                                                                                                                                                                               
0001d9c4  _ZTISt14codecvt_bynameIcciE                                                                                                                                                                                                                          
0001d9d0  _ZTISt14codecvt_bynameIwciE                                                                                                                                                                                                                          
0001d9dc  _ZTISt14collate_bynameIcE                                                                                                                                                                                                                            
0001d9e8  _ZTISt14collate_bynameIwE                                                                                                                                                                                                                            
0001db94  _ZTISt15basic_streambufIcSt11char_traitsIcEE                                                                                                                                                                                                         
0001db9c  _ZTISt15basic_streambufIwSt11char_traitsIwEE                                                                                                                                                                                                         
0001d9f4  _ZTISt15messages_bynameIcE                                                                                                                                                                                                                           
0001da00  _ZTISt15messages_bynameIwE                                                                                                                                                                                                                           
0001da0c  _ZTISt15numpunct_bynameIcE                                                                                                                                                                                                                           
0001da18  _ZTISt15numpunct_bynameIwE                                                                                                                                                                                                                           
0001da24  _ZTISt15time_get_bynameIcSt19istreambuf_iteratorIcSt11char_traitsIcEEE                                                                                                                                                                               
0001da30  _ZTISt15time_get_bynameIwSt19istreambuf_iteratorIwSt11char_traitsIwEEE                                                                                                                                                                               
0001da3c  _ZTISt15time_put_bynameIcSt19ostreambuf_iteratorIcSt11char_traitsIcEEE                                                                                                                                                                               
0001da48  _ZTISt15time_put_bynameIwSt19ostreambuf_iteratorIwSt11char_traitsIwEEE                                                                                                                                                                               
0001da54  _ZTISt17moneypunct_bynameIcLb0EE                                                                                                                                                                                                                     
0001da60  _ZTISt17moneypunct_bynameIcLb1EE                                                                                                                                                                                                                     
0001da6c  _ZTISt17moneypunct_bynameIwLb0EE                                                                                                                                                                                                                     
0001da78  _ZTISt17moneypunct_bynameIwLb1EE                                                                                                                                                                                                                     
0001d1c0  _ZTISt5ctypeIcE                                                                                                                                                                                                                                      
0001d1e0  _ZTISt5ctypeIwE                                                                                                                                                                                                                                      
0001d200  _ZTISt7codecvtIcciE                                                                                                                                                                                                                                  
0001d220  _ZTISt7codecvtIwciE                                                                                                                                                                                                                                  
0001da84  _ZTISt7collateIcE                                                                                                                                                                                                                                    
0001da90  _ZTISt7collateIwE                                                                                                                                                                                                                                    
0001da9c  _ZTISt7num_getIcSt19istreambuf_iteratorIcSt11char_traitsIcEEE                                                                                                                                                                                        
0001daa8  _ZTISt7num_getIwSt19istreambuf_iteratorIwSt11char_traitsIwEEE                                                                                                                                                                                        
0001dab4  _ZTISt7num_putIcSt19ostreambuf_iteratorIcSt11char_traitsIcEEE                                                                                                                                                                                        
0001dac0  _ZTISt7num_putIwSt19ostreambuf_iteratorIwSt11char_traitsIwEEE                                                                                                                                                                                        
0001dba4  _ZTISt8ios_base                                                                                                                                                                                                                                      
0001d240  _ZTISt8messagesIcE                                                                                                                                                                                                                                   
0001d260  _ZTISt8messagesIwE                                                                                                                                                                                                                                   
0001dacc  _ZTISt8numpunctIcE                                                                                                                                                                                                                                   
0001dad8  _ZTISt8numpunctIwE                                                                                                                                                                                                                                   
0001cd94  _ZTISt8time_getIcSt19istreambuf_iteratorIcSt11char_traitsIcEEE                                                                                                                                                                                       
0001cdbc  _ZTISt8time_getIwSt19istreambuf_iteratorIwSt11char_traitsIwEEE                                                                                                                                                                                       
0001cde4  _ZTISt8time_putIcSt19ostreambuf_iteratorIcSt11char_traitsIcEEE                                                                                                                                                                                       
0001ce0c  _ZTISt8time_putIwSt19ostreambuf_iteratorIwSt11char_traitsIwEEE                                                                                                                                                                                       
0001dae4  _ZTISt9basic_iosIcSt11char_traitsIcEE                                                                                                                                                                                                                
0001daf0  _ZTISt9basic_iosIwSt11char_traitsIwEE                                                                                                                                                                                                                
0001dafc  _ZTISt9money_getIcSt19istreambuf_iteratorIcSt11char_traitsIcEEE                                                                                                                                                                                      
0001db08  _ZTISt9money_getIwSt19istreambuf_iteratorIwSt11char_traitsIwEEE                                                                                                                                                                                      
0001db14  _ZTISt9money_putIcSt19ostreambuf_iteratorIcSt11char_traitsIcEEE                                                                                                                                                                                      
0001db20  _ZTISt9money_putIwSt19ostreambuf_iteratorIwSt11char_traitsIwEEE                                                                                                                                                                                      
0001db2c  _ZTISt9strstream                                                                                                                                                                                                                                     
0001dbac  _ZTISt9time_base                                                                                                                                                                                                                                     
0001dbb4  _ZTISt9type_info                                                                                                                                                                                                                                     
0001dbbc  _ZTIe                                                                                                                                                                                                                                                
0001d098  _ZTSN10__cxxabiv117__class_type_infoE                                                                                                                                                                                                                
0001d0ba  _ZTSN10__cxxabiv117__pbase_type_infoE                                                                                                                                                                                                                
0001cfe3  _ZTSN10__cxxabiv119__pointer_type_infoE                                                                                                                                                                                                              
0001cfbe  _ZTSN10__cxxabiv120__si_class_type_infoE                                                                                                                                                                                                             
0001cf98  _ZTSN10__cxxabiv121__vmi_class_type_infoE                                                                                                                                                                                                            
0001ce34  _ZTSN10__cxxabiv123__fundamental_type_infoE                                                                                                                                                                                                          
0001d314  _ZTSNSt4priv16stdio_istreambufE                                                                                                                                                                                                                      
0001d330  _ZTSNSt4priv16stdio_ostreambufE                                                                                                                                                                                                                      
0001d280  _ZTSNSt4priv20stdio_streambuf_baseE                                                                                                                                                                                                                  
0001d534  _ZTSNSt4priv9time_initIcEE                                                                                                                                                                                                                           
0001d54b  _ZTSNSt4priv9time_initIwEE                                                                                                                                                                                                                           
0001d6cf  _ZTSNSt6locale5facetE                                                                                                                                                                                                                                
0001dbf4  _ZTSPKe                                                                                                                                                                                                                                              
0001bea9  _ZTSSd                                                                                                                                                                                                                                               
0001d715  _ZTSSi                                                                                                                                                                                                                                               
0001dbf8  _ZTSSo                                                                                                                                                                                                                                               
0001d814  _ZTSSt10ctype_base                                                                                                                                                                                                                                   
0001d823  _ZTSSt10istrstream                                                                                                                                                                                                                                   
0001d832  _ZTSSt10money_base                                                                                                                                                                                                                                   
0001d5be  _ZTSSt10moneypunctIcLb0EE                                                                                                                                                                                                                            
0001d5d4  _ZTSSt10moneypunctIcLb1EE                                                                                                                                                                                                                            
0001d5ea  _ZTSSt10moneypunctIwLb0EE                                                                                                                                                                                                                            
0001d600  _ZTSSt10moneypunctIwLb1EE                                                                                                                                                                                                                            
0001d841  _ZTSSt10ostrstream                                                                                                                                                                                                                                   
0001d6f3  _ZTSSt12codecvt_base                                                                                                                                                                                                                                 
0001d642  _ZTSSt12ctype_bynameIcE                                                                                                                                                                                                                              
0001d656  _ZTSSt12ctype_bynameIwE                                                                                                                                                                                                                              
0001d704  _ZTSSt12strstreambuf                                                                                                                                                                                                                                 
0001cefc  _ZTSSt13basic_filebufIcSt11char_traitsIcEE                                                                                                                                                                                                           
0001cf23  _ZTSSt13basic_filebufIwSt11char_traitsIwEE                                                                                                                                                                                                           
0001cf4a  _ZTSSt13basic_istreamIwSt11char_traitsIwEE                                                                                                                                                                                                           
