;******************************************************************************
;* TI ARM C/C++ Codegen                                        PC v16.9.0.LTS *
;* Date/Time created: Fri Mar 10 00:22:01 2017                                *
;******************************************************************************
	.compiler_opts --abi=eabi --arm_vmrs_si_workaround=off --code_state=16 --diag_wrap=off --embedded_constants=on --endian=little --float_support=FPv4SPD16 --hll_source=on --object_format=elf --silicon_version=7M4 --symdebug:dwarf --symdebug:dwarf_version=3 --unaligned_access=on 
	.thumb

$C$DW$CU	.dwtag  DW_TAG_compile_unit
	.dwattr $C$DW$CU, DW_AT_name("../tm4c123gh6pm_startup_ccs.c")
	.dwattr $C$DW$CU, DW_AT_producer("TI TI ARM C/C++ Codegen PC v16.9.0.LTS Copyright (c) 1996-2015 Texas Instruments Incorporated")
	.dwattr $C$DW$CU, DW_AT_TI_version(0x01)
	.dwattr $C$DW$CU, DW_AT_comp_dir("D:\Github Clones\EmbeddedSystems.Playground\Texas Instruments\TM4C123G\Projects\GPIO_4C123\Debug")
$C$DW$1	.dwtag  DW_TAG_variable
	.dwattr $C$DW$1, DW_AT_name("__STACK_TOP")
	.dwattr $C$DW$1, DW_AT_TI_symbol_name("__STACK_TOP")
	.dwattr $C$DW$1, DW_AT_type(*$C$DW$T$37)
	.dwattr $C$DW$1, DW_AT_declaration
	.dwattr $C$DW$1, DW_AT_external
	.dwattr $C$DW$1, DW_AT_decl_file("../tm4c123gh6pm_startup_ccs.c")
	.dwattr $C$DW$1, DW_AT_decl_line(0x39)
	.dwattr $C$DW$1, DW_AT_decl_column(0x11)

	.global	g_pfnVectors
	.sect	".intvecs"
	.align	4
	.elfsym	g_pfnVectors,SYM_SIZE(620)
g_pfnVectors:
	.bits	__STACK_TOP,32		; g_pfnVectors[0] @ 0
	.bits	ResetISR,32		; g_pfnVectors[1] @ 32
	.bits	NmiSR,32		; g_pfnVectors[2] @ 64
	.bits	FaultISR,32		; g_pfnVectors[3] @ 96
	.bits	IntDefaultHandler,32		; g_pfnVectors[4] @ 128
	.bits	IntDefaultHandler,32		; g_pfnVectors[5] @ 160
	.bits	IntDefaultHandler,32		; g_pfnVectors[6] @ 192
	.bits	0,32			; g_pfnVectors[7] @ 224
	.bits	0,32			; g_pfnVectors[8] @ 256
	.bits	0,32			; g_pfnVectors[9] @ 288
	.bits	0,32			; g_pfnVectors[10] @ 320
	.bits	SVC_Handler,32		; g_pfnVectors[11] @ 352
	.bits	DebugMon_Handler,32		; g_pfnVectors[12] @ 384
	.bits	0,32			; g_pfnVectors[13] @ 416
	.bits	PendSV_Handler,32		; g_pfnVectors[14] @ 448
	.bits	SysTick_Handler,32		; g_pfnVectors[15] @ 480
	.bits	GPIOPortA_Handler,32		; g_pfnVectors[16] @ 512
	.bits	GPIOPortB_Handler,32		; g_pfnVectors[17] @ 544
	.bits	GPIOPortC_Handler,32		; g_pfnVectors[18] @ 576
	.bits	GPIOPortD_Handler,32		; g_pfnVectors[19] @ 608
	.bits	GPIOPortE_Handler,32		; g_pfnVectors[20] @ 640
	.bits	UART0_Handler,32		; g_pfnVectors[21] @ 672
	.bits	UART1_Handler,32		; g_pfnVectors[22] @ 704
	.bits	SSI0_Handler,32		; g_pfnVectors[23] @ 736
	.bits	I2C0_Handler,32		; g_pfnVectors[24] @ 768
	.bits	PWM0Fault_Handler,32		; g_pfnVectors[25] @ 800
	.bits	PWM0Generator0_Handler,32		; g_pfnVectors[26] @ 832
	.bits	PWM0Generator1_Handler,32		; g_pfnVectors[27] @ 864
	.bits	PWM0Generator2_Handler,32		; g_pfnVectors[28] @ 896
	.bits	Quadrature0_Handler,32		; g_pfnVectors[29] @ 928
	.bits	ADC0Seq0_Handler,32		; g_pfnVectors[30] @ 960
	.bits	ADC0Seq1_Handler,32		; g_pfnVectors[31] @ 992
	.bits	ADC0Seq2_Handler,32		; g_pfnVectors[32] @ 1024
	.bits	ADC0Seq3_Handler,32		; g_pfnVectors[33] @ 1056
	.bits	WDT_Handler,32		; g_pfnVectors[34] @ 1088
	.bits	Timer0A_Handler,32		; g_pfnVectors[35] @ 1120
	.bits	Timer0B_Handler,32		; g_pfnVectors[36] @ 1152
	.bits	Timer1A_Handler,32		; g_pfnVectors[37] @ 1184
	.bits	Timer1B_Handler,32		; g_pfnVectors[38] @ 1216
	.bits	Timer2A_Handler,32		; g_pfnVectors[39] @ 1248
	.bits	Timer2B_Handler,32		; g_pfnVectors[40] @ 1280
	.bits	Comp0_Handler,32		; g_pfnVectors[41] @ 1312
	.bits	Comp1_Handler,32		; g_pfnVectors[42] @ 1344
	.bits	Comp2_Handler,32		; g_pfnVectors[43] @ 1376
	.bits	SysCtl_Handler,32		; g_pfnVectors[44] @ 1408
	.bits	FlashCtl_Handler,32		; g_pfnVectors[45] @ 1440
	.bits	GPIOPortF_Handler,32		; g_pfnVectors[46] @ 1472
	.bits	GPIOPortG_Handler,32		; g_pfnVectors[47] @ 1504
	.bits	GPIOPortH_Handler,32		; g_pfnVectors[48] @ 1536
	.bits	UART2_Handler,32		; g_pfnVectors[49] @ 1568
	.bits	SSI1_Handler,32		; g_pfnVectors[50] @ 1600
	.bits	Timer3A_Handler,32		; g_pfnVectors[51] @ 1632
	.bits	Timer3B_Handler,32		; g_pfnVectors[52] @ 1664
	.bits	I2C1_Handler,32		; g_pfnVectors[53] @ 1696
	.bits	Quadrature1_Handler,32		; g_pfnVectors[54] @ 1728
	.bits	CAN0_Handler,32		; g_pfnVectors[55] @ 1760
	.bits	CAN1_Handler,32		; g_pfnVectors[56] @ 1792
	.bits	CAN2_Handler,32		; g_pfnVectors[57] @ 1824
	.bits	Ethernet_Handler,32		; g_pfnVectors[58] @ 1856
	.bits	Hibernate_Handler,32		; g_pfnVectors[59] @ 1888
	.bits	USB0_Handler,32		; g_pfnVectors[60] @ 1920
	.bits	PWM0Generator3_Handler,32		; g_pfnVectors[61] @ 1952
	.bits	uDMA_Handler,32		; g_pfnVectors[62] @ 1984
	.bits	uDMA_Error,32		; g_pfnVectors[63] @ 2016
	.bits	ADC1Seq0_Handler,32		; g_pfnVectors[64] @ 2048
	.bits	ADC1Seq1_Handler,32		; g_pfnVectors[65] @ 2080
	.bits	ADC1Seq2_Handler,32		; g_pfnVectors[66] @ 2112
	.bits	ADC1Seq3_Handler,32		; g_pfnVectors[67] @ 2144
	.bits	I2S0_Handler,32		; g_pfnVectors[68] @ 2176
	.bits	ExtBus_Handler,32		; g_pfnVectors[69] @ 2208
	.bits	GPIOPortJ_Handler,32		; g_pfnVectors[70] @ 2240
	.bits	GPIOPortK_Handler,32		; g_pfnVectors[71] @ 2272
	.bits	GPIOPortL_Handler,32		; g_pfnVectors[72] @ 2304
	.bits	SSI2_Handler,32		; g_pfnVectors[73] @ 2336
	.bits	SSI3_Handler,32		; g_pfnVectors[74] @ 2368
	.bits	UART3_Handler,32		; g_pfnVectors[75] @ 2400
	.bits	UART4_Handler,32		; g_pfnVectors[76] @ 2432
	.bits	UART5_Handler,32		; g_pfnVectors[77] @ 2464
	.bits	UART6_Handler,32		; g_pfnVectors[78] @ 2496
	.bits	UART7_Handler,32		; g_pfnVectors[79] @ 2528
	.bits	0,32			; g_pfnVectors[80] @ 2560
	.bits	0,32			; g_pfnVectors[81] @ 2592
	.bits	0,32			; g_pfnVectors[82] @ 2624
	.bits	0,32			; g_pfnVectors[83] @ 2656
	.bits	I2C2_Handler,32		; g_pfnVectors[84] @ 2688
	.bits	I2C3_Handler,32		; g_pfnVectors[85] @ 2720
	.bits	Timer4A_Handler,32		; g_pfnVectors[86] @ 2752
	.bits	Timer4B_Handler,32		; g_pfnVectors[87] @ 2784
	.bits	0,32			; g_pfnVectors[88] @ 2816
	.bits	0,32			; g_pfnVectors[89] @ 2848
	.bits	0,32			; g_pfnVectors[90] @ 2880
	.bits	0,32			; g_pfnVectors[91] @ 2912
	.bits	0,32			; g_pfnVectors[92] @ 2944
	.bits	0,32			; g_pfnVectors[93] @ 2976
	.bits	0,32			; g_pfnVectors[94] @ 3008
	.bits	0,32			; g_pfnVectors[95] @ 3040
	.bits	0,32			; g_pfnVectors[96] @ 3072
	.bits	0,32			; g_pfnVectors[97] @ 3104
	.bits	0,32			; g_pfnVectors[98] @ 3136
	.bits	0,32			; g_pfnVectors[99] @ 3168
	.bits	0,32			; g_pfnVectors[100] @ 3200
	.bits	0,32			; g_pfnVectors[101] @ 3232
	.bits	0,32			; g_pfnVectors[102] @ 3264
	.bits	0,32			; g_pfnVectors[103] @ 3296
	.bits	0,32			; g_pfnVectors[104] @ 3328
	.bits	0,32			; g_pfnVectors[105] @ 3360
	.bits	0,32			; g_pfnVectors[106] @ 3392
	.bits	0,32			; g_pfnVectors[107] @ 3424
	.bits	Timer5A_Handler,32		; g_pfnVectors[108] @ 3456
	.bits	Timer5B_Handler,32		; g_pfnVectors[109] @ 3488
	.bits	WideTimer0A_Handler,32		; g_pfnVectors[110] @ 3520
	.bits	WideTimer0B_Handler,32		; g_pfnVectors[111] @ 3552
	.bits	WideTimer1A_Handler,32		; g_pfnVectors[112] @ 3584
	.bits	WideTimer1B_Handler,32		; g_pfnVectors[113] @ 3616
	.bits	WideTimer2A_Handler,32		; g_pfnVectors[114] @ 3648
	.bits	WideTimer2B_Handler,32		; g_pfnVectors[115] @ 3680
	.bits	WideTimer3A_Handler,32		; g_pfnVectors[116] @ 3712
	.bits	WideTimer3B_Handler,32		; g_pfnVectors[117] @ 3744
	.bits	WideTimer4A_Handler,32		; g_pfnVectors[118] @ 3776
	.bits	WideTimer4B_Handler,32		; g_pfnVectors[119] @ 3808
	.bits	WideTimer5A_Handler,32		; g_pfnVectors[120] @ 3840
	.bits	WideTimer5B_Handler,32		; g_pfnVectors[121] @ 3872
	.bits	FPU_Handler,32		; g_pfnVectors[122] @ 3904
	.bits	PECI0_Handler,32		; g_pfnVectors[123] @ 3936
	.bits	LPC0_Handler,32		; g_pfnVectors[124] @ 3968
	.bits	I2C4_Handler,32		; g_pfnVectors[125] @ 4000
	.bits	I2C5_Handler,32		; g_pfnVectors[126] @ 4032
	.bits	GPIOPortM_Handler,32		; g_pfnVectors[127] @ 4064
	.bits	GPIOPortN_Handler,32		; g_pfnVectors[128] @ 4096
	.bits	Quadrature2_Handler,32		; g_pfnVectors[129] @ 4128
	.bits	Fan0_Handler,32		; g_pfnVectors[130] @ 4160
	.bits	0,32			; g_pfnVectors[131] @ 4192
	.bits	GPIOPortP_Handler,32		; g_pfnVectors[132] @ 4224
	.bits	GPIOPortP1_Handler,32		; g_pfnVectors[133] @ 4256
	.bits	GPIOPortP2_Handler,32		; g_pfnVectors[134] @ 4288
	.bits	GPIOPortP3_Handler,32		; g_pfnVectors[135] @ 4320
	.bits	GPIOPortP4_Handler,32		; g_pfnVectors[136] @ 4352
	.bits	GPIOPortP5_Handler,32		; g_pfnVectors[137] @ 4384
	.bits	GPIOPortP6_Handler,32		; g_pfnVectors[138] @ 4416
	.bits	GPIOPortP7_Handler,32		; g_pfnVectors[139] @ 4448
	.bits	GPIOPortQ_Handler,32		; g_pfnVectors[140] @ 4480
	.bits	GPIOPortQ1_Handler,32		; g_pfnVectors[141] @ 4512
	.bits	GPIOPortQ2_Handler,32		; g_pfnVectors[142] @ 4544
	.bits	GPIOPortQ3_Handler,32		; g_pfnVectors[143] @ 4576
	.bits	GPIOPortQ4_Handler,32		; g_pfnVectors[144] @ 4608
	.bits	GPIOPortQ5_Handler,32		; g_pfnVectors[145] @ 4640
	.bits	GPIOPortQ6_Handler,32		; g_pfnVectors[146] @ 4672
	.bits	GPIOPortQ7_Handler,32		; g_pfnVectors[147] @ 4704
	.bits	GPIOPortR_Handler,32		; g_pfnVectors[148] @ 4736
	.bits	GPIOPortS_Handler,32		; g_pfnVectors[149] @ 4768
	.bits	PWM1Generator0_Handler,32		; g_pfnVectors[150] @ 4800
	.bits	PWM1Generator1_Handler,32		; g_pfnVectors[151] @ 4832
	.bits	PWM1Generator2_Handler,32		; g_pfnVectors[152] @ 4864
	.bits	PWM1Generator3_Handler,32		; g_pfnVectors[153] @ 4896
	.bits	PWM1Fault_Handler,32		; g_pfnVectors[154] @ 4928

$C$DW$2	.dwtag  DW_TAG_variable
	.dwattr $C$DW$2, DW_AT_name("g_pfnVectors")
	.dwattr $C$DW$2, DW_AT_TI_symbol_name("g_pfnVectors")
	.dwattr $C$DW$2, DW_AT_location[DW_OP_addr g_pfnVectors]
	.dwattr $C$DW$2, DW_AT_type(*$C$DW$T$22)
	.dwattr $C$DW$2, DW_AT_external
	.dwattr $C$DW$2, DW_AT_decl_file("../tm4c123gh6pm_startup_ccs.c")
	.dwattr $C$DW$2, DW_AT_decl_line(0xc2)
	.dwattr $C$DW$2, DW_AT_decl_column(0x0f)

;	D:\EngineeringSoftware\CCS\ccsv7\tools\compiler\ti-cgt-arm_16.9.0.LTS\bin\armacpia.exe -@C:\\Users\\Glenn\\AppData\\Local\\Temp\\1250412 
	.sect	".text"
	.clink
	.thumbfunc ResetISR
	.thumb
	.global	ResetISR

$C$DW$3	.dwtag  DW_TAG_subprogram
	.dwattr $C$DW$3, DW_AT_name("ResetISR")
	.dwattr $C$DW$3, DW_AT_low_pc(ResetISR)
	.dwattr $C$DW$3, DW_AT_high_pc(0x00)
	.dwattr $C$DW$3, DW_AT_TI_symbol_name("ResetISR")
	.dwattr $C$DW$3, DW_AT_external
	.dwattr $C$DW$3, DW_AT_TI_begin_file("../tm4c123gh6pm_startup_ccs.c")
	.dwattr $C$DW$3, DW_AT_TI_begin_line(0x173)
	.dwattr $C$DW$3, DW_AT_TI_begin_column(0x01)
	.dwattr $C$DW$3, DW_AT_decl_file("../tm4c123gh6pm_startup_ccs.c")
	.dwattr $C$DW$3, DW_AT_decl_line(0x173)
	.dwattr $C$DW$3, DW_AT_decl_column(0x01)
	.dwattr $C$DW$3, DW_AT_TI_max_frame_size(0x00)
	.dwpsn	file "../tm4c123gh6pm_startup_ccs.c",line 372,column 1,is_stmt,address ResetISR,isa 1

	.dwfde $C$DW$CIE, ResetISR
;----------------------------------------------------------------------
; 371 | ResetISR(void)                                                         
; 373 | //                                                                     
; 374 | // Jump to the CCS C initialization routine.  This will enable the     
; 375 | // floating-point unit as well, so that does not need to be done here. 
; 376 | //                                                                     
;----------------------------------------------------------------------

;*****************************************************************************
;* FUNCTION NAME: ResetISR                                                   *
;*                                                                           *
;*   Regs Modified     :                                                     *
;*   Regs Used         : LR                                                  *
;*   Local Frame Size  : 0 Args + 0 Auto + 0 Save = 0 byte                   *
;*****************************************************************************
ResetISR:
;* --------------------------------------------------------------------------*
	.dwcfi	cfa_offset, 0
	.dwpsn	file "../tm4c123gh6pm_startup_ccs.c",line 377,column 5,is_stmt,isa 1
;----------------------------------------------------------------------
; 377 | __asm("    .global _c_int00\n"                                         
; 378 |       "    b.w     _c_int00");                                         
;----------------------------------------------------------------------
    .global _c_int00
    b.w     _c_int00
	.dwpsn	file "../tm4c123gh6pm_startup_ccs.c",line 379,column 1,is_stmt,isa 1
$C$DW$4	.dwtag  DW_TAG_TI_branch
	.dwattr $C$DW$4, DW_AT_low_pc(0x00)
	.dwattr $C$DW$4, DW_AT_TI_return

        BX        LR                    ; [DPU_3_PIPE] 
        ; BRANCH OCCURS                  ; [] 
	.dwattr $C$DW$3, DW_AT_TI_end_file("../tm4c123gh6pm_startup_ccs.c")
	.dwattr $C$DW$3, DW_AT_TI_end_line(0x17b)
	.dwattr $C$DW$3, DW_AT_TI_end_column(0x01)
	.dwendentry
	.dwendtag $C$DW$3

	.sect	".text"
	.clink
	.thumbfunc NmiSR
	.thumb

$C$DW$5	.dwtag  DW_TAG_subprogram
	.dwattr $C$DW$5, DW_AT_name("NmiSR")
	.dwattr $C$DW$5, DW_AT_low_pc(NmiSR)
	.dwattr $C$DW$5, DW_AT_high_pc(0x00)
	.dwattr $C$DW$5, DW_AT_TI_symbol_name("NmiSR")
	.dwattr $C$DW$5, DW_AT_TI_begin_file("../tm4c123gh6pm_startup_ccs.c")
	.dwattr $C$DW$5, DW_AT_TI_begin_line(0x185)
	.dwattr $C$DW$5, DW_AT_TI_begin_column(0x01)
	.dwattr $C$DW$5, DW_AT_decl_file("../tm4c123gh6pm_startup_ccs.c")
	.dwattr $C$DW$5, DW_AT_decl_line(0x185)
	.dwattr $C$DW$5, DW_AT_decl_column(0x01)
	.dwattr $C$DW$5, DW_AT_TI_max_frame_size(0x00)
	.dwpsn	file "../tm4c123gh6pm_startup_ccs.c",line 390,column 1,is_stmt,address NmiSR,isa 1

	.dwfde $C$DW$CIE, NmiSR
;----------------------------------------------------------------------
; 389 | NmiSR(void)                                                            
; 391 | //                                                                     
; 392 | // Enter an infinite loop.                                             
; 393 | //                                                                     
;----------------------------------------------------------------------

;*****************************************************************************
;* FUNCTION NAME: NmiSR                                                      *
;*                                                                           *
;*   Regs Modified     :                                                     *
;*   Regs Used         : LR                                                  *
;*   Local Frame Size  : 0 Args + 0 Auto + 0 Save = 0 byte                   *
;*****************************************************************************
NmiSR:
;* --------------------------------------------------------------------------*
	.dwcfi	cfa_offset, 0
	.dwpsn	file "../tm4c123gh6pm_startup_ccs.c",line 394,column 11,is_stmt,isa 1
;----------------------------------------------------------------------
; 394 | while(1)                                                               
;----------------------------------------------------------------------
;* --------------------------------------------------------------------------*
;*   BEGIN LOOP ||$C$L1||
;*
;*   Loop source line                : 394
;*   Loop closing brace source line  : 396
;*   Known Minimum Trip Count        : 1
;*   Known Maximum Trip Count        : 4294967295
;*   Known Max Trip Count Factor     : 1
;* --------------------------------------------------------------------------*
||$C$L1||:    
        B         ||$C$L1||             ; [DPU_3_PIPE] |394| 
        ; BRANCH OCCURS {||$C$L1||}      ; [] |394| 
;* --------------------------------------------------------------------------*
	.dwattr $C$DW$5, DW_AT_TI_end_file("../tm4c123gh6pm_startup_ccs.c")
	.dwattr $C$DW$5, DW_AT_TI_end_line(0x18d)
	.dwattr $C$DW$5, DW_AT_TI_end_column(0x01)
	.dwendentry
	.dwendtag $C$DW$5

	.sect	".text"
	.clink
	.thumbfunc FaultISR
	.thumb

$C$DW$6	.dwtag  DW_TAG_subprogram
	.dwattr $C$DW$6, DW_AT_name("FaultISR")
	.dwattr $C$DW$6, DW_AT_low_pc(FaultISR)
	.dwattr $C$DW$6, DW_AT_high_pc(0x00)
	.dwattr $C$DW$6, DW_AT_TI_symbol_name("FaultISR")
	.dwattr $C$DW$6, DW_AT_TI_begin_file("../tm4c123gh6pm_startup_ccs.c")
	.dwattr $C$DW$6, DW_AT_TI_begin_line(0x197)
	.dwattr $C$DW$6, DW_AT_TI_begin_column(0x01)
	.dwattr $C$DW$6, DW_AT_decl_file("../tm4c123gh6pm_startup_ccs.c")
	.dwattr $C$DW$6, DW_AT_decl_line(0x197)
	.dwattr $C$DW$6, DW_AT_decl_column(0x01)
	.dwattr $C$DW$6, DW_AT_TI_max_frame_size(0x00)
	.dwpsn	file "../tm4c123gh6pm_startup_ccs.c",line 408,column 1,is_stmt,address FaultISR,isa 1

	.dwfde $C$DW$CIE, FaultISR
;----------------------------------------------------------------------
; 407 | FaultISR(void)                                                         
; 409 | //                                                                     
; 410 | // Enter an infinite loop.                                             
; 411 | //                                                                     
;----------------------------------------------------------------------

;*****************************************************************************
;* FUNCTION NAME: FaultISR                                                   *
;*                                                                           *
;*   Regs Modified     :                                                     *
;*   Regs Used         : LR                                                  *
;*   Local Frame Size  : 0 Args + 0 Auto + 0 Save = 0 byte                   *
;*****************************************************************************
FaultISR:
;* --------------------------------------------------------------------------*
	.dwcfi	cfa_offset, 0
	.dwpsn	file "../tm4c123gh6pm_startup_ccs.c",line 412,column 11,is_stmt,isa 1
;----------------------------------------------------------------------
; 412 | while(1)                                                               
;----------------------------------------------------------------------
;* --------------------------------------------------------------------------*
;*   BEGIN LOOP ||$C$L2||
;*
;*   Loop source line                : 412
;*   Loop closing brace source line  : 414
;*   Known Minimum Trip Count        : 1
;*   Known Maximum Trip Count        : 4294967295
;*   Known Max Trip Count Factor     : 1
;* --------------------------------------------------------------------------*
||$C$L2||:    
        B         ||$C$L2||             ; [DPU_3_PIPE] |412| 
        ; BRANCH OCCURS {||$C$L2||}      ; [] |412| 
;* --------------------------------------------------------------------------*
	.dwattr $C$DW$6, DW_AT_TI_end_file("../tm4c123gh6pm_startup_ccs.c")
	.dwattr $C$DW$6, DW_AT_TI_end_line(0x19f)
	.dwattr $C$DW$6, DW_AT_TI_end_column(0x01)
	.dwendentry
	.dwendtag $C$DW$6

	.sect	".text"
	.clink
	.thumbfunc IntDefaultHandler
	.thumb

$C$DW$7	.dwtag  DW_TAG_subprogram
	.dwattr $C$DW$7, DW_AT_name("IntDefaultHandler")
	.dwattr $C$DW$7, DW_AT_low_pc(IntDefaultHandler)
	.dwattr $C$DW$7, DW_AT_high_pc(0x00)
	.dwattr $C$DW$7, DW_AT_TI_symbol_name("IntDefaultHandler")
	.dwattr $C$DW$7, DW_AT_TI_begin_file("../tm4c123gh6pm_startup_ccs.c")
	.dwattr $C$DW$7, DW_AT_TI_begin_line(0x1a9)
	.dwattr $C$DW$7, DW_AT_TI_begin_column(0x01)
	.dwattr $C$DW$7, DW_AT_decl_file("../tm4c123gh6pm_startup_ccs.c")
	.dwattr $C$DW$7, DW_AT_decl_line(0x1a9)
	.dwattr $C$DW$7, DW_AT_decl_column(0x01)
	.dwattr $C$DW$7, DW_AT_TI_max_frame_size(0x00)
	.dwpsn	file "../tm4c123gh6pm_startup_ccs.c",line 426,column 1,is_stmt,address IntDefaultHandler,isa 1

	.dwfde $C$DW$CIE, IntDefaultHandler
;----------------------------------------------------------------------
; 425 | IntDefaultHandler(void)                                                
; 427 | //                                                                     
; 428 | // Go into an infinite loop.                                           
; 429 | //                                                                     
;----------------------------------------------------------------------

;*****************************************************************************
;* FUNCTION NAME: IntDefaultHandler                                          *
;*                                                                           *
;*   Regs Modified     :                                                     *
;*   Regs Used         : LR                                                  *
;*   Local Frame Size  : 0 Args + 0 Auto + 0 Save = 0 byte                   *
;*****************************************************************************
IntDefaultHandler:
;* --------------------------------------------------------------------------*
	.dwcfi	cfa_offset, 0
	.dwpsn	file "../tm4c123gh6pm_startup_ccs.c",line 430,column 11,is_stmt,isa 1
;----------------------------------------------------------------------
; 430 | while(1)                                                               
;----------------------------------------------------------------------
;* --------------------------------------------------------------------------*
;*   BEGIN LOOP ||$C$L3||
;*
;*   Loop source line                : 430
;*   Loop closing brace source line  : 432
;*   Known Minimum Trip Count        : 1
;*   Known Maximum Trip Count        : 4294967295
;*   Known Max Trip Count Factor     : 1
;* --------------------------------------------------------------------------*
||$C$L3||:    
        B         ||$C$L3||             ; [DPU_3_PIPE] |430| 
        ; BRANCH OCCURS {||$C$L3||}      ; [] |430| 
;* --------------------------------------------------------------------------*
	.dwattr $C$DW$7, DW_AT_TI_end_file("../tm4c123gh6pm_startup_ccs.c")
	.dwattr $C$DW$7, DW_AT_TI_end_line(0x1b1)
	.dwattr $C$DW$7, DW_AT_TI_end_column(0x01)
	.dwendentry
	.dwendtag $C$DW$7

	.sect	".text"
	.clink
	.thumbfunc SVC_Handler
	.thumb
	.weak	SVC_Handler

$C$DW$8	.dwtag  DW_TAG_subprogram
	.dwattr $C$DW$8, DW_AT_name("SVC_Handler")
	.dwattr $C$DW$8, DW_AT_low_pc(SVC_Handler)
	.dwattr $C$DW$8, DW_AT_high_pc(0x00)
	.dwattr $C$DW$8, DW_AT_TI_symbol_name("SVC_Handler")
	.dwattr $C$DW$8, DW_AT_external
	.dwattr $C$DW$8, DW_AT_TI_begin_file("../tm4c123gh6pm_startup_ccs.c")
	.dwattr $C$DW$8, DW_AT_TI_begin_line(0x1b7)
	.dwattr $C$DW$8, DW_AT_TI_begin_column(0x06)
	.dwattr $C$DW$8, DW_AT_decl_file("../tm4c123gh6pm_startup_ccs.c")
	.dwattr $C$DW$8, DW_AT_decl_line(0x1b7)
	.dwattr $C$DW$8, DW_AT_decl_column(0x06)
	.dwattr $C$DW$8, DW_AT_TI_max_frame_size(0x00)
	.dwpsn	file "../tm4c123gh6pm_startup_ccs.c",line 439,column 23,is_stmt,address SVC_Handler,isa 1

	.dwfde $C$DW$CIE, SVC_Handler

;*****************************************************************************
;* FUNCTION NAME: SVC_Handler                                                *
;*                                                                           *
;*   Regs Modified     :                                                     *
;*   Regs Used         : LR                                                  *
;*   Local Frame Size  : 0 Args + 0 Auto + 0 Save = 0 byte                   *
;*****************************************************************************
SVC_Handler:
;* --------------------------------------------------------------------------*
	.dwcfi	cfa_offset, 0
	.dwpsn	file "../tm4c123gh6pm_startup_ccs.c",line 439,column 31,is_stmt,isa 1
;----------------------------------------------------------------------
; 439 | void SVC_Handler(void){ while(1){}}                // SVCall Handler   
;----------------------------------------------------------------------
;* --------------------------------------------------------------------------*
;*   BEGIN LOOP ||$C$L4||
;*
;*   Loop source line                : 439
;*   Loop closing brace source line  : 439
;*   Known Minimum Trip Count        : 1
;*   Known Maximum Trip Count        : 4294967295
;*   Known Max Trip Count Factor     : 1
;* --------------------------------------------------------------------------*
||$C$L4||:    
        B         ||$C$L4||             ; [DPU_3_PIPE] |439| 
        ; BRANCH OCCURS {||$C$L4||}      ; [] |439| 
;* --------------------------------------------------------------------------*
	.dwattr $C$DW$8, DW_AT_TI_end_file("../tm4c123gh6pm_startup_ccs.c")
	.dwattr $C$DW$8, DW_AT_TI_end_line(0x1b7)
	.dwattr $C$DW$8, DW_AT_TI_end_column(0x23)
	.dwendentry
	.dwendtag $C$DW$8

	.sect	".text"
	.clink
	.thumbfunc DebugMon_Handler
	.thumb
	.weak	DebugMon_Handler

$C$DW$9	.dwtag  DW_TAG_subprogram
	.dwattr $C$DW$9, DW_AT_name("DebugMon_Handler")
	.dwattr $C$DW$9, DW_AT_low_pc(DebugMon_Handler)
	.dwattr $C$DW$9, DW_AT_high_pc(0x00)
	.dwattr $C$DW$9, DW_AT_TI_symbol_name("DebugMon_Handler")
	.dwattr $C$DW$9, DW_AT_external
	.dwattr $C$DW$9, DW_AT_TI_begin_file("../tm4c123gh6pm_startup_ccs.c")
	.dwattr $C$DW$9, DW_AT_TI_begin_line(0x1b8)
	.dwattr $C$DW$9, DW_AT_TI_begin_column(0x06)
	.dwattr $C$DW$9, DW_AT_decl_file("../tm4c123gh6pm_startup_ccs.c")
	.dwattr $C$DW$9, DW_AT_decl_line(0x1b8)
	.dwattr $C$DW$9, DW_AT_decl_column(0x06)
	.dwattr $C$DW$9, DW_AT_TI_max_frame_size(0x00)
	.dwpsn	file "../tm4c123gh6pm_startup_ccs.c",line 440,column 28,is_stmt,address DebugMon_Handler,isa 1

	.dwfde $C$DW$CIE, DebugMon_Handler

;*****************************************************************************
;* FUNCTION NAME: DebugMon_Handler                                           *
;*                                                                           *
;*   Regs Modified     :                                                     *
;*   Regs Used         : LR                                                  *
;*   Local Frame Size  : 0 Args + 0 Auto + 0 Save = 0 byte                   *
;*****************************************************************************
DebugMon_Handler:
;* --------------------------------------------------------------------------*
	.dwcfi	cfa_offset, 0
	.dwpsn	file "../tm4c123gh6pm_startup_ccs.c",line 440,column 36,is_stmt,isa 1
;----------------------------------------------------------------------
; 440 | void DebugMon_Handler(void){ while(1){}}           // Debug Monitor Han
;     | dler                                                                   
;----------------------------------------------------------------------
;* --------------------------------------------------------------------------*
;*   BEGIN LOOP ||$C$L5||
;*
;*   Loop source line                : 440
;*   Loop closing brace source line  : 440
;*   Known Minimum Trip Count        : 1
;*   Known Maximum Trip Count        : 4294967295
;*   Known Max Trip Count Factor     : 1
;* --------------------------------------------------------------------------*
||$C$L5||:    
        B         ||$C$L5||             ; [DPU_3_PIPE] |440| 
        ; BRANCH OCCURS {||$C$L5||}      ; [] |440| 
;* --------------------------------------------------------------------------*
	.dwattr $C$DW$9, DW_AT_TI_end_file("../tm4c123gh6pm_startup_ccs.c")
	.dwattr $C$DW$9, DW_AT_TI_end_line(0x1b8)
	.dwattr $C$DW$9, DW_AT_TI_end_column(0x28)
	.dwendentry
	.dwendtag $C$DW$9

	.sect	".text"
	.clink
	.thumbfunc PendSV_Handler
	.thumb
	.weak	PendSV_Handler

$C$DW$10	.dwtag  DW_TAG_subprogram
	.dwattr $C$DW$10, DW_AT_name("PendSV_Handler")
	.dwattr $C$DW$10, DW_AT_low_pc(PendSV_Handler)
	.dwattr $C$DW$10, DW_AT_high_pc(0x00)
	.dwattr $C$DW$10, DW_AT_TI_symbol_name("PendSV_Handler")
	.dwattr $C$DW$10, DW_AT_external
	.dwattr $C$DW$10, DW_AT_TI_begin_file("../tm4c123gh6pm_startup_ccs.c")
	.dwattr $C$DW$10, DW_AT_TI_begin_line(0x1b9)
	.dwattr $C$DW$10, DW_AT_TI_begin_column(0x06)
	.dwattr $C$DW$10, DW_AT_decl_file("../tm4c123gh6pm_startup_ccs.c")
	.dwattr $C$DW$10, DW_AT_decl_line(0x1b9)
	.dwattr $C$DW$10, DW_AT_decl_column(0x06)
	.dwattr $C$DW$10, DW_AT_TI_max_frame_size(0x00)
	.dwpsn	file "../tm4c123gh6pm_startup_ccs.c",line 441,column 26,is_stmt,address PendSV_Handler,isa 1

	.dwfde $C$DW$CIE, PendSV_Handler

;*****************************************************************************
;* FUNCTION NAME: PendSV_Handler                                             *
;*                                                                           *
;*   Regs Modified     :                                                     *
;*   Regs Used         : LR                                                  *
;*   Local Frame Size  : 0 Args + 0 Auto + 0 Save = 0 byte                   *
;*****************************************************************************
PendSV_Handler:
;* --------------------------------------------------------------------------*
	.dwcfi	cfa_offset, 0
	.dwpsn	file "../tm4c123gh6pm_startup_ccs.c",line 441,column 34,is_stmt,isa 1
;----------------------------------------------------------------------
; 441 | void PendSV_Handler(void){ while(1){}}             // PendSV Handler   
;----------------------------------------------------------------------
;* --------------------------------------------------------------------------*
;*   BEGIN LOOP ||$C$L6||
;*
;*   Loop source line                : 441
;*   Loop closing brace source line  : 441
;*   Known Minimum Trip Count        : 1
;*   Known Maximum Trip Count        : 4294967295
;*   Known Max Trip Count Factor     : 1
;* --------------------------------------------------------------------------*
||$C$L6||:    
        B         ||$C$L6||             ; [DPU_3_PIPE] |441| 
        ; BRANCH OCCURS {||$C$L6||}      ; [] |441| 
;* --------------------------------------------------------------------------*
	.dwattr $C$DW$10, DW_AT_TI_end_file("../tm4c123gh6pm_startup_ccs.c")
	.dwattr $C$DW$10, DW_AT_TI_end_line(0x1b9)
	.dwattr $C$DW$10, DW_AT_TI_end_column(0x26)
	.dwendentry
	.dwendtag $C$DW$10

	.sect	".text"
	.clink
	.thumbfunc SysTick_Handler
	.thumb
	.weak	SysTick_Handler

$C$DW$11	.dwtag  DW_TAG_subprogram
	.dwattr $C$DW$11, DW_AT_name("SysTick_Handler")
	.dwattr $C$DW$11, DW_AT_low_pc(SysTick_Handler)
	.dwattr $C$DW$11, DW_AT_high_pc(0x00)
	.dwattr $C$DW$11, DW_AT_TI_symbol_name("SysTick_Handler")
	.dwattr $C$DW$11, DW_AT_external
	.dwattr $C$DW$11, DW_AT_TI_begin_file("../tm4c123gh6pm_startup_ccs.c")
	.dwattr $C$DW$11, DW_AT_TI_begin_line(0x1ba)
	.dwattr $C$DW$11, DW_AT_TI_begin_column(0x06)
	.dwattr $C$DW$11, DW_AT_decl_file("../tm4c123gh6pm_startup_ccs.c")
	.dwattr $C$DW$11, DW_AT_decl_line(0x1ba)
	.dwattr $C$DW$11, DW_AT_decl_column(0x06)
	.dwattr $C$DW$11, DW_AT_TI_max_frame_size(0x00)
	.dwpsn	file "../tm4c123gh6pm_startup_ccs.c",line 442,column 27,is_stmt,address SysTick_Handler,isa 1

	.dwfde $C$DW$CIE, SysTick_Handler

;*****************************************************************************
;* FUNCTION NAME: SysTick_Handler                                            *
;*                                                                           *
;*   Regs Modified     :                                                     *
;*   Regs Used         : LR                                                  *
;*   Local Frame Size  : 0 Args + 0 Auto + 0 Save = 0 byte                   *
;*****************************************************************************
SysTick_Handler:
;* --------------------------------------------------------------------------*
	.dwcfi	cfa_offset, 0
	.dwpsn	file "../tm4c123gh6pm_startup_ccs.c",line 442,column 35,is_stmt,isa 1
;----------------------------------------------------------------------
; 442 | void SysTick_Handler(void){ while(1){}}            // SysTick Handler  
;----------------------------------------------------------------------
;* --------------------------------------------------------------------------*
;*   BEGIN LOOP ||$C$L7||
;*
;*   Loop source line                : 442
;*   Loop closing brace source line  : 442
;*   Known Minimum Trip Count        : 1
;*   Known Maximum Trip Count        : 4294967295
;*   Known Max Trip Count Factor     : 1
;* --------------------------------------------------------------------------*
||$C$L7||:    
        B         ||$C$L7||             ; [DPU_3_PIPE] |442| 
        ; BRANCH OCCURS {||$C$L7||}      ; [] |442| 
;* --------------------------------------------------------------------------*
	.dwattr $C$DW$11, DW_AT_TI_end_file("../tm4c123gh6pm_startup_ccs.c")
	.dwattr $C$DW$11, DW_AT_TI_end_line(0x1ba)
	.dwattr $C$DW$11, DW_AT_TI_end_column(0x27)
	.dwendentry
	.dwendtag $C$DW$11

	.sect	".text"
	.clink
	.thumbfunc GPIOPortA_Handler
	.thumb
	.weak	GPIOPortA_Handler

$C$DW$12	.dwtag  DW_TAG_subprogram
	.dwattr $C$DW$12, DW_AT_name("GPIOPortA_Handler")
	.dwattr $C$DW$12, DW_AT_low_pc(GPIOPortA_Handler)
	.dwattr $C$DW$12, DW_AT_high_pc(0x00)
	.dwattr $C$DW$12, DW_AT_TI_symbol_name("GPIOPortA_Handler")
	.dwattr $C$DW$12, DW_AT_external
	.dwattr $C$DW$12, DW_AT_TI_begin_file("../tm4c123gh6pm_startup_ccs.c")
	.dwattr $C$DW$12, DW_AT_TI_begin_line(0x1bb)
	.dwattr $C$DW$12, DW_AT_TI_begin_column(0x06)
	.dwattr $C$DW$12, DW_AT_decl_file("../tm4c123gh6pm_startup_ccs.c")
	.dwattr $C$DW$12, DW_AT_decl_line(0x1bb)
	.dwattr $C$DW$12, DW_AT_decl_column(0x06)
	.dwattr $C$DW$12, DW_AT_TI_max_frame_size(0x00)
	.dwpsn	file "../tm4c123gh6pm_startup_ccs.c",line 443,column 29,is_stmt,address GPIOPortA_Handler,isa 1

	.dwfde $C$DW$CIE, GPIOPortA_Handler

;*****************************************************************************
;* FUNCTION NAME: GPIOPortA_Handler                                          *
;*                                                                           *
;*   Regs Modified     :                                                     *
;*   Regs Used         : LR                                                  *
;*   Local Frame Size  : 0 Args + 0 Auto + 0 Save = 0 byte                   *
;*****************************************************************************
GPIOPortA_Handler:
;* --------------------------------------------------------------------------*
	.dwcfi	cfa_offset, 0
	.dwpsn	file "../tm4c123gh6pm_startup_ccs.c",line 443,column 37,is_stmt,isa 1
;----------------------------------------------------------------------
; 443 | void GPIOPortA_Handler(void){ while(1){}}          // GPIO Port A      
;----------------------------------------------------------------------
;* --------------------------------------------------------------------------*
;*   BEGIN LOOP ||$C$L8||
;*
;*   Loop source line                : 443
;*   Loop closing brace source line  : 443
;*   Known Minimum Trip Count        : 1
;*   Known Maximum Trip Count        : 4294967295
;*   Known Max Trip Count Factor     : 1
;* --------------------------------------------------------------------------*
||$C$L8||:    
        B         ||$C$L8||             ; [DPU_3_PIPE] |443| 
        ; BRANCH OCCURS {||$C$L8||}      ; [] |443| 
;* --------------------------------------------------------------------------*
	.dwattr $C$DW$12, DW_AT_TI_end_file("../tm4c123gh6pm_startup_ccs.c")
	.dwattr $C$DW$12, DW_AT_TI_end_line(0x1bb)
	.dwattr $C$DW$12, DW_AT_TI_end_column(0x29)
	.dwendentry
	.dwendtag $C$DW$12

	.sect	".text"
	.clink
	.thumbfunc GPIOPortB_Handler
	.thumb
	.weak	GPIOPortB_Handler

$C$DW$13	.dwtag  DW_TAG_subprogram
	.dwattr $C$DW$13, DW_AT_name("GPIOPortB_Handler")
	.dwattr $C$DW$13, DW_AT_low_pc(GPIOPortB_Handler)
	.dwattr $C$DW$13, DW_AT_high_pc(0x00)
	.dwattr $C$DW$13, DW_AT_TI_symbol_name("GPIOPortB_Handler")
	.dwattr $C$DW$13, DW_AT_external
	.dwattr $C$DW$13, DW_AT_TI_begin_file("../tm4c123gh6pm_startup_ccs.c")
	.dwattr $C$DW$13, DW_AT_TI_begin_line(0x1bc)
	.dwattr $C$DW$13, DW_AT_TI_begin_column(0x06)
	.dwattr $C$DW$13, DW_AT_decl_file("../tm4c123gh6pm_startup_ccs.c")
	.dwattr $C$DW$13, DW_AT_decl_line(0x1bc)
	.dwattr $C$DW$13, DW_AT_decl_column(0x06)
	.dwattr $C$DW$13, DW_AT_TI_max_frame_size(0x00)
	.dwpsn	file "../tm4c123gh6pm_startup_ccs.c",line 444,column 29,is_stmt,address GPIOPortB_Handler,isa 1

	.dwfde $C$DW$CIE, GPIOPortB_Handler

;*****************************************************************************
;* FUNCTION NAME: GPIOPortB_Handler                                          *
;*                                                                           *
;*   Regs Modified     :                                                     *
;*   Regs Used         : LR                                                  *
;*   Local Frame Size  : 0 Args + 0 Auto + 0 Save = 0 byte                   *
;*****************************************************************************
GPIOPortB_Handler:
;* --------------------------------------------------------------------------*
	.dwcfi	cfa_offset, 0
	.dwpsn	file "../tm4c123gh6pm_startup_ccs.c",line 444,column 37,is_stmt,isa 1
;----------------------------------------------------------------------
; 444 | void GPIOPortB_Handler(void){ while(1){}}          // GPIO Port B      
;----------------------------------------------------------------------
;* --------------------------------------------------------------------------*
;*   BEGIN LOOP ||$C$L9||
;*
;*   Loop source line                : 444
;*   Loop closing brace source line  : 444
;*   Known Minimum Trip Count        : 1
;*   Known Maximum Trip Count        : 4294967295
;*   Known Max Trip Count Factor     : 1
;* --------------------------------------------------------------------------*
||$C$L9||:    
        B         ||$C$L9||             ; [DPU_3_PIPE] |444| 
        ; BRANCH OCCURS {||$C$L9||}      ; [] |444| 
;* --------------------------------------------------------------------------*
	.dwattr $C$DW$13, DW_AT_TI_end_file("../tm4c123gh6pm_startup_ccs.c")
	.dwattr $C$DW$13, DW_AT_TI_end_line(0x1bc)
	.dwattr $C$DW$13, DW_AT_TI_end_column(0x29)
	.dwendentry
	.dwendtag $C$DW$13

	.sect	".text"
	.clink
	.thumbfunc GPIOPortC_Handler
	.thumb
	.weak	GPIOPortC_Handler

$C$DW$14	.dwtag  DW_TAG_subprogram
	.dwattr $C$DW$14, DW_AT_name("GPIOPortC_Handler")
	.dwattr $C$DW$14, DW_AT_low_pc(GPIOPortC_Handler)
	.dwattr $C$DW$14, DW_AT_high_pc(0x00)
	.dwattr $C$DW$14, DW_AT_TI_symbol_name("GPIOPortC_Handler")
	.dwattr $C$DW$14, DW_AT_external
	.dwattr $C$DW$14, DW_AT_TI_begin_file("../tm4c123gh6pm_startup_ccs.c")
	.dwattr $C$DW$14, DW_AT_TI_begin_line(0x1bd)
	.dwattr $C$DW$14, DW_AT_TI_begin_column(0x06)
	.dwattr $C$DW$14, DW_AT_decl_file("../tm4c123gh6pm_startup_ccs.c")
	.dwattr $C$DW$14, DW_AT_decl_line(0x1bd)
	.dwattr $C$DW$14, DW_AT_decl_column(0x06)
	.dwattr $C$DW$14, DW_AT_TI_max_frame_size(0x00)
	.dwpsn	file "../tm4c123gh6pm_startup_ccs.c",line 445,column 29,is_stmt,address GPIOPortC_Handler,isa 1

	.dwfde $C$DW$CIE, GPIOPortC_Handler

;*****************************************************************************
;* FUNCTION NAME: GPIOPortC_Handler                                          *
;*                                                                           *
;*   Regs Modified     :                                                     *
;*   Regs Used         : LR                                                  *
;*   Local Frame Size  : 0 Args + 0 Auto + 0 Save = 0 byte                   *
;*****************************************************************************
GPIOPortC_Handler:
;* --------------------------------------------------------------------------*
	.dwcfi	cfa_offset, 0
	.dwpsn	file "../tm4c123gh6pm_startup_ccs.c",line 445,column 37,is_stmt,isa 1
;----------------------------------------------------------------------
; 445 | void GPIOPortC_Handler(void){ while(1){}}          // GPIO Port C      
;----------------------------------------------------------------------
;* --------------------------------------------------------------------------*
;*   BEGIN LOOP ||$C$L10||
;*
;*   Loop source line                : 445
;*   Loop closing brace source line  : 445
;*   Known Minimum Trip Count        : 1
;*   Known Maximum Trip Count        : 4294967295
;*   Known Max Trip Count Factor     : 1
;* --------------------------------------------------------------------------*
||$C$L10||:    
        B         ||$C$L10||            ; [DPU_3_PIPE] |445| 
        ; BRANCH OCCURS {||$C$L10||}     ; [] |445| 
;* --------------------------------------------------------------------------*
	.dwattr $C$DW$14, DW_AT_TI_end_file("../tm4c123gh6pm_startup_ccs.c")
	.dwattr $C$DW$14, DW_AT_TI_end_line(0x1bd)
	.dwattr $C$DW$14, DW_AT_TI_end_column(0x29)
	.dwendentry
	.dwendtag $C$DW$14

	.sect	".text"
	.clink
	.thumbfunc GPIOPortD_Handler
	.thumb
	.weak	GPIOPortD_Handler

$C$DW$15	.dwtag  DW_TAG_subprogram
	.dwattr $C$DW$15, DW_AT_name("GPIOPortD_Handler")
	.dwattr $C$DW$15, DW_AT_low_pc(GPIOPortD_Handler)
	.dwattr $C$DW$15, DW_AT_high_pc(0x00)
	.dwattr $C$DW$15, DW_AT_TI_symbol_name("GPIOPortD_Handler")
	.dwattr $C$DW$15, DW_AT_external
	.dwattr $C$DW$15, DW_AT_TI_begin_file("../tm4c123gh6pm_startup_ccs.c")
	.dwattr $C$DW$15, DW_AT_TI_begin_line(0x1be)
	.dwattr $C$DW$15, DW_AT_TI_begin_column(0x06)
	.dwattr $C$DW$15, DW_AT_decl_file("../tm4c123gh6pm_startup_ccs.c")
	.dwattr $C$DW$15, DW_AT_decl_line(0x1be)
	.dwattr $C$DW$15, DW_AT_decl_column(0x06)
	.dwattr $C$DW$15, DW_AT_TI_max_frame_size(0x00)
	.dwpsn	file "../tm4c123gh6pm_startup_ccs.c",line 446,column 29,is_stmt,address GPIOPortD_Handler,isa 1

	.dwfde $C$DW$CIE, GPIOPortD_Handler

;*****************************************************************************
;* FUNCTION NAME: GPIOPortD_Handler                                          *
;*                                                                           *
;*   Regs Modified     :                                                     *
;*   Regs Used         : LR                                                  *
;*   Local Frame Size  : 0 Args + 0 Auto + 0 Save = 0 byte                   *
;*****************************************************************************
GPIOPortD_Handler:
;* --------------------------------------------------------------------------*
	.dwcfi	cfa_offset, 0
	.dwpsn	file "../tm4c123gh6pm_startup_ccs.c",line 446,column 37,is_stmt,isa 1
;----------------------------------------------------------------------
; 446 | void GPIOPortD_Handler(void){ while(1){}}          // GPIO Port D      
;----------------------------------------------------------------------
;* --------------------------------------------------------------------------*
;*   BEGIN LOOP ||$C$L11||
;*
;*   Loop source line                : 446
;*   Loop closing brace source line  : 446
;*   Known Minimum Trip Count        : 1
;*   Known Maximum Trip Count        : 4294967295
;*   Known Max Trip Count Factor     : 1
;* --------------------------------------------------------------------------*
||$C$L11||:    
        B         ||$C$L11||            ; [DPU_3_PIPE] |446| 
        ; BRANCH OCCURS {||$C$L11||}     ; [] |446| 
;* --------------------------------------------------------------------------*
	.dwattr $C$DW$15, DW_AT_TI_end_file("../tm4c123gh6pm_startup_ccs.c")
	.dwattr $C$DW$15, DW_AT_TI_end_line(0x1be)
	.dwattr $C$DW$15, DW_AT_TI_end_column(0x29)
	.dwendentry
	.dwendtag $C$DW$15

	.sect	".text"
	.clink
	.thumbfunc GPIOPortE_Handler
	.thumb
	.weak	GPIOPortE_Handler

$C$DW$16	.dwtag  DW_TAG_subprogram
	.dwattr $C$DW$16, DW_AT_name("GPIOPortE_Handler")
	.dwattr $C$DW$16, DW_AT_low_pc(GPIOPortE_Handler)
	.dwattr $C$DW$16, DW_AT_high_pc(0x00)
	.dwattr $C$DW$16, DW_AT_TI_symbol_name("GPIOPortE_Handler")
	.dwattr $C$DW$16, DW_AT_external
	.dwattr $C$DW$16, DW_AT_TI_begin_file("../tm4c123gh6pm_startup_ccs.c")
	.dwattr $C$DW$16, DW_AT_TI_begin_line(0x1bf)
	.dwattr $C$DW$16, DW_AT_TI_begin_column(0x06)
	.dwattr $C$DW$16, DW_AT_decl_file("../tm4c123gh6pm_startup_ccs.c")
	.dwattr $C$DW$16, DW_AT_decl_line(0x1bf)
	.dwattr $C$DW$16, DW_AT_decl_column(0x06)
	.dwattr $C$DW$16, DW_AT_TI_max_frame_size(0x00)
	.dwpsn	file "../tm4c123gh6pm_startup_ccs.c",line 447,column 29,is_stmt,address GPIOPortE_Handler,isa 1

	.dwfde $C$DW$CIE, GPIOPortE_Handler

;*****************************************************************************
;* FUNCTION NAME: GPIOPortE_Handler                                          *
;*                                                                           *
;*   Regs Modified     :                                                     *
;*   Regs Used         : LR                                                  *
;*   Local Frame Size  : 0 Args + 0 Auto + 0 Save = 0 byte                   *
;*****************************************************************************
GPIOPortE_Handler:
;* --------------------------------------------------------------------------*
	.dwcfi	cfa_offset, 0
	.dwpsn	file "../tm4c123gh6pm_startup_ccs.c",line 447,column 37,is_stmt,isa 1
;----------------------------------------------------------------------
; 447 | void GPIOPortE_Handler(void){ while(1){}}          // GPIO Port E      
;----------------------------------------------------------------------
;* --------------------------------------------------------------------------*
;*   BEGIN LOOP ||$C$L12||
;*
;*   Loop source line                : 447
;*   Loop closing brace source line  : 447
;*   Known Minimum Trip Count        : 1
;*   Known Maximum Trip Count        : 4294967295
;*   Known Max Trip Count Factor     : 1
;* --------------------------------------------------------------------------*
||$C$L12||:    
        B         ||$C$L12||            ; [DPU_3_PIPE] |447| 
        ; BRANCH OCCURS {||$C$L12||}     ; [] |447| 
;* --------------------------------------------------------------------------*
	.dwattr $C$DW$16, DW_AT_TI_end_file("../tm4c123gh6pm_startup_ccs.c")
	.dwattr $C$DW$16, DW_AT_TI_end_line(0x1bf)
	.dwattr $C$DW$16, DW_AT_TI_end_column(0x29)
	.dwendentry
	.dwendtag $C$DW$16

	.sect	".text"
	.clink
	.thumbfunc UART0_Handler
	.thumb
	.weak	UART0_Handler

$C$DW$17	.dwtag  DW_TAG_subprogram
	.dwattr $C$DW$17, DW_AT_name("UART0_Handler")
	.dwattr $C$DW$17, DW_AT_low_pc(UART0_Handler)
	.dwattr $C$DW$17, DW_AT_high_pc(0x00)
	.dwattr $C$DW$17, DW_AT_TI_symbol_name("UART0_Handler")
	.dwattr $C$DW$17, DW_AT_external
	.dwattr $C$DW$17, DW_AT_TI_begin_file("../tm4c123gh6pm_startup_ccs.c")
	.dwattr $C$DW$17, DW_AT_TI_begin_line(0x1c0)
	.dwattr $C$DW$17, DW_AT_TI_begin_column(0x06)
	.dwattr $C$DW$17, DW_AT_decl_file("../tm4c123gh6pm_startup_ccs.c")
	.dwattr $C$DW$17, DW_AT_decl_line(0x1c0)
	.dwattr $C$DW$17, DW_AT_decl_column(0x06)
	.dwattr $C$DW$17, DW_AT_TI_max_frame_size(0x00)
	.dwpsn	file "../tm4c123gh6pm_startup_ccs.c",line 448,column 25,is_stmt,address UART0_Handler,isa 1

	.dwfde $C$DW$CIE, UART0_Handler

;*****************************************************************************
;* FUNCTION NAME: UART0_Handler                                              *
;*                                                                           *
;*   Regs Modified     :                                                     *
;*   Regs Used         : LR                                                  *
;*   Local Frame Size  : 0 Args + 0 Auto + 0 Save = 0 byte                   *
;*****************************************************************************
UART0_Handler:
;* --------------------------------------------------------------------------*
	.dwcfi	cfa_offset, 0
	.dwpsn	file "../tm4c123gh6pm_startup_ccs.c",line 448,column 33,is_stmt,isa 1
;----------------------------------------------------------------------
; 448 | void UART0_Handler(void){ while(1){}}              // UART0 Rx and Tx  
;----------------------------------------------------------------------
;* --------------------------------------------------------------------------*
;*   BEGIN LOOP ||$C$L13||
;*
;*   Loop source line                : 448
;*   Loop closing brace source line  : 448
;*   Known Minimum Trip Count        : 1
;*   Known Maximum Trip Count        : 4294967295
;*   Known Max Trip Count Factor     : 1
;* --------------------------------------------------------------------------*
||$C$L13||:    
        B         ||$C$L13||            ; [DPU_3_PIPE] |448| 
        ; BRANCH OCCURS {||$C$L13||}     ; [] |448| 
;* --------------------------------------------------------------------------*
	.dwattr $C$DW$17, DW_AT_TI_end_file("../tm4c123gh6pm_startup_ccs.c")
	.dwattr $C$DW$17, DW_AT_TI_end_line(0x1c0)
	.dwattr $C$DW$17, DW_AT_TI_end_column(0x25)
	.dwendentry
	.dwendtag $C$DW$17

	.sect	".text"
	.clink
	.thumbfunc UART1_Handler
	.thumb
	.weak	UART1_Handler

$C$DW$18	.dwtag  DW_TAG_subprogram
	.dwattr $C$DW$18, DW_AT_name("UART1_Handler")
	.dwattr $C$DW$18, DW_AT_low_pc(UART1_Handler)
	.dwattr $C$DW$18, DW_AT_high_pc(0x00)
	.dwattr $C$DW$18, DW_AT_TI_symbol_name("UART1_Handler")
	.dwattr $C$DW$18, DW_AT_external
	.dwattr $C$DW$18, DW_AT_TI_begin_file("../tm4c123gh6pm_startup_ccs.c")
	.dwattr $C$DW$18, DW_AT_TI_begin_line(0x1c1)
	.dwattr $C$DW$18, DW_AT_TI_begin_column(0x06)
	.dwattr $C$DW$18, DW_AT_decl_file("../tm4c123gh6pm_startup_ccs.c")
	.dwattr $C$DW$18, DW_AT_decl_line(0x1c1)
	.dwattr $C$DW$18, DW_AT_decl_column(0x06)
	.dwattr $C$DW$18, DW_AT_TI_max_frame_size(0x00)
	.dwpsn	file "../tm4c123gh6pm_startup_ccs.c",line 449,column 25,is_stmt,address UART1_Handler,isa 1

	.dwfde $C$DW$CIE, UART1_Handler

;*****************************************************************************
;* FUNCTION NAME: UART1_Handler                                              *
;*                                                                           *
;*   Regs Modified     :                                                     *
;*   Regs Used         : LR                                                  *
;*   Local Frame Size  : 0 Args + 0 Auto + 0 Save = 0 byte                   *
;*****************************************************************************
UART1_Handler:
;* --------------------------------------------------------------------------*
	.dwcfi	cfa_offset, 0
	.dwpsn	file "../tm4c123gh6pm_startup_ccs.c",line 449,column 33,is_stmt,isa 1
;----------------------------------------------------------------------
; 449 | void UART1_Handler(void){ while(1){}}              // UART1 Rx and Tx  
;----------------------------------------------------------------------
;* --------------------------------------------------------------------------*
;*   BEGIN LOOP ||$C$L14||
;*
;*   Loop source line                : 449
;*   Loop closing brace source line  : 449
;*   Known Minimum Trip Count        : 1
;*   Known Maximum Trip Count        : 4294967295
;*   Known Max Trip Count Factor     : 1
;* --------------------------------------------------------------------------*
||$C$L14||:    
        B         ||$C$L14||            ; [DPU_3_PIPE] |449| 
        ; BRANCH OCCURS {||$C$L14||}     ; [] |449| 
;* --------------------------------------------------------------------------*
	.dwattr $C$DW$18, DW_AT_TI_end_file("../tm4c123gh6pm_startup_ccs.c")
	.dwattr $C$DW$18, DW_AT_TI_end_line(0x1c1)
	.dwattr $C$DW$18, DW_AT_TI_end_column(0x25)
	.dwendentry
	.dwendtag $C$DW$18

	.sect	".text"
	.clink
	.thumbfunc SSI0_Handler
	.thumb
	.weak	SSI0_Handler

$C$DW$19	.dwtag  DW_TAG_subprogram
	.dwattr $C$DW$19, DW_AT_name("SSI0_Handler")
	.dwattr $C$DW$19, DW_AT_low_pc(SSI0_Handler)
	.dwattr $C$DW$19, DW_AT_high_pc(0x00)
	.dwattr $C$DW$19, DW_AT_TI_symbol_name("SSI0_Handler")
	.dwattr $C$DW$19, DW_AT_external
	.dwattr $C$DW$19, DW_AT_TI_begin_file("../tm4c123gh6pm_startup_ccs.c")
	.dwattr $C$DW$19, DW_AT_TI_begin_line(0x1c2)
	.dwattr $C$DW$19, DW_AT_TI_begin_column(0x06)
	.dwattr $C$DW$19, DW_AT_decl_file("../tm4c123gh6pm_startup_ccs.c")
	.dwattr $C$DW$19, DW_AT_decl_line(0x1c2)
	.dwattr $C$DW$19, DW_AT_decl_column(0x06)
	.dwattr $C$DW$19, DW_AT_TI_max_frame_size(0x00)
	.dwpsn	file "../tm4c123gh6pm_startup_ccs.c",line 450,column 24,is_stmt,address SSI0_Handler,isa 1

	.dwfde $C$DW$CIE, SSI0_Handler

;*****************************************************************************
;* FUNCTION NAME: SSI0_Handler                                               *
;*                                                                           *
;*   Regs Modified     :                                                     *
;*   Regs Used         : LR                                                  *
;*   Local Frame Size  : 0 Args + 0 Auto + 0 Save = 0 byte                   *
;*****************************************************************************
SSI0_Handler:
;* --------------------------------------------------------------------------*
	.dwcfi	cfa_offset, 0
	.dwpsn	file "../tm4c123gh6pm_startup_ccs.c",line 450,column 32,is_stmt,isa 1
;----------------------------------------------------------------------
; 450 | void SSI0_Handler(void){ while(1){}}               // SSI0 Rx and Tx   
;----------------------------------------------------------------------
;* --------------------------------------------------------------------------*
;*   BEGIN LOOP ||$C$L15||
;*
;*   Loop source line                : 450
;*   Loop closing brace source line  : 450
;*   Known Minimum Trip Count        : 1
;*   Known Maximum Trip Count        : 4294967295
;*   Known Max Trip Count Factor     : 1
;* --------------------------------------------------------------------------*
||$C$L15||:    
        B         ||$C$L15||            ; [DPU_3_PIPE] |450| 
        ; BRANCH OCCURS {||$C$L15||}     ; [] |450| 
;* --------------------------------------------------------------------------*
	.dwattr $C$DW$19, DW_AT_TI_end_file("../tm4c123gh6pm_startup_ccs.c")
	.dwattr $C$DW$19, DW_AT_TI_end_line(0x1c2)
	.dwattr $C$DW$19, DW_AT_TI_end_column(0x24)
	.dwendentry
	.dwendtag $C$DW$19

	.sect	".text"
	.clink
	.thumbfunc I2C0_Handler
	.thumb
	.weak	I2C0_Handler

$C$DW$20	.dwtag  DW_TAG_subprogram
	.dwattr $C$DW$20, DW_AT_name("I2C0_Handler")
	.dwattr $C$DW$20, DW_AT_low_pc(I2C0_Handler)
	.dwattr $C$DW$20, DW_AT_high_pc(0x00)
	.dwattr $C$DW$20, DW_AT_TI_symbol_name("I2C0_Handler")
	.dwattr $C$DW$20, DW_AT_external
	.dwattr $C$DW$20, DW_AT_TI_begin_file("../tm4c123gh6pm_startup_ccs.c")
	.dwattr $C$DW$20, DW_AT_TI_begin_line(0x1c3)
	.dwattr $C$DW$20, DW_AT_TI_begin_column(0x06)
	.dwattr $C$DW$20, DW_AT_decl_file("../tm4c123gh6pm_startup_ccs.c")
	.dwattr $C$DW$20, DW_AT_decl_line(0x1c3)
	.dwattr $C$DW$20, DW_AT_decl_column(0x06)
	.dwattr $C$DW$20, DW_AT_TI_max_frame_size(0x00)
	.dwpsn	file "../tm4c123gh6pm_startup_ccs.c",line 451,column 24,is_stmt,address I2C0_Handler,isa 1

	.dwfde $C$DW$CIE, I2C0_Handler

;*****************************************************************************
;* FUNCTION NAME: I2C0_Handler                                               *
;*                                                                           *
;*   Regs Modified     :                                                     *
;*   Regs Used         : LR                                                  *
;*   Local Frame Size  : 0 Args + 0 Auto + 0 Save = 0 byte                   *
;*****************************************************************************
I2C0_Handler:
;* --------------------------------------------------------------------------*
	.dwcfi	cfa_offset, 0
	.dwpsn	file "../tm4c123gh6pm_startup_ccs.c",line 451,column 32,is_stmt,isa 1
;----------------------------------------------------------------------
; 451 | void I2C0_Handler(void){ while(1){}}               // I2C0 Master and S
;     | lave                                                                   
;----------------------------------------------------------------------
;* --------------------------------------------------------------------------*
;*   BEGIN LOOP ||$C$L16||
;*
;*   Loop source line                : 451
;*   Loop closing brace source line  : 451
;*   Known Minimum Trip Count        : 1
;*   Known Maximum Trip Count        : 4294967295
;*   Known Max Trip Count Factor     : 1
;* --------------------------------------------------------------------------*
||$C$L16||:    
        B         ||$C$L16||            ; [DPU_3_PIPE] |451| 
        ; BRANCH OCCURS {||$C$L16||}     ; [] |451| 
;* --------------------------------------------------------------------------*
	.dwattr $C$DW$20, DW_AT_TI_end_file("../tm4c123gh6pm_startup_ccs.c")
	.dwattr $C$DW$20, DW_AT_TI_end_line(0x1c3)
	.dwattr $C$DW$20, DW_AT_TI_end_column(0x24)
	.dwendentry
	.dwendtag $C$DW$20

	.sect	".text"
	.clink
	.thumbfunc PWM0Fault_Handler
	.thumb
	.weak	PWM0Fault_Handler

$C$DW$21	.dwtag  DW_TAG_subprogram
	.dwattr $C$DW$21, DW_AT_name("PWM0Fault_Handler")
	.dwattr $C$DW$21, DW_AT_low_pc(PWM0Fault_Handler)
	.dwattr $C$DW$21, DW_AT_high_pc(0x00)
	.dwattr $C$DW$21, DW_AT_TI_symbol_name("PWM0Fault_Handler")
	.dwattr $C$DW$21, DW_AT_external
	.dwattr $C$DW$21, DW_AT_TI_begin_file("../tm4c123gh6pm_startup_ccs.c")
	.dwattr $C$DW$21, DW_AT_TI_begin_line(0x1c4)
	.dwattr $C$DW$21, DW_AT_TI_begin_column(0x06)
	.dwattr $C$DW$21, DW_AT_decl_file("../tm4c123gh6pm_startup_ccs.c")
	.dwattr $C$DW$21, DW_AT_decl_line(0x1c4)
	.dwattr $C$DW$21, DW_AT_decl_column(0x06)
	.dwattr $C$DW$21, DW_AT_TI_max_frame_size(0x00)
	.dwpsn	file "../tm4c123gh6pm_startup_ccs.c",line 452,column 29,is_stmt,address PWM0Fault_Handler,isa 1

	.dwfde $C$DW$CIE, PWM0Fault_Handler

;*****************************************************************************
;* FUNCTION NAME: PWM0Fault_Handler                                          *
;*                                                                           *
;*   Regs Modified     :                                                     *
;*   Regs Used         : LR                                                  *
;*   Local Frame Size  : 0 Args + 0 Auto + 0 Save = 0 byte                   *
;*****************************************************************************
PWM0Fault_Handler:
;* --------------------------------------------------------------------------*
	.dwcfi	cfa_offset, 0
	.dwpsn	file "../tm4c123gh6pm_startup_ccs.c",line 452,column 37,is_stmt,isa 1
;----------------------------------------------------------------------
; 452 | void PWM0Fault_Handler(void){ while(1){}}          // PWM 0 Fault      
;----------------------------------------------------------------------
;* --------------------------------------------------------------------------*
;*   BEGIN LOOP ||$C$L17||
;*
;*   Loop source line                : 452
;*   Loop closing brace source line  : 452
;*   Known Minimum Trip Count        : 1
;*   Known Maximum Trip Count        : 4294967295
;*   Known Max Trip Count Factor     : 1
;* --------------------------------------------------------------------------*
||$C$L17||:    
        B         ||$C$L17||            ; [DPU_3_PIPE] |452| 
        ; BRANCH OCCURS {||$C$L17||}     ; [] |452| 
;* --------------------------------------------------------------------------*
	.dwattr $C$DW$21, DW_AT_TI_end_file("../tm4c123gh6pm_startup_ccs.c")
	.dwattr $C$DW$21, DW_AT_TI_end_line(0x1c4)
	.dwattr $C$DW$21, DW_AT_TI_end_column(0x29)
	.dwendentry
	.dwendtag $C$DW$21

	.sect	".text"
	.clink
	.thumbfunc PWM0Generator0_Handler
	.thumb
	.weak	PWM0Generator0_Handler

$C$DW$22	.dwtag  DW_TAG_subprogram
	.dwattr $C$DW$22, DW_AT_name("PWM0Generator0_Handler")
	.dwattr $C$DW$22, DW_AT_low_pc(PWM0Generator0_Handler)
	.dwattr $C$DW$22, DW_AT_high_pc(0x00)
	.dwattr $C$DW$22, DW_AT_TI_symbol_name("PWM0Generator0_Handler")
	.dwattr $C$DW$22, DW_AT_external
	.dwattr $C$DW$22, DW_AT_TI_begin_file("../tm4c123gh6pm_startup_ccs.c")
	.dwattr $C$DW$22, DW_AT_TI_begin_line(0x1c5)
	.dwattr $C$DW$22, DW_AT_TI_begin_column(0x06)
	.dwattr $C$DW$22, DW_AT_decl_file("../tm4c123gh6pm_startup_ccs.c")
	.dwattr $C$DW$22, DW_AT_decl_line(0x1c5)
	.dwattr $C$DW$22, DW_AT_decl_column(0x06)
	.dwattr $C$DW$22, DW_AT_TI_max_frame_size(0x00)
	.dwpsn	file "../tm4c123gh6pm_startup_ccs.c",line 453,column 34,is_stmt,address PWM0Generator0_Handler,isa 1

	.dwfde $C$DW$CIE, PWM0Generator0_Handler

;*****************************************************************************
;* FUNCTION NAME: PWM0Generator0_Handler                                     *
;*                                                                           *
;*   Regs Modified     :                                                     *
;*   Regs Used         : LR                                                  *
;*   Local Frame Size  : 0 Args + 0 Auto + 0 Save = 0 byte                   *
;*****************************************************************************
PWM0Generator0_Handler:
;* --------------------------------------------------------------------------*
	.dwcfi	cfa_offset, 0
	.dwpsn	file "../tm4c123gh6pm_startup_ccs.c",line 453,column 42,is_stmt,isa 1
;----------------------------------------------------------------------
; 453 | void PWM0Generator0_Handler(void){ while(1){}}     // PWM 0 Generator 0
;----------------------------------------------------------------------
;* --------------------------------------------------------------------------*
;*   BEGIN LOOP ||$C$L18||
;*
;*   Loop source line                : 453
;*   Loop closing brace source line  : 453
;*   Known Minimum Trip Count        : 1
;*   Known Maximum Trip Count        : 4294967295
;*   Known Max Trip Count Factor     : 1
;* --------------------------------------------------------------------------*
||$C$L18||:    
        B         ||$C$L18||            ; [DPU_3_PIPE] |453| 
        ; BRANCH OCCURS {||$C$L18||}     ; [] |453| 
;* --------------------------------------------------------------------------*
	.dwattr $C$DW$22, DW_AT_TI_end_file("../tm4c123gh6pm_startup_ccs.c")
	.dwattr $C$DW$22, DW_AT_TI_end_line(0x1c5)
	.dwattr $C$DW$22, DW_AT_TI_end_column(0x2e)
	.dwendentry
	.dwendtag $C$DW$22

	.sect	".text"
	.clink
	.thumbfunc PWM0Generator1_Handler
	.thumb
	.weak	PWM0Generator1_Handler

$C$DW$23	.dwtag  DW_TAG_subprogram
	.dwattr $C$DW$23, DW_AT_name("PWM0Generator1_Handler")
	.dwattr $C$DW$23, DW_AT_low_pc(PWM0Generator1_Handler)
	.dwattr $C$DW$23, DW_AT_high_pc(0x00)
	.dwattr $C$DW$23, DW_AT_TI_symbol_name("PWM0Generator1_Handler")
	.dwattr $C$DW$23, DW_AT_external
	.dwattr $C$DW$23, DW_AT_TI_begin_file("../tm4c123gh6pm_startup_ccs.c")
	.dwattr $C$DW$23, DW_AT_TI_begin_line(0x1c6)
	.dwattr $C$DW$23, DW_AT_TI_begin_column(0x06)
	.dwattr $C$DW$23, DW_AT_decl_file("../tm4c123gh6pm_startup_ccs.c")
	.dwattr $C$DW$23, DW_AT_decl_line(0x1c6)
	.dwattr $C$DW$23, DW_AT_decl_column(0x06)
	.dwattr $C$DW$23, DW_AT_TI_max_frame_size(0x00)
	.dwpsn	file "../tm4c123gh6pm_startup_ccs.c",line 454,column 34,is_stmt,address PWM0Generator1_Handler,isa 1

	.dwfde $C$DW$CIE, PWM0Generator1_Handler

;*****************************************************************************
;* FUNCTION NAME: PWM0Generator1_Handler                                     *
;*                                                                           *
;*   Regs Modified     :                                                     *
;*   Regs Used         : LR                                                  *
;*   Local Frame Size  : 0 Args + 0 Auto + 0 Save = 0 byte                   *
;*****************************************************************************
PWM0Generator1_Handler:
;* --------------------------------------------------------------------------*
	.dwcfi	cfa_offset, 0
	.dwpsn	file "../tm4c123gh6pm_startup_ccs.c",line 454,column 42,is_stmt,isa 1
;----------------------------------------------------------------------
; 454 | void PWM0Generator1_Handler(void){ while(1){}}     // PWM 0 Generator 1
;----------------------------------------------------------------------
;* --------------------------------------------------------------------------*
;*   BEGIN LOOP ||$C$L19||
;*
;*   Loop source line                : 454
;*   Loop closing brace source line  : 454
;*   Known Minimum Trip Count        : 1
;*   Known Maximum Trip Count        : 4294967295
;*   Known Max Trip Count Factor     : 1
;* --------------------------------------------------------------------------*
||$C$L19||:    
        B         ||$C$L19||            ; [DPU_3_PIPE] |454| 
        ; BRANCH OCCURS {||$C$L19||}     ; [] |454| 
;* --------------------------------------------------------------------------*
	.dwattr $C$DW$23, DW_AT_TI_end_file("../tm4c123gh6pm_startup_ccs.c")
	.dwattr $C$DW$23, DW_AT_TI_end_line(0x1c6)
	.dwattr $C$DW$23, DW_AT_TI_end_column(0x2e)
	.dwendentry
	.dwendtag $C$DW$23

	.sect	".text"
	.clink
	.thumbfunc PWM0Generator2_Handler
	.thumb
	.weak	PWM0Generator2_Handler

$C$DW$24	.dwtag  DW_TAG_subprogram
	.dwattr $C$DW$24, DW_AT_name("PWM0Generator2_Handler")
	.dwattr $C$DW$24, DW_AT_low_pc(PWM0Generator2_Handler)
	.dwattr $C$DW$24, DW_AT_high_pc(0x00)
	.dwattr $C$DW$24, DW_AT_TI_symbol_name("PWM0Generator2_Handler")
	.dwattr $C$DW$24, DW_AT_external
	.dwattr $C$DW$24, DW_AT_TI_begin_file("../tm4c123gh6pm_startup_ccs.c")
	.dwattr $C$DW$24, DW_AT_TI_begin_line(0x1c7)
	.dwattr $C$DW$24, DW_AT_TI_begin_column(0x06)
	.dwattr $C$DW$24, DW_AT_decl_file("../tm4c123gh6pm_startup_ccs.c")
	.dwattr $C$DW$24, DW_AT_decl_line(0x1c7)
	.dwattr $C$DW$24, DW_AT_decl_column(0x06)
	.dwattr $C$DW$24, DW_AT_TI_max_frame_size(0x00)
	.dwpsn	file "../tm4c123gh6pm_startup_ccs.c",line 455,column 34,is_stmt,address PWM0Generator2_Handler,isa 1

	.dwfde $C$DW$CIE, PWM0Generator2_Handler

;*****************************************************************************
;* FUNCTION NAME: PWM0Generator2_Handler                                     *
;*                                                                           *
;*   Regs Modified     :                                                     *
;*   Regs Used         : LR                                                  *
;*   Local Frame Size  : 0 Args + 0 Auto + 0 Save = 0 byte                   *
;*****************************************************************************
PWM0Generator2_Handler:
;* --------------------------------------------------------------------------*
	.dwcfi	cfa_offset, 0
	.dwpsn	file "../tm4c123gh6pm_startup_ccs.c",line 455,column 42,is_stmt,isa 1
;----------------------------------------------------------------------
; 455 | void PWM0Generator2_Handler(void){ while(1){}}     // PWM 0 Generator 2
;----------------------------------------------------------------------
;* --------------------------------------------------------------------------*
;*   BEGIN LOOP ||$C$L20||
;*
;*   Loop source line                : 455
;*   Loop closing brace source line  : 455
;*   Known Minimum Trip Count        : 1
;*   Known Maximum Trip Count        : 4294967295
;*   Known Max Trip Count Factor     : 1
;* --------------------------------------------------------------------------*
||$C$L20||:    
        B         ||$C$L20||            ; [DPU_3_PIPE] |455| 
        ; BRANCH OCCURS {||$C$L20||}     ; [] |455| 
;* --------------------------------------------------------------------------*
	.dwattr $C$DW$24, DW_AT_TI_end_file("../tm4c123gh6pm_startup_ccs.c")
	.dwattr $C$DW$24, DW_AT_TI_end_line(0x1c7)
	.dwattr $C$DW$24, DW_AT_TI_end_column(0x2e)
	.dwendentry
	.dwendtag $C$DW$24

	.sect	".text"
	.clink
	.thumbfunc Quadrature0_Handler
	.thumb
	.weak	Quadrature0_Handler

$C$DW$25	.dwtag  DW_TAG_subprogram
	.dwattr $C$DW$25, DW_AT_name("Quadrature0_Handler")
	.dwattr $C$DW$25, DW_AT_low_pc(Quadrature0_Handler)
	.dwattr $C$DW$25, DW_AT_high_pc(0x00)
	.dwattr $C$DW$25, DW_AT_TI_symbol_name("Quadrature0_Handler")
	.dwattr $C$DW$25, DW_AT_external
	.dwattr $C$DW$25, DW_AT_TI_begin_file("../tm4c123gh6pm_startup_ccs.c")
	.dwattr $C$DW$25, DW_AT_TI_begin_line(0x1c8)
	.dwattr $C$DW$25, DW_AT_TI_begin_column(0x06)
	.dwattr $C$DW$25, DW_AT_decl_file("../tm4c123gh6pm_startup_ccs.c")
	.dwattr $C$DW$25, DW_AT_decl_line(0x1c8)
	.dwattr $C$DW$25, DW_AT_decl_column(0x06)
	.dwattr $C$DW$25, DW_AT_TI_max_frame_size(0x00)
	.dwpsn	file "../tm4c123gh6pm_startup_ccs.c",line 456,column 31,is_stmt,address Quadrature0_Handler,isa 1

	.dwfde $C$DW$CIE, Quadrature0_Handler

;*****************************************************************************
;* FUNCTION NAME: Quadrature0_Handler                                        *
;*                                                                           *
;*   Regs Modified     :                                                     *
;*   Regs Used         : LR                                                  *
;*   Local Frame Size  : 0 Args + 0 Auto + 0 Save = 0 byte                   *
;*****************************************************************************
Quadrature0_Handler:
;* --------------------------------------------------------------------------*
	.dwcfi	cfa_offset, 0
	.dwpsn	file "../tm4c123gh6pm_startup_ccs.c",line 456,column 39,is_stmt,isa 1
;----------------------------------------------------------------------
; 456 | void Quadrature0_Handler(void){ while(1){}}        // Quadrature Encode
;     | r 0                                                                    
;----------------------------------------------------------------------
;* --------------------------------------------------------------------------*
;*   BEGIN LOOP ||$C$L21||
;*
;*   Loop source line                : 456
;*   Loop closing brace source line  : 456
;*   Known Minimum Trip Count        : 1
;*   Known Maximum Trip Count        : 4294967295
;*   Known Max Trip Count Factor     : 1
;* --------------------------------------------------------------------------*
||$C$L21||:    
        B         ||$C$L21||            ; [DPU_3_PIPE] |456| 
        ; BRANCH OCCURS {||$C$L21||}     ; [] |456| 
;* --------------------------------------------------------------------------*
	.dwattr $C$DW$25, DW_AT_TI_end_file("../tm4c123gh6pm_startup_ccs.c")
	.dwattr $C$DW$25, DW_AT_TI_end_line(0x1c8)
	.dwattr $C$DW$25, DW_AT_TI_end_column(0x2b)
	.dwendentry
	.dwendtag $C$DW$25

	.sect	".text"
	.clink
	.thumbfunc ADC0Seq0_Handler
	.thumb
	.weak	ADC0Seq0_Handler

$C$DW$26	.dwtag  DW_TAG_subprogram
	.dwattr $C$DW$26, DW_AT_name("ADC0Seq0_Handler")
	.dwattr $C$DW$26, DW_AT_low_pc(ADC0Seq0_Handler)
	.dwattr $C$DW$26, DW_AT_high_pc(0x00)
	.dwattr $C$DW$26, DW_AT_TI_symbol_name("ADC0Seq0_Handler")
	.dwattr $C$DW$26, DW_AT_external
	.dwattr $C$DW$26, DW_AT_TI_begin_file("../tm4c123gh6pm_startup_ccs.c")
	.dwattr $C$DW$26, DW_AT_TI_begin_line(0x1c9)
	.dwattr $C$DW$26, DW_AT_TI_begin_column(0x06)
	.dwattr $C$DW$26, DW_AT_decl_file("../tm4c123gh6pm_startup_ccs.c")
	.dwattr $C$DW$26, DW_AT_decl_line(0x1c9)
	.dwattr $C$DW$26, DW_AT_decl_column(0x06)
	.dwattr $C$DW$26, DW_AT_TI_max_frame_size(0x00)
	.dwpsn	file "../tm4c123gh6pm_startup_ccs.c",line 457,column 28,is_stmt,address ADC0Seq0_Handler,isa 1

	.dwfde $C$DW$CIE, ADC0Seq0_Handler

;*****************************************************************************
;* FUNCTION NAME: ADC0Seq0_Handler                                           *
;*                                                                           *
;*   Regs Modified     :                                                     *
;*   Regs Used         : LR                                                  *
;*   Local Frame Size  : 0 Args + 0 Auto + 0 Save = 0 byte                   *
;*****************************************************************************
ADC0Seq0_Handler:
;* --------------------------------------------------------------------------*
	.dwcfi	cfa_offset, 0
	.dwpsn	file "../tm4c123gh6pm_startup_ccs.c",line 457,column 36,is_stmt,isa 1
;----------------------------------------------------------------------
; 457 | void ADC0Seq0_Handler(void){ while(1){}}           // ADC0 Sequence 0  
;----------------------------------------------------------------------
;* --------------------------------------------------------------------------*
;*   BEGIN LOOP ||$C$L22||
;*
;*   Loop source line                : 457
;*   Loop closing brace source line  : 457
;*   Known Minimum Trip Count        : 1
;*   Known Maximum Trip Count        : 4294967295
;*   Known Max Trip Count Factor     : 1
;* --------------------------------------------------------------------------*
||$C$L22||:    
        B         ||$C$L22||            ; [DPU_3_PIPE] |457| 
        ; BRANCH OCCURS {||$C$L22||}     ; [] |457| 
;* --------------------------------------------------------------------------*
	.dwattr $C$DW$26, DW_AT_TI_end_file("../tm4c123gh6pm_startup_ccs.c")
	.dwattr $C$DW$26, DW_AT_TI_end_line(0x1c9)
	.dwattr $C$DW$26, DW_AT_TI_end_column(0x28)
	.dwendentry
	.dwendtag $C$DW$26

	.sect	".text"
	.clink
	.thumbfunc ADC0Seq1_Handler
	.thumb
	.weak	ADC0Seq1_Handler

$C$DW$27	.dwtag  DW_TAG_subprogram
	.dwattr $C$DW$27, DW_AT_name("ADC0Seq1_Handler")
	.dwattr $C$DW$27, DW_AT_low_pc(ADC0Seq1_Handler)
	.dwattr $C$DW$27, DW_AT_high_pc(0x00)
	.dwattr $C$DW$27, DW_AT_TI_symbol_name("ADC0Seq1_Handler")
	.dwattr $C$DW$27, DW_AT_external
	.dwattr $C$DW$27, DW_AT_TI_begin_file("../tm4c123gh6pm_startup_ccs.c")
	.dwattr $C$DW$27, DW_AT_TI_begin_line(0x1ca)
	.dwattr $C$DW$27, DW_AT_TI_begin_column(0x06)
	.dwattr $C$DW$27, DW_AT_decl_file("../tm4c123gh6pm_startup_ccs.c")
	.dwattr $C$DW$27, DW_AT_decl_line(0x1ca)
	.dwattr $C$DW$27, DW_AT_decl_column(0x06)
	.dwattr $C$DW$27, DW_AT_TI_max_frame_size(0x00)
	.dwpsn	file "../tm4c123gh6pm_startup_ccs.c",line 458,column 28,is_stmt,address ADC0Seq1_Handler,isa 1

	.dwfde $C$DW$CIE, ADC0Seq1_Handler

;*****************************************************************************
;* FUNCTION NAME: ADC0Seq1_Handler                                           *
;*                                                                           *
;*   Regs Modified     :                                                     *
;*   Regs Used         : LR                                                  *
;*   Local Frame Size  : 0 Args + 0 Auto + 0 Save = 0 byte                   *
;*****************************************************************************
ADC0Seq1_Handler:
;* --------------------------------------------------------------------------*
	.dwcfi	cfa_offset, 0
	.dwpsn	file "../tm4c123gh6pm_startup_ccs.c",line 458,column 36,is_stmt,isa 1
;----------------------------------------------------------------------
; 458 | void ADC0Seq1_Handler(void){ while(1){}}           // ADC0 Sequence 1  
;----------------------------------------------------------------------
;* --------------------------------------------------------------------------*
;*   BEGIN LOOP ||$C$L23||
;*
;*   Loop source line                : 458
;*   Loop closing brace source line  : 458
;*   Known Minimum Trip Count        : 1
;*   Known Maximum Trip Count        : 4294967295
;*   Known Max Trip Count Factor     : 1
;* --------------------------------------------------------------------------*
||$C$L23||:    
        B         ||$C$L23||            ; [DPU_3_PIPE] |458| 
        ; BRANCH OCCURS {||$C$L23||}     ; [] |458| 
;* --------------------------------------------------------------------------*
	.dwattr $C$DW$27, DW_AT_TI_end_file("../tm4c123gh6pm_startup_ccs.c")
	.dwattr $C$DW$27, DW_AT_TI_end_line(0x1ca)
	.dwattr $C$DW$27, DW_AT_TI_end_column(0x28)
	.dwendentry
	.dwendtag $C$DW$27

	.sect	".text"
	.clink
	.thumbfunc ADC0Seq2_Handler
	.thumb
	.weak	ADC0Seq2_Handler

$C$DW$28	.dwtag  DW_TAG_subprogram
	.dwattr $C$DW$28, DW_AT_name("ADC0Seq2_Handler")
	.dwattr $C$DW$28, DW_AT_low_pc(ADC0Seq2_Handler)
	.dwattr $C$DW$28, DW_AT_high_pc(0x00)
	.dwattr $C$DW$28, DW_AT_TI_symbol_name("ADC0Seq2_Handler")
	.dwattr $C$DW$28, DW_AT_external
	.dwattr $C$DW$28, DW_AT_TI_begin_file("../tm4c123gh6pm_startup_ccs.c")
	.dwattr $C$DW$28, DW_AT_TI_begin_line(0x1cb)
	.dwattr $C$DW$28, DW_AT_TI_begin_column(0x06)
	.dwattr $C$DW$28, DW_AT_decl_file("../tm4c123gh6pm_startup_ccs.c")
	.dwattr $C$DW$28, DW_AT_decl_line(0x1cb)
	.dwattr $C$DW$28, DW_AT_decl_column(0x06)
	.dwattr $C$DW$28, DW_AT_TI_max_frame_size(0x00)
	.dwpsn	file "../tm4c123gh6pm_startup_ccs.c",line 459,column 28,is_stmt,address ADC0Seq2_Handler,isa 1

	.dwfde $C$DW$CIE, ADC0Seq2_Handler

;*****************************************************************************
;* FUNCTION NAME: ADC0Seq2_Handler                                           *
;*                                                                           *
;*   Regs Modified     :                                                     *
;*   Regs Used         : LR                                                  *
;*   Local Frame Size  : 0 Args + 0 Auto + 0 Save = 0 byte                   *
;*****************************************************************************
ADC0Seq2_Handler:
;* --------------------------------------------------------------------------*
	.dwcfi	cfa_offset, 0
	.dwpsn	file "../tm4c123gh6pm_startup_ccs.c",line 459,column 36,is_stmt,isa 1
;----------------------------------------------------------------------
; 459 | void ADC0Seq2_Handler(void){ while(1){}}           // ADC0 Sequence 2  
;----------------------------------------------------------------------
;* --------------------------------------------------------------------------*
;*   BEGIN LOOP ||$C$L24||
;*
;*   Loop source line                : 459
;*   Loop closing brace source line  : 459
;*   Known Minimum Trip Count        : 1
;*   Known Maximum Trip Count        : 4294967295
;*   Known Max Trip Count Factor     : 1
;* --------------------------------------------------------------------------*
||$C$L24||:    
        B         ||$C$L24||            ; [DPU_3_PIPE] |459| 
        ; BRANCH OCCURS {||$C$L24||}     ; [] |459| 
;* --------------------------------------------------------------------------*
	.dwattr $C$DW$28, DW_AT_TI_end_file("../tm4c123gh6pm_startup_ccs.c")
	.dwattr $C$DW$28, DW_AT_TI_end_line(0x1cb)
	.dwattr $C$DW$28, DW_AT_TI_end_column(0x28)
	.dwendentry
	.dwendtag $C$DW$28

	.sect	".text"
	.clink
	.thumbfunc ADC0Seq3_Handler
	.thumb
	.weak	ADC0Seq3_Handler

$C$DW$29	.dwtag  DW_TAG_subprogram
	.dwattr $C$DW$29, DW_AT_name("ADC0Seq3_Handler")
	.dwattr $C$DW$29, DW_AT_low_pc(ADC0Seq3_Handler)
	.dwattr $C$DW$29, DW_AT_high_pc(0x00)
	.dwattr $C$DW$29, DW_AT_TI_symbol_name("ADC0Seq3_Handler")
	.dwattr $C$DW$29, DW_AT_external
	.dwattr $C$DW$29, DW_AT_TI_begin_file("../tm4c123gh6pm_startup_ccs.c")
	.dwattr $C$DW$29, DW_AT_TI_begin_line(0x1cc)
	.dwattr $C$DW$29, DW_AT_TI_begin_column(0x06)
	.dwattr $C$DW$29, DW_AT_decl_file("../tm4c123gh6pm_startup_ccs.c")
	.dwattr $C$DW$29, DW_AT_decl_line(0x1cc)
	.dwattr $C$DW$29, DW_AT_decl_column(0x06)
	.dwattr $C$DW$29, DW_AT_TI_max_frame_size(0x00)
	.dwpsn	file "../tm4c123gh6pm_startup_ccs.c",line 460,column 28,is_stmt,address ADC0Seq3_Handler,isa 1

	.dwfde $C$DW$CIE, ADC0Seq3_Handler

;*****************************************************************************
;* FUNCTION NAME: ADC0Seq3_Handler                                           *
;*                                                                           *
;*   Regs Modified     :                                                     *
;*   Regs Used         : LR                                                  *
;*   Local Frame Size  : 0 Args + 0 Auto + 0 Save = 0 byte                   *
;*****************************************************************************
ADC0Seq3_Handler:
;* --------------------------------------------------------------------------*
	.dwcfi	cfa_offset, 0
	.dwpsn	file "../tm4c123gh6pm_startup_ccs.c",line 460,column 36,is_stmt,isa 1
;----------------------------------------------------------------------
; 460 | void ADC0Seq3_Handler(void){ while(1){}}           // ADC0 Sequence 3  
;----------------------------------------------------------------------
;* --------------------------------------------------------------------------*
;*   BEGIN LOOP ||$C$L25||
;*
;*   Loop source line                : 460
;*   Loop closing brace source line  : 460
;*   Known Minimum Trip Count        : 1
;*   Known Maximum Trip Count        : 4294967295
;*   Known Max Trip Count Factor     : 1
;* --------------------------------------------------------------------------*
||$C$L25||:    
        B         ||$C$L25||            ; [DPU_3_PIPE] |460| 
        ; BRANCH OCCURS {||$C$L25||}     ; [] |460| 
;* --------------------------------------------------------------------------*
	.dwattr $C$DW$29, DW_AT_TI_end_file("../tm4c123gh6pm_startup_ccs.c")
	.dwattr $C$DW$29, DW_AT_TI_end_line(0x1cc)
	.dwattr $C$DW$29, DW_AT_TI_end_column(0x28)
	.dwendentry
	.dwendtag $C$DW$29

	.sect	".text"
	.clink
	.thumbfunc WDT_Handler
	.thumb
	.weak	WDT_Handler

$C$DW$30	.dwtag  DW_TAG_subprogram
	.dwattr $C$DW$30, DW_AT_name("WDT_Handler")
	.dwattr $C$DW$30, DW_AT_low_pc(WDT_Handler)
	.dwattr $C$DW$30, DW_AT_high_pc(0x00)
	.dwattr $C$DW$30, DW_AT_TI_symbol_name("WDT_Handler")
	.dwattr $C$DW$30, DW_AT_external
	.dwattr $C$DW$30, DW_AT_TI_begin_file("../tm4c123gh6pm_startup_ccs.c")
	.dwattr $C$DW$30, DW_AT_TI_begin_line(0x1cd)
	.dwattr $C$DW$30, DW_AT_TI_begin_column(0x06)
	.dwattr $C$DW$30, DW_AT_decl_file("../tm4c123gh6pm_startup_ccs.c")
	.dwattr $C$DW$30, DW_AT_decl_line(0x1cd)
	.dwattr $C$DW$30, DW_AT_decl_column(0x06)
	.dwattr $C$DW$30, DW_AT_TI_max_frame_size(0x00)
	.dwpsn	file "../tm4c123gh6pm_startup_ccs.c",line 461,column 23,is_stmt,address WDT_Handler,isa 1

	.dwfde $C$DW$CIE, WDT_Handler

;*****************************************************************************
;* FUNCTION NAME: WDT_Handler                                                *
;*                                                                           *
;*   Regs Modified     :                                                     *
;*   Regs Used         : LR                                                  *
;*   Local Frame Size  : 0 Args + 0 Auto + 0 Save = 0 byte                   *
;*****************************************************************************
WDT_Handler:
;* --------------------------------------------------------------------------*
	.dwcfi	cfa_offset, 0
	.dwpsn	file "../tm4c123gh6pm_startup_ccs.c",line 461,column 31,is_stmt,isa 1
;----------------------------------------------------------------------
; 461 | void WDT_Handler(void){ while(1){}}                // Watchdog         
;----------------------------------------------------------------------
;* --------------------------------------------------------------------------*
;*   BEGIN LOOP ||$C$L26||
;*
;*   Loop source line                : 461
;*   Loop closing brace source line  : 461
;*   Known Minimum Trip Count        : 1
;*   Known Maximum Trip Count        : 4294967295
;*   Known Max Trip Count Factor     : 1
;* --------------------------------------------------------------------------*
||$C$L26||:    
        B         ||$C$L26||            ; [DPU_3_PIPE] |461| 
        ; BRANCH OCCURS {||$C$L26||}     ; [] |461| 
;* --------------------------------------------------------------------------*
	.dwattr $C$DW$30, DW_AT_TI_end_file("../tm4c123gh6pm_startup_ccs.c")
	.dwattr $C$DW$30, DW_AT_TI_end_line(0x1cd)
	.dwattr $C$DW$30, DW_AT_TI_end_column(0x23)
	.dwendentry
	.dwendtag $C$DW$30

	.sect	".text"
	.clink
	.thumbfunc Timer0A_Handler
	.thumb
	.weak	Timer0A_Handler

$C$DW$31	.dwtag  DW_TAG_subprogram
	.dwattr $C$DW$31, DW_AT_name("Timer0A_Handler")
	.dwattr $C$DW$31, DW_AT_low_pc(Timer0A_Handler)
	.dwattr $C$DW$31, DW_AT_high_pc(0x00)
	.dwattr $C$DW$31, DW_AT_TI_symbol_name("Timer0A_Handler")
	.dwattr $C$DW$31, DW_AT_external
	.dwattr $C$DW$31, DW_AT_TI_begin_file("../tm4c123gh6pm_startup_ccs.c")
	.dwattr $C$DW$31, DW_AT_TI_begin_line(0x1ce)
	.dwattr $C$DW$31, DW_AT_TI_begin_column(0x06)
	.dwattr $C$DW$31, DW_AT_decl_file("../tm4c123gh6pm_startup_ccs.c")
	.dwattr $C$DW$31, DW_AT_decl_line(0x1ce)
	.dwattr $C$DW$31, DW_AT_decl_column(0x06)
	.dwattr $C$DW$31, DW_AT_TI_max_frame_size(0x00)
	.dwpsn	file "../tm4c123gh6pm_startup_ccs.c",line 462,column 27,is_stmt,address Timer0A_Handler,isa 1

	.dwfde $C$DW$CIE, Timer0A_Handler

;*****************************************************************************
;* FUNCTION NAME: Timer0A_Handler                                            *
;*                                                                           *
;*   Regs Modified     :                                                     *
;*   Regs Used         : LR                                                  *
;*   Local Frame Size  : 0 Args + 0 Auto + 0 Save = 0 byte                   *
;*****************************************************************************
Timer0A_Handler:
;* --------------------------------------------------------------------------*
	.dwcfi	cfa_offset, 0
	.dwpsn	file "../tm4c123gh6pm_startup_ccs.c",line 462,column 35,is_stmt,isa 1
;----------------------------------------------------------------------
; 462 | void Timer0A_Handler(void){ while(1){}}            // Timer 0 subtimer
;     | A                                                                      
;----------------------------------------------------------------------
;* --------------------------------------------------------------------------*
;*   BEGIN LOOP ||$C$L27||
;*
;*   Loop source line                : 462
;*   Loop closing brace source line  : 462
;*   Known Minimum Trip Count        : 1
;*   Known Maximum Trip Count        : 4294967295
;*   Known Max Trip Count Factor     : 1
;* --------------------------------------------------------------------------*
||$C$L27||:    
        B         ||$C$L27||            ; [DPU_3_PIPE] |462| 
        ; BRANCH OCCURS {||$C$L27||}     ; [] |462| 
;* --------------------------------------------------------------------------*
	.dwattr $C$DW$31, DW_AT_TI_end_file("../tm4c123gh6pm_startup_ccs.c")
	.dwattr $C$DW$31, DW_AT_TI_end_line(0x1ce)
	.dwattr $C$DW$31, DW_AT_TI_end_column(0x27)
	.dwendentry
	.dwendtag $C$DW$31

	.sect	".text"
	.clink
	.thumbfunc Timer0B_Handler
	.thumb
	.weak	Timer0B_Handler

$C$DW$32	.dwtag  DW_TAG_subprogram
	.dwattr $C$DW$32, DW_AT_name("Timer0B_Handler")
	.dwattr $C$DW$32, DW_AT_low_pc(Timer0B_Handler)
	.dwattr $C$DW$32, DW_AT_high_pc(0x00)
	.dwattr $C$DW$32, DW_AT_TI_symbol_name("Timer0B_Handler")
	.dwattr $C$DW$32, DW_AT_external
	.dwattr $C$DW$32, DW_AT_TI_begin_file("../tm4c123gh6pm_startup_ccs.c")
	.dwattr $C$DW$32, DW_AT_TI_begin_line(0x1cf)
	.dwattr $C$DW$32, DW_AT_TI_begin_column(0x06)
	.dwattr $C$DW$32, DW_AT_decl_file("../tm4c123gh6pm_startup_ccs.c")
	.dwattr $C$DW$32, DW_AT_decl_line(0x1cf)
	.dwattr $C$DW$32, DW_AT_decl_column(0x06)
	.dwattr $C$DW$32, DW_AT_TI_max_frame_size(0x00)
	.dwpsn	file "../tm4c123gh6pm_startup_ccs.c",line 463,column 27,is_stmt,address Timer0B_Handler,isa 1

	.dwfde $C$DW$CIE, Timer0B_Handler

;*****************************************************************************
;* FUNCTION NAME: Timer0B_Handler                                            *
;*                                                                           *
;*   Regs Modified     :                                                     *
;*   Regs Used         : LR                                                  *
;*   Local Frame Size  : 0 Args + 0 Auto + 0 Save = 0 byte                   *
;*****************************************************************************
Timer0B_Handler:
;* --------------------------------------------------------------------------*
	.dwcfi	cfa_offset, 0
	.dwpsn	file "../tm4c123gh6pm_startup_ccs.c",line 463,column 35,is_stmt,isa 1
;----------------------------------------------------------------------
; 463 | void Timer0B_Handler(void){ while(1){}}            // Timer 0 subtimer
;     | B                                                                      
;----------------------------------------------------------------------
;* --------------------------------------------------------------------------*
;*   BEGIN LOOP ||$C$L28||
;*
;*   Loop source line                : 463
;*   Loop closing brace source line  : 463
;*   Known Minimum Trip Count        : 1
;*   Known Maximum Trip Count        : 4294967295
;*   Known Max Trip Count Factor     : 1
;* --------------------------------------------------------------------------*
||$C$L28||:    
        B         ||$C$L28||            ; [DPU_3_PIPE] |463| 
        ; BRANCH OCCURS {||$C$L28||}     ; [] |463| 
;* --------------------------------------------------------------------------*
	.dwattr $C$DW$32, DW_AT_TI_end_file("../tm4c123gh6pm_startup_ccs.c")
	.dwattr $C$DW$32, DW_AT_TI_end_line(0x1cf)
	.dwattr $C$DW$32, DW_AT_TI_end_column(0x27)
	.dwendentry
	.dwendtag $C$DW$32

	.sect	".text"
	.clink
	.thumbfunc Timer1A_Handler
	.thumb
	.weak	Timer1A_Handler

$C$DW$33	.dwtag  DW_TAG_subprogram
	.dwattr $C$DW$33, DW_AT_name("Timer1A_Handler")
	.dwattr $C$DW$33, DW_AT_low_pc(Timer1A_Handler)
	.dwattr $C$DW$33, DW_AT_high_pc(0x00)
	.dwattr $C$DW$33, DW_AT_TI_symbol_name("Timer1A_Handler")
	.dwattr $C$DW$33, DW_AT_external
	.dwattr $C$DW$33, DW_AT_TI_begin_file("../tm4c123gh6pm_startup_ccs.c")
	.dwattr $C$DW$33, DW_AT_TI_begin_line(0x1d0)
	.dwattr $C$DW$33, DW_AT_TI_begin_column(0x06)
	.dwattr $C$DW$33, DW_AT_decl_file("../tm4c123gh6pm_startup_ccs.c")
	.dwattr $C$DW$33, DW_AT_decl_line(0x1d0)
	.dwattr $C$DW$33, DW_AT_decl_column(0x06)
	.dwattr $C$DW$33, DW_AT_TI_max_frame_size(0x00)
	.dwpsn	file "../tm4c123gh6pm_startup_ccs.c",line 464,column 27,is_stmt,address Timer1A_Handler,isa 1

	.dwfde $C$DW$CIE, Timer1A_Handler

;*****************************************************************************
;* FUNCTION NAME: Timer1A_Handler                                            *
;*                                                                           *
;*   Regs Modified     :                                                     *
;*   Regs Used         : LR                                                  *
;*   Local Frame Size  : 0 Args + 0 Auto + 0 Save = 0 byte                   *
;*****************************************************************************
Timer1A_Handler:
;* --------------------------------------------------------------------------*
	.dwcfi	cfa_offset, 0
	.dwpsn	file "../tm4c123gh6pm_startup_ccs.c",line 464,column 35,is_stmt,isa 1
;----------------------------------------------------------------------
; 464 | void Timer1A_Handler(void){ while(1){}}            // Timer 1 subtimer
;     | A                                                                      
;----------------------------------------------------------------------
;* --------------------------------------------------------------------------*
;*   BEGIN LOOP ||$C$L29||
;*
;*   Loop source line                : 464
;*   Loop closing brace source line  : 464
;*   Known Minimum Trip Count        : 1
;*   Known Maximum Trip Count        : 4294967295
;*   Known Max Trip Count Factor     : 1
;* --------------------------------------------------------------------------*
||$C$L29||:    
        B         ||$C$L29||            ; [DPU_3_PIPE] |464| 
        ; BRANCH OCCURS {||$C$L29||}     ; [] |464| 
;* --------------------------------------------------------------------------*
	.dwattr $C$DW$33, DW_AT_TI_end_file("../tm4c123gh6pm_startup_ccs.c")
	.dwattr $C$DW$33, DW_AT_TI_end_line(0x1d0)
	.dwattr $C$DW$33, DW_AT_TI_end_column(0x27)
	.dwendentry
	.dwendtag $C$DW$33

	.sect	".text"
	.clink
	.thumbfunc Timer1B_Handler
	.thumb
	.weak	Timer1B_Handler

$C$DW$34	.dwtag  DW_TAG_subprogram
	.dwattr $C$DW$34, DW_AT_name("Timer1B_Handler")
	.dwattr $C$DW$34, DW_AT_low_pc(Timer1B_Handler)
	.dwattr $C$DW$34, DW_AT_high_pc(0x00)
	.dwattr $C$DW$34, DW_AT_TI_symbol_name("Timer1B_Handler")
	.dwattr $C$DW$34, DW_AT_external
	.dwattr $C$DW$34, DW_AT_TI_begin_file("../tm4c123gh6pm_startup_ccs.c")
	.dwattr $C$DW$34, DW_AT_TI_begin_line(0x1d1)
	.dwattr $C$DW$34, DW_AT_TI_begin_column(0x06)
	.dwattr $C$DW$34, DW_AT_decl_file("../tm4c123gh6pm_startup_ccs.c")
	.dwattr $C$DW$34, DW_AT_decl_line(0x1d1)
	.dwattr $C$DW$34, DW_AT_decl_column(0x06)
	.dwattr $C$DW$34, DW_AT_TI_max_frame_size(0x00)
	.dwpsn	file "../tm4c123gh6pm_startup_ccs.c",line 465,column 27,is_stmt,address Timer1B_Handler,isa 1

	.dwfde $C$DW$CIE, Timer1B_Handler

;*****************************************************************************
;* FUNCTION NAME: Timer1B_Handler                                            *
;*                                                                           *
;*   Regs Modified     :                                                     *
;*   Regs Used         : LR                                                  *
;*   Local Frame Size  : 0 Args + 0 Auto + 0 Save = 0 byte                   *
;*****************************************************************************
Timer1B_Handler:
;* --------------------------------------------------------------------------*
	.dwcfi	cfa_offset, 0
	.dwpsn	file "../tm4c123gh6pm_startup_ccs.c",line 465,column 35,is_stmt,isa 1
;----------------------------------------------------------------------
; 465 | void Timer1B_Handler(void){ while(1){}}            // Timer 1 subtimer
;     | B                                                                      
;----------------------------------------------------------------------
;* --------------------------------------------------------------------------*
;*   BEGIN LOOP ||$C$L30||
;*
;*   Loop source line                : 465
;*   Loop closing brace source line  : 465
;*   Known Minimum Trip Count        : 1
;*   Known Maximum Trip Count        : 4294967295
;*   Known Max Trip Count Factor     : 1
;* --------------------------------------------------------------------------*
||$C$L30||:    
        B         ||$C$L30||            ; [DPU_3_PIPE] |465| 
        ; BRANCH OCCURS {||$C$L30||}     ; [] |465| 
;* --------------------------------------------------------------------------*
	.dwattr $C$DW$34, DW_AT_TI_end_file("../tm4c123gh6pm_startup_ccs.c")
	.dwattr $C$DW$34, DW_AT_TI_end_line(0x1d1)
	.dwattr $C$DW$34, DW_AT_TI_end_column(0x27)
	.dwendentry
	.dwendtag $C$DW$34

	.sect	".text"
	.clink
	.thumbfunc Timer2A_Handler
	.thumb
	.weak	Timer2A_Handler

$C$DW$35	.dwtag  DW_TAG_subprogram
	.dwattr $C$DW$35, DW_AT_name("Timer2A_Handler")
	.dwattr $C$DW$35, DW_AT_low_pc(Timer2A_Handler)
	.dwattr $C$DW$35, DW_AT_high_pc(0x00)
	.dwattr $C$DW$35, DW_AT_TI_symbol_name("Timer2A_Handler")
	.dwattr $C$DW$35, DW_AT_external
	.dwattr $C$DW$35, DW_AT_TI_begin_file("../tm4c123gh6pm_startup_ccs.c")
	.dwattr $C$DW$35, DW_AT_TI_begin_line(0x1d2)
	.dwattr $C$DW$35, DW_AT_TI_begin_column(0x06)
	.dwattr $C$DW$35, DW_AT_decl_file("../tm4c123gh6pm_startup_ccs.c")
	.dwattr $C$DW$35, DW_AT_decl_line(0x1d2)
	.dwattr $C$DW$35, DW_AT_decl_column(0x06)
	.dwattr $C$DW$35, DW_AT_TI_max_frame_size(0x00)
	.dwpsn	file "../tm4c123gh6pm_startup_ccs.c",line 466,column 27,is_stmt,address Timer2A_Handler,isa 1

	.dwfde $C$DW$CIE, Timer2A_Handler

;*****************************************************************************
;* FUNCTION NAME: Timer2A_Handler                                            *
;*                                                                           *
;*   Regs Modified     :                                                     *
;*   Regs Used         : LR                                                  *
;*   Local Frame Size  : 0 Args + 0 Auto + 0 Save = 0 byte                   *
;*****************************************************************************
Timer2A_Handler:
;* --------------------------------------------------------------------------*
	.dwcfi	cfa_offset, 0
	.dwpsn	file "../tm4c123gh6pm_startup_ccs.c",line 466,column 35,is_stmt,isa 1
;----------------------------------------------------------------------
; 466 | void Timer2A_Handler(void){ while(1){}}            // Timer 2 subtimer
;     | A                                                                      
;----------------------------------------------------------------------
;* --------------------------------------------------------------------------*
;*   BEGIN LOOP ||$C$L31||
;*
;*   Loop source line                : 466
;*   Loop closing brace source line  : 466
;*   Known Minimum Trip Count        : 1
;*   Known Maximum Trip Count        : 4294967295
;*   Known Max Trip Count Factor     : 1
;* --------------------------------------------------------------------------*
||$C$L31||:    
        B         ||$C$L31||            ; [DPU_3_PIPE] |466| 
        ; BRANCH OCCURS {||$C$L31||}     ; [] |466| 
;* --------------------------------------------------------------------------*
	.dwattr $C$DW$35, DW_AT_TI_end_file("../tm4c123gh6pm_startup_ccs.c")
	.dwattr $C$DW$35, DW_AT_TI_end_line(0x1d2)
	.dwattr $C$DW$35, DW_AT_TI_end_column(0x27)
	.dwendentry
	.dwendtag $C$DW$35

	.sect	".text"
	.clink
	.thumbfunc Timer2B_Handler
	.thumb
	.weak	Timer2B_Handler

$C$DW$36	.dwtag  DW_TAG_subprogram
	.dwattr $C$DW$36, DW_AT_name("Timer2B_Handler")
	.dwattr $C$DW$36, DW_AT_low_pc(Timer2B_Handler)
	.dwattr $C$DW$36, DW_AT_high_pc(0x00)
	.dwattr $C$DW$36, DW_AT_TI_symbol_name("Timer2B_Handler")
	.dwattr $C$DW$36, DW_AT_external
	.dwattr $C$DW$36, DW_AT_TI_begin_file("../tm4c123gh6pm_startup_ccs.c")
	.dwattr $C$DW$36, DW_AT_TI_begin_line(0x1d3)
	.dwattr $C$DW$36, DW_AT_TI_begin_column(0x06)
	.dwattr $C$DW$36, DW_AT_decl_file("../tm4c123gh6pm_startup_ccs.c")
	.dwattr $C$DW$36, DW_AT_decl_line(0x1d3)
	.dwattr $C$DW$36, DW_AT_decl_column(0x06)
	.dwattr $C$DW$36, DW_AT_TI_max_frame_size(0x00)
	.dwpsn	file "../tm4c123gh6pm_startup_ccs.c",line 467,column 27,is_stmt,address Timer2B_Handler,isa 1

	.dwfde $C$DW$CIE, Timer2B_Handler

;*****************************************************************************
;* FUNCTION NAME: Timer2B_Handler                                            *
;*                                                                           *
;*   Regs Modified     :                                                     *
;*   Regs Used         : LR                                                  *
;*   Local Frame Size  : 0 Args + 0 Auto + 0 Save = 0 byte                   *
;*****************************************************************************
Timer2B_Handler:
;* --------------------------------------------------------------------------*
	.dwcfi	cfa_offset, 0
	.dwpsn	file "../tm4c123gh6pm_startup_ccs.c",line 467,column 35,is_stmt,isa 1
;----------------------------------------------------------------------
; 467 | void Timer2B_Handler(void){ while(1){}}            // Timer 2 subtimer
;     | B                                                                      
;----------------------------------------------------------------------
;* --------------------------------------------------------------------------*
;*   BEGIN LOOP ||$C$L32||
;*
;*   Loop source line                : 467
;*   Loop closing brace source line  : 467
;*   Known Minimum Trip Count        : 1
;*   Known Maximum Trip Count        : 4294967295
;*   Known Max Trip Count Factor     : 1
;* --------------------------------------------------------------------------*
||$C$L32||:    
        B         ||$C$L32||            ; [DPU_3_PIPE] |467| 
        ; BRANCH OCCURS {||$C$L32||}     ; [] |467| 
;* --------------------------------------------------------------------------*
	.dwattr $C$DW$36, DW_AT_TI_end_file("../tm4c123gh6pm_startup_ccs.c")
	.dwattr $C$DW$36, DW_AT_TI_end_line(0x1d3)
	.dwattr $C$DW$36, DW_AT_TI_end_column(0x27)
	.dwendentry
	.dwendtag $C$DW$36

	.sect	".text"
	.clink
	.thumbfunc Comp0_Handler
	.thumb
	.weak	Comp0_Handler

$C$DW$37	.dwtag  DW_TAG_subprogram
	.dwattr $C$DW$37, DW_AT_name("Comp0_Handler")
	.dwattr $C$DW$37, DW_AT_low_pc(Comp0_Handler)
	.dwattr $C$DW$37, DW_AT_high_pc(0x00)
	.dwattr $C$DW$37, DW_AT_TI_symbol_name("Comp0_Handler")
	.dwattr $C$DW$37, DW_AT_external
	.dwattr $C$DW$37, DW_AT_TI_begin_file("../tm4c123gh6pm_startup_ccs.c")
	.dwattr $C$DW$37, DW_AT_TI_begin_line(0x1d4)
	.dwattr $C$DW$37, DW_AT_TI_begin_column(0x06)
	.dwattr $C$DW$37, DW_AT_decl_file("../tm4c123gh6pm_startup_ccs.c")
	.dwattr $C$DW$37, DW_AT_decl_line(0x1d4)
	.dwattr $C$DW$37, DW_AT_decl_column(0x06)
	.dwattr $C$DW$37, DW_AT_TI_max_frame_size(0x00)
	.dwpsn	file "../tm4c123gh6pm_startup_ccs.c",line 468,column 25,is_stmt,address Comp0_Handler,isa 1

	.dwfde $C$DW$CIE, Comp0_Handler

;*****************************************************************************
;* FUNCTION NAME: Comp0_Handler                                              *
;*                                                                           *
;*   Regs Modified     :                                                     *
;*   Regs Used         : LR                                                  *
;*   Local Frame Size  : 0 Args + 0 Auto + 0 Save = 0 byte                   *
;*****************************************************************************
Comp0_Handler:
;* --------------------------------------------------------------------------*
	.dwcfi	cfa_offset, 0
	.dwpsn	file "../tm4c123gh6pm_startup_ccs.c",line 468,column 33,is_stmt,isa 1
;----------------------------------------------------------------------
; 468 | void Comp0_Handler(void){ while(1){}}              // Analog Comp 0    
;----------------------------------------------------------------------
;* --------------------------------------------------------------------------*
;*   BEGIN LOOP ||$C$L33||
;*
;*   Loop source line                : 468
;*   Loop closing brace source line  : 468
;*   Known Minimum Trip Count        : 1
;*   Known Maximum Trip Count        : 4294967295
;*   Known Max Trip Count Factor     : 1
;* --------------------------------------------------------------------------*
||$C$L33||:    
        B         ||$C$L33||            ; [DPU_3_PIPE] |468| 
        ; BRANCH OCCURS {||$C$L33||}     ; [] |468| 
;* --------------------------------------------------------------------------*
	.dwattr $C$DW$37, DW_AT_TI_end_file("../tm4c123gh6pm_startup_ccs.c")
	.dwattr $C$DW$37, DW_AT_TI_end_line(0x1d4)
	.dwattr $C$DW$37, DW_AT_TI_end_column(0x25)
	.dwendentry
	.dwendtag $C$DW$37

	.sect	".text"
	.clink
	.thumbfunc Comp1_Handler
	.thumb
	.weak	Comp1_Handler

$C$DW$38	.dwtag  DW_TAG_subprogram
	.dwattr $C$DW$38, DW_AT_name("Comp1_Handler")
	.dwattr $C$DW$38, DW_AT_low_pc(Comp1_Handler)
	.dwattr $C$DW$38, DW_AT_high_pc(0x00)
	.dwattr $C$DW$38, DW_AT_TI_symbol_name("Comp1_Handler")
	.dwattr $C$DW$38, DW_AT_external
	.dwattr $C$DW$38, DW_AT_TI_begin_file("../tm4c123gh6pm_startup_ccs.c")
	.dwattr $C$DW$38, DW_AT_TI_begin_line(0x1d5)
	.dwattr $C$DW$38, DW_AT_TI_begin_column(0x06)
	.dwattr $C$DW$38, DW_AT_decl_file("../tm4c123gh6pm_startup_ccs.c")
	.dwattr $C$DW$38, DW_AT_decl_line(0x1d5)
	.dwattr $C$DW$38, DW_AT_decl_column(0x06)
	.dwattr $C$DW$38, DW_AT_TI_max_frame_size(0x00)
	.dwpsn	file "../tm4c123gh6pm_startup_ccs.c",line 469,column 25,is_stmt,address Comp1_Handler,isa 1

	.dwfde $C$DW$CIE, Comp1_Handler

;*****************************************************************************
;* FUNCTION NAME: Comp1_Handler                                              *
;*                                                                           *
;*   Regs Modified     :                                                     *
;*   Regs Used         : LR                                                  *
;*   Local Frame Size  : 0 Args + 0 Auto + 0 Save = 0 byte                   *
;*****************************************************************************
Comp1_Handler:
;* --------------------------------------------------------------------------*
	.dwcfi	cfa_offset, 0
	.dwpsn	file "../tm4c123gh6pm_startup_ccs.c",line 469,column 33,is_stmt,isa 1
;----------------------------------------------------------------------
; 469 | void Comp1_Handler(void){ while(1){}}              // Analog Comp 1    
;----------------------------------------------------------------------
;* --------------------------------------------------------------------------*
;*   BEGIN LOOP ||$C$L34||
;*
;*   Loop source line                : 469
;*   Loop closing brace source line  : 469
;*   Known Minimum Trip Count        : 1
;*   Known Maximum Trip Count        : 4294967295
;*   Known Max Trip Count Factor     : 1
;* --------------------------------------------------------------------------*
||$C$L34||:    
        B         ||$C$L34||            ; [DPU_3_PIPE] |469| 
        ; BRANCH OCCURS {||$C$L34||}     ; [] |469| 
;* --------------------------------------------------------------------------*
	.dwattr $C$DW$38, DW_AT_TI_end_file("../tm4c123gh6pm_startup_ccs.c")
	.dwattr $C$DW$38, DW_AT_TI_end_line(0x1d5)
	.dwattr $C$DW$38, DW_AT_TI_end_column(0x25)
	.dwendentry
	.dwendtag $C$DW$38

	.sect	".text"
	.clink
	.thumbfunc Comp2_Handler
	.thumb
	.weak	Comp2_Handler

$C$DW$39	.dwtag  DW_TAG_subprogram
	.dwattr $C$DW$39, DW_AT_name("Comp2_Handler")
	.dwattr $C$DW$39, DW_AT_low_pc(Comp2_Handler)
	.dwattr $C$DW$39, DW_AT_high_pc(0x00)
	.dwattr $C$DW$39, DW_AT_TI_symbol_name("Comp2_Handler")
	.dwattr $C$DW$39, DW_AT_external
	.dwattr $C$DW$39, DW_AT_TI_begin_file("../tm4c123gh6pm_startup_ccs.c")
	.dwattr $C$DW$39, DW_AT_TI_begin_line(0x1d6)
	.dwattr $C$DW$39, DW_AT_TI_begin_column(0x06)
	.dwattr $C$DW$39, DW_AT_decl_file("../tm4c123gh6pm_startup_ccs.c")
	.dwattr $C$DW$39, DW_AT_decl_line(0x1d6)
	.dwattr $C$DW$39, DW_AT_decl_column(0x06)
	.dwattr $C$DW$39, DW_AT_TI_max_frame_size(0x00)
	.dwpsn	file "../tm4c123gh6pm_startup_ccs.c",line 470,column 25,is_stmt,address Comp2_Handler,isa 1

	.dwfde $C$DW$CIE, Comp2_Handler

;*****************************************************************************
;* FUNCTION NAME: Comp2_Handler                                              *
;*                                                                           *
;*   Regs Modified     :                                                     *
;*   Regs Used         : LR                                                  *
;*   Local Frame Size  : 0 Args + 0 Auto + 0 Save = 0 byte                   *
;*****************************************************************************
Comp2_Handler:
;* --------------------------------------------------------------------------*
	.dwcfi	cfa_offset, 0
	.dwpsn	file "../tm4c123gh6pm_startup_ccs.c",line 470,column 33,is_stmt,isa 1
;----------------------------------------------------------------------
; 470 | void Comp2_Handler(void){ while(1){}}              // Analog Comp 2    
;----------------------------------------------------------------------
;* --------------------------------------------------------------------------*
;*   BEGIN LOOP ||$C$L35||
;*
;*   Loop source line                : 470
;*   Loop closing brace source line  : 470
;*   Known Minimum Trip Count        : 1
;*   Known Maximum Trip Count        : 4294967295
;*   Known Max Trip Count Factor     : 1
;* --------------------------------------------------------------------------*
||$C$L35||:    
        B         ||$C$L35||            ; [DPU_3_PIPE] |470| 
        ; BRANCH OCCURS {||$C$L35||}     ; [] |470| 
;* --------------------------------------------------------------------------*
	.dwattr $C$DW$39, DW_AT_TI_end_file("../tm4c123gh6pm_startup_ccs.c")
	.dwattr $C$DW$39, DW_AT_TI_end_line(0x1d6)
	.dwattr $C$DW$39, DW_AT_TI_end_column(0x25)
	.dwendentry
	.dwendtag $C$DW$39

	.sect	".text"
	.clink
	.thumbfunc SysCtl_Handler
	.thumb
	.weak	SysCtl_Handler

$C$DW$40	.dwtag  DW_TAG_subprogram
	.dwattr $C$DW$40, DW_AT_name("SysCtl_Handler")
	.dwattr $C$DW$40, DW_AT_low_pc(SysCtl_Handler)
	.dwattr $C$DW$40, DW_AT_high_pc(0x00)
	.dwattr $C$DW$40, DW_AT_TI_symbol_name("SysCtl_Handler")
	.dwattr $C$DW$40, DW_AT_external
	.dwattr $C$DW$40, DW_AT_TI_begin_file("../tm4c123gh6pm_startup_ccs.c")
	.dwattr $C$DW$40, DW_AT_TI_begin_line(0x1d7)
	.dwattr $C$DW$40, DW_AT_TI_begin_column(0x06)
	.dwattr $C$DW$40, DW_AT_decl_file("../tm4c123gh6pm_startup_ccs.c")
	.dwattr $C$DW$40, DW_AT_decl_line(0x1d7)
	.dwattr $C$DW$40, DW_AT_decl_column(0x06)
	.dwattr $C$DW$40, DW_AT_TI_max_frame_size(0x00)
	.dwpsn	file "../tm4c123gh6pm_startup_ccs.c",line 471,column 26,is_stmt,address SysCtl_Handler,isa 1

	.dwfde $C$DW$CIE, SysCtl_Handler

;*****************************************************************************
;* FUNCTION NAME: SysCtl_Handler                                             *
;*                                                                           *
;*   Regs Modified     :                                                     *
;*   Regs Used         : LR                                                  *
;*   Local Frame Size  : 0 Args + 0 Auto + 0 Save = 0 byte                   *
;*****************************************************************************
SysCtl_Handler:
;* --------------------------------------------------------------------------*
	.dwcfi	cfa_offset, 0
	.dwpsn	file "../tm4c123gh6pm_startup_ccs.c",line 471,column 34,is_stmt,isa 1
;----------------------------------------------------------------------
; 471 | void SysCtl_Handler(void){ while(1){}}             // System Control   
;----------------------------------------------------------------------
;* --------------------------------------------------------------------------*
;*   BEGIN LOOP ||$C$L36||
;*
;*   Loop source line                : 471
;*   Loop closing brace source line  : 471
;*   Known Minimum Trip Count        : 1
;*   Known Maximum Trip Count        : 4294967295
;*   Known Max Trip Count Factor     : 1
;* --------------------------------------------------------------------------*
||$C$L36||:    
        B         ||$C$L36||            ; [DPU_3_PIPE] |471| 
        ; BRANCH OCCURS {||$C$L36||}     ; [] |471| 
;* --------------------------------------------------------------------------*
	.dwattr $C$DW$40, DW_AT_TI_end_file("../tm4c123gh6pm_startup_ccs.c")
	.dwattr $C$DW$40, DW_AT_TI_end_line(0x1d7)
	.dwattr $C$DW$40, DW_AT_TI_end_column(0x26)
	.dwendentry
	.dwendtag $C$DW$40

	.sect	".text"
	.clink
	.thumbfunc FlashCtl_Handler
	.thumb
	.weak	FlashCtl_Handler

$C$DW$41	.dwtag  DW_TAG_subprogram
	.dwattr $C$DW$41, DW_AT_name("FlashCtl_Handler")
	.dwattr $C$DW$41, DW_AT_low_pc(FlashCtl_Handler)
	.dwattr $C$DW$41, DW_AT_high_pc(0x00)
	.dwattr $C$DW$41, DW_AT_TI_symbol_name("FlashCtl_Handler")
	.dwattr $C$DW$41, DW_AT_external
	.dwattr $C$DW$41, DW_AT_TI_begin_file("../tm4c123gh6pm_startup_ccs.c")
	.dwattr $C$DW$41, DW_AT_TI_begin_line(0x1d8)
	.dwattr $C$DW$41, DW_AT_TI_begin_column(0x06)
	.dwattr $C$DW$41, DW_AT_decl_file("../tm4c123gh6pm_startup_ccs.c")
	.dwattr $C$DW$41, DW_AT_decl_line(0x1d8)
	.dwattr $C$DW$41, DW_AT_decl_column(0x06)
	.dwattr $C$DW$41, DW_AT_TI_max_frame_size(0x00)
	.dwpsn	file "../tm4c123gh6pm_startup_ccs.c",line 472,column 28,is_stmt,address FlashCtl_Handler,isa 1

	.dwfde $C$DW$CIE, FlashCtl_Handler

;*****************************************************************************
;* FUNCTION NAME: FlashCtl_Handler                                           *
;*                                                                           *
;*   Regs Modified     :                                                     *
;*   Regs Used         : LR                                                  *
;*   Local Frame Size  : 0 Args + 0 Auto + 0 Save = 0 byte                   *
;*****************************************************************************
FlashCtl_Handler:
;* --------------------------------------------------------------------------*
	.dwcfi	cfa_offset, 0
	.dwpsn	file "../tm4c123gh6pm_startup_ccs.c",line 472,column 36,is_stmt,isa 1
;----------------------------------------------------------------------
; 472 | void FlashCtl_Handler(void){ while(1){}}           // Flash Control    
;----------------------------------------------------------------------
;* --------------------------------------------------------------------------*
;*   BEGIN LOOP ||$C$L37||
;*
;*   Loop source line                : 472
;*   Loop closing brace source line  : 472
;*   Known Minimum Trip Count        : 1
;*   Known Maximum Trip Count        : 4294967295
;*   Known Max Trip Count Factor     : 1
;* --------------------------------------------------------------------------*
||$C$L37||:    
        B         ||$C$L37||            ; [DPU_3_PIPE] |472| 
        ; BRANCH OCCURS {||$C$L37||}     ; [] |472| 
;* --------------------------------------------------------------------------*
	.dwattr $C$DW$41, DW_AT_TI_end_file("../tm4c123gh6pm_startup_ccs.c")
	.dwattr $C$DW$41, DW_AT_TI_end_line(0x1d8)
	.dwattr $C$DW$41, DW_AT_TI_end_column(0x28)
	.dwendentry
	.dwendtag $C$DW$41

	.sect	".text"
	.clink
	.thumbfunc GPIOPortF_Handler
	.thumb
	.weak	GPIOPortF_Handler

$C$DW$42	.dwtag  DW_TAG_subprogram
	.dwattr $C$DW$42, DW_AT_name("GPIOPortF_Handler")
	.dwattr $C$DW$42, DW_AT_low_pc(GPIOPortF_Handler)
	.dwattr $C$DW$42, DW_AT_high_pc(0x00)
	.dwattr $C$DW$42, DW_AT_TI_symbol_name("GPIOPortF_Handler")
	.dwattr $C$DW$42, DW_AT_external
	.dwattr $C$DW$42, DW_AT_TI_begin_file("../tm4c123gh6pm_startup_ccs.c")
	.dwattr $C$DW$42, DW_AT_TI_begin_line(0x1d9)
	.dwattr $C$DW$42, DW_AT_TI_begin_column(0x06)
	.dwattr $C$DW$42, DW_AT_decl_file("../tm4c123gh6pm_startup_ccs.c")
	.dwattr $C$DW$42, DW_AT_decl_line(0x1d9)
	.dwattr $C$DW$42, DW_AT_decl_column(0x06)
	.dwattr $C$DW$42, DW_AT_TI_max_frame_size(0x00)
	.dwpsn	file "../tm4c123gh6pm_startup_ccs.c",line 473,column 29,is_stmt,address GPIOPortF_Handler,isa 1

	.dwfde $C$DW$CIE, GPIOPortF_Handler

;*****************************************************************************
;* FUNCTION NAME: GPIOPortF_Handler                                          *
;*                                                                           *
;*   Regs Modified     :                                                     *
;*   Regs Used         : LR                                                  *
;*   Local Frame Size  : 0 Args + 0 Auto + 0 Save = 0 byte                   *
;*****************************************************************************
GPIOPortF_Handler:
;* --------------------------------------------------------------------------*
	.dwcfi	cfa_offset, 0
	.dwpsn	file "../tm4c123gh6pm_startup_ccs.c",line 473,column 37,is_stmt,isa 1
;----------------------------------------------------------------------
; 473 | void GPIOPortF_Handler(void){ while(1){}}          // GPIO Port F      
;----------------------------------------------------------------------
;* --------------------------------------------------------------------------*
;*   BEGIN LOOP ||$C$L38||
;*
;*   Loop source line                : 473
;*   Loop closing brace source line  : 473
;*   Known Minimum Trip Count        : 1
;*   Known Maximum Trip Count        : 4294967295
;*   Known Max Trip Count Factor     : 1
;* --------------------------------------------------------------------------*
||$C$L38||:    
        B         ||$C$L38||            ; [DPU_3_PIPE] |473| 
        ; BRANCH OCCURS {||$C$L38||}     ; [] |473| 
;* --------------------------------------------------------------------------*
	.dwattr $C$DW$42, DW_AT_TI_end_file("../tm4c123gh6pm_startup_ccs.c")
	.dwattr $C$DW$42, DW_AT_TI_end_line(0x1d9)
	.dwattr $C$DW$42, DW_AT_TI_end_column(0x29)
	.dwendentry
	.dwendtag $C$DW$42

	.sect	".text"
	.clink
	.thumbfunc GPIOPortG_Handler
	.thumb
	.weak	GPIOPortG_Handler

$C$DW$43	.dwtag  DW_TAG_subprogram
	.dwattr $C$DW$43, DW_AT_name("GPIOPortG_Handler")
	.dwattr $C$DW$43, DW_AT_low_pc(GPIOPortG_Handler)
	.dwattr $C$DW$43, DW_AT_high_pc(0x00)
	.dwattr $C$DW$43, DW_AT_TI_symbol_name("GPIOPortG_Handler")
	.dwattr $C$DW$43, DW_AT_external
	.dwattr $C$DW$43, DW_AT_TI_begin_file("../tm4c123gh6pm_startup_ccs.c")
	.dwattr $C$DW$43, DW_AT_TI_begin_line(0x1da)
	.dwattr $C$DW$43, DW_AT_TI_begin_column(0x06)
	.dwattr $C$DW$43, DW_AT_decl_file("../tm4c123gh6pm_startup_ccs.c")
	.dwattr $C$DW$43, DW_AT_decl_line(0x1da)
	.dwattr $C$DW$43, DW_AT_decl_column(0x06)
	.dwattr $C$DW$43, DW_AT_TI_max_frame_size(0x00)
	.dwpsn	file "../tm4c123gh6pm_startup_ccs.c",line 474,column 29,is_stmt,address GPIOPortG_Handler,isa 1

	.dwfde $C$DW$CIE, GPIOPortG_Handler

;*****************************************************************************
;* FUNCTION NAME: GPIOPortG_Handler                                          *
;*                                                                           *
;*   Regs Modified     :                                                     *
;*   Regs Used         : LR                                                  *
;*   Local Frame Size  : 0 Args + 0 Auto + 0 Save = 0 byte                   *
;*****************************************************************************
GPIOPortG_Handler:
;* --------------------------------------------------------------------------*
	.dwcfi	cfa_offset, 0
	.dwpsn	file "../tm4c123gh6pm_startup_ccs.c",line 474,column 37,is_stmt,isa 1
;----------------------------------------------------------------------
; 474 | void GPIOPortG_Handler(void){ while(1){}}          // GPIO Port G      
;----------------------------------------------------------------------
;* --------------------------------------------------------------------------*
;*   BEGIN LOOP ||$C$L39||
;*
;*   Loop source line                : 474
;*   Loop closing brace source line  : 474
;*   Known Minimum Trip Count        : 1
;*   Known Maximum Trip Count        : 4294967295
;*   Known Max Trip Count Factor     : 1
;* --------------------------------------------------------------------------*
||$C$L39||:    
        B         ||$C$L39||            ; [DPU_3_PIPE] |474| 
        ; BRANCH OCCURS {||$C$L39||}     ; [] |474| 
;* --------------------------------------------------------------------------*
	.dwattr $C$DW$43, DW_AT_TI_end_file("../tm4c123gh6pm_startup_ccs.c")
	.dwattr $C$DW$43, DW_AT_TI_end_line(0x1da)
	.dwattr $C$DW$43, DW_AT_TI_end_column(0x29)
	.dwendentry
	.dwendtag $C$DW$43

	.sect	".text"
	.clink
	.thumbfunc GPIOPortH_Handler
	.thumb
	.weak	GPIOPortH_Handler

$C$DW$44	.dwtag  DW_TAG_subprogram
	.dwattr $C$DW$44, DW_AT_name("GPIOPortH_Handler")
	.dwattr $C$DW$44, DW_AT_low_pc(GPIOPortH_Handler)
	.dwattr $C$DW$44, DW_AT_high_pc(0x00)
	.dwattr $C$DW$44, DW_AT_TI_symbol_name("GPIOPortH_Handler")
	.dwattr $C$DW$44, DW_AT_external
	.dwattr $C$DW$44, DW_AT_TI_begin_file("../tm4c123gh6pm_startup_ccs.c")
	.dwattr $C$DW$44, DW_AT_TI_begin_line(0x1db)
	.dwattr $C$DW$44, DW_AT_TI_begin_column(0x06)
	.dwattr $C$DW$44, DW_AT_decl_file("../tm4c123gh6pm_startup_ccs.c")
	.dwattr $C$DW$44, DW_AT_decl_line(0x1db)
	.dwattr $C$DW$44, DW_AT_decl_column(0x06)
	.dwattr $C$DW$44, DW_AT_TI_max_frame_size(0x00)
	.dwpsn	file "../tm4c123gh6pm_startup_ccs.c",line 475,column 29,is_stmt,address GPIOPortH_Handler,isa 1

	.dwfde $C$DW$CIE, GPIOPortH_Handler

;*****************************************************************************
;* FUNCTION NAME: GPIOPortH_Handler                                          *
;*                                                                           *
;*   Regs Modified     :                                                     *
;*   Regs Used         : LR                                                  *
;*   Local Frame Size  : 0 Args + 0 Auto + 0 Save = 0 byte                   *
;*****************************************************************************
GPIOPortH_Handler:
;* --------------------------------------------------------------------------*
	.dwcfi	cfa_offset, 0
	.dwpsn	file "../tm4c123gh6pm_startup_ccs.c",line 475,column 37,is_stmt,isa 1
;----------------------------------------------------------------------
; 475 | void GPIOPortH_Handler(void){ while(1){}}          // GPIO Port H      
;----------------------------------------------------------------------
;* --------------------------------------------------------------------------*
;*   BEGIN LOOP ||$C$L40||
;*
;*   Loop source line                : 475
;*   Loop closing brace source line  : 475
;*   Known Minimum Trip Count        : 1
;*   Known Maximum Trip Count        : 4294967295
;*   Known Max Trip Count Factor     : 1
;* --------------------------------------------------------------------------*
||$C$L40||:    
        B         ||$C$L40||            ; [DPU_3_PIPE] |475| 
        ; BRANCH OCCURS {||$C$L40||}     ; [] |475| 
;* --------------------------------------------------------------------------*
	.dwattr $C$DW$44, DW_AT_TI_end_file("../tm4c123gh6pm_startup_ccs.c")
	.dwattr $C$DW$44, DW_AT_TI_end_line(0x1db)
	.dwattr $C$DW$44, DW_AT_TI_end_column(0x29)
	.dwendentry
	.dwendtag $C$DW$44

	.sect	".text"
	.clink
	.thumbfunc UART2_Handler
	.thumb
	.weak	UART2_Handler

$C$DW$45	.dwtag  DW_TAG_subprogram
	.dwattr $C$DW$45, DW_AT_name("UART2_Handler")
	.dwattr $C$DW$45, DW_AT_low_pc(UART2_Handler)
	.dwattr $C$DW$45, DW_AT_high_pc(0x00)
	.dwattr $C$DW$45, DW_AT_TI_symbol_name("UART2_Handler")
	.dwattr $C$DW$45, DW_AT_external
	.dwattr $C$DW$45, DW_AT_TI_begin_file("../tm4c123gh6pm_startup_ccs.c")
	.dwattr $C$DW$45, DW_AT_TI_begin_line(0x1dc)
	.dwattr $C$DW$45, DW_AT_TI_begin_column(0x06)
	.dwattr $C$DW$45, DW_AT_decl_file("../tm4c123gh6pm_startup_ccs.c")
	.dwattr $C$DW$45, DW_AT_decl_line(0x1dc)
	.dwattr $C$DW$45, DW_AT_decl_column(0x06)
	.dwattr $C$DW$45, DW_AT_TI_max_frame_size(0x00)
	.dwpsn	file "../tm4c123gh6pm_startup_ccs.c",line 476,column 25,is_stmt,address UART2_Handler,isa 1

	.dwfde $C$DW$CIE, UART2_Handler

;*****************************************************************************
;* FUNCTION NAME: UART2_Handler                                              *
;*                                                                           *
;*   Regs Modified     :                                                     *
;*   Regs Used         : LR                                                  *
;*   Local Frame Size  : 0 Args + 0 Auto + 0 Save = 0 byte                   *
;*****************************************************************************
UART2_Handler:
;* --------------------------------------------------------------------------*
	.dwcfi	cfa_offset, 0
	.dwpsn	file "../tm4c123gh6pm_startup_ccs.c",line 476,column 33,is_stmt,isa 1
;----------------------------------------------------------------------
; 476 | void UART2_Handler(void){ while(1){}}              // UART2 Rx and Tx  
;----------------------------------------------------------------------
;* --------------------------------------------------------------------------*
;*   BEGIN LOOP ||$C$L41||
;*
;*   Loop source line                : 476
;*   Loop closing brace source line  : 476
;*   Known Minimum Trip Count        : 1
;*   Known Maximum Trip Count        : 4294967295
;*   Known Max Trip Count Factor     : 1
;* --------------------------------------------------------------------------*
||$C$L41||:    
        B         ||$C$L41||            ; [DPU_3_PIPE] |476| 
        ; BRANCH OCCURS {||$C$L41||}     ; [] |476| 
;* --------------------------------------------------------------------------*
	.dwattr $C$DW$45, DW_AT_TI_end_file("../tm4c123gh6pm_startup_ccs.c")
	.dwattr $C$DW$45, DW_AT_TI_end_line(0x1dc)
	.dwattr $C$DW$45, DW_AT_TI_end_column(0x25)
	.dwendentry
	.dwendtag $C$DW$45

	.sect	".text"
	.clink
	.thumbfunc SSI1_Handler
	.thumb
	.weak	SSI1_Handler

$C$DW$46	.dwtag  DW_TAG_subprogram
	.dwattr $C$DW$46, DW_AT_name("SSI1_Handler")
	.dwattr $C$DW$46, DW_AT_low_pc(SSI1_Handler)
	.dwattr $C$DW$46, DW_AT_high_pc(0x00)
	.dwattr $C$DW$46, DW_AT_TI_symbol_name("SSI1_Handler")
	.dwattr $C$DW$46, DW_AT_external
	.dwattr $C$DW$46, DW_AT_TI_begin_file("../tm4c123gh6pm_startup_ccs.c")
	.dwattr $C$DW$46, DW_AT_TI_begin_line(0x1dd)
	.dwattr $C$DW$46, DW_AT_TI_begin_column(0x06)
	.dwattr $C$DW$46, DW_AT_decl_file("../tm4c123gh6pm_startup_ccs.c")
	.dwattr $C$DW$46, DW_AT_decl_line(0x1dd)
	.dwattr $C$DW$46, DW_AT_decl_column(0x06)
	.dwattr $C$DW$46, DW_AT_TI_max_frame_size(0x00)
	.dwpsn	file "../tm4c123gh6pm_startup_ccs.c",line 477,column 24,is_stmt,address SSI1_Handler,isa 1

	.dwfde $C$DW$CIE, SSI1_Handler

;*****************************************************************************
;* FUNCTION NAME: SSI1_Handler                                               *
;*                                                                           *
;*   Regs Modified     :                                                     *
;*   Regs Used         : LR                                                  *
;*   Local Frame Size  : 0 Args + 0 Auto + 0 Save = 0 byte                   *
;*****************************************************************************
SSI1_Handler:
;* --------------------------------------------------------------------------*
	.dwcfi	cfa_offset, 0
	.dwpsn	file "../tm4c123gh6pm_startup_ccs.c",line 477,column 32,is_stmt,isa 1
;----------------------------------------------------------------------
; 477 | void SSI1_Handler(void){ while(1){}}               // SSI1 Rx and Tx   
;----------------------------------------------------------------------
;* --------------------------------------------------------------------------*
;*   BEGIN LOOP ||$C$L42||
;*
;*   Loop source line                : 477
;*   Loop closing brace source line  : 477
;*   Known Minimum Trip Count        : 1
;*   Known Maximum Trip Count        : 4294967295
;*   Known Max Trip Count Factor     : 1
;* --------------------------------------------------------------------------*
||$C$L42||:    
        B         ||$C$L42||            ; [DPU_3_PIPE] |477| 
        ; BRANCH OCCURS {||$C$L42||}     ; [] |477| 
;* --------------------------------------------------------------------------*
	.dwattr $C$DW$46, DW_AT_TI_end_file("../tm4c123gh6pm_startup_ccs.c")
	.dwattr $C$DW$46, DW_AT_TI_end_line(0x1dd)
	.dwattr $C$DW$46, DW_AT_TI_end_column(0x24)
	.dwendentry
	.dwendtag $C$DW$46

	.sect	".text"
	.clink
	.thumbfunc Timer3A_Handler
	.thumb
	.weak	Timer3A_Handler

$C$DW$47	.dwtag  DW_TAG_subprogram
	.dwattr $C$DW$47, DW_AT_name("Timer3A_Handler")
	.dwattr $C$DW$47, DW_AT_low_pc(Timer3A_Handler)
	.dwattr $C$DW$47, DW_AT_high_pc(0x00)
	.dwattr $C$DW$47, DW_AT_TI_symbol_name("Timer3A_Handler")
	.dwattr $C$DW$47, DW_AT_external
	.dwattr $C$DW$47, DW_AT_TI_begin_file("../tm4c123gh6pm_startup_ccs.c")
	.dwattr $C$DW$47, DW_AT_TI_begin_line(0x1de)
	.dwattr $C$DW$47, DW_AT_TI_begin_column(0x06)
	.dwattr $C$DW$47, DW_AT_decl_file("../tm4c123gh6pm_startup_ccs.c")
	.dwattr $C$DW$47, DW_AT_decl_line(0x1de)
	.dwattr $C$DW$47, DW_AT_decl_column(0x06)
	.dwattr $C$DW$47, DW_AT_TI_max_frame_size(0x00)
	.dwpsn	file "../tm4c123gh6pm_startup_ccs.c",line 478,column 27,is_stmt,address Timer3A_Handler,isa 1

	.dwfde $C$DW$CIE, Timer3A_Handler

;*****************************************************************************
;* FUNCTION NAME: Timer3A_Handler                                            *
;*                                                                           *
;*   Regs Modified     :                                                     *
;*   Regs Used         : LR                                                  *
;*   Local Frame Size  : 0 Args + 0 Auto + 0 Save = 0 byte                   *
;*****************************************************************************
Timer3A_Handler:
;* --------------------------------------------------------------------------*
	.dwcfi	cfa_offset, 0
	.dwpsn	file "../tm4c123gh6pm_startup_ccs.c",line 478,column 35,is_stmt,isa 1
;----------------------------------------------------------------------
; 478 | void Timer3A_Handler(void){ while(1){}}            // Timer 3 subtimer
;     | A                                                                      
;----------------------------------------------------------------------
;* --------------------------------------------------------------------------*
;*   BEGIN LOOP ||$C$L43||
;*
;*   Loop source line                : 478
;*   Loop closing brace source line  : 478
;*   Known Minimum Trip Count        : 1
;*   Known Maximum Trip Count        : 4294967295
;*   Known Max Trip Count Factor     : 1
;* --------------------------------------------------------------------------*
||$C$L43||:    
        B         ||$C$L43||            ; [DPU_3_PIPE] |478| 
        ; BRANCH OCCURS {||$C$L43||}     ; [] |478| 
;* --------------------------------------------------------------------------*
	.dwattr $C$DW$47, DW_AT_TI_end_file("../tm4c123gh6pm_startup_ccs.c")
	.dwattr $C$DW$47, DW_AT_TI_end_line(0x1de)
	.dwattr $C$DW$47, DW_AT_TI_end_column(0x27)
	.dwendentry
	.dwendtag $C$DW$47

	.sect	".text"
	.clink
	.thumbfunc Timer3B_Handler
	.thumb
	.weak	Timer3B_Handler

$C$DW$48	.dwtag  DW_TAG_subprogram
	.dwattr $C$DW$48, DW_AT_name("Timer3B_Handler")
	.dwattr $C$DW$48, DW_AT_low_pc(Timer3B_Handler)
	.dwattr $C$DW$48, DW_AT_high_pc(0x00)
	.dwattr $C$DW$48, DW_AT_TI_symbol_name("Timer3B_Handler")
	.dwattr $C$DW$48, DW_AT_external
	.dwattr $C$DW$48, DW_AT_TI_begin_file("../tm4c123gh6pm_startup_ccs.c")
	.dwattr $C$DW$48, DW_AT_TI_begin_line(0x1df)
	.dwattr $C$DW$48, DW_AT_TI_begin_column(0x06)
	.dwattr $C$DW$48, DW_AT_decl_file("../tm4c123gh6pm_startup_ccs.c")
	.dwattr $C$DW$48, DW_AT_decl_line(0x1df)
	.dwattr $C$DW$48, DW_AT_decl_column(0x06)
	.dwattr $C$DW$48, DW_AT_TI_max_frame_size(0x00)
	.dwpsn	file "../tm4c123gh6pm_startup_ccs.c",line 479,column 27,is_stmt,address Timer3B_Handler,isa 1

	.dwfde $C$DW$CIE, Timer3B_Handler

;*****************************************************************************
;* FUNCTION NAME: Timer3B_Handler                                            *
;*                                                                           *
;*   Regs Modified     :                                                     *
;*   Regs Used         : LR                                                  *
;*   Local Frame Size  : 0 Args + 0 Auto + 0 Save = 0 byte                   *
;*****************************************************************************
Timer3B_Handler:
;* --------------------------------------------------------------------------*
	.dwcfi	cfa_offset, 0
	.dwpsn	file "../tm4c123gh6pm_startup_ccs.c",line 479,column 35,is_stmt,isa 1
;----------------------------------------------------------------------
; 479 | void Timer3B_Handler(void){ while(1){}}            // Timer 3 subtimer
;     | B                                                                      
;----------------------------------------------------------------------
;* --------------------------------------------------------------------------*
;*   BEGIN LOOP ||$C$L44||
;*
;*   Loop source line                : 479
;*   Loop closing brace source line  : 479
;*   Known Minimum Trip Count        : 1
;*   Known Maximum Trip Count        : 4294967295
;*   Known Max Trip Count Factor     : 1
;* --------------------------------------------------------------------------*
||$C$L44||:    
        B         ||$C$L44||            ; [DPU_3_PIPE] |479| 
        ; BRANCH OCCURS {||$C$L44||}     ; [] |479| 
;* --------------------------------------------------------------------------*
	.dwattr $C$DW$48, DW_AT_TI_end_file("../tm4c123gh6pm_startup_ccs.c")
	.dwattr $C$DW$48, DW_AT_TI_end_line(0x1df)
	.dwattr $C$DW$48, DW_AT_TI_end_column(0x27)
	.dwendentry
	.dwendtag $C$DW$48

	.sect	".text"
	.clink
	.thumbfunc I2C1_Handler
	.thumb
	.weak	I2C1_Handler

$C$DW$49	.dwtag  DW_TAG_subprogram
	.dwattr $C$DW$49, DW_AT_name("I2C1_Handler")
	.dwattr $C$DW$49, DW_AT_low_pc(I2C1_Handler)
	.dwattr $C$DW$49, DW_AT_high_pc(0x00)
	.dwattr $C$DW$49, DW_AT_TI_symbol_name("I2C1_Handler")
	.dwattr $C$DW$49, DW_AT_external
	.dwattr $C$DW$49, DW_AT_TI_begin_file("../tm4c123gh6pm_startup_ccs.c")
	.dwattr $C$DW$49, DW_AT_TI_begin_line(0x1e0)
	.dwattr $C$DW$49, DW_AT_TI_begin_column(0x06)
	.dwattr $C$DW$49, DW_AT_decl_file("../tm4c123gh6pm_startup_ccs.c")
	.dwattr $C$DW$49, DW_AT_decl_line(0x1e0)
	.dwattr $C$DW$49, DW_AT_decl_column(0x06)
	.dwattr $C$DW$49, DW_AT_TI_max_frame_size(0x00)
	.dwpsn	file "../tm4c123gh6pm_startup_ccs.c",line 480,column 24,is_stmt,address I2C1_Handler,isa 1

	.dwfde $C$DW$CIE, I2C1_Handler

;*****************************************************************************
;* FUNCTION NAME: I2C1_Handler                                               *
;*                                                                           *
;*   Regs Modified     :                                                     *
;*   Regs Used         : LR                                                  *
;*   Local Frame Size  : 0 Args + 0 Auto + 0 Save = 0 byte                   *
;*****************************************************************************
I2C1_Handler:
;* --------------------------------------------------------------------------*
	.dwcfi	cfa_offset, 0
	.dwpsn	file "../tm4c123gh6pm_startup_ccs.c",line 480,column 32,is_stmt,isa 1
;----------------------------------------------------------------------
; 480 | void I2C1_Handler(void){ while(1){}}               // I2C1 Master and S
;     | lave                                                                   
;----------------------------------------------------------------------
;* --------------------------------------------------------------------------*
;*   BEGIN LOOP ||$C$L45||
;*
;*   Loop source line                : 480
;*   Loop closing brace source line  : 480
;*   Known Minimum Trip Count        : 1
;*   Known Maximum Trip Count        : 4294967295
;*   Known Max Trip Count Factor     : 1
;* --------------------------------------------------------------------------*
||$C$L45||:    
        B         ||$C$L45||            ; [DPU_3_PIPE] |480| 
        ; BRANCH OCCURS {||$C$L45||}     ; [] |480| 
;* --------------------------------------------------------------------------*
	.dwattr $C$DW$49, DW_AT_TI_end_file("../tm4c123gh6pm_startup_ccs.c")
	.dwattr $C$DW$49, DW_AT_TI_end_line(0x1e0)
	.dwattr $C$DW$49, DW_AT_TI_end_column(0x24)
	.dwendentry
	.dwendtag $C$DW$49

	.sect	".text"
	.clink
	.thumbfunc Quadrature1_Handler
	.thumb
	.weak	Quadrature1_Handler

$C$DW$50	.dwtag  DW_TAG_subprogram
	.dwattr $C$DW$50, DW_AT_name("Quadrature1_Handler")
	.dwattr $C$DW$50, DW_AT_low_pc(Quadrature1_Handler)
	.dwattr $C$DW$50, DW_AT_high_pc(0x00)
	.dwattr $C$DW$50, DW_AT_TI_symbol_name("Quadrature1_Handler")
	.dwattr $C$DW$50, DW_AT_external
	.dwattr $C$DW$50, DW_AT_TI_begin_file("../tm4c123gh6pm_startup_ccs.c")
	.dwattr $C$DW$50, DW_AT_TI_begin_line(0x1e1)
	.dwattr $C$DW$50, DW_AT_TI_begin_column(0x06)
	.dwattr $C$DW$50, DW_AT_decl_file("../tm4c123gh6pm_startup_ccs.c")
	.dwattr $C$DW$50, DW_AT_decl_line(0x1e1)
	.dwattr $C$DW$50, DW_AT_decl_column(0x06)
	.dwattr $C$DW$50, DW_AT_TI_max_frame_size(0x00)
	.dwpsn	file "../tm4c123gh6pm_startup_ccs.c",line 481,column 31,is_stmt,address Quadrature1_Handler,isa 1

	.dwfde $C$DW$CIE, Quadrature1_Handler

;*****************************************************************************
;* FUNCTION NAME: Quadrature1_Handler                                        *
;*                                                                           *
;*   Regs Modified     :                                                     *
;*   Regs Used         : LR                                                  *
;*   Local Frame Size  : 0 Args + 0 Auto + 0 Save = 0 byte                   *
;*****************************************************************************
Quadrature1_Handler:
;* --------------------------------------------------------------------------*
	.dwcfi	cfa_offset, 0
	.dwpsn	file "../tm4c123gh6pm_startup_ccs.c",line 481,column 39,is_stmt,isa 1
;----------------------------------------------------------------------
; 481 | void Quadrature1_Handler(void){ while(1){}}        // Quadrature Encode
;     | r 1                                                                    
;----------------------------------------------------------------------
;* --------------------------------------------------------------------------*
;*   BEGIN LOOP ||$C$L46||
;*
;*   Loop source line                : 481
;*   Loop closing brace source line  : 481
;*   Known Minimum Trip Count        : 1
;*   Known Maximum Trip Count        : 4294967295
;*   Known Max Trip Count Factor     : 1
;* --------------------------------------------------------------------------*
||$C$L46||:    
        B         ||$C$L46||            ; [DPU_3_PIPE] |481| 
        ; BRANCH OCCURS {||$C$L46||}     ; [] |481| 
;* --------------------------------------------------------------------------*
	.dwattr $C$DW$50, DW_AT_TI_end_file("../tm4c123gh6pm_startup_ccs.c")
	.dwattr $C$DW$50, DW_AT_TI_end_line(0x1e1)
	.dwattr $C$DW$50, DW_AT_TI_end_column(0x2b)
	.dwendentry
	.dwendtag $C$DW$50

	.sect	".text"
	.clink
	.thumbfunc CAN0_Handler
	.thumb
	.weak	CAN0_Handler

$C$DW$51	.dwtag  DW_TAG_subprogram
	.dwattr $C$DW$51, DW_AT_name("CAN0_Handler")
	.dwattr $C$DW$51, DW_AT_low_pc(CAN0_Handler)
	.dwattr $C$DW$51, DW_AT_high_pc(0x00)
	.dwattr $C$DW$51, DW_AT_TI_symbol_name("CAN0_Handler")
	.dwattr $C$DW$51, DW_AT_external
	.dwattr $C$DW$51, DW_AT_TI_begin_file("../tm4c123gh6pm_startup_ccs.c")
	.dwattr $C$DW$51, DW_AT_TI_begin_line(0x1e2)
	.dwattr $C$DW$51, DW_AT_TI_begin_column(0x06)
	.dwattr $C$DW$51, DW_AT_decl_file("../tm4c123gh6pm_startup_ccs.c")
	.dwattr $C$DW$51, DW_AT_decl_line(0x1e2)
	.dwattr $C$DW$51, DW_AT_decl_column(0x06)
	.dwattr $C$DW$51, DW_AT_TI_max_frame_size(0x00)
	.dwpsn	file "../tm4c123gh6pm_startup_ccs.c",line 482,column 24,is_stmt,address CAN0_Handler,isa 1

	.dwfde $C$DW$CIE, CAN0_Handler

;*****************************************************************************
;* FUNCTION NAME: CAN0_Handler                                               *
;*                                                                           *
;*   Regs Modified     :                                                     *
;*   Regs Used         : LR                                                  *
;*   Local Frame Size  : 0 Args + 0 Auto + 0 Save = 0 byte                   *
;*****************************************************************************
CAN0_Handler:
;* --------------------------------------------------------------------------*
	.dwcfi	cfa_offset, 0
	.dwpsn	file "../tm4c123gh6pm_startup_ccs.c",line 482,column 32,is_stmt,isa 1
;----------------------------------------------------------------------
; 482 | void CAN0_Handler(void){ while(1){}}               // CAN0             
;----------------------------------------------------------------------
;* --------------------------------------------------------------------------*
;*   BEGIN LOOP ||$C$L47||
;*
;*   Loop source line                : 482
;*   Loop closing brace source line  : 482
;*   Known Minimum Trip Count        : 1
;*   Known Maximum Trip Count        : 4294967295
;*   Known Max Trip Count Factor     : 1
;* --------------------------------------------------------------------------*
||$C$L47||:    
        B         ||$C$L47||            ; [DPU_3_PIPE] |482| 
        ; BRANCH OCCURS {||$C$L47||}     ; [] |482| 
;* --------------------------------------------------------------------------*
	.dwattr $C$DW$51, DW_AT_TI_end_file("../tm4c123gh6pm_startup_ccs.c")
	.dwattr $C$DW$51, DW_AT_TI_end_line(0x1e2)
	.dwattr $C$DW$51, DW_AT_TI_end_column(0x24)
	.dwendentry
	.dwendtag $C$DW$51

	.sect	".text"
	.clink
	.thumbfunc CAN1_Handler
	.thumb
	.weak	CAN1_Handler

$C$DW$52	.dwtag  DW_TAG_subprogram
	.dwattr $C$DW$52, DW_AT_name("CAN1_Handler")
	.dwattr $C$DW$52, DW_AT_low_pc(CAN1_Handler)
	.dwattr $C$DW$52, DW_AT_high_pc(0x00)
	.dwattr $C$DW$52, DW_AT_TI_symbol_name("CAN1_Handler")
	.dwattr $C$DW$52, DW_AT_external
	.dwattr $C$DW$52, DW_AT_TI_begin_file("../tm4c123gh6pm_startup_ccs.c")
	.dwattr $C$DW$52, DW_AT_TI_begin_line(0x1e3)
	.dwattr $C$DW$52, DW_AT_TI_begin_column(0x06)
	.dwattr $C$DW$52, DW_AT_decl_file("../tm4c123gh6pm_startup_ccs.c")
	.dwattr $C$DW$52, DW_AT_decl_line(0x1e3)
	.dwattr $C$DW$52, DW_AT_decl_column(0x06)
	.dwattr $C$DW$52, DW_AT_TI_max_frame_size(0x00)
	.dwpsn	file "../tm4c123gh6pm_startup_ccs.c",line 483,column 24,is_stmt,address CAN1_Handler,isa 1

	.dwfde $C$DW$CIE, CAN1_Handler

;*****************************************************************************
;* FUNCTION NAME: CAN1_Handler                                               *
;*                                                                           *
;*   Regs Modified     :                                                     *
;*   Regs Used         : LR                                                  *
;*   Local Frame Size  : 0 Args + 0 Auto + 0 Save = 0 byte                   *
;*****************************************************************************
CAN1_Handler:
;* --------------------------------------------------------------------------*
	.dwcfi	cfa_offset, 0
	.dwpsn	file "../tm4c123gh6pm_startup_ccs.c",line 483,column 32,is_stmt,isa 1
;----------------------------------------------------------------------
; 483 | void CAN1_Handler(void){ while(1){}}               // CAN1             
;----------------------------------------------------------------------
;* --------------------------------------------------------------------------*
;*   BEGIN LOOP ||$C$L48||
;*
;*   Loop source line                : 483
;*   Loop closing brace source line  : 483
;*   Known Minimum Trip Count        : 1
;*   Known Maximum Trip Count        : 4294967295
;*   Known Max Trip Count Factor     : 1
;* --------------------------------------------------------------------------*
||$C$L48||:    
        B         ||$C$L48||            ; [DPU_3_PIPE] |483| 
        ; BRANCH OCCURS {||$C$L48||}     ; [] |483| 
;* --------------------------------------------------------------------------*
	.dwattr $C$DW$52, DW_AT_TI_end_file("../tm4c123gh6pm_startup_ccs.c")
	.dwattr $C$DW$52, DW_AT_TI_end_line(0x1e3)
	.dwattr $C$DW$52, DW_AT_TI_end_column(0x24)
	.dwendentry
	.dwendtag $C$DW$52

	.sect	".text"
	.clink
	.thumbfunc CAN2_Handler
	.thumb
	.weak	CAN2_Handler

$C$DW$53	.dwtag  DW_TAG_subprogram
	.dwattr $C$DW$53, DW_AT_name("CAN2_Handler")
	.dwattr $C$DW$53, DW_AT_low_pc(CAN2_Handler)
	.dwattr $C$DW$53, DW_AT_high_pc(0x00)
	.dwattr $C$DW$53, DW_AT_TI_symbol_name("CAN2_Handler")
	.dwattr $C$DW$53, DW_AT_external
	.dwattr $C$DW$53, DW_AT_TI_begin_file("../tm4c123gh6pm_startup_ccs.c")
	.dwattr $C$DW$53, DW_AT_TI_begin_line(0x1e4)
	.dwattr $C$DW$53, DW_AT_TI_begin_column(0x06)
	.dwattr $C$DW$53, DW_AT_decl_file("../tm4c123gh6pm_startup_ccs.c")
	.dwattr $C$DW$53, DW_AT_decl_line(0x1e4)
	.dwattr $C$DW$53, DW_AT_decl_column(0x06)
	.dwattr $C$DW$53, DW_AT_TI_max_frame_size(0x00)
	.dwpsn	file "../tm4c123gh6pm_startup_ccs.c",line 484,column 24,is_stmt,address CAN2_Handler,isa 1

	.dwfde $C$DW$CIE, CAN2_Handler

;*****************************************************************************
;* FUNCTION NAME: CAN2_Handler                                               *
;*                                                                           *
;*   Regs Modified     :                                                     *
;*   Regs Used         : LR                                                  *
;*   Local Frame Size  : 0 Args + 0 Auto + 0 Save = 0 byte                   *
;*****************************************************************************
CAN2_Handler:
;* --------------------------------------------------------------------------*
	.dwcfi	cfa_offset, 0
	.dwpsn	file "../tm4c123gh6pm_startup_ccs.c",line 484,column 32,is_stmt,isa 1
;----------------------------------------------------------------------
; 484 | void CAN2_Handler(void){ while(1){}}               // CAN2             
;----------------------------------------------------------------------
;* --------------------------------------------------------------------------*
;*   BEGIN LOOP ||$C$L49||
;*
;*   Loop source line                : 484
;*   Loop closing brace source line  : 484
;*   Known Minimum Trip Count        : 1
;*   Known Maximum Trip Count        : 4294967295
;*   Known Max Trip Count Factor     : 1
;* --------------------------------------------------------------------------*
||$C$L49||:    
        B         ||$C$L49||            ; [DPU_3_PIPE] |484| 
        ; BRANCH OCCURS {||$C$L49||}     ; [] |484| 
;* --------------------------------------------------------------------------*
	.dwattr $C$DW$53, DW_AT_TI_end_file("../tm4c123gh6pm_startup_ccs.c")
	.dwattr $C$DW$53, DW_AT_TI_end_line(0x1e4)
	.dwattr $C$DW$53, DW_AT_TI_end_column(0x24)
	.dwendentry
	.dwendtag $C$DW$53

	.sect	".text"
	.clink
	.thumbfunc Ethernet_Handler
	.thumb
	.weak	Ethernet_Handler

$C$DW$54	.dwtag  DW_TAG_subprogram
	.dwattr $C$DW$54, DW_AT_name("Ethernet_Handler")
	.dwattr $C$DW$54, DW_AT_low_pc(Ethernet_Handler)
	.dwattr $C$DW$54, DW_AT_high_pc(0x00)
	.dwattr $C$DW$54, DW_AT_TI_symbol_name("Ethernet_Handler")
	.dwattr $C$DW$54, DW_AT_external
	.dwattr $C$DW$54, DW_AT_TI_begin_file("../tm4c123gh6pm_startup_ccs.c")
	.dwattr $C$DW$54, DW_AT_TI_begin_line(0x1e5)
	.dwattr $C$DW$54, DW_AT_TI_begin_column(0x06)
	.dwattr $C$DW$54, DW_AT_decl_file("../tm4c123gh6pm_startup_ccs.c")
	.dwattr $C$DW$54, DW_AT_decl_line(0x1e5)
	.dwattr $C$DW$54, DW_AT_decl_column(0x06)
	.dwattr $C$DW$54, DW_AT_TI_max_frame_size(0x00)
	.dwpsn	file "../tm4c123gh6pm_startup_ccs.c",line 485,column 28,is_stmt,address Ethernet_Handler,isa 1

	.dwfde $C$DW$CIE, Ethernet_Handler

;*****************************************************************************
;* FUNCTION NAME: Ethernet_Handler                                           *
;*                                                                           *
;*   Regs Modified     :                                                     *
;*   Regs Used         : LR                                                  *
;*   Local Frame Size  : 0 Args + 0 Auto + 0 Save = 0 byte                   *
;*****************************************************************************
Ethernet_Handler:
;* --------------------------------------------------------------------------*
	.dwcfi	cfa_offset, 0
	.dwpsn	file "../tm4c123gh6pm_startup_ccs.c",line 485,column 36,is_stmt,isa 1
;----------------------------------------------------------------------
; 485 | void Ethernet_Handler(void){ while(1){}}           // Ethernet         
;----------------------------------------------------------------------
;* --------------------------------------------------------------------------*
;*   BEGIN LOOP ||$C$L50||
;*
;*   Loop source line                : 485
;*   Loop closing brace source line  : 485
;*   Known Minimum Trip Count        : 1
;*   Known Maximum Trip Count        : 4294967295
;*   Known Max Trip Count Factor     : 1
;* --------------------------------------------------------------------------*
||$C$L50||:    
        B         ||$C$L50||            ; [DPU_3_PIPE] |485| 
        ; BRANCH OCCURS {||$C$L50||}     ; [] |485| 
;* --------------------------------------------------------------------------*
	.dwattr $C$DW$54, DW_AT_TI_end_file("../tm4c123gh6pm_startup_ccs.c")
	.dwattr $C$DW$54, DW_AT_TI_end_line(0x1e5)
	.dwattr $C$DW$54, DW_AT_TI_end_column(0x28)
	.dwendentry
	.dwendtag $C$DW$54

	.sect	".text"
	.clink
	.thumbfunc Hibernate_Handler
	.thumb
	.weak	Hibernate_Handler

$C$DW$55	.dwtag  DW_TAG_subprogram
	.dwattr $C$DW$55, DW_AT_name("Hibernate_Handler")
	.dwattr $C$DW$55, DW_AT_low_pc(Hibernate_Handler)
	.dwattr $C$DW$55, DW_AT_high_pc(0x00)
	.dwattr $C$DW$55, DW_AT_TI_symbol_name("Hibernate_Handler")
	.dwattr $C$DW$55, DW_AT_external
	.dwattr $C$DW$55, DW_AT_TI_begin_file("../tm4c123gh6pm_startup_ccs.c")
	.dwattr $C$DW$55, DW_AT_TI_begin_line(0x1e6)
	.dwattr $C$DW$55, DW_AT_TI_begin_column(0x06)
	.dwattr $C$DW$55, DW_AT_decl_file("../tm4c123gh6pm_startup_ccs.c")
	.dwattr $C$DW$55, DW_AT_decl_line(0x1e6)
	.dwattr $C$DW$55, DW_AT_decl_column(0x06)
	.dwattr $C$DW$55, DW_AT_TI_max_frame_size(0x00)
	.dwpsn	file "../tm4c123gh6pm_startup_ccs.c",line 486,column 29,is_stmt,address Hibernate_Handler,isa 1

	.dwfde $C$DW$CIE, Hibernate_Handler

;*****************************************************************************
;* FUNCTION NAME: Hibernate_Handler                                          *
;*                                                                           *
;*   Regs Modified     :                                                     *
;*   Regs Used         : LR                                                  *
;*   Local Frame Size  : 0 Args + 0 Auto + 0 Save = 0 byte                   *
;*****************************************************************************
Hibernate_Handler:
;* --------------------------------------------------------------------------*
	.dwcfi	cfa_offset, 0
	.dwpsn	file "../tm4c123gh6pm_startup_ccs.c",line 486,column 37,is_stmt,isa 1
;----------------------------------------------------------------------
; 486 | void Hibernate_Handler(void){ while(1){}}          // Hibernate        
;----------------------------------------------------------------------
;* --------------------------------------------------------------------------*
;*   BEGIN LOOP ||$C$L51||
;*
;*   Loop source line                : 486
;*   Loop closing brace source line  : 486
;*   Known Minimum Trip Count        : 1
;*   Known Maximum Trip Count        : 4294967295
;*   Known Max Trip Count Factor     : 1
;* --------------------------------------------------------------------------*
||$C$L51||:    
        B         ||$C$L51||            ; [DPU_3_PIPE] |486| 
        ; BRANCH OCCURS {||$C$L51||}     ; [] |486| 
;* --------------------------------------------------------------------------*
	.dwattr $C$DW$55, DW_AT_TI_end_file("../tm4c123gh6pm_startup_ccs.c")
	.dwattr $C$DW$55, DW_AT_TI_end_line(0x1e6)
	.dwattr $C$DW$55, DW_AT_TI_end_column(0x29)
	.dwendentry
	.dwendtag $C$DW$55

	.sect	".text"
	.clink
	.thumbfunc USB0_Handler
	.thumb
	.weak	USB0_Handler

$C$DW$56	.dwtag  DW_TAG_subprogram
	.dwattr $C$DW$56, DW_AT_name("USB0_Handler")
	.dwattr $C$DW$56, DW_AT_low_pc(USB0_Handler)
	.dwattr $C$DW$56, DW_AT_high_pc(0x00)
	.dwattr $C$DW$56, DW_AT_TI_symbol_name("USB0_Handler")
	.dwattr $C$DW$56, DW_AT_external
	.dwattr $C$DW$56, DW_AT_TI_begin_file("../tm4c123gh6pm_startup_ccs.c")
	.dwattr $C$DW$56, DW_AT_TI_begin_line(0x1e7)
	.dwattr $C$DW$56, DW_AT_TI_begin_column(0x06)
	.dwattr $C$DW$56, DW_AT_decl_file("../tm4c123gh6pm_startup_ccs.c")
	.dwattr $C$DW$56, DW_AT_decl_line(0x1e7)
	.dwattr $C$DW$56, DW_AT_decl_column(0x06)
	.dwattr $C$DW$56, DW_AT_TI_max_frame_size(0x00)
	.dwpsn	file "../tm4c123gh6pm_startup_ccs.c",line 487,column 24,is_stmt,address USB0_Handler,isa 1

	.dwfde $C$DW$CIE, USB0_Handler

;*****************************************************************************
;* FUNCTION NAME: USB0_Handler                                               *
;*                                                                           *
;*   Regs Modified     :                                                     *
;*   Regs Used         : LR                                                  *
;*   Local Frame Size  : 0 Args + 0 Auto + 0 Save = 0 byte                   *
;*****************************************************************************
USB0_Handler:
;* --------------------------------------------------------------------------*
	.dwcfi	cfa_offset, 0
	.dwpsn	file "../tm4c123gh6pm_startup_ccs.c",line 487,column 32,is_stmt,isa 1
;----------------------------------------------------------------------
; 487 | void USB0_Handler(void){ while(1){}}               // USB0             
;----------------------------------------------------------------------
;* --------------------------------------------------------------------------*
;*   BEGIN LOOP ||$C$L52||
;*
;*   Loop source line                : 487
;*   Loop closing brace source line  : 487
;*   Known Minimum Trip Count        : 1
;*   Known Maximum Trip Count        : 4294967295
;*   Known Max Trip Count Factor     : 1
;* --------------------------------------------------------------------------*
||$C$L52||:    
        B         ||$C$L52||            ; [DPU_3_PIPE] |487| 
        ; BRANCH OCCURS {||$C$L52||}     ; [] |487| 
;* --------------------------------------------------------------------------*
	.dwattr $C$DW$56, DW_AT_TI_end_file("../tm4c123gh6pm_startup_ccs.c")
	.dwattr $C$DW$56, DW_AT_TI_end_line(0x1e7)
	.dwattr $C$DW$56, DW_AT_TI_end_column(0x24)
	.dwendentry
	.dwendtag $C$DW$56

	.sect	".text"
	.clink
	.thumbfunc PWM0Generator3_Handler
	.thumb
	.weak	PWM0Generator3_Handler

$C$DW$57	.dwtag  DW_TAG_subprogram
	.dwattr $C$DW$57, DW_AT_name("PWM0Generator3_Handler")
	.dwattr $C$DW$57, DW_AT_low_pc(PWM0Generator3_Handler)
	.dwattr $C$DW$57, DW_AT_high_pc(0x00)
	.dwattr $C$DW$57, DW_AT_TI_symbol_name("PWM0Generator3_Handler")
	.dwattr $C$DW$57, DW_AT_external
	.dwattr $C$DW$57, DW_AT_TI_begin_file("../tm4c123gh6pm_startup_ccs.c")
	.dwattr $C$DW$57, DW_AT_TI_begin_line(0x1e8)
	.dwattr $C$DW$57, DW_AT_TI_begin_column(0x06)
	.dwattr $C$DW$57, DW_AT_decl_file("../tm4c123gh6pm_startup_ccs.c")
	.dwattr $C$DW$57, DW_AT_decl_line(0x1e8)
	.dwattr $C$DW$57, DW_AT_decl_column(0x06)
	.dwattr $C$DW$57, DW_AT_TI_max_frame_size(0x00)
	.dwpsn	file "../tm4c123gh6pm_startup_ccs.c",line 488,column 34,is_stmt,address PWM0Generator3_Handler,isa 1

	.dwfde $C$DW$CIE, PWM0Generator3_Handler

;*****************************************************************************
;* FUNCTION NAME: PWM0Generator3_Handler                                     *
;*                                                                           *
;*   Regs Modified     :                                                     *
;*   Regs Used         : LR                                                  *
;*   Local Frame Size  : 0 Args + 0 Auto + 0 Save = 0 byte                   *
;*****************************************************************************
PWM0Generator3_Handler:
;* --------------------------------------------------------------------------*
	.dwcfi	cfa_offset, 0
	.dwpsn	file "../tm4c123gh6pm_startup_ccs.c",line 488,column 42,is_stmt,isa 1
;----------------------------------------------------------------------
; 488 | void PWM0Generator3_Handler(void){ while(1){}}     // PWM 0 Generator 3
;----------------------------------------------------------------------
;* --------------------------------------------------------------------------*
;*   BEGIN LOOP ||$C$L53||
;*
;*   Loop source line                : 488
;*   Loop closing brace source line  : 488
;*   Known Minimum Trip Count        : 1
;*   Known Maximum Trip Count        : 4294967295
;*   Known Max Trip Count Factor     : 1
;* --------------------------------------------------------------------------*
||$C$L53||:    
        B         ||$C$L53||            ; [DPU_3_PIPE] |488| 
        ; BRANCH OCCURS {||$C$L53||}     ; [] |488| 
;* --------------------------------------------------------------------------*
	.dwattr $C$DW$57, DW_AT_TI_end_file("../tm4c123gh6pm_startup_ccs.c")
	.dwattr $C$DW$57, DW_AT_TI_end_line(0x1e8)
	.dwattr $C$DW$57, DW_AT_TI_end_column(0x2e)
	.dwendentry
	.dwendtag $C$DW$57

	.sect	".text"
	.clink
	.thumbfunc uDMA_Handler
	.thumb
	.weak	uDMA_Handler

$C$DW$58	.dwtag  DW_TAG_subprogram
	.dwattr $C$DW$58, DW_AT_name("uDMA_Handler")
	.dwattr $C$DW$58, DW_AT_low_pc(uDMA_Handler)
	.dwattr $C$DW$58, DW_AT_high_pc(0x00)
	.dwattr $C$DW$58, DW_AT_TI_symbol_name("uDMA_Handler")
	.dwattr $C$DW$58, DW_AT_external
	.dwattr $C$DW$58, DW_AT_TI_begin_file("../tm4c123gh6pm_startup_ccs.c")
	.dwattr $C$DW$58, DW_AT_TI_begin_line(0x1e9)
	.dwattr $C$DW$58, DW_AT_TI_begin_column(0x06)
	.dwattr $C$DW$58, DW_AT_decl_file("../tm4c123gh6pm_startup_ccs.c")
	.dwattr $C$DW$58, DW_AT_decl_line(0x1e9)
	.dwattr $C$DW$58, DW_AT_decl_column(0x06)
	.dwattr $C$DW$58, DW_AT_TI_max_frame_size(0x00)
	.dwpsn	file "../tm4c123gh6pm_startup_ccs.c",line 489,column 24,is_stmt,address uDMA_Handler,isa 1

	.dwfde $C$DW$CIE, uDMA_Handler

;*****************************************************************************
;* FUNCTION NAME: uDMA_Handler                                               *
;*                                                                           *
;*   Regs Modified     :                                                     *
;*   Regs Used         : LR                                                  *
;*   Local Frame Size  : 0 Args + 0 Auto + 0 Save = 0 byte                   *
;*****************************************************************************
uDMA_Handler:
;* --------------------------------------------------------------------------*
	.dwcfi	cfa_offset, 0
	.dwpsn	file "../tm4c123gh6pm_startup_ccs.c",line 489,column 32,is_stmt,isa 1
;----------------------------------------------------------------------
; 489 | void uDMA_Handler(void){ while(1){}}               // uDMA Software Tra
;     | nsfer                                                                  
;----------------------------------------------------------------------
;* --------------------------------------------------------------------------*
;*   BEGIN LOOP ||$C$L54||
;*
;*   Loop source line                : 489
;*   Loop closing brace source line  : 489
;*   Known Minimum Trip Count        : 1
;*   Known Maximum Trip Count        : 4294967295
;*   Known Max Trip Count Factor     : 1
;* --------------------------------------------------------------------------*
||$C$L54||:    
        B         ||$C$L54||            ; [DPU_3_PIPE] |489| 
        ; BRANCH OCCURS {||$C$L54||}     ; [] |489| 
;* --------------------------------------------------------------------------*
	.dwattr $C$DW$58, DW_AT_TI_end_file("../tm4c123gh6pm_startup_ccs.c")
	.dwattr $C$DW$58, DW_AT_TI_end_line(0x1e9)
	.dwattr $C$DW$58, DW_AT_TI_end_column(0x24)
	.dwendentry
	.dwendtag $C$DW$58

	.sect	".text"
	.clink
	.thumbfunc uDMA_Error
	.thumb
	.weak	uDMA_Error

$C$DW$59	.dwtag  DW_TAG_subprogram
	.dwattr $C$DW$59, DW_AT_name("uDMA_Error")
	.dwattr $C$DW$59, DW_AT_low_pc(uDMA_Error)
	.dwattr $C$DW$59, DW_AT_high_pc(0x00)
	.dwattr $C$DW$59, DW_AT_TI_symbol_name("uDMA_Error")
	.dwattr $C$DW$59, DW_AT_external
	.dwattr $C$DW$59, DW_AT_TI_begin_file("../tm4c123gh6pm_startup_ccs.c")
	.dwattr $C$DW$59, DW_AT_TI_begin_line(0x1ea)
	.dwattr $C$DW$59, DW_AT_TI_begin_column(0x06)
	.dwattr $C$DW$59, DW_AT_decl_file("../tm4c123gh6pm_startup_ccs.c")
	.dwattr $C$DW$59, DW_AT_decl_line(0x1ea)
	.dwattr $C$DW$59, DW_AT_decl_column(0x06)
	.dwattr $C$DW$59, DW_AT_TI_max_frame_size(0x00)
	.dwpsn	file "../tm4c123gh6pm_startup_ccs.c",line 490,column 22,is_stmt,address uDMA_Error,isa 1

	.dwfde $C$DW$CIE, uDMA_Error

;*****************************************************************************
;* FUNCTION NAME: uDMA_Error                                                 *
;*                                                                           *
;*   Regs Modified     :                                                     *
;*   Regs Used         : LR                                                  *
;*   Local Frame Size  : 0 Args + 0 Auto + 0 Save = 0 byte                   *
;*****************************************************************************
uDMA_Error:
;* --------------------------------------------------------------------------*
	.dwcfi	cfa_offset, 0
	.dwpsn	file "../tm4c123gh6pm_startup_ccs.c",line 490,column 30,is_stmt,isa 1
;----------------------------------------------------------------------
; 490 | void uDMA_Error(void){ while(1){}}                 // uDMA Error       
;----------------------------------------------------------------------
;* --------------------------------------------------------------------------*
;*   BEGIN LOOP ||$C$L55||
;*
;*   Loop source line                : 490
;*   Loop closing brace source line  : 490
;*   Known Minimum Trip Count        : 1
;*   Known Maximum Trip Count        : 4294967295
;*   Known Max Trip Count Factor     : 1
;* --------------------------------------------------------------------------*
||$C$L55||:    
        B         ||$C$L55||            ; [DPU_3_PIPE] |490| 
        ; BRANCH OCCURS {||$C$L55||}     ; [] |490| 
;* --------------------------------------------------------------------------*
	.dwattr $C$DW$59, DW_AT_TI_end_file("../tm4c123gh6pm_startup_ccs.c")
	.dwattr $C$DW$59, DW_AT_TI_end_line(0x1ea)
	.dwattr $C$DW$59, DW_AT_TI_end_column(0x22)
	.dwendentry
	.dwendtag $C$DW$59

	.sect	".text"
	.clink
	.thumbfunc ADC1Seq0_Handler
	.thumb
	.weak	ADC1Seq0_Handler

$C$DW$60	.dwtag  DW_TAG_subprogram
	.dwattr $C$DW$60, DW_AT_name("ADC1Seq0_Handler")
	.dwattr $C$DW$60, DW_AT_low_pc(ADC1Seq0_Handler)
	.dwattr $C$DW$60, DW_AT_high_pc(0x00)
	.dwattr $C$DW$60, DW_AT_TI_symbol_name("ADC1Seq0_Handler")
	.dwattr $C$DW$60, DW_AT_external
	.dwattr $C$DW$60, DW_AT_TI_begin_file("../tm4c123gh6pm_startup_ccs.c")
	.dwattr $C$DW$60, DW_AT_TI_begin_line(0x1eb)
	.dwattr $C$DW$60, DW_AT_TI_begin_column(0x06)
	.dwattr $C$DW$60, DW_AT_decl_file("../tm4c123gh6pm_startup_ccs.c")
	.dwattr $C$DW$60, DW_AT_decl_line(0x1eb)
	.dwattr $C$DW$60, DW_AT_decl_column(0x06)
	.dwattr $C$DW$60, DW_AT_TI_max_frame_size(0x00)
	.dwpsn	file "../tm4c123gh6pm_startup_ccs.c",line 491,column 28,is_stmt,address ADC1Seq0_Handler,isa 1

	.dwfde $C$DW$CIE, ADC1Seq0_Handler

;*****************************************************************************
;* FUNCTION NAME: ADC1Seq0_Handler                                           *
;*                                                                           *
;*   Regs Modified     :                                                     *
;*   Regs Used         : LR                                                  *
;*   Local Frame Size  : 0 Args + 0 Auto + 0 Save = 0 byte                   *
;*****************************************************************************
ADC1Seq0_Handler:
;* --------------------------------------------------------------------------*
	.dwcfi	cfa_offset, 0
	.dwpsn	file "../tm4c123gh6pm_startup_ccs.c",line 491,column 36,is_stmt,isa 1
;----------------------------------------------------------------------
; 491 | void ADC1Seq0_Handler(void){ while(1){}}           // ADC1 Sequence 0  
;----------------------------------------------------------------------
;* --------------------------------------------------------------------------*
;*   BEGIN LOOP ||$C$L56||
;*
;*   Loop source line                : 491
;*   Loop closing brace source line  : 491
;*   Known Minimum Trip Count        : 1
;*   Known Maximum Trip Count        : 4294967295
;*   Known Max Trip Count Factor     : 1
;* --------------------------------------------------------------------------*
||$C$L56||:    
        B         ||$C$L56||            ; [DPU_3_PIPE] |491| 
        ; BRANCH OCCURS {||$C$L56||}     ; [] |491| 
;* --------------------------------------------------------------------------*
	.dwattr $C$DW$60, DW_AT_TI_end_file("../tm4c123gh6pm_startup_ccs.c")
	.dwattr $C$DW$60, DW_AT_TI_end_line(0x1eb)
	.dwattr $C$DW$60, DW_AT_TI_end_column(0x28)
	.dwendentry
	.dwendtag $C$DW$60

	.sect	".text"
	.clink
	.thumbfunc ADC1Seq1_Handler
	.thumb
	.weak	ADC1Seq1_Handler

$C$DW$61	.dwtag  DW_TAG_subprogram
	.dwattr $C$DW$61, DW_AT_name("ADC1Seq1_Handler")
	.dwattr $C$DW$61, DW_AT_low_pc(ADC1Seq1_Handler)
	.dwattr $C$DW$61, DW_AT_high_pc(0x00)
	.dwattr $C$DW$61, DW_AT_TI_symbol_name("ADC1Seq1_Handler")
	.dwattr $C$DW$61, DW_AT_external
	.dwattr $C$DW$61, DW_AT_TI_begin_file("../tm4c123gh6pm_startup_ccs.c")
	.dwattr $C$DW$61, DW_AT_TI_begin_line(0x1ec)
	.dwattr $C$DW$61, DW_AT_TI_begin_column(0x06)
	.dwattr $C$DW$61, DW_AT_decl_file("../tm4c123gh6pm_startup_ccs.c")
	.dwattr $C$DW$61, DW_AT_decl_line(0x1ec)
	.dwattr $C$DW$61, DW_AT_decl_column(0x06)
	.dwattr $C$DW$61, DW_AT_TI_max_frame_size(0x00)
	.dwpsn	file "../tm4c123gh6pm_startup_ccs.c",line 492,column 28,is_stmt,address ADC1Seq1_Handler,isa 1

	.dwfde $C$DW$CIE, ADC1Seq1_Handler

;*****************************************************************************
;* FUNCTION NAME: ADC1Seq1_Handler                                           *
;*                                                                           *
;*   Regs Modified     :                                                     *
;*   Regs Used         : LR                                                  *
;*   Local Frame Size  : 0 Args + 0 Auto + 0 Save = 0 byte                   *
;*****************************************************************************
ADC1Seq1_Handler:
;* --------------------------------------------------------------------------*
	.dwcfi	cfa_offset, 0
	.dwpsn	file "../tm4c123gh6pm_startup_ccs.c",line 492,column 36,is_stmt,isa 1
;----------------------------------------------------------------------
; 492 | void ADC1Seq1_Handler(void){ while(1){}}           // ADC1 Sequence 1  
;----------------------------------------------------------------------
;* --------------------------------------------------------------------------*
;*   BEGIN LOOP ||$C$L57||
;*
;*   Loop source line                : 492
;*   Loop closing brace source line  : 492
;*   Known Minimum Trip Count        : 1
;*   Known Maximum Trip Count        : 4294967295
;*   Known Max Trip Count Factor     : 1
;* --------------------------------------------------------------------------*
||$C$L57||:    
        B         ||$C$L57||            ; [DPU_3_PIPE] |492| 
        ; BRANCH OCCURS {||$C$L57||}     ; [] |492| 
;* --------------------------------------------------------------------------*
	.dwattr $C$DW$61, DW_AT_TI_end_file("../tm4c123gh6pm_startup_ccs.c")
	.dwattr $C$DW$61, DW_AT_TI_end_line(0x1ec)
	.dwattr $C$DW$61, DW_AT_TI_end_column(0x28)
	.dwendentry
	.dwendtag $C$DW$61

	.sect	".text"
	.clink
	.thumbfunc ADC1Seq2_Handler
	.thumb
	.weak	ADC1Seq2_Handler

$C$DW$62	.dwtag  DW_TAG_subprogram
	.dwattr $C$DW$62, DW_AT_name("ADC1Seq2_Handler")
	.dwattr $C$DW$62, DW_AT_low_pc(ADC1Seq2_Handler)
	.dwattr $C$DW$62, DW_AT_high_pc(0x00)
	.dwattr $C$DW$62, DW_AT_TI_symbol_name("ADC1Seq2_Handler")
	.dwattr $C$DW$62, DW_AT_external
	.dwattr $C$DW$62, DW_AT_TI_begin_file("../tm4c123gh6pm_startup_ccs.c")
	.dwattr $C$DW$62, DW_AT_TI_begin_line(0x1ed)
	.dwattr $C$DW$62, DW_AT_TI_begin_column(0x06)
	.dwattr $C$DW$62, DW_AT_decl_file("../tm4c123gh6pm_startup_ccs.c")
	.dwattr $C$DW$62, DW_AT_decl_line(0x1ed)
	.dwattr $C$DW$62, DW_AT_decl_column(0x06)
	.dwattr $C$DW$62, DW_AT_TI_max_frame_size(0x00)
	.dwpsn	file "../tm4c123gh6pm_startup_ccs.c",line 493,column 28,is_stmt,address ADC1Seq2_Handler,isa 1

	.dwfde $C$DW$CIE, ADC1Seq2_Handler

;*****************************************************************************
;* FUNCTION NAME: ADC1Seq2_Handler                                           *
;*                                                                           *
;*   Regs Modified     :                                                     *
;*   Regs Used         : LR                                                  *
;*   Local Frame Size  : 0 Args + 0 Auto + 0 Save = 0 byte                   *
;*****************************************************************************
ADC1Seq2_Handler:
;* --------------------------------------------------------------------------*
	.dwcfi	cfa_offset, 0
	.dwpsn	file "../tm4c123gh6pm_startup_ccs.c",line 493,column 36,is_stmt,isa 1
;----------------------------------------------------------------------
; 493 | void ADC1Seq2_Handler(void){ while(1){}}           // ADC1 Sequence 2  
;----------------------------------------------------------------------
;* --------------------------------------------------------------------------*
;*   BEGIN LOOP ||$C$L58||
;*
;*   Loop source line                : 493
;*   Loop closing brace source line  : 493
;*   Known Minimum Trip Count        : 1
;*   Known Maximum Trip Count        : 4294967295
;*   Known Max Trip Count Factor     : 1
;* --------------------------------------------------------------------------*
||$C$L58||:    
        B         ||$C$L58||            ; [DPU_3_PIPE] |493| 
        ; BRANCH OCCURS {||$C$L58||}     ; [] |493| 
;* --------------------------------------------------------------------------*
	.dwattr $C$DW$62, DW_AT_TI_end_file("../tm4c123gh6pm_startup_ccs.c")
	.dwattr $C$DW$62, DW_AT_TI_end_line(0x1ed)
	.dwattr $C$DW$62, DW_AT_TI_end_column(0x28)
	.dwendentry
	.dwendtag $C$DW$62

	.sect	".text"
	.clink
	.thumbfunc ADC1Seq3_Handler
	.thumb
	.weak	ADC1Seq3_Handler

$C$DW$63	.dwtag  DW_TAG_subprogram
	.dwattr $C$DW$63, DW_AT_name("ADC1Seq3_Handler")
	.dwattr $C$DW$63, DW_AT_low_pc(ADC1Seq3_Handler)
	.dwattr $C$DW$63, DW_AT_high_pc(0x00)
	.dwattr $C$DW$63, DW_AT_TI_symbol_name("ADC1Seq3_Handler")
	.dwattr $C$DW$63, DW_AT_external
	.dwattr $C$DW$63, DW_AT_TI_begin_file("../tm4c123gh6pm_startup_ccs.c")
	.dwattr $C$DW$63, DW_AT_TI_begin_line(0x1ee)
	.dwattr $C$DW$63, DW_AT_TI_begin_column(0x06)
	.dwattr $C$DW$63, DW_AT_decl_file("../tm4c123gh6pm_startup_ccs.c")
	.dwattr $C$DW$63, DW_AT_decl_line(0x1ee)
	.dwattr $C$DW$63, DW_AT_decl_column(0x06)
	.dwattr $C$DW$63, DW_AT_TI_max_frame_size(0x00)
	.dwpsn	file "../tm4c123gh6pm_startup_ccs.c",line 494,column 28,is_stmt,address ADC1Seq3_Handler,isa 1

	.dwfde $C$DW$CIE, ADC1Seq3_Handler

;*****************************************************************************
;* FUNCTION NAME: ADC1Seq3_Handler                                           *
;*                                                                           *
;*   Regs Modified     :                                                     *
;*   Regs Used         : LR                                                  *
;*   Local Frame Size  : 0 Args + 0 Auto + 0 Save = 0 byte                   *
;*****************************************************************************
ADC1Seq3_Handler:
;* --------------------------------------------------------------------------*
	.dwcfi	cfa_offset, 0
	.dwpsn	file "../tm4c123gh6pm_startup_ccs.c",line 494,column 36,is_stmt,isa 1
;----------------------------------------------------------------------
; 494 | void ADC1Seq3_Handler(void){ while(1){}}           // ADC1 Sequence 3  
;----------------------------------------------------------------------
;* --------------------------------------------------------------------------*
;*   BEGIN LOOP ||$C$L59||
;*
;*   Loop source line                : 494
;*   Loop closing brace source line  : 494
;*   Known Minimum Trip Count        : 1
;*   Known Maximum Trip Count        : 4294967295
;*   Known Max Trip Count Factor     : 1
;* --------------------------------------------------------------------------*
||$C$L59||:    
        B         ||$C$L59||            ; [DPU_3_PIPE] |494| 
        ; BRANCH OCCURS {||$C$L59||}     ; [] |494| 
;* --------------------------------------------------------------------------*
	.dwattr $C$DW$63, DW_AT_TI_end_file("../tm4c123gh6pm_startup_ccs.c")
	.dwattr $C$DW$63, DW_AT_TI_end_line(0x1ee)
	.dwattr $C$DW$63, DW_AT_TI_end_column(0x28)
	.dwendentry
	.dwendtag $C$DW$63

	.sect	".text"
	.clink
	.thumbfunc I2S0_Handler
	.thumb
	.weak	I2S0_Handler

$C$DW$64	.dwtag  DW_TAG_subprogram
	.dwattr $C$DW$64, DW_AT_name("I2S0_Handler")
	.dwattr $C$DW$64, DW_AT_low_pc(I2S0_Handler)
	.dwattr $C$DW$64, DW_AT_high_pc(0x00)
	.dwattr $C$DW$64, DW_AT_TI_symbol_name("I2S0_Handler")
	.dwattr $C$DW$64, DW_AT_external
	.dwattr $C$DW$64, DW_AT_TI_begin_file("../tm4c123gh6pm_startup_ccs.c")
	.dwattr $C$DW$64, DW_AT_TI_begin_line(0x1ef)
	.dwattr $C$DW$64, DW_AT_TI_begin_column(0x06)
	.dwattr $C$DW$64, DW_AT_decl_file("../tm4c123gh6pm_startup_ccs.c")
	.dwattr $C$DW$64, DW_AT_decl_line(0x1ef)
	.dwattr $C$DW$64, DW_AT_decl_column(0x06)
	.dwattr $C$DW$64, DW_AT_TI_max_frame_size(0x00)
	.dwpsn	file "../tm4c123gh6pm_startup_ccs.c",line 495,column 24,is_stmt,address I2S0_Handler,isa 1

	.dwfde $C$DW$CIE, I2S0_Handler

;*****************************************************************************
;* FUNCTION NAME: I2S0_Handler                                               *
;*                                                                           *
;*   Regs Modified     :                                                     *
;*   Regs Used         : LR                                                  *
;*   Local Frame Size  : 0 Args + 0 Auto + 0 Save = 0 byte                   *
;*****************************************************************************
I2S0_Handler:
;* --------------------------------------------------------------------------*
	.dwcfi	cfa_offset, 0
	.dwpsn	file "../tm4c123gh6pm_startup_ccs.c",line 495,column 32,is_stmt,isa 1
;----------------------------------------------------------------------
; 495 | void I2S0_Handler(void){ while(1){}}               // I2S0             
;----------------------------------------------------------------------
;* --------------------------------------------------------------------------*
;*   BEGIN LOOP ||$C$L60||
;*
;*   Loop source line                : 495
;*   Loop closing brace source line  : 495
;*   Known Minimum Trip Count        : 1
;*   Known Maximum Trip Count        : 4294967295
;*   Known Max Trip Count Factor     : 1
;* --------------------------------------------------------------------------*
||$C$L60||:    
        B         ||$C$L60||            ; [DPU_3_PIPE] |495| 
        ; BRANCH OCCURS {||$C$L60||}     ; [] |495| 
;* --------------------------------------------------------------------------*
	.dwattr $C$DW$64, DW_AT_TI_end_file("../tm4c123gh6pm_startup_ccs.c")
	.dwattr $C$DW$64, DW_AT_TI_end_line(0x1ef)
	.dwattr $C$DW$64, DW_AT_TI_end_column(0x24)
	.dwendentry
	.dwendtag $C$DW$64

	.sect	".text"
	.clink
	.thumbfunc ExtBus_Handler
	.thumb
	.weak	ExtBus_Handler

$C$DW$65	.dwtag  DW_TAG_subprogram
	.dwattr $C$DW$65, DW_AT_name("ExtBus_Handler")
	.dwattr $C$DW$65, DW_AT_low_pc(ExtBus_Handler)
	.dwattr $C$DW$65, DW_AT_high_pc(0x00)
	.dwattr $C$DW$65, DW_AT_TI_symbol_name("ExtBus_Handler")
	.dwattr $C$DW$65, DW_AT_external
	.dwattr $C$DW$65, DW_AT_TI_begin_file("../tm4c123gh6pm_startup_ccs.c")
	.dwattr $C$DW$65, DW_AT_TI_begin_line(0x1f0)
	.dwattr $C$DW$65, DW_AT_TI_begin_column(0x06)
	.dwattr $C$DW$65, DW_AT_decl_file("../tm4c123gh6pm_startup_ccs.c")
	.dwattr $C$DW$65, DW_AT_decl_line(0x1f0)
	.dwattr $C$DW$65, DW_AT_decl_column(0x06)
	.dwattr $C$DW$65, DW_AT_TI_max_frame_size(0x00)
	.dwpsn	file "../tm4c123gh6pm_startup_ccs.c",line 496,column 26,is_stmt,address ExtBus_Handler,isa 1

	.dwfde $C$DW$CIE, ExtBus_Handler

;*****************************************************************************
;* FUNCTION NAME: ExtBus_Handler                                             *
;*                                                                           *
;*   Regs Modified     :                                                     *
;*   Regs Used         : LR                                                  *
;*   Local Frame Size  : 0 Args + 0 Auto + 0 Save = 0 byte                   *
;*****************************************************************************
ExtBus_Handler:
;* --------------------------------------------------------------------------*
	.dwcfi	cfa_offset, 0
	.dwpsn	file "../tm4c123gh6pm_startup_ccs.c",line 496,column 34,is_stmt,isa 1
;----------------------------------------------------------------------
; 496 | void ExtBus_Handler(void){ while(1){}}             // External Bus Inte
;     | rface 0                                                                
;----------------------------------------------------------------------
;* --------------------------------------------------------------------------*
;*   BEGIN LOOP ||$C$L61||
;*
;*   Loop source line                : 496
;*   Loop closing brace source line  : 496
;*   Known Minimum Trip Count        : 1
;*   Known Maximum Trip Count        : 4294967295
;*   Known Max Trip Count Factor     : 1
;* --------------------------------------------------------------------------*
||$C$L61||:    
        B         ||$C$L61||            ; [DPU_3_PIPE] |496| 
        ; BRANCH OCCURS {||$C$L61||}     ; [] |496| 
;* --------------------------------------------------------------------------*
	.dwattr $C$DW$65, DW_AT_TI_end_file("../tm4c123gh6pm_startup_ccs.c")
	.dwattr $C$DW$65, DW_AT_TI_end_line(0x1f0)
	.dwattr $C$DW$65, DW_AT_TI_end_column(0x26)
	.dwendentry
	.dwendtag $C$DW$65

	.sect	".text"
	.clink
	.thumbfunc GPIOPortJ_Handler
	.thumb
	.weak	GPIOPortJ_Handler

$C$DW$66	.dwtag  DW_TAG_subprogram
	.dwattr $C$DW$66, DW_AT_name("GPIOPortJ_Handler")
	.dwattr $C$DW$66, DW_AT_low_pc(GPIOPortJ_Handler)
	.dwattr $C$DW$66, DW_AT_high_pc(0x00)
	.dwattr $C$DW$66, DW_AT_TI_symbol_name("GPIOPortJ_Handler")
	.dwattr $C$DW$66, DW_AT_external
	.dwattr $C$DW$66, DW_AT_TI_begin_file("../tm4c123gh6pm_startup_ccs.c")
	.dwattr $C$DW$66, DW_AT_TI_begin_line(0x1f1)
	.dwattr $C$DW$66, DW_AT_TI_begin_column(0x06)
	.dwattr $C$DW$66, DW_AT_decl_file("../tm4c123gh6pm_startup_ccs.c")
	.dwattr $C$DW$66, DW_AT_decl_line(0x1f1)
	.dwattr $C$DW$66, DW_AT_decl_column(0x06)
	.dwattr $C$DW$66, DW_AT_TI_max_frame_size(0x00)
	.dwpsn	file "../tm4c123gh6pm_startup_ccs.c",line 497,column 29,is_stmt,address GPIOPortJ_Handler,isa 1

	.dwfde $C$DW$CIE, GPIOPortJ_Handler

;*****************************************************************************
;* FUNCTION NAME: GPIOPortJ_Handler                                          *
;*                                                                           *
;*   Regs Modified     :                                                     *
;*   Regs Used         : LR                                                  *
;*   Local Frame Size  : 0 Args + 0 Auto + 0 Save = 0 byte                   *
;*****************************************************************************
GPIOPortJ_Handler:
;* --------------------------------------------------------------------------*
	.dwcfi	cfa_offset, 0
	.dwpsn	file "../tm4c123gh6pm_startup_ccs.c",line 497,column 37,is_stmt,isa 1
;----------------------------------------------------------------------
; 497 | void GPIOPortJ_Handler(void){ while(1){}}          // GPIO Port J      
;----------------------------------------------------------------------
;* --------------------------------------------------------------------------*
;*   BEGIN LOOP ||$C$L62||
;*
;*   Loop source line                : 497
;*   Loop closing brace source line  : 497
;*   Known Minimum Trip Count        : 1
;*   Known Maximum Trip Count        : 4294967295
;*   Known Max Trip Count Factor     : 1
;* --------------------------------------------------------------------------*
||$C$L62||:    
        B         ||$C$L62||            ; [DPU_3_PIPE] |497| 
        ; BRANCH OCCURS {||$C$L62||}     ; [] |497| 
;* --------------------------------------------------------------------------*
	.dwattr $C$DW$66, DW_AT_TI_end_file("../tm4c123gh6pm_startup_ccs.c")
	.dwattr $C$DW$66, DW_AT_TI_end_line(0x1f1)
	.dwattr $C$DW$66, DW_AT_TI_end_column(0x29)
	.dwendentry
	.dwendtag $C$DW$66

	.sect	".text"
	.clink
	.thumbfunc GPIOPortK_Handler
	.thumb
	.weak	GPIOPortK_Handler

$C$DW$67	.dwtag  DW_TAG_subprogram
	.dwattr $C$DW$67, DW_AT_name("GPIOPortK_Handler")
	.dwattr $C$DW$67, DW_AT_low_pc(GPIOPortK_Handler)
	.dwattr $C$DW$67, DW_AT_high_pc(0x00)
	.dwattr $C$DW$67, DW_AT_TI_symbol_name("GPIOPortK_Handler")
	.dwattr $C$DW$67, DW_AT_external
	.dwattr $C$DW$67, DW_AT_TI_begin_file("../tm4c123gh6pm_startup_ccs.c")
	.dwattr $C$DW$67, DW_AT_TI_begin_line(0x1f2)
	.dwattr $C$DW$67, DW_AT_TI_begin_column(0x06)
	.dwattr $C$DW$67, DW_AT_decl_file("../tm4c123gh6pm_startup_ccs.c")
	.dwattr $C$DW$67, DW_AT_decl_line(0x1f2)
	.dwattr $C$DW$67, DW_AT_decl_column(0x06)
	.dwattr $C$DW$67, DW_AT_TI_max_frame_size(0x00)
	.dwpsn	file "../tm4c123gh6pm_startup_ccs.c",line 498,column 29,is_stmt,address GPIOPortK_Handler,isa 1

	.dwfde $C$DW$CIE, GPIOPortK_Handler

;*****************************************************************************
;* FUNCTION NAME: GPIOPortK_Handler                                          *
;*                                                                           *
;*   Regs Modified     :                                                     *
;*   Regs Used         : LR                                                  *
;*   Local Frame Size  : 0 Args + 0 Auto + 0 Save = 0 byte                   *
;*****************************************************************************
GPIOPortK_Handler:
;* --------------------------------------------------------------------------*
	.dwcfi	cfa_offset, 0
	.dwpsn	file "../tm4c123gh6pm_startup_ccs.c",line 498,column 37,is_stmt,isa 1
;----------------------------------------------------------------------
; 498 | void GPIOPortK_Handler(void){ while(1){}}          // GPIO Port K      
;----------------------------------------------------------------------
;* --------------------------------------------------------------------------*
;*   BEGIN LOOP ||$C$L63||
;*
;*   Loop source line                : 498
;*   Loop closing brace source line  : 498
;*   Known Minimum Trip Count        : 1
;*   Known Maximum Trip Count        : 4294967295
;*   Known Max Trip Count Factor     : 1
;* --------------------------------------------------------------------------*
||$C$L63||:    
        B         ||$C$L63||            ; [DPU_3_PIPE] |498| 
        ; BRANCH OCCURS {||$C$L63||}     ; [] |498| 
;* --------------------------------------------------------------------------*
	.dwattr $C$DW$67, DW_AT_TI_end_file("../tm4c123gh6pm_startup_ccs.c")
	.dwattr $C$DW$67, DW_AT_TI_end_line(0x1f2)
	.dwattr $C$DW$67, DW_AT_TI_end_column(0x29)
	.dwendentry
	.dwendtag $C$DW$67

	.sect	".text"
	.clink
	.thumbfunc GPIOPortL_Handler
	.thumb
	.weak	GPIOPortL_Handler

$C$DW$68	.dwtag  DW_TAG_subprogram
	.dwattr $C$DW$68, DW_AT_name("GPIOPortL_Handler")
	.dwattr $C$DW$68, DW_AT_low_pc(GPIOPortL_Handler)
	.dwattr $C$DW$68, DW_AT_high_pc(0x00)
	.dwattr $C$DW$68, DW_AT_TI_symbol_name("GPIOPortL_Handler")
	.dwattr $C$DW$68, DW_AT_external
	.dwattr $C$DW$68, DW_AT_TI_begin_file("../tm4c123gh6pm_startup_ccs.c")
	.dwattr $C$DW$68, DW_AT_TI_begin_line(0x1f3)
	.dwattr $C$DW$68, DW_AT_TI_begin_column(0x06)
	.dwattr $C$DW$68, DW_AT_decl_file("../tm4c123gh6pm_startup_ccs.c")
	.dwattr $C$DW$68, DW_AT_decl_line(0x1f3)
	.dwattr $C$DW$68, DW_AT_decl_column(0x06)
	.dwattr $C$DW$68, DW_AT_TI_max_frame_size(0x00)
	.dwpsn	file "../tm4c123gh6pm_startup_ccs.c",line 499,column 29,is_stmt,address GPIOPortL_Handler,isa 1

	.dwfde $C$DW$CIE, GPIOPortL_Handler

;*****************************************************************************
;* FUNCTION NAME: GPIOPortL_Handler                                          *
;*                                                                           *
;*   Regs Modified     :                                                     *
;*   Regs Used         : LR                                                  *
;*   Local Frame Size  : 0 Args + 0 Auto + 0 Save = 0 byte                   *
;*****************************************************************************
GPIOPortL_Handler:
;* --------------------------------------------------------------------------*
	.dwcfi	cfa_offset, 0
	.dwpsn	file "../tm4c123gh6pm_startup_ccs.c",line 499,column 37,is_stmt,isa 1
;----------------------------------------------------------------------
; 499 | void GPIOPortL_Handler(void){ while(1){}}          // GPIO Port L      
;----------------------------------------------------------------------
;* --------------------------------------------------------------------------*
;*   BEGIN LOOP ||$C$L64||
;*
;*   Loop source line                : 499
;*   Loop closing brace source line  : 499
;*   Known Minimum Trip Count        : 1
;*   Known Maximum Trip Count        : 4294967295
;*   Known Max Trip Count Factor     : 1
;* --------------------------------------------------------------------------*
||$C$L64||:    
        B         ||$C$L64||            ; [DPU_3_PIPE] |499| 
        ; BRANCH OCCURS {||$C$L64||}     ; [] |499| 
;* --------------------------------------------------------------------------*
	.dwattr $C$DW$68, DW_AT_TI_end_file("../tm4c123gh6pm_startup_ccs.c")
	.dwattr $C$DW$68, DW_AT_TI_end_line(0x1f3)
	.dwattr $C$DW$68, DW_AT_TI_end_column(0x29)
	.dwendentry
	.dwendtag $C$DW$68

	.sect	".text"
	.clink
	.thumbfunc SSI2_Handler
	.thumb
	.weak	SSI2_Handler

$C$DW$69	.dwtag  DW_TAG_subprogram
	.dwattr $C$DW$69, DW_AT_name("SSI2_Handler")
	.dwattr $C$DW$69, DW_AT_low_pc(SSI2_Handler)
	.dwattr $C$DW$69, DW_AT_high_pc(0x00)
	.dwattr $C$DW$69, DW_AT_TI_symbol_name("SSI2_Handler")
	.dwattr $C$DW$69, DW_AT_external
	.dwattr $C$DW$69, DW_AT_TI_begin_file("../tm4c123gh6pm_startup_ccs.c")
	.dwattr $C$DW$69, DW_AT_TI_begin_line(0x1f4)
	.dwattr $C$DW$69, DW_AT_TI_begin_column(0x06)
	.dwattr $C$DW$69, DW_AT_decl_file("../tm4c123gh6pm_startup_ccs.c")
	.dwattr $C$DW$69, DW_AT_decl_line(0x1f4)
	.dwattr $C$DW$69, DW_AT_decl_column(0x06)
	.dwattr $C$DW$69, DW_AT_TI_max_frame_size(0x00)
	.dwpsn	file "../tm4c123gh6pm_startup_ccs.c",line 500,column 24,is_stmt,address SSI2_Handler,isa 1

	.dwfde $C$DW$CIE, SSI2_Handler

;*****************************************************************************
;* FUNCTION NAME: SSI2_Handler                                               *
;*                                                                           *
;*   Regs Modified     :                                                     *
;*   Regs Used         : LR                                                  *
;*   Local Frame Size  : 0 Args + 0 Auto + 0 Save = 0 byte                   *
;*****************************************************************************
SSI2_Handler:
;* --------------------------------------------------------------------------*
	.dwcfi	cfa_offset, 0
	.dwpsn	file "../tm4c123gh6pm_startup_ccs.c",line 500,column 32,is_stmt,isa 1
;----------------------------------------------------------------------
; 500 | void SSI2_Handler(void){ while(1){}}               // SSI2 Rx and Tx   
;----------------------------------------------------------------------
;* --------------------------------------------------------------------------*
;*   BEGIN LOOP ||$C$L65||
;*
;*   Loop source line                : 500
;*   Loop closing brace source line  : 500
;*   Known Minimum Trip Count        : 1
;*   Known Maximum Trip Count        : 4294967295
;*   Known Max Trip Count Factor     : 1
;* --------------------------------------------------------------------------*
||$C$L65||:    
        B         ||$C$L65||            ; [DPU_3_PIPE] |500| 
        ; BRANCH OCCURS {||$C$L65||}     ; [] |500| 
;* --------------------------------------------------------------------------*
	.dwattr $C$DW$69, DW_AT_TI_end_file("../tm4c123gh6pm_startup_ccs.c")
	.dwattr $C$DW$69, DW_AT_TI_end_line(0x1f4)
	.dwattr $C$DW$69, DW_AT_TI_end_column(0x24)
	.dwendentry
	.dwendtag $C$DW$69

	.sect	".text"
	.clink
	.thumbfunc SSI3_Handler
	.thumb
	.weak	SSI3_Handler

$C$DW$70	.dwtag  DW_TAG_subprogram
	.dwattr $C$DW$70, DW_AT_name("SSI3_Handler")
	.dwattr $C$DW$70, DW_AT_low_pc(SSI3_Handler)
	.dwattr $C$DW$70, DW_AT_high_pc(0x00)
	.dwattr $C$DW$70, DW_AT_TI_symbol_name("SSI3_Handler")
	.dwattr $C$DW$70, DW_AT_external
	.dwattr $C$DW$70, DW_AT_TI_begin_file("../tm4c123gh6pm_startup_ccs.c")
	.dwattr $C$DW$70, DW_AT_TI_begin_line(0x1f5)
	.dwattr $C$DW$70, DW_AT_TI_begin_column(0x06)
	.dwattr $C$DW$70, DW_AT_decl_file("../tm4c123gh6pm_startup_ccs.c")
	.dwattr $C$DW$70, DW_AT_decl_line(0x1f5)
	.dwattr $C$DW$70, DW_AT_decl_column(0x06)
	.dwattr $C$DW$70, DW_AT_TI_max_frame_size(0x00)
	.dwpsn	file "../tm4c123gh6pm_startup_ccs.c",line 501,column 24,is_stmt,address SSI3_Handler,isa 1

	.dwfde $C$DW$CIE, SSI3_Handler

;*****************************************************************************
;* FUNCTION NAME: SSI3_Handler                                               *
;*                                                                           *
;*   Regs Modified     :                                                     *
;*   Regs Used         : LR                                                  *
;*   Local Frame Size  : 0 Args + 0 Auto + 0 Save = 0 byte                   *
;*****************************************************************************
SSI3_Handler:
;* --------------------------------------------------------------------------*
	.dwcfi	cfa_offset, 0
	.dwpsn	file "../tm4c123gh6pm_startup_ccs.c",line 501,column 32,is_stmt,isa 1
;----------------------------------------------------------------------
; 501 | void SSI3_Handler(void){ while(1){}}               // SSI3 Rx and Tx   
;----------------------------------------------------------------------
;* --------------------------------------------------------------------------*
;*   BEGIN LOOP ||$C$L66||
;*
;*   Loop source line                : 501
;*   Loop closing brace source line  : 501
;*   Known Minimum Trip Count        : 1
;*   Known Maximum Trip Count        : 4294967295
;*   Known Max Trip Count Factor     : 1
;* --------------------------------------------------------------------------*
||$C$L66||:    
        B         ||$C$L66||            ; [DPU_3_PIPE] |501| 
        ; BRANCH OCCURS {||$C$L66||}     ; [] |501| 
;* --------------------------------------------------------------------------*
	.dwattr $C$DW$70, DW_AT_TI_end_file("../tm4c123gh6pm_startup_ccs.c")
	.dwattr $C$DW$70, DW_AT_TI_end_line(0x1f5)
	.dwattr $C$DW$70, DW_AT_TI_end_column(0x24)
	.dwendentry
	.dwendtag $C$DW$70

	.sect	".text"
	.clink
	.thumbfunc UART3_Handler
	.thumb
	.weak	UART3_Handler

$C$DW$71	.dwtag  DW_TAG_subprogram
	.dwattr $C$DW$71, DW_AT_name("UART3_Handler")
	.dwattr $C$DW$71, DW_AT_low_pc(UART3_Handler)
	.dwattr $C$DW$71, DW_AT_high_pc(0x00)
	.dwattr $C$DW$71, DW_AT_TI_symbol_name("UART3_Handler")
	.dwattr $C$DW$71, DW_AT_external
	.dwattr $C$DW$71, DW_AT_TI_begin_file("../tm4c123gh6pm_startup_ccs.c")
	.dwattr $C$DW$71, DW_AT_TI_begin_line(0x1f6)
	.dwattr $C$DW$71, DW_AT_TI_begin_column(0x06)
	.dwattr $C$DW$71, DW_AT_decl_file("../tm4c123gh6pm_startup_ccs.c")
	.dwattr $C$DW$71, DW_AT_decl_line(0x1f6)
	.dwattr $C$DW$71, DW_AT_decl_column(0x06)
	.dwattr $C$DW$71, DW_AT_TI_max_frame_size(0x00)
	.dwpsn	file "../tm4c123gh6pm_startup_ccs.c",line 502,column 25,is_stmt,address UART3_Handler,isa 1

	.dwfde $C$DW$CIE, UART3_Handler

;*****************************************************************************
;* FUNCTION NAME: UART3_Handler                                              *
;*                                                                           *
;*   Regs Modified     :                                                     *
;*   Regs Used         : LR                                                  *
;*   Local Frame Size  : 0 Args + 0 Auto + 0 Save = 0 byte                   *
;*****************************************************************************
UART3_Handler:
;* --------------------------------------------------------------------------*
	.dwcfi	cfa_offset, 0
	.dwpsn	file "../tm4c123gh6pm_startup_ccs.c",line 502,column 33,is_stmt,isa 1
;----------------------------------------------------------------------
; 502 | void UART3_Handler(void){ while(1){}}              // UART3 Rx and Tx  
;----------------------------------------------------------------------
;* --------------------------------------------------------------------------*
;*   BEGIN LOOP ||$C$L67||
;*
;*   Loop source line                : 502
;*   Loop closing brace source line  : 502
;*   Known Minimum Trip Count        : 1
;*   Known Maximum Trip Count        : 4294967295
;*   Known Max Trip Count Factor     : 1
;* --------------------------------------------------------------------------*
||$C$L67||:    
        B         ||$C$L67||            ; [DPU_3_PIPE] |502| 
        ; BRANCH OCCURS {||$C$L67||}     ; [] |502| 
;* --------------------------------------------------------------------------*
	.dwattr $C$DW$71, DW_AT_TI_end_file("../tm4c123gh6pm_startup_ccs.c")
	.dwattr $C$DW$71, DW_AT_TI_end_line(0x1f6)
	.dwattr $C$DW$71, DW_AT_TI_end_column(0x25)
	.dwendentry
	.dwendtag $C$DW$71

	.sect	".text"
	.clink
	.thumbfunc UART4_Handler
	.thumb
	.weak	UART4_Handler

$C$DW$72	.dwtag  DW_TAG_subprogram
	.dwattr $C$DW$72, DW_AT_name("UART4_Handler")
	.dwattr $C$DW$72, DW_AT_low_pc(UART4_Handler)
	.dwattr $C$DW$72, DW_AT_high_pc(0x00)
	.dwattr $C$DW$72, DW_AT_TI_symbol_name("UART4_Handler")
	.dwattr $C$DW$72, DW_AT_external
	.dwattr $C$DW$72, DW_AT_TI_begin_file("../tm4c123gh6pm_startup_ccs.c")
	.dwattr $C$DW$72, DW_AT_TI_begin_line(0x1f7)
	.dwattr $C$DW$72, DW_AT_TI_begin_column(0x06)
	.dwattr $C$DW$72, DW_AT_decl_file("../tm4c123gh6pm_startup_ccs.c")
	.dwattr $C$DW$72, DW_AT_decl_line(0x1f7)
	.dwattr $C$DW$72, DW_AT_decl_column(0x06)
	.dwattr $C$DW$72, DW_AT_TI_max_frame_size(0x00)
	.dwpsn	file "../tm4c123gh6pm_startup_ccs.c",line 503,column 25,is_stmt,address UART4_Handler,isa 1

	.dwfde $C$DW$CIE, UART4_Handler

;*****************************************************************************
;* FUNCTION NAME: UART4_Handler                                              *
;*                                                                           *
;*   Regs Modified     :                                                     *
;*   Regs Used         : LR                                                  *
;*   Local Frame Size  : 0 Args + 0 Auto + 0 Save = 0 byte                   *
;*****************************************************************************
UART4_Handler:
;* --------------------------------------------------------------------------*
	.dwcfi	cfa_offset, 0
	.dwpsn	file "../tm4c123gh6pm_startup_ccs.c",line 503,column 33,is_stmt,isa 1
;----------------------------------------------------------------------
; 503 | void UART4_Handler(void){ while(1){}}              // UART4 Rx and Tx  
;----------------------------------------------------------------------
;* --------------------------------------------------------------------------*
;*   BEGIN LOOP ||$C$L68||
;*
;*   Loop source line                : 503
;*   Loop closing brace source line  : 503
;*   Known Minimum Trip Count        : 1
;*   Known Maximum Trip Count        : 4294967295
;*   Known Max Trip Count Factor     : 1
;* --------------------------------------------------------------------------*
||$C$L68||:    
        B         ||$C$L68||            ; [DPU_3_PIPE] |503| 
        ; BRANCH OCCURS {||$C$L68||}     ; [] |503| 
;* --------------------------------------------------------------------------*
	.dwattr $C$DW$72, DW_AT_TI_end_file("../tm4c123gh6pm_startup_ccs.c")
	.dwattr $C$DW$72, DW_AT_TI_end_line(0x1f7)
	.dwattr $C$DW$72, DW_AT_TI_end_column(0x25)
	.dwendentry
	.dwendtag $C$DW$72

	.sect	".text"
	.clink
	.thumbfunc UART5_Handler
	.thumb
	.weak	UART5_Handler

$C$DW$73	.dwtag  DW_TAG_subprogram
	.dwattr $C$DW$73, DW_AT_name("UART5_Handler")
	.dwattr $C$DW$73, DW_AT_low_pc(UART5_Handler)
	.dwattr $C$DW$73, DW_AT_high_pc(0x00)
	.dwattr $C$DW$73, DW_AT_TI_symbol_name("UART5_Handler")
	.dwattr $C$DW$73, DW_AT_external
	.dwattr $C$DW$73, DW_AT_TI_begin_file("../tm4c123gh6pm_startup_ccs.c")
	.dwattr $C$DW$73, DW_AT_TI_begin_line(0x1f8)
	.dwattr $C$DW$73, DW_AT_TI_begin_column(0x06)
	.dwattr $C$DW$73, DW_AT_decl_file("../tm4c123gh6pm_startup_ccs.c")
	.dwattr $C$DW$73, DW_AT_decl_line(0x1f8)
	.dwattr $C$DW$73, DW_AT_decl_column(0x06)
	.dwattr $C$DW$73, DW_AT_TI_max_frame_size(0x00)
	.dwpsn	file "../tm4c123gh6pm_startup_ccs.c",line 504,column 25,is_stmt,address UART5_Handler,isa 1

	.dwfde $C$DW$CIE, UART5_Handler

;*****************************************************************************
;* FUNCTION NAME: UART5_Handler                                              *
;*                                                                           *
;*   Regs Modified     :                                                     *
;*   Regs Used         : LR                                                  *
;*   Local Frame Size  : 0 Args + 0 Auto + 0 Save = 0 byte                   *
;*****************************************************************************
UART5_Handler:
;* --------------------------------------------------------------------------*
	.dwcfi	cfa_offset, 0
	.dwpsn	file "../tm4c123gh6pm_startup_ccs.c",line 504,column 33,is_stmt,isa 1
;----------------------------------------------------------------------
; 504 | void UART5_Handler(void){ while(1){}}              // UART5 Rx and Tx  
;----------------------------------------------------------------------
;* --------------------------------------------------------------------------*
;*   BEGIN LOOP ||$C$L69||
;*
;*   Loop source line                : 504
;*   Loop closing brace source line  : 504
;*   Known Minimum Trip Count        : 1
;*   Known Maximum Trip Count        : 4294967295
;*   Known Max Trip Count Factor     : 1
;* --------------------------------------------------------------------------*
||$C$L69||:    
        B         ||$C$L69||            ; [DPU_3_PIPE] |504| 
        ; BRANCH OCCURS {||$C$L69||}     ; [] |504| 
;* --------------------------------------------------------------------------*
	.dwattr $C$DW$73, DW_AT_TI_end_file("../tm4c123gh6pm_startup_ccs.c")
	.dwattr $C$DW$73, DW_AT_TI_end_line(0x1f8)
	.dwattr $C$DW$73, DW_AT_TI_end_column(0x25)
	.dwendentry
	.dwendtag $C$DW$73

	.sect	".text"
	.clink
	.thumbfunc UART6_Handler
	.thumb
	.weak	UART6_Handler

$C$DW$74	.dwtag  DW_TAG_subprogram
	.dwattr $C$DW$74, DW_AT_name("UART6_Handler")
	.dwattr $C$DW$74, DW_AT_low_pc(UART6_Handler)
	.dwattr $C$DW$74, DW_AT_high_pc(0x00)
	.dwattr $C$DW$74, DW_AT_TI_symbol_name("UART6_Handler")
	.dwattr $C$DW$74, DW_AT_external
	.dwattr $C$DW$74, DW_AT_TI_begin_file("../tm4c123gh6pm_startup_ccs.c")
	.dwattr $C$DW$74, DW_AT_TI_begin_line(0x1f9)
	.dwattr $C$DW$74, DW_AT_TI_begin_column(0x06)
	.dwattr $C$DW$74, DW_AT_decl_file("../tm4c123gh6pm_startup_ccs.c")
	.dwattr $C$DW$74, DW_AT_decl_line(0x1f9)
	.dwattr $C$DW$74, DW_AT_decl_column(0x06)
	.dwattr $C$DW$74, DW_AT_TI_max_frame_size(0x00)
	.dwpsn	file "../tm4c123gh6pm_startup_ccs.c",line 505,column 25,is_stmt,address UART6_Handler,isa 1

	.dwfde $C$DW$CIE, UART6_Handler

;*****************************************************************************
;* FUNCTION NAME: UART6_Handler                                              *
;*                                                                           *
;*   Regs Modified     :                                                     *
;*   Regs Used         : LR                                                  *
;*   Local Frame Size  : 0 Args + 0 Auto + 0 Save = 0 byte                   *
;*****************************************************************************
UART6_Handler:
;* --------------------------------------------------------------------------*
	.dwcfi	cfa_offset, 0
	.dwpsn	file "../tm4c123gh6pm_startup_ccs.c",line 505,column 33,is_stmt,isa 1
;----------------------------------------------------------------------
; 505 | void UART6_Handler(void){ while(1){}}              // UART6 Rx and Tx  
;----------------------------------------------------------------------
;* --------------------------------------------------------------------------*
;*   BEGIN LOOP ||$C$L70||
;*
;*   Loop source line                : 505
;*   Loop closing brace source line  : 505
;*   Known Minimum Trip Count        : 1
;*   Known Maximum Trip Count        : 4294967295
;*   Known Max Trip Count Factor     : 1
;* --------------------------------------------------------------------------*
||$C$L70||:    
        B         ||$C$L70||            ; [DPU_3_PIPE] |505| 
        ; BRANCH OCCURS {||$C$L70||}     ; [] |505| 
;* --------------------------------------------------------------------------*
	.dwattr $C$DW$74, DW_AT_TI_end_file("../tm4c123gh6pm_startup_ccs.c")
	.dwattr $C$DW$74, DW_AT_TI_end_line(0x1f9)
	.dwattr $C$DW$74, DW_AT_TI_end_column(0x25)
	.dwendentry
	.dwendtag $C$DW$74

	.sect	".text"
	.clink
	.thumbfunc UART7_Handler
	.thumb
	.weak	UART7_Handler

$C$DW$75	.dwtag  DW_TAG_subprogram
	.dwattr $C$DW$75, DW_AT_name("UART7_Handler")
	.dwattr $C$DW$75, DW_AT_low_pc(UART7_Handler)
	.dwattr $C$DW$75, DW_AT_high_pc(0x00)
	.dwattr $C$DW$75, DW_AT_TI_symbol_name("UART7_Handler")
	.dwattr $C$DW$75, DW_AT_external
	.dwattr $C$DW$75, DW_AT_TI_begin_file("../tm4c123gh6pm_startup_ccs.c")
	.dwattr $C$DW$75, DW_AT_TI_begin_line(0x1fa)
	.dwattr $C$DW$75, DW_AT_TI_begin_column(0x06)
	.dwattr $C$DW$75, DW_AT_decl_file("../tm4c123gh6pm_startup_ccs.c")
	.dwattr $C$DW$75, DW_AT_decl_line(0x1fa)
	.dwattr $C$DW$75, DW_AT_decl_column(0x06)
	.dwattr $C$DW$75, DW_AT_TI_max_frame_size(0x00)
	.dwpsn	file "../tm4c123gh6pm_startup_ccs.c",line 506,column 25,is_stmt,address UART7_Handler,isa 1

	.dwfde $C$DW$CIE, UART7_Handler

;*****************************************************************************
;* FUNCTION NAME: UART7_Handler                                              *
;*                                                                           *
;*   Regs Modified     :                                                     *
;*   Regs Used         : LR                                                  *
;*   Local Frame Size  : 0 Args + 0 Auto + 0 Save = 0 byte                   *
;*****************************************************************************
UART7_Handler:
;* --------------------------------------------------------------------------*
	.dwcfi	cfa_offset, 0
	.dwpsn	file "../tm4c123gh6pm_startup_ccs.c",line 506,column 33,is_stmt,isa 1
;----------------------------------------------------------------------
; 506 | void UART7_Handler(void){ while(1){}}              // UART7 Rx and Tx  
;----------------------------------------------------------------------
;* --------------------------------------------------------------------------*
;*   BEGIN LOOP ||$C$L71||
;*
;*   Loop source line                : 506
;*   Loop closing brace source line  : 506
;*   Known Minimum Trip Count        : 1
;*   Known Maximum Trip Count        : 4294967295
;*   Known Max Trip Count Factor     : 1
;* --------------------------------------------------------------------------*
||$C$L71||:    
        B         ||$C$L71||            ; [DPU_3_PIPE] |506| 
        ; BRANCH OCCURS {||$C$L71||}     ; [] |506| 
;* --------------------------------------------------------------------------*
	.dwattr $C$DW$75, DW_AT_TI_end_file("../tm4c123gh6pm_startup_ccs.c")
	.dwattr $C$DW$75, DW_AT_TI_end_line(0x1fa)
	.dwattr $C$DW$75, DW_AT_TI_end_column(0x25)
	.dwendentry
	.dwendtag $C$DW$75

	.sect	".text"
	.clink
	.thumbfunc I2C2_Handler
	.thumb
	.weak	I2C2_Handler

$C$DW$76	.dwtag  DW_TAG_subprogram
	.dwattr $C$DW$76, DW_AT_name("I2C2_Handler")
	.dwattr $C$DW$76, DW_AT_low_pc(I2C2_Handler)
	.dwattr $C$DW$76, DW_AT_high_pc(0x00)
	.dwattr $C$DW$76, DW_AT_TI_symbol_name("I2C2_Handler")
	.dwattr $C$DW$76, DW_AT_external
	.dwattr $C$DW$76, DW_AT_TI_begin_file("../tm4c123gh6pm_startup_ccs.c")
	.dwattr $C$DW$76, DW_AT_TI_begin_line(0x1fb)
	.dwattr $C$DW$76, DW_AT_TI_begin_column(0x06)
	.dwattr $C$DW$76, DW_AT_decl_file("../tm4c123gh6pm_startup_ccs.c")
	.dwattr $C$DW$76, DW_AT_decl_line(0x1fb)
	.dwattr $C$DW$76, DW_AT_decl_column(0x06)
	.dwattr $C$DW$76, DW_AT_TI_max_frame_size(0x00)
	.dwpsn	file "../tm4c123gh6pm_startup_ccs.c",line 507,column 24,is_stmt,address I2C2_Handler,isa 1

	.dwfde $C$DW$CIE, I2C2_Handler

;*****************************************************************************
;* FUNCTION NAME: I2C2_Handler                                               *
;*                                                                           *
;*   Regs Modified     :                                                     *
;*   Regs Used         : LR                                                  *
;*   Local Frame Size  : 0 Args + 0 Auto + 0 Save = 0 byte                   *
;*****************************************************************************
I2C2_Handler:
;* --------------------------------------------------------------------------*
	.dwcfi	cfa_offset, 0
	.dwpsn	file "../tm4c123gh6pm_startup_ccs.c",line 507,column 32,is_stmt,isa 1
;----------------------------------------------------------------------
; 507 | void I2C2_Handler(void){ while(1){}}               // I2C2 Master and S
;     | lave                                                                   
;----------------------------------------------------------------------
;* --------------------------------------------------------------------------*
;*   BEGIN LOOP ||$C$L72||
;*
;*   Loop source line                : 507
;*   Loop closing brace source line  : 507
;*   Known Minimum Trip Count        : 1
;*   Known Maximum Trip Count        : 4294967295
;*   Known Max Trip Count Factor     : 1
;* --------------------------------------------------------------------------*
||$C$L72||:    
        B         ||$C$L72||            ; [DPU_3_PIPE] |507| 
        ; BRANCH OCCURS {||$C$L72||}     ; [] |507| 
;* --------------------------------------------------------------------------*
	.dwattr $C$DW$76, DW_AT_TI_end_file("../tm4c123gh6pm_startup_ccs.c")
	.dwattr $C$DW$76, DW_AT_TI_end_line(0x1fb)
	.dwattr $C$DW$76, DW_AT_TI_end_column(0x24)
	.dwendentry
	.dwendtag $C$DW$76

	.sect	".text"
	.clink
	.thumbfunc I2C3_Handler
	.thumb
	.weak	I2C3_Handler

$C$DW$77	.dwtag  DW_TAG_subprogram
	.dwattr $C$DW$77, DW_AT_name("I2C3_Handler")
	.dwattr $C$DW$77, DW_AT_low_pc(I2C3_Handler)
	.dwattr $C$DW$77, DW_AT_high_pc(0x00)
	.dwattr $C$DW$77, DW_AT_TI_symbol_name("I2C3_Handler")
	.dwattr $C$DW$77, DW_AT_external
	.dwattr $C$DW$77, DW_AT_TI_begin_file("../tm4c123gh6pm_startup_ccs.c")
	.dwattr $C$DW$77, DW_AT_TI_begin_line(0x1fc)
	.dwattr $C$DW$77, DW_AT_TI_begin_column(0x06)
	.dwattr $C$DW$77, DW_AT_decl_file("../tm4c123gh6pm_startup_ccs.c")
	.dwattr $C$DW$77, DW_AT_decl_line(0x1fc)
	.dwattr $C$DW$77, DW_AT_decl_column(0x06)
	.dwattr $C$DW$77, DW_AT_TI_max_frame_size(0x00)
	.dwpsn	file "../tm4c123gh6pm_startup_ccs.c",line 508,column 24,is_stmt,address I2C3_Handler,isa 1

	.dwfde $C$DW$CIE, I2C3_Handler

;*****************************************************************************
;* FUNCTION NAME: I2C3_Handler                                               *
;*                                                                           *
;*   Regs Modified     :                                                     *
;*   Regs Used         : LR                                                  *
;*   Local Frame Size  : 0 Args + 0 Auto + 0 Save = 0 byte                   *
;*****************************************************************************
I2C3_Handler:
;* --------------------------------------------------------------------------*
	.dwcfi	cfa_offset, 0
	.dwpsn	file "../tm4c123gh6pm_startup_ccs.c",line 508,column 32,is_stmt,isa 1
;----------------------------------------------------------------------
; 508 | void I2C3_Handler(void){ while(1){}}               // I2C3 Master and S
;     | lave                                                                   
;----------------------------------------------------------------------
;* --------------------------------------------------------------------------*
;*   BEGIN LOOP ||$C$L73||
;*
;*   Loop source line                : 508
;*   Loop closing brace source line  : 508
;*   Known Minimum Trip Count        : 1
;*   Known Maximum Trip Count        : 4294967295
;*   Known Max Trip Count Factor     : 1
;* --------------------------------------------------------------------------*
||$C$L73||:    
        B         ||$C$L73||            ; [DPU_3_PIPE] |508| 
        ; BRANCH OCCURS {||$C$L73||}     ; [] |508| 
;* --------------------------------------------------------------------------*
	.dwattr $C$DW$77, DW_AT_TI_end_file("../tm4c123gh6pm_startup_ccs.c")
	.dwattr $C$DW$77, DW_AT_TI_end_line(0x1fc)
	.dwattr $C$DW$77, DW_AT_TI_end_column(0x24)
	.dwendentry
	.dwendtag $C$DW$77

	.sect	".text"
	.clink
	.thumbfunc Timer4A_Handler
	.thumb
	.weak	Timer4A_Handler

$C$DW$78	.dwtag  DW_TAG_subprogram
	.dwattr $C$DW$78, DW_AT_name("Timer4A_Handler")
	.dwattr $C$DW$78, DW_AT_low_pc(Timer4A_Handler)
	.dwattr $C$DW$78, DW_AT_high_pc(0x00)
	.dwattr $C$DW$78, DW_AT_TI_symbol_name("Timer4A_Handler")
	.dwattr $C$DW$78, DW_AT_external
	.dwattr $C$DW$78, DW_AT_TI_begin_file("../tm4c123gh6pm_startup_ccs.c")
	.dwattr $C$DW$78, DW_AT_TI_begin_line(0x1fd)
	.dwattr $C$DW$78, DW_AT_TI_begin_column(0x06)
	.dwattr $C$DW$78, DW_AT_decl_file("../tm4c123gh6pm_startup_ccs.c")
	.dwattr $C$DW$78, DW_AT_decl_line(0x1fd)
	.dwattr $C$DW$78, DW_AT_decl_column(0x06)
	.dwattr $C$DW$78, DW_AT_TI_max_frame_size(0x00)
	.dwpsn	file "../tm4c123gh6pm_startup_ccs.c",line 509,column 27,is_stmt,address Timer4A_Handler,isa 1

	.dwfde $C$DW$CIE, Timer4A_Handler

;*****************************************************************************
;* FUNCTION NAME: Timer4A_Handler                                            *
;*                                                                           *
;*   Regs Modified     :                                                     *
;*   Regs Used         : LR                                                  *
;*   Local Frame Size  : 0 Args + 0 Auto + 0 Save = 0 byte                   *
;*****************************************************************************
Timer4A_Handler:
;* --------------------------------------------------------------------------*
	.dwcfi	cfa_offset, 0
	.dwpsn	file "../tm4c123gh6pm_startup_ccs.c",line 509,column 35,is_stmt,isa 1
;----------------------------------------------------------------------
; 509 | void Timer4A_Handler(void){ while(1){}}            // Timer 4 subtimer
;     | A                                                                      
;----------------------------------------------------------------------
;* --------------------------------------------------------------------------*
;*   BEGIN LOOP ||$C$L74||
;*
;*   Loop source line                : 509
;*   Loop closing brace source line  : 509
;*   Known Minimum Trip Count        : 1
;*   Known Maximum Trip Count        : 4294967295
;*   Known Max Trip Count Factor     : 1
;* --------------------------------------------------------------------------*
||$C$L74||:    
        B         ||$C$L74||            ; [DPU_3_PIPE] |509| 
        ; BRANCH OCCURS {||$C$L74||}     ; [] |509| 
;* --------------------------------------------------------------------------*
	.dwattr $C$DW$78, DW_AT_TI_end_file("../tm4c123gh6pm_startup_ccs.c")
	.dwattr $C$DW$78, DW_AT_TI_end_line(0x1fd)
	.dwattr $C$DW$78, DW_AT_TI_end_column(0x27)
	.dwendentry
	.dwendtag $C$DW$78

	.sect	".text"
	.clink
	.thumbfunc Timer4B_Handler
	.thumb
	.weak	Timer4B_Handler

$C$DW$79	.dwtag  DW_TAG_subprogram
	.dwattr $C$DW$79, DW_AT_name("Timer4B_Handler")
	.dwattr $C$DW$79, DW_AT_low_pc(Timer4B_Handler)
	.dwattr $C$DW$79, DW_AT_high_pc(0x00)
	.dwattr $C$DW$79, DW_AT_TI_symbol_name("Timer4B_Handler")
	.dwattr $C$DW$79, DW_AT_external
	.dwattr $C$DW$79, DW_AT_TI_begin_file("../tm4c123gh6pm_startup_ccs.c")
	.dwattr $C$DW$79, DW_AT_TI_begin_line(0x1fe)
	.dwattr $C$DW$79, DW_AT_TI_begin_column(0x06)
	.dwattr $C$DW$79, DW_AT_decl_file("../tm4c123gh6pm_startup_ccs.c")
	.dwattr $C$DW$79, DW_AT_decl_line(0x1fe)
	.dwattr $C$DW$79, DW_AT_decl_column(0x06)
	.dwattr $C$DW$79, DW_AT_TI_max_frame_size(0x00)
	.dwpsn	file "../tm4c123gh6pm_startup_ccs.c",line 510,column 27,is_stmt,address Timer4B_Handler,isa 1

	.dwfde $C$DW$CIE, Timer4B_Handler

;*****************************************************************************
;* FUNCTION NAME: Timer4B_Handler                                            *
;*                                                                           *
;*   Regs Modified     :                                                     *
;*   Regs Used         : LR                                                  *
;*   Local Frame Size  : 0 Args + 0 Auto + 0 Save = 0 byte                   *
;*****************************************************************************
Timer4B_Handler:
;* --------------------------------------------------------------------------*
	.dwcfi	cfa_offset, 0
	.dwpsn	file "../tm4c123gh6pm_startup_ccs.c",line 510,column 35,is_stmt,isa 1
;----------------------------------------------------------------------
; 510 | void Timer4B_Handler(void){ while(1){}}            // Timer 4 subtimer
;     | B                                                                      
;----------------------------------------------------------------------
;* --------------------------------------------------------------------------*
;*   BEGIN LOOP ||$C$L75||
;*
;*   Loop source line                : 510
;*   Loop closing brace source line  : 510
;*   Known Minimum Trip Count        : 1
;*   Known Maximum Trip Count        : 4294967295
;*   Known Max Trip Count Factor     : 1
;* --------------------------------------------------------------------------*
||$C$L75||:    
        B         ||$C$L75||            ; [DPU_3_PIPE] |510| 
        ; BRANCH OCCURS {||$C$L75||}     ; [] |510| 
;* --------------------------------------------------------------------------*
	.dwattr $C$DW$79, DW_AT_TI_end_file("../tm4c123gh6pm_startup_ccs.c")
	.dwattr $C$DW$79, DW_AT_TI_end_line(0x1fe)
	.dwattr $C$DW$79, DW_AT_TI_end_column(0x27)
	.dwendentry
	.dwendtag $C$DW$79

	.sect	".text"
	.clink
	.thumbfunc Timer5A_Handler
	.thumb
	.weak	Timer5A_Handler

$C$DW$80	.dwtag  DW_TAG_subprogram
	.dwattr $C$DW$80, DW_AT_name("Timer5A_Handler")
	.dwattr $C$DW$80, DW_AT_low_pc(Timer5A_Handler)
	.dwattr $C$DW$80, DW_AT_high_pc(0x00)
	.dwattr $C$DW$80, DW_AT_TI_symbol_name("Timer5A_Handler")
	.dwattr $C$DW$80, DW_AT_external
	.dwattr $C$DW$80, DW_AT_TI_begin_file("../tm4c123gh6pm_startup_ccs.c")
	.dwattr $C$DW$80, DW_AT_TI_begin_line(0x1ff)
	.dwattr $C$DW$80, DW_AT_TI_begin_column(0x06)
	.dwattr $C$DW$80, DW_AT_decl_file("../tm4c123gh6pm_startup_ccs.c")
	.dwattr $C$DW$80, DW_AT_decl_line(0x1ff)
	.dwattr $C$DW$80, DW_AT_decl_column(0x06)
	.dwattr $C$DW$80, DW_AT_TI_max_frame_size(0x00)
	.dwpsn	file "../tm4c123gh6pm_startup_ccs.c",line 511,column 27,is_stmt,address Timer5A_Handler,isa 1

	.dwfde $C$DW$CIE, Timer5A_Handler

;*****************************************************************************
;* FUNCTION NAME: Timer5A_Handler                                            *
;*                                                                           *
;*   Regs Modified     :                                                     *
;*   Regs Used         : LR                                                  *
;*   Local Frame Size  : 0 Args + 0 Auto + 0 Save = 0 byte                   *
;*****************************************************************************
Timer5A_Handler:
;* --------------------------------------------------------------------------*
	.dwcfi	cfa_offset, 0
	.dwpsn	file "../tm4c123gh6pm_startup_ccs.c",line 511,column 35,is_stmt,isa 1
;----------------------------------------------------------------------
; 511 | void Timer5A_Handler(void){ while(1){}}            // Timer 5 subtimer
;     | A                                                                      
;----------------------------------------------------------------------
;* --------------------------------------------------------------------------*
;*   BEGIN LOOP ||$C$L76||
;*
;*   Loop source line                : 511
;*   Loop closing brace source line  : 511
;*   Known Minimum Trip Count        : 1
;*   Known Maximum Trip Count        : 4294967295
;*   Known Max Trip Count Factor     : 1
;* --------------------------------------------------------------------------*
||$C$L76||:    
        B         ||$C$L76||            ; [DPU_3_PIPE] |511| 
        ; BRANCH OCCURS {||$C$L76||}     ; [] |511| 
;* --------------------------------------------------------------------------*
	.dwattr $C$DW$80, DW_AT_TI_end_file("../tm4c123gh6pm_startup_ccs.c")
	.dwattr $C$DW$80, DW_AT_TI_end_line(0x1ff)
	.dwattr $C$DW$80, DW_AT_TI_end_column(0x27)
	.dwendentry
	.dwendtag $C$DW$80

	.sect	".text"
	.clink
	.thumbfunc Timer5B_Handler
	.thumb
	.weak	Timer5B_Handler

$C$DW$81	.dwtag  DW_TAG_subprogram
	.dwattr $C$DW$81, DW_AT_name("Timer5B_Handler")
	.dwattr $C$DW$81, DW_AT_low_pc(Timer5B_Handler)
	.dwattr $C$DW$81, DW_AT_high_pc(0x00)
	.dwattr $C$DW$81, DW_AT_TI_symbol_name("Timer5B_Handler")
	.dwattr $C$DW$81, DW_AT_external
	.dwattr $C$DW$81, DW_AT_TI_begin_file("../tm4c123gh6pm_startup_ccs.c")
	.dwattr $C$DW$81, DW_AT_TI_begin_line(0x200)
	.dwattr $C$DW$81, DW_AT_TI_begin_column(0x06)
	.dwattr $C$DW$81, DW_AT_decl_file("../tm4c123gh6pm_startup_ccs.c")
	.dwattr $C$DW$81, DW_AT_decl_line(0x200)
	.dwattr $C$DW$81, DW_AT_decl_column(0x06)
	.dwattr $C$DW$81, DW_AT_TI_max_frame_size(0x00)
	.dwpsn	file "../tm4c123gh6pm_startup_ccs.c",line 512,column 27,is_stmt,address Timer5B_Handler,isa 1

	.dwfde $C$DW$CIE, Timer5B_Handler

;*****************************************************************************
;* FUNCTION NAME: Timer5B_Handler                                            *
;*                                                                           *
;*   Regs Modified     :                                                     *
;*   Regs Used         : LR                                                  *
;*   Local Frame Size  : 0 Args + 0 Auto + 0 Save = 0 byte                   *
;*****************************************************************************
Timer5B_Handler:
;* --------------------------------------------------------------------------*
	.dwcfi	cfa_offset, 0
	.dwpsn	file "../tm4c123gh6pm_startup_ccs.c",line 512,column 35,is_stmt,isa 1
;----------------------------------------------------------------------
; 512 | void Timer5B_Handler(void){ while(1){}}            // Timer 5 subtimer
;     | B                                                                      
;----------------------------------------------------------------------
;* --------------------------------------------------------------------------*
;*   BEGIN LOOP ||$C$L77||
;*
;*   Loop source line                : 512
;*   Loop closing brace source line  : 512
;*   Known Minimum Trip Count        : 1
;*   Known Maximum Trip Count        : 4294967295
;*   Known Max Trip Count Factor     : 1
;* --------------------------------------------------------------------------*
||$C$L77||:    
        B         ||$C$L77||            ; [DPU_3_PIPE] |512| 
        ; BRANCH OCCURS {||$C$L77||}     ; [] |512| 
;* --------------------------------------------------------------------------*
	.dwattr $C$DW$81, DW_AT_TI_end_file("../tm4c123gh6pm_startup_ccs.c")
	.dwattr $C$DW$81, DW_AT_TI_end_line(0x200)
	.dwattr $C$DW$81, DW_AT_TI_end_column(0x27)
	.dwendentry
	.dwendtag $C$DW$81

	.sect	".text"
	.clink
	.thumbfunc WideTimer0A_Handler
	.thumb
	.weak	WideTimer0A_Handler

$C$DW$82	.dwtag  DW_TAG_subprogram
	.dwattr $C$DW$82, DW_AT_name("WideTimer0A_Handler")
	.dwattr $C$DW$82, DW_AT_low_pc(WideTimer0A_Handler)
	.dwattr $C$DW$82, DW_AT_high_pc(0x00)
	.dwattr $C$DW$82, DW_AT_TI_symbol_name("WideTimer0A_Handler")
	.dwattr $C$DW$82, DW_AT_external
	.dwattr $C$DW$82, DW_AT_TI_begin_file("../tm4c123gh6pm_startup_ccs.c")
	.dwattr $C$DW$82, DW_AT_TI_begin_line(0x201)
	.dwattr $C$DW$82, DW_AT_TI_begin_column(0x06)
	.dwattr $C$DW$82, DW_AT_decl_file("../tm4c123gh6pm_startup_ccs.c")
	.dwattr $C$DW$82, DW_AT_decl_line(0x201)
	.dwattr $C$DW$82, DW_AT_decl_column(0x06)
	.dwattr $C$DW$82, DW_AT_TI_max_frame_size(0x00)
	.dwpsn	file "../tm4c123gh6pm_startup_ccs.c",line 513,column 31,is_stmt,address WideTimer0A_Handler,isa 1

	.dwfde $C$DW$CIE, WideTimer0A_Handler

;*****************************************************************************
;* FUNCTION NAME: WideTimer0A_Handler                                        *
;*                                                                           *
;*   Regs Modified     :                                                     *
;*   Regs Used         : LR                                                  *
;*   Local Frame Size  : 0 Args + 0 Auto + 0 Save = 0 byte                   *
;*****************************************************************************
WideTimer0A_Handler:
;* --------------------------------------------------------------------------*
	.dwcfi	cfa_offset, 0
	.dwpsn	file "../tm4c123gh6pm_startup_ccs.c",line 513,column 39,is_stmt,isa 1
;----------------------------------------------------------------------
; 513 | void WideTimer0A_Handler(void){ while(1){}}        // Wide Timer 0 subt
;     | imer A                                                                 
;----------------------------------------------------------------------
;* --------------------------------------------------------------------------*
;*   BEGIN LOOP ||$C$L78||
;*
;*   Loop source line                : 513
;*   Loop closing brace source line  : 513
;*   Known Minimum Trip Count        : 1
;*   Known Maximum Trip Count        : 4294967295
;*   Known Max Trip Count Factor     : 1
;* --------------------------------------------------------------------------*
||$C$L78||:    
        B         ||$C$L78||            ; [DPU_3_PIPE] |513| 
        ; BRANCH OCCURS {||$C$L78||}     ; [] |513| 
;* --------------------------------------------------------------------------*
	.dwattr $C$DW$82, DW_AT_TI_end_file("../tm4c123gh6pm_startup_ccs.c")
	.dwattr $C$DW$82, DW_AT_TI_end_line(0x201)
	.dwattr $C$DW$82, DW_AT_TI_end_column(0x2b)
	.dwendentry
	.dwendtag $C$DW$82

	.sect	".text"
	.clink
	.thumbfunc WideTimer0B_Handler
	.thumb
	.weak	WideTimer0B_Handler

$C$DW$83	.dwtag  DW_TAG_subprogram
	.dwattr $C$DW$83, DW_AT_name("WideTimer0B_Handler")
	.dwattr $C$DW$83, DW_AT_low_pc(WideTimer0B_Handler)
	.dwattr $C$DW$83, DW_AT_high_pc(0x00)
	.dwattr $C$DW$83, DW_AT_TI_symbol_name("WideTimer0B_Handler")
	.dwattr $C$DW$83, DW_AT_external
	.dwattr $C$DW$83, DW_AT_TI_begin_file("../tm4c123gh6pm_startup_ccs.c")
	.dwattr $C$DW$83, DW_AT_TI_begin_line(0x202)
	.dwattr $C$DW$83, DW_AT_TI_begin_column(0x06)
	.dwattr $C$DW$83, DW_AT_decl_file("../tm4c123gh6pm_startup_ccs.c")
	.dwattr $C$DW$83, DW_AT_decl_line(0x202)
	.dwattr $C$DW$83, DW_AT_decl_column(0x06)
	.dwattr $C$DW$83, DW_AT_TI_max_frame_size(0x00)
	.dwpsn	file "../tm4c123gh6pm_startup_ccs.c",line 514,column 31,is_stmt,address WideTimer0B_Handler,isa 1

	.dwfde $C$DW$CIE, WideTimer0B_Handler

;*****************************************************************************
;* FUNCTION NAME: WideTimer0B_Handler                                        *
;*                                                                           *
;*   Regs Modified     :                                                     *
;*   Regs Used         : LR                                                  *
;*   Local Frame Size  : 0 Args + 0 Auto + 0 Save = 0 byte                   *
;*****************************************************************************
WideTimer0B_Handler:
;* --------------------------------------------------------------------------*
	.dwcfi	cfa_offset, 0
	.dwpsn	file "../tm4c123gh6pm_startup_ccs.c",line 514,column 39,is_stmt,isa 1
;----------------------------------------------------------------------
; 514 | void WideTimer0B_Handler(void){ while(1){}}        // Wide Timer 0 subt
;     | imer B                                                                 
;----------------------------------------------------------------------
;* --------------------------------------------------------------------------*
;*   BEGIN LOOP ||$C$L79||
;*
;*   Loop source line                : 514
;*   Loop closing brace source line  : 514
;*   Known Minimum Trip Count        : 1
;*   Known Maximum Trip Count        : 4294967295
;*   Known Max Trip Count Factor     : 1
;* --------------------------------------------------------------------------*
||$C$L79||:    
        B         ||$C$L79||            ; [DPU_3_PIPE] |514| 
        ; BRANCH OCCURS {||$C$L79||}     ; [] |514| 
;* --------------------------------------------------------------------------*
	.dwattr $C$DW$83, DW_AT_TI_end_file("../tm4c123gh6pm_startup_ccs.c")
	.dwattr $C$DW$83, DW_AT_TI_end_line(0x202)
	.dwattr $C$DW$83, DW_AT_TI_end_column(0x2b)
	.dwendentry
	.dwendtag $C$DW$83

	.sect	".text"
	.clink
	.thumbfunc WideTimer1A_Handler
	.thumb
	.weak	WideTimer1A_Handler

$C$DW$84	.dwtag  DW_TAG_subprogram
	.dwattr $C$DW$84, DW_AT_name("WideTimer1A_Handler")
	.dwattr $C$DW$84, DW_AT_low_pc(WideTimer1A_Handler)
	.dwattr $C$DW$84, DW_AT_high_pc(0x00)
	.dwattr $C$DW$84, DW_AT_TI_symbol_name("WideTimer1A_Handler")
	.dwattr $C$DW$84, DW_AT_external
	.dwattr $C$DW$84, DW_AT_TI_begin_file("../tm4c123gh6pm_startup_ccs.c")
	.dwattr $C$DW$84, DW_AT_TI_begin_line(0x203)
	.dwattr $C$DW$84, DW_AT_TI_begin_column(0x06)
	.dwattr $C$DW$84, DW_AT_decl_file("../tm4c123gh6pm_startup_ccs.c")
	.dwattr $C$DW$84, DW_AT_decl_line(0x203)
	.dwattr $C$DW$84, DW_AT_decl_column(0x06)
	.dwattr $C$DW$84, DW_AT_TI_max_frame_size(0x00)
	.dwpsn	file "../tm4c123gh6pm_startup_ccs.c",line 515,column 31,is_stmt,address WideTimer1A_Handler,isa 1

	.dwfde $C$DW$CIE, WideTimer1A_Handler

;*****************************************************************************
;* FUNCTION NAME: WideTimer1A_Handler                                        *
;*                                                                           *
;*   Regs Modified     :                                                     *
;*   Regs Used         : LR                                                  *
;*   Local Frame Size  : 0 Args + 0 Auto + 0 Save = 0 byte                   *
;*****************************************************************************
WideTimer1A_Handler:
;* --------------------------------------------------------------------------*
	.dwcfi	cfa_offset, 0
	.dwpsn	file "../tm4c123gh6pm_startup_ccs.c",line 515,column 39,is_stmt,isa 1
;----------------------------------------------------------------------
; 515 | void WideTimer1A_Handler(void){ while(1){}}        // Wide Timer 1 subt
;     | imer A                                                                 
;----------------------------------------------------------------------
;* --------------------------------------------------------------------------*
;*   BEGIN LOOP ||$C$L80||
;*
;*   Loop source line                : 515
;*   Loop closing brace source line  : 515
;*   Known Minimum Trip Count        : 1
;*   Known Maximum Trip Count        : 4294967295
;*   Known Max Trip Count Factor     : 1
;* --------------------------------------------------------------------------*
||$C$L80||:    
        B         ||$C$L80||            ; [DPU_3_PIPE] |515| 
        ; BRANCH OCCURS {||$C$L80||}     ; [] |515| 
;* --------------------------------------------------------------------------*
	.dwattr $C$DW$84, DW_AT_TI_end_file("../tm4c123gh6pm_startup_ccs.c")
	.dwattr $C$DW$84, DW_AT_TI_end_line(0x203)
	.dwattr $C$DW$84, DW_AT_TI_end_column(0x2b)
	.dwendentry
	.dwendtag $C$DW$84

	.sect	".text"
	.clink
	.thumbfunc WideTimer1B_Handler
	.thumb
	.weak	WideTimer1B_Handler

$C$DW$85	.dwtag  DW_TAG_subprogram
	.dwattr $C$DW$85, DW_AT_name("WideTimer1B_Handler")
	.dwattr $C$DW$85, DW_AT_low_pc(WideTimer1B_Handler)
	.dwattr $C$DW$85, DW_AT_high_pc(0x00)
	.dwattr $C$DW$85, DW_AT_TI_symbol_name("WideTimer1B_Handler")
	.dwattr $C$DW$85, DW_AT_external
	.dwattr $C$DW$85, DW_AT_TI_begin_file("../tm4c123gh6pm_startup_ccs.c")
	.dwattr $C$DW$85, DW_AT_TI_begin_line(0x204)
	.dwattr $C$DW$85, DW_AT_TI_begin_column(0x06)
	.dwattr $C$DW$85, DW_AT_decl_file("../tm4c123gh6pm_startup_ccs.c")
	.dwattr $C$DW$85, DW_AT_decl_line(0x204)
	.dwattr $C$DW$85, DW_AT_decl_column(0x06)
	.dwattr $C$DW$85, DW_AT_TI_max_frame_size(0x00)
	.dwpsn	file "../tm4c123gh6pm_startup_ccs.c",line 516,column 31,is_stmt,address WideTimer1B_Handler,isa 1

	.dwfde $C$DW$CIE, WideTimer1B_Handler

;*****************************************************************************
;* FUNCTION NAME: WideTimer1B_Handler                                        *
;*                                                                           *
;*   Regs Modified     :                                                     *
;*   Regs Used         : LR                                                  *
;*   Local Frame Size  : 0 Args + 0 Auto + 0 Save = 0 byte                   *
;*****************************************************************************
WideTimer1B_Handler:
;* --------------------------------------------------------------------------*
	.dwcfi	cfa_offset, 0
	.dwpsn	file "../tm4c123gh6pm_startup_ccs.c",line 516,column 39,is_stmt,isa 1
;----------------------------------------------------------------------
; 516 | void WideTimer1B_Handler(void){ while(1){}}        // Wide Timer 1 subt
;     | imer B                                                                 
;----------------------------------------------------------------------
;* --------------------------------------------------------------------------*
;*   BEGIN LOOP ||$C$L81||
;*
;*   Loop source line                : 516
;*   Loop closing brace source line  : 516
;*   Known Minimum Trip Count        : 1
;*   Known Maximum Trip Count        : 4294967295
;*   Known Max Trip Count Factor     : 1
;* --------------------------------------------------------------------------*
||$C$L81||:    
        B         ||$C$L81||            ; [DPU_3_PIPE] |516| 
        ; BRANCH OCCURS {||$C$L81||}     ; [] |516| 
;* --------------------------------------------------------------------------*
	.dwattr $C$DW$85, DW_AT_TI_end_file("../tm4c123gh6pm_startup_ccs.c")
	.dwattr $C$DW$85, DW_AT_TI_end_line(0x204)
	.dwattr $C$DW$85, DW_AT_TI_end_column(0x2b)
	.dwendentry
	.dwendtag $C$DW$85

	.sect	".text"
	.clink
	.thumbfunc WideTimer2A_Handler
	.thumb
	.weak	WideTimer2A_Handler

$C$DW$86	.dwtag  DW_TAG_subprogram
	.dwattr $C$DW$86, DW_AT_name("WideTimer2A_Handler")
	.dwattr $C$DW$86, DW_AT_low_pc(WideTimer2A_Handler)
	.dwattr $C$DW$86, DW_AT_high_pc(0x00)
	.dwattr $C$DW$86, DW_AT_TI_symbol_name("WideTimer2A_Handler")
	.dwattr $C$DW$86, DW_AT_external
	.dwattr $C$DW$86, DW_AT_TI_begin_file("../tm4c123gh6pm_startup_ccs.c")
	.dwattr $C$DW$86, DW_AT_TI_begin_line(0x205)
	.dwattr $C$DW$86, DW_AT_TI_begin_column(0x06)
	.dwattr $C$DW$86, DW_AT_decl_file("../tm4c123gh6pm_startup_ccs.c")
	.dwattr $C$DW$86, DW_AT_decl_line(0x205)
	.dwattr $C$DW$86, DW_AT_decl_column(0x06)
	.dwattr $C$DW$86, DW_AT_TI_max_frame_size(0x00)
	.dwpsn	file "../tm4c123gh6pm_startup_ccs.c",line 517,column 31,is_stmt,address WideTimer2A_Handler,isa 1

	.dwfde $C$DW$CIE, WideTimer2A_Handler

;*****************************************************************************
;* FUNCTION NAME: WideTimer2A_Handler                                        *
;*                                                                           *
;*   Regs Modified     :                                                     *
;*   Regs Used         : LR                                                  *
;*   Local Frame Size  : 0 Args + 0 Auto + 0 Save = 0 byte                   *
;*****************************************************************************
WideTimer2A_Handler:
;* --------------------------------------------------------------------------*
	.dwcfi	cfa_offset, 0
	.dwpsn	file "../tm4c123gh6pm_startup_ccs.c",line 517,column 39,is_stmt,isa 1
;----------------------------------------------------------------------
; 517 | void WideTimer2A_Handler(void){ while(1){}}        // Wide Timer 2 subt
;     | imer A                                                                 
;----------------------------------------------------------------------
;* --------------------------------------------------------------------------*
;*   BEGIN LOOP ||$C$L82||
;*
;*   Loop source line                : 517
;*   Loop closing brace source line  : 517
;*   Known Minimum Trip Count        : 1
;*   Known Maximum Trip Count        : 4294967295
;*   Known Max Trip Count Factor     : 1
;* --------------------------------------------------------------------------*
||$C$L82||:    
        B         ||$C$L82||            ; [DPU_3_PIPE] |517| 
        ; BRANCH OCCURS {||$C$L82||}     ; [] |517| 
;* --------------------------------------------------------------------------*
	.dwattr $C$DW$86, DW_AT_TI_end_file("../tm4c123gh6pm_startup_ccs.c")
	.dwattr $C$DW$86, DW_AT_TI_end_line(0x205)
	.dwattr $C$DW$86, DW_AT_TI_end_column(0x2b)
	.dwendentry
	.dwendtag $C$DW$86

	.sect	".text"
	.clink
	.thumbfunc WideTimer2B_Handler
	.thumb
	.weak	WideTimer2B_Handler

$C$DW$87	.dwtag  DW_TAG_subprogram
	.dwattr $C$DW$87, DW_AT_name("WideTimer2B_Handler")
	.dwattr $C$DW$87, DW_AT_low_pc(WideTimer2B_Handler)
	.dwattr $C$DW$87, DW_AT_high_pc(0x00)
	.dwattr $C$DW$87, DW_AT_TI_symbol_name("WideTimer2B_Handler")
	.dwattr $C$DW$87, DW_AT_external
	.dwattr $C$DW$87, DW_AT_TI_begin_file("../tm4c123gh6pm_startup_ccs.c")
	.dwattr $C$DW$87, DW_AT_TI_begin_line(0x206)
	.dwattr $C$DW$87, DW_AT_TI_begin_column(0x06)
	.dwattr $C$DW$87, DW_AT_decl_file("../tm4c123gh6pm_startup_ccs.c")
	.dwattr $C$DW$87, DW_AT_decl_line(0x206)
	.dwattr $C$DW$87, DW_AT_decl_column(0x06)
	.dwattr $C$DW$87, DW_AT_TI_max_frame_size(0x00)
	.dwpsn	file "../tm4c123gh6pm_startup_ccs.c",line 518,column 31,is_stmt,address WideTimer2B_Handler,isa 1

	.dwfde $C$DW$CIE, WideTimer2B_Handler

;*****************************************************************************
;* FUNCTION NAME: WideTimer2B_Handler                                        *
;*                                                                           *
;*   Regs Modified     :                                                     *
;*   Regs Used         : LR                                                  *
;*   Local Frame Size  : 0 Args + 0 Auto + 0 Save = 0 byte                   *
;*****************************************************************************
WideTimer2B_Handler:
;* --------------------------------------------------------------------------*
	.dwcfi	cfa_offset, 0
	.dwpsn	file "../tm4c123gh6pm_startup_ccs.c",line 518,column 39,is_stmt,isa 1
;----------------------------------------------------------------------
; 518 | void WideTimer2B_Handler(void){ while(1){}}        // Wide Timer 2 subt
;     | imer B                                                                 
;----------------------------------------------------------------------
;* --------------------------------------------------------------------------*
;*   BEGIN LOOP ||$C$L83||
;*
;*   Loop source line                : 518
;*   Loop closing brace source line  : 518
;*   Known Minimum Trip Count        : 1
;*   Known Maximum Trip Count        : 4294967295
;*   Known Max Trip Count Factor     : 1
;* --------------------------------------------------------------------------*
||$C$L83||:    
        B         ||$C$L83||            ; [DPU_3_PIPE] |518| 
        ; BRANCH OCCURS {||$C$L83||}     ; [] |518| 
;* --------------------------------------------------------------------------*
	.dwattr $C$DW$87, DW_AT_TI_end_file("../tm4c123gh6pm_startup_ccs.c")
	.dwattr $C$DW$87, DW_AT_TI_end_line(0x206)
	.dwattr $C$DW$87, DW_AT_TI_end_column(0x2b)
	.dwendentry
	.dwendtag $C$DW$87

	.sect	".text"
	.clink
	.thumbfunc WideTimer3A_Handler
	.thumb
	.weak	WideTimer3A_Handler

$C$DW$88	.dwtag  DW_TAG_subprogram
	.dwattr $C$DW$88, DW_AT_name("WideTimer3A_Handler")
	.dwattr $C$DW$88, DW_AT_low_pc(WideTimer3A_Handler)
	.dwattr $C$DW$88, DW_AT_high_pc(0x00)
	.dwattr $C$DW$88, DW_AT_TI_symbol_name("WideTimer3A_Handler")
	.dwattr $C$DW$88, DW_AT_external
	.dwattr $C$DW$88, DW_AT_TI_begin_file("../tm4c123gh6pm_startup_ccs.c")
	.dwattr $C$DW$88, DW_AT_TI_begin_line(0x207)
	.dwattr $C$DW$88, DW_AT_TI_begin_column(0x06)
	.dwattr $C$DW$88, DW_AT_decl_file("../tm4c123gh6pm_startup_ccs.c")
	.dwattr $C$DW$88, DW_AT_decl_line(0x207)
	.dwattr $C$DW$88, DW_AT_decl_column(0x06)
	.dwattr $C$DW$88, DW_AT_TI_max_frame_size(0x00)
	.dwpsn	file "../tm4c123gh6pm_startup_ccs.c",line 519,column 31,is_stmt,address WideTimer3A_Handler,isa 1

	.dwfde $C$DW$CIE, WideTimer3A_Handler

;*****************************************************************************
;* FUNCTION NAME: WideTimer3A_Handler                                        *
;*                                                                           *
;*   Regs Modified     :                                                     *
;*   Regs Used         : LR                                                  *
;*   Local Frame Size  : 0 Args + 0 Auto + 0 Save = 0 byte                   *
;*****************************************************************************
WideTimer3A_Handler:
;* --------------------------------------------------------------------------*
	.dwcfi	cfa_offset, 0
	.dwpsn	file "../tm4c123gh6pm_startup_ccs.c",line 519,column 39,is_stmt,isa 1
;----------------------------------------------------------------------
; 519 | void WideTimer3A_Handler(void){ while(1){}}        // Wide Timer 3 subt
;     | imer A                                                                 
;----------------------------------------------------------------------
;* --------------------------------------------------------------------------*
;*   BEGIN LOOP ||$C$L84||
;*
;*   Loop source line                : 519
;*   Loop closing brace source line  : 519
;*   Known Minimum Trip Count        : 1
;*   Known Maximum Trip Count        : 4294967295
;*   Known Max Trip Count Factor     : 1
;* --------------------------------------------------------------------------*
||$C$L84||:    
        B         ||$C$L84||            ; [DPU_3_PIPE] |519| 
        ; BRANCH OCCURS {||$C$L84||}     ; [] |519| 
;* --------------------------------------------------------------------------*
	.dwattr $C$DW$88, DW_AT_TI_end_file("../tm4c123gh6pm_startup_ccs.c")
	.dwattr $C$DW$88, DW_AT_TI_end_line(0x207)
	.dwattr $C$DW$88, DW_AT_TI_end_column(0x2b)
	.dwendentry
	.dwendtag $C$DW$88

	.sect	".text"
	.clink
	.thumbfunc WideTimer3B_Handler
	.thumb
	.weak	WideTimer3B_Handler

$C$DW$89	.dwtag  DW_TAG_subprogram
	.dwattr $C$DW$89, DW_AT_name("WideTimer3B_Handler")
	.dwattr $C$DW$89, DW_AT_low_pc(WideTimer3B_Handler)
	.dwattr $C$DW$89, DW_AT_high_pc(0x00)
	.dwattr $C$DW$89, DW_AT_TI_symbol_name("WideTimer3B_Handler")
	.dwattr $C$DW$89, DW_AT_external
	.dwattr $C$DW$89, DW_AT_TI_begin_file("../tm4c123gh6pm_startup_ccs.c")
	.dwattr $C$DW$89, DW_AT_TI_begin_line(0x208)
	.dwattr $C$DW$89, DW_AT_TI_begin_column(0x06)
	.dwattr $C$DW$89, DW_AT_decl_file("../tm4c123gh6pm_startup_ccs.c")
	.dwattr $C$DW$89, DW_AT_decl_line(0x208)
	.dwattr $C$DW$89, DW_AT_decl_column(0x06)
	.dwattr $C$DW$89, DW_AT_TI_max_frame_size(0x00)
	.dwpsn	file "../tm4c123gh6pm_startup_ccs.c",line 520,column 31,is_stmt,address WideTimer3B_Handler,isa 1

	.dwfde $C$DW$CIE, WideTimer3B_Handler

;*****************************************************************************
;* FUNCTION NAME: WideTimer3B_Handler                                        *
;*                                                                           *
;*   Regs Modified     :                                                     *
;*   Regs Used         : LR                                                  *
;*   Local Frame Size  : 0 Args + 0 Auto + 0 Save = 0 byte                   *
;*****************************************************************************
WideTimer3B_Handler:
;* --------------------------------------------------------------------------*
	.dwcfi	cfa_offset, 0
	.dwpsn	file "../tm4c123gh6pm_startup_ccs.c",line 520,column 39,is_stmt,isa 1
;----------------------------------------------------------------------
; 520 | void WideTimer3B_Handler(void){ while(1){}}        // Wide Timer 3 subt
;     | imer B                                                                 
;----------------------------------------------------------------------
;* --------------------------------------------------------------------------*
;*   BEGIN LOOP ||$C$L85||
;*
;*   Loop source line                : 520
;*   Loop closing brace source line  : 520
;*   Known Minimum Trip Count        : 1
;*   Known Maximum Trip Count        : 4294967295
;*   Known Max Trip Count Factor     : 1
;* --------------------------------------------------------------------------*
||$C$L85||:    
        B         ||$C$L85||            ; [DPU_3_PIPE] |520| 
        ; BRANCH OCCURS {||$C$L85||}     ; [] |520| 
;* --------------------------------------------------------------------------*
	.dwattr $C$DW$89, DW_AT_TI_end_file("../tm4c123gh6pm_startup_ccs.c")
	.dwattr $C$DW$89, DW_AT_TI_end_line(0x208)
	.dwattr $C$DW$89, DW_AT_TI_end_column(0x2b)
	.dwendentry
	.dwendtag $C$DW$89

	.sect	".text"
	.clink
	.thumbfunc WideTimer4A_Handler
	.thumb
	.weak	WideTimer4A_Handler

$C$DW$90	.dwtag  DW_TAG_subprogram
	.dwattr $C$DW$90, DW_AT_name("WideTimer4A_Handler")
	.dwattr $C$DW$90, DW_AT_low_pc(WideTimer4A_Handler)
	.dwattr $C$DW$90, DW_AT_high_pc(0x00)
	.dwattr $C$DW$90, DW_AT_TI_symbol_name("WideTimer4A_Handler")
	.dwattr $C$DW$90, DW_AT_external
	.dwattr $C$DW$90, DW_AT_TI_begin_file("../tm4c123gh6pm_startup_ccs.c")
	.dwattr $C$DW$90, DW_AT_TI_begin_line(0x209)
	.dwattr $C$DW$90, DW_AT_TI_begin_column(0x06)
	.dwattr $C$DW$90, DW_AT_decl_file("../tm4c123gh6pm_startup_ccs.c")
	.dwattr $C$DW$90, DW_AT_decl_line(0x209)
	.dwattr $C$DW$90, DW_AT_decl_column(0x06)
	.dwattr $C$DW$90, DW_AT_TI_max_frame_size(0x00)
	.dwpsn	file "../tm4c123gh6pm_startup_ccs.c",line 521,column 31,is_stmt,address WideTimer4A_Handler,isa 1

	.dwfde $C$DW$CIE, WideTimer4A_Handler

;*****************************************************************************
;* FUNCTION NAME: WideTimer4A_Handler                                        *
;*                                                                           *
;*   Regs Modified     :                                                     *
;*   Regs Used         : LR                                                  *
;*   Local Frame Size  : 0 Args + 0 Auto + 0 Save = 0 byte                   *
;*****************************************************************************
WideTimer4A_Handler:
;* --------------------------------------------------------------------------*
	.dwcfi	cfa_offset, 0
	.dwpsn	file "../tm4c123gh6pm_startup_ccs.c",line 521,column 39,is_stmt,isa 1
;----------------------------------------------------------------------
; 521 | void WideTimer4A_Handler(void){ while(1){}}        // Wide Timer 4 subt
;     | imer A                                                                 
;----------------------------------------------------------------------
;* --------------------------------------------------------------------------*
;*   BEGIN LOOP ||$C$L86||
;*
;*   Loop source line                : 521
;*   Loop closing brace source line  : 521
;*   Known Minimum Trip Count        : 1
;*   Known Maximum Trip Count        : 4294967295
;*   Known Max Trip Count Factor     : 1
;* --------------------------------------------------------------------------*
||$C$L86||:    
        B         ||$C$L86||            ; [DPU_3_PIPE] |521| 
        ; BRANCH OCCURS {||$C$L86||}     ; [] |521| 
;* --------------------------------------------------------------------------*
	.dwattr $C$DW$90, DW_AT_TI_end_file("../tm4c123gh6pm_startup_ccs.c")
	.dwattr $C$DW$90, DW_AT_TI_end_line(0x209)
	.dwattr $C$DW$90, DW_AT_TI_end_column(0x2b)
	.dwendentry
	.dwendtag $C$DW$90

	.sect	".text"
	.clink
	.thumbfunc WideTimer4B_Handler
	.thumb
	.weak	WideTimer4B_Handler

$C$DW$91	.dwtag  DW_TAG_subprogram
	.dwattr $C$DW$91, DW_AT_name("WideTimer4B_Handler")
	.dwattr $C$DW$91, DW_AT_low_pc(WideTimer4B_Handler)
	.dwattr $C$DW$91, DW_AT_high_pc(0x00)
	.dwattr $C$DW$91, DW_AT_TI_symbol_name("WideTimer4B_Handler")
	.dwattr $C$DW$91, DW_AT_external
	.dwattr $C$DW$91, DW_AT_TI_begin_file("../tm4c123gh6pm_startup_ccs.c")
	.dwattr $C$DW$91, DW_AT_TI_begin_line(0x20a)
	.dwattr $C$DW$91, DW_AT_TI_begin_column(0x06)
	.dwattr $C$DW$91, DW_AT_decl_file("../tm4c123gh6pm_startup_ccs.c")
	.dwattr $C$DW$91, DW_AT_decl_line(0x20a)
	.dwattr $C$DW$91, DW_AT_decl_column(0x06)
	.dwattr $C$DW$91, DW_AT_TI_max_frame_size(0x00)
	.dwpsn	file "../tm4c123gh6pm_startup_ccs.c",line 522,column 31,is_stmt,address WideTimer4B_Handler,isa 1

	.dwfde $C$DW$CIE, WideTimer4B_Handler

;*****************************************************************************
;* FUNCTION NAME: WideTimer4B_Handler                                        *
;*                                                                           *
;*   Regs Modified     :                                                     *
;*   Regs Used         : LR                                                  *
;*   Local Frame Size  : 0 Args + 0 Auto + 0 Save = 0 byte                   *
;*****************************************************************************
WideTimer4B_Handler:
;* --------------------------------------------------------------------------*
	.dwcfi	cfa_offset, 0
	.dwpsn	file "../tm4c123gh6pm_startup_ccs.c",line 522,column 39,is_stmt,isa 1
;----------------------------------------------------------------------
; 522 | void WideTimer4B_Handler(void){ while(1){}}        // Wide Timer 4 subt
;     | imer B                                                                 
;----------------------------------------------------------------------
;* --------------------------------------------------------------------------*
;*   BEGIN LOOP ||$C$L87||
;*
;*   Loop source line                : 522
;*   Loop closing brace source line  : 522
;*   Known Minimum Trip Count        : 1
;*   Known Maximum Trip Count        : 4294967295
;*   Known Max Trip Count Factor     : 1
;* --------------------------------------------------------------------------*
||$C$L87||:    
        B         ||$C$L87||            ; [DPU_3_PIPE] |522| 
        ; BRANCH OCCURS {||$C$L87||}     ; [] |522| 
;* --------------------------------------------------------------------------*
	.dwattr $C$DW$91, DW_AT_TI_end_file("../tm4c123gh6pm_startup_ccs.c")
	.dwattr $C$DW$91, DW_AT_TI_end_line(0x20a)
	.dwattr $C$DW$91, DW_AT_TI_end_column(0x2b)
	.dwendentry
	.dwendtag $C$DW$91

	.sect	".text"
	.clink
	.thumbfunc WideTimer5A_Handler
	.thumb
	.weak	WideTimer5A_Handler

$C$DW$92	.dwtag  DW_TAG_subprogram
	.dwattr $C$DW$92, DW_AT_name("WideTimer5A_Handler")
	.dwattr $C$DW$92, DW_AT_low_pc(WideTimer5A_Handler)
	.dwattr $C$DW$92, DW_AT_high_pc(0x00)
	.dwattr $C$DW$92, DW_AT_TI_symbol_name("WideTimer5A_Handler")
	.dwattr $C$DW$92, DW_AT_external
	.dwattr $C$DW$92, DW_AT_TI_begin_file("../tm4c123gh6pm_startup_ccs.c")
	.dwattr $C$DW$92, DW_AT_TI_begin_line(0x20b)
	.dwattr $C$DW$92, DW_AT_TI_begin_column(0x06)
	.dwattr $C$DW$92, DW_AT_decl_file("../tm4c123gh6pm_startup_ccs.c")
	.dwattr $C$DW$92, DW_AT_decl_line(0x20b)
	.dwattr $C$DW$92, DW_AT_decl_column(0x06)
	.dwattr $C$DW$92, DW_AT_TI_max_frame_size(0x00)
	.dwpsn	file "../tm4c123gh6pm_startup_ccs.c",line 523,column 31,is_stmt,address WideTimer5A_Handler,isa 1

	.dwfde $C$DW$CIE, WideTimer5A_Handler

;*****************************************************************************
;* FUNCTION NAME: WideTimer5A_Handler                                        *
;*                                                                           *
;*   Regs Modified     :                                                     *
;*   Regs Used         : LR                                                  *
;*   Local Frame Size  : 0 Args + 0 Auto + 0 Save = 0 byte                   *
;*****************************************************************************
WideTimer5A_Handler:
;* --------------------------------------------------------------------------*
	.dwcfi	cfa_offset, 0
	.dwpsn	file "../tm4c123gh6pm_startup_ccs.c",line 523,column 39,is_stmt,isa 1
;----------------------------------------------------------------------
; 523 | void WideTimer5A_Handler(void){ while(1){}}        // Wide Timer 5 subt
;     | imer A                                                                 
;----------------------------------------------------------------------
;* --------------------------------------------------------------------------*
;*   BEGIN LOOP ||$C$L88||
;*
;*   Loop source line                : 523
;*   Loop closing brace source line  : 523
;*   Known Minimum Trip Count        : 1
;*   Known Maximum Trip Count        : 4294967295
;*   Known Max Trip Count Factor     : 1
;* --------------------------------------------------------------------------*
||$C$L88||:    
        B         ||$C$L88||            ; [DPU_3_PIPE] |523| 
        ; BRANCH OCCURS {||$C$L88||}     ; [] |523| 
;* --------------------------------------------------------------------------*
	.dwattr $C$DW$92, DW_AT_TI_end_file("../tm4c123gh6pm_startup_ccs.c")
	.dwattr $C$DW$92, DW_AT_TI_end_line(0x20b)
	.dwattr $C$DW$92, DW_AT_TI_end_column(0x2b)
	.dwendentry
	.dwendtag $C$DW$92

	.sect	".text"
	.clink
	.thumbfunc WideTimer5B_Handler
	.thumb
	.weak	WideTimer5B_Handler

$C$DW$93	.dwtag  DW_TAG_subprogram
	.dwattr $C$DW$93, DW_AT_name("WideTimer5B_Handler")
	.dwattr $C$DW$93, DW_AT_low_pc(WideTimer5B_Handler)
	.dwattr $C$DW$93, DW_AT_high_pc(0x00)
	.dwattr $C$DW$93, DW_AT_TI_symbol_name("WideTimer5B_Handler")
	.dwattr $C$DW$93, DW_AT_external
	.dwattr $C$DW$93, DW_AT_TI_begin_file("../tm4c123gh6pm_startup_ccs.c")
	.dwattr $C$DW$93, DW_AT_TI_begin_line(0x20c)
	.dwattr $C$DW$93, DW_AT_TI_begin_column(0x06)
	.dwattr $C$DW$93, DW_AT_decl_file("../tm4c123gh6pm_startup_ccs.c")
	.dwattr $C$DW$93, DW_AT_decl_line(0x20c)
	.dwattr $C$DW$93, DW_AT_decl_column(0x06)
	.dwattr $C$DW$93, DW_AT_TI_max_frame_size(0x00)
	.dwpsn	file "../tm4c123gh6pm_startup_ccs.c",line 524,column 31,is_stmt,address WideTimer5B_Handler,isa 1

	.dwfde $C$DW$CIE, WideTimer5B_Handler

;*****************************************************************************
;* FUNCTION NAME: WideTimer5B_Handler                                        *
;*                                                                           *
;*   Regs Modified     :                                                     *
;*   Regs Used         : LR                                                  *
