TI ARM Assembler PC v16.9.0 Fri Mar 10 00:22:01 2017

Tools Copyright (c) 1996-2015 Texas Instruments Incorporated
tm4c123gh6pm_startup_ccs.asm                                         PAGE    1

       1                    ;******************************************************************************
       2                    ;* TI ARM C/C++ Codegen                                        PC v16.9.0.LTS *
       3                    ;* Date/Time created: Fri Mar 10 00:22:01 2017                                *
       4                    ;******************************************************************************
       5                            .compiler_opts --abi=eabi --arm_vmrs_si_workaround=off --code_state=16 --diag_wrap=off --embed
       6 00000000                   .thumb
       7                    
       8                    $C$DW$CU        .dwtag  DW_TAG_compile_unit
       9                            .dwattr $C$DW$CU, DW_AT_name("../tm4c123gh6pm_startup_ccs.c")
      10                            .dwattr $C$DW$CU, DW_AT_producer("TI TI ARM C/C++ Codegen PC v16.9.0.LTS Copyright (c) 1996-20
      11                            .dwattr $C$DW$CU, DW_AT_TI_version(0x01)
      12                            .dwattr $C$DW$CU, DW_AT_comp_dir("D:\Github Clones\EmbeddedSystems.Playground\Texas Instrument
      13                    $C$DW$1 .dwtag  DW_TAG_variable
      14                            .dwattr $C$DW$1, DW_AT_name("__STACK_TOP")
      15                            .dwattr $C$DW$1, DW_AT_TI_symbol_name("__STACK_TOP")
      16                            .dwattr $C$DW$1, DW_AT_type(*$C$DW$T$37)
      17                            .dwattr $C$DW$1, DW_AT_declaration
      18                            .dwattr $C$DW$1, DW_AT_external
      19                            .dwattr $C$DW$1, DW_AT_decl_file("../tm4c123gh6pm_startup_ccs.c")
      20                            .dwattr $C$DW$1, DW_AT_decl_line(0x39)
      21                            .dwattr $C$DW$1, DW_AT_decl_column(0x11)
      22                    
      23                            .global g_pfnVectors
      24 00000000                   .sect   ".intvecs"
      25                            .align  4
      26                            .elfsym g_pfnVectors,SYM_SIZE(620)
      27 00000000           g_pfnVectors:
      28 00000000 00000000!         .bits   __STACK_TOP,32          ; g_pfnVectors[0] @ 0
      29 00000004 00000000!         .bits   ResetISR,32             ; g_pfnVectors[1] @ 32
      30 00000008 00000000!         .bits   NmiSR,32                ; g_pfnVectors[2] @ 64
      31 0000000c 00000000!         .bits   FaultISR,32             ; g_pfnVectors[3] @ 96
      32 00000010 00000000!         .bits   IntDefaultHandler,32            ; g_pfnVectors[4] @ 128
      33 00000014 00000000!         .bits   IntDefaultHandler,32            ; g_pfnVectors[5] @ 160
      34 00000018 00000000!         .bits   IntDefaultHandler,32            ; g_pfnVectors[6] @ 192
      35 0000001c 00000000          .bits   0,32                    ; g_pfnVectors[7] @ 224
      36 00000020 00000000          .bits   0,32                    ; g_pfnVectors[8] @ 256
      37 00000024 00000000          .bits   0,32                    ; g_pfnVectors[9] @ 288
      38 00000028 00000000          .bits   0,32                    ; g_pfnVectors[10] @ 320
      39 0000002c 00000000!         .bits   SVC_Handler,32          ; g_pfnVectors[11] @ 352
      40 00000030 00000000!         .bits   DebugMon_Handler,32             ; g_pfnVectors[12] @ 384
      41 00000034 00000000          .bits   0,32                    ; g_pfnVectors[13] @ 416
      42 00000038 00000000!         .bits   PendSV_Handler,32               ; g_pfnVectors[14] @ 448
      43 0000003c 00000000!         .bits   SysTick_Handler,32              ; g_pfnVectors[15] @ 480
      44 00000040 00000000!         .bits   GPIOPortA_Handler,32            ; g_pfnVectors[16] @ 512
      45 00000044 00000000!         .bits   GPIOPortB_Handler,32            ; g_pfnVectors[17] @ 544
      46 00000048 00000000!         .bits   GPIOPortC_Handler,32            ; g_pfnVectors[18] @ 576
      47 0000004c 00000000!         .bits   GPIOPortD_Handler,32            ; g_pfnVectors[19] @ 608
      48 00000050 00000000!         .bits   GPIOPortE_Handler,32            ; g_pfnVectors[20] @ 640
      49 00000054 00000000!         .bits   UART0_Handler,32                ; g_pfnVectors[21] @ 672
      50 00000058 00000000!         .bits   UART1_Handler,32                ; g_pfnVectors[22] @ 704
      51 0000005c 00000000!         .bits   SSI0_Handler,32         ; g_pfnVectors[23] @ 736
      52 00000060 00000000!         .bits   I2C0_Handler,32         ; g_pfnVectors[24] @ 768
      53 00000064 00000000!         .bits   PWM0Fault_Handler,32            ; g_pfnVectors[25] @ 800
      54 00000068 00000000!         .bits   PWM0Generator0_Handler,32               ; g_pfnVectors[26] @ 832
      55 0000006c 00000000!         .bits   PWM0Generator1_Handler,32               ; g_pfnVectors[27] @ 864
TI ARM Assembler PC v16.9.0 Fri Mar 10 00:22:01 2017

Tools Copyright (c) 1996-2015 Texas Instruments Incorporated
tm4c123gh6pm_startup_ccs.asm                                         PAGE    2

      56 00000070 00000000!         .bits   PWM0Generator2_Handler,32               ; g_pfnVectors[28] @ 896
      57 00000074 00000000!         .bits   Quadrature0_Handler,32          ; g_pfnVectors[29] @ 928
      58 00000078 00000000!         .bits   ADC0Seq0_Handler,32             ; g_pfnVectors[30] @ 960
      59 0000007c 00000000!         .bits   ADC0Seq1_Handler,32             ; g_pfnVectors[31] @ 992
      60 00000080 00000000!         .bits   ADC0Seq2_Handler,32             ; g_pfnVectors[32] @ 1024
      61 00000084 00000000!         .bits   ADC0Seq3_Handler,32             ; g_pfnVectors[33] @ 1056
      62 00000088 00000000!         .bits   WDT_Handler,32          ; g_pfnVectors[34] @ 1088
      63 0000008c 00000000!         .bits   Timer0A_Handler,32              ; g_pfnVectors[35] @ 1120
      64 00000090 00000000!         .bits   Timer0B_Handler,32              ; g_pfnVectors[36] @ 1152
      65 00000094 00000000!         .bits   Timer1A_Handler,32              ; g_pfnVectors[37] @ 1184
      66 00000098 00000000!         .bits   Timer1B_Handler,32              ; g_pfnVectors[38] @ 1216
      67 0000009c 00000000!         .bits   Timer2A_Handler,32              ; g_pfnVectors[39] @ 1248
      68 000000a0 00000000!         .bits   Timer2B_Handler,32              ; g_pfnVectors[40] @ 1280
      69 000000a4 00000000!         .bits   Comp0_Handler,32                ; g_pfnVectors[41] @ 1312
      70 000000a8 00000000!         .bits   Comp1_Handler,32                ; g_pfnVectors[42] @ 1344
      71 000000ac 00000000!         .bits   Comp2_Handler,32                ; g_pfnVectors[43] @ 1376
      72 000000b0 00000000!         .bits   SysCtl_Handler,32               ; g_pfnVectors[44] @ 1408
      73 000000b4 00000000!         .bits   FlashCtl_Handler,32             ; g_pfnVectors[45] @ 1440
      74 000000b8 00000000!         .bits   GPIOPortF_Handler,32            ; g_pfnVectors[46] @ 1472
      75 000000bc 00000000!         .bits   GPIOPortG_Handler,32            ; g_pfnVectors[47] @ 1504
      76 000000c0 00000000!         .bits   GPIOPortH_Handler,32            ; g_pfnVectors[48] @ 1536
      77 000000c4 00000000!         .bits   UART2_Handler,32                ; g_pfnVectors[49] @ 1568
      78 000000c8 00000000!         .bits   SSI1_Handler,32         ; g_pfnVectors[50] @ 1600
      79 000000cc 00000000!         .bits   Timer3A_Handler,32              ; g_pfnVectors[51] @ 1632
      80 000000d0 00000000!         .bits   Timer3B_Handler,32              ; g_pfnVectors[52] @ 1664
      81 000000d4 00000000!         .bits   I2C1_Handler,32         ; g_pfnVectors[53] @ 1696
      82 000000d8 00000000!         .bits   Quadrature1_Handler,32          ; g_pfnVectors[54] @ 1728
      83 000000dc 00000000!         .bits   CAN0_Handler,32         ; g_pfnVectors[55] @ 1760
      84 000000e0 00000000!         .bits   CAN1_Handler,32         ; g_pfnVectors[56] @ 1792
      85 000000e4 00000000!         .bits   CAN2_Handler,32         ; g_pfnVectors[57] @ 1824
      86 000000e8 00000000!         .bits   Ethernet_Handler,32             ; g_pfnVectors[58] @ 1856
      87 000000ec 00000000!         .bits   Hibernate_Handler,32            ; g_pfnVectors[59] @ 1888
      88 000000f0 00000000!         .bits   USB0_Handler,32         ; g_pfnVectors[60] @ 1920
      89 000000f4 00000000!         .bits   PWM0Generator3_Handler,32               ; g_pfnVectors[61] @ 1952
      90 000000f8 00000000!         .bits   uDMA_Handler,32         ; g_pfnVectors[62] @ 1984
      91 000000fc 00000000!         .bits   uDMA_Error,32           ; g_pfnVectors[63] @ 2016
      92 00000100 00000000!         .bits   ADC1Seq0_Handler,32             ; g_pfnVectors[64] @ 2048
      93 00000104 00000000!         .bits   ADC1Seq1_Handler,32             ; g_pfnVectors[65] @ 2080
      94 00000108 00000000!         .bits   ADC1Seq2_Handler,32             ; g_pfnVectors[66] @ 2112
      95 0000010c 00000000!         .bits   ADC1Seq3_Handler,32             ; g_pfnVectors[67] @ 2144
      96 00000110 00000000!         .bits   I2S0_Handler,32         ; g_pfnVectors[68] @ 2176
      97 00000114 00000000!         .bits   ExtBus_Handler,32               ; g_pfnVectors[69] @ 2208
      98 00000118 00000000!         .bits   GPIOPortJ_Handler,32            ; g_pfnVectors[70] @ 2240
      99 0000011c 00000000!         .bits   GPIOPortK_Handler,32            ; g_pfnVectors[71] @ 2272
     100 00000120 00000000!         .bits   GPIOPortL_Handler,32            ; g_pfnVectors[72] @ 2304
     101 00000124 00000000!         .bits   SSI2_Handler,32         ; g_pfnVectors[73] @ 2336
     102 00000128 00000000!         .bits   SSI3_Handler,32         ; g_pfnVectors[74] @ 2368
     103 0000012c 00000000!         .bits   UART3_Handler,32                ; g_pfnVectors[75] @ 2400
     104 00000130 00000000!         .bits   UART4_Handler,32                ; g_pfnVectors[76] @ 2432
     105 00000134 00000000!         .bits   UART5_Handler,32                ; g_pfnVectors[77] @ 2464
     106 00000138 00000000!         .bits   UART6_Handler,32                ; g_pfnVectors[78] @ 2496
     107 0000013c 00000000!         .bits   UART7_Handler,32                ; g_pfnVectors[79] @ 2528
     108 00000140 00000000          .bits   0,32                    ; g_pfnVectors[80] @ 2560
     109 00000144 00000000          .bits   0,32                    ; g_pfnVectors[81] @ 2592
     110 00000148 00000000          .bits   0,32                    ; g_pfnVectors[82] @ 2624
TI ARM Assembler PC v16.9.0 Fri Mar 10 00:22:01 2017

Tools Copyright (c) 1996-2015 Texas Instruments Incorporated
tm4c123gh6pm_startup_ccs.asm                                         PAGE    3

     111 0000014c 00000000          .bits   0,32                    ; g_pfnVectors[83] @ 2656
     112 00000150 00000000!         .bits   I2C2_Handler,32         ; g_pfnVectors[84] @ 2688
     113 00000154 00000000!         .bits   I2C3_Handler,32         ; g_pfnVectors[85] @ 2720
     114 00000158 00000000!         .bits   Timer4A_Handler,32              ; g_pfnVectors[86] @ 2752
     115 0000015c 00000000!         .bits   Timer4B_Handler,32              ; g_pfnVectors[87] @ 2784
     116 00000160 00000000          .bits   0,32                    ; g_pfnVectors[88] @ 2816
     117 00000164 00000000          .bits   0,32                    ; g_pfnVectors[89] @ 2848
     118 00000168 00000000          .bits   0,32                    ; g_pfnVectors[90] @ 2880
     119 0000016c 00000000          .bits   0,32                    ; g_pfnVectors[91] @ 2912
     120 00000170 00000000          .bits   0,32                    ; g_pfnVectors[92] @ 2944
     121 00000174 00000000          .bits   0,32                    ; g_pfnVectors[93] @ 2976
     122 00000178 00000000          .bits   0,32                    ; g_pfnVectors[94] @ 3008
     123 0000017c 00000000          .bits   0,32                    ; g_pfnVectors[95] @ 3040
     124 00000180 00000000          .bits   0,32                    ; g_pfnVectors[96] @ 3072
     125 00000184 00000000          .bits   0,32                    ; g_pfnVectors[97] @ 3104
     126 00000188 00000000          .bits   0,32                    ; g_pfnVectors[98] @ 3136
     127 0000018c 00000000          .bits   0,32                    ; g_pfnVectors[99] @ 3168
     128 00000190 00000000          .bits   0,32                    ; g_pfnVectors[100] @ 3200
     129 00000194 00000000          .bits   0,32                    ; g_pfnVectors[101] @ 3232
     130 00000198 00000000          .bits   0,32                    ; g_pfnVectors[102] @ 3264
     131 0000019c 00000000          .bits   0,32                    ; g_pfnVectors[103] @ 3296
     132 000001a0 00000000          .bits   0,32                    ; g_pfnVectors[104] @ 3328
     133 000001a4 00000000          .bits   0,32                    ; g_pfnVectors[105] @ 3360
     134 000001a8 00000000          .bits   0,32                    ; g_pfnVectors[106] @ 3392
     135 000001ac 00000000          .bits   0,32                    ; g_pfnVectors[107] @ 3424
     136 000001b0 00000000!         .bits   Timer5A_Handler,32              ; g_pfnVectors[108] @ 3456
     137 000001b4 00000000!         .bits   Timer5B_Handler,32              ; g_pfnVectors[109] @ 3488
     138 000001b8 00000000!         .bits   WideTimer0A_Handler,32          ; g_pfnVectors[110] @ 3520
     139 000001bc 00000000!         .bits   WideTimer0B_Handler,32          ; g_pfnVectors[111] @ 3552
     140 000001c0 00000000!         .bits   WideTimer1A_Handler,32          ; g_pfnVectors[112] @ 3584
     141 000001c4 00000000!         .bits   WideTimer1B_Handler,32          ; g_pfnVectors[113] @ 3616
     142 000001c8 00000000!         .bits   WideTimer2A_Handler,32          ; g_pfnVectors[114] @ 3648
     143 000001cc 00000000!         .bits   WideTimer2B_Handler,32          ; g_pfnVectors[115] @ 3680
     144 000001d0 00000000!         .bits   WideTimer3A_Handler,32          ; g_pfnVectors[116] @ 3712
     145 000001d4 00000000!         .bits   WideTimer3B_Handler,32          ; g_pfnVectors[117] @ 3744
     146 000001d8 00000000!         .bits   WideTimer4A_Handler,32          ; g_pfnVectors[118] @ 3776
     147 000001dc 00000000!         .bits   WideTimer4B_Handler,32          ; g_pfnVectors[119] @ 3808
     148 000001e0 00000000!         .bits   WideTimer5A_Handler,32          ; g_pfnVectors[120] @ 3840
     149 000001e4 00000000!         .bits   WideTimer5B_Handler,32          ; g_pfnVectors[121] @ 3872
     150 000001e8 00000000!         .bits   FPU_Handler,32          ; g_pfnVectors[122] @ 3904
     151 000001ec 00000000!         .bits   PECI0_Handler,32                ; g_pfnVectors[123] @ 3936
     152 000001f0 00000000!         .bits   LPC0_Handler,32         ; g_pfnVectors[124] @ 3968
     153 000001f4 00000000!         .bits   I2C4_Handler,32         ; g_pfnVectors[125] @ 4000
     154 000001f8 00000000!         .bits   I2C5_Handler,32         ; g_pfnVectors[126] @ 4032
     155 000001fc 00000000!         .bits   GPIOPortM_Handler,32            ; g_pfnVectors[127] @ 4064
     156 00000200 00000000!         .bits   GPIOPortN_Handler,32            ; g_pfnVectors[128] @ 4096
     157 00000204 00000000!         .bits   Quadrature2_Handler,32          ; g_pfnVectors[129] @ 4128
     158 00000208 00000000!         .bits   Fan0_Handler,32         ; g_pfnVectors[130] @ 4160
     159 0000020c 00000000          .bits   0,32                    ; g_pfnVectors[131] @ 4192
     160 00000210 00000000!         .bits   GPIOPortP_Handler,32            ; g_pfnVectors[132] @ 4224
     161 00000214 00000000!         .bits   GPIOPortP1_Handler,32           ; g_pfnVectors[133] @ 4256
     162 00000218 00000000!         .bits   GPIOPortP2_Handler,32           ; g_pfnVectors[134] @ 4288
     163 0000021c 00000000!         .bits   GPIOPortP3_Handler,32           ; g_pfnVectors[135] @ 4320
     164 00000220 00000000!         .bits   GPIOPortP4_Handler,32           ; g_pfnVectors[136] @ 4352
     165 00000224 00000000!         .bits   GPIOPortP5_Handler,32           ; g_pfnVectors[137] @ 4384
TI ARM Assembler PC v16.9.0 Fri Mar 10 00:22:01 2017

Tools Copyright (c) 1996-2015 Texas Instruments Incorporated
tm4c123gh6pm_startup_ccs.asm                                         PAGE    4

     166 00000228 00000000!         .bits   GPIOPortP6_Handler,32           ; g_pfnVectors[138] @ 4416
     167 0000022c 00000000!         .bits   GPIOPortP7_Handler,32           ; g_pfnVectors[139] @ 4448
     168 00000230 00000000!         .bits   GPIOPortQ_Handler,32            ; g_pfnVectors[140] @ 4480
     169 00000234 00000000!         .bits   GPIOPortQ1_Handler,32           ; g_pfnVectors[141] @ 4512
     170 00000238 00000000!         .bits   GPIOPortQ2_Handler,32           ; g_pfnVectors[142] @ 4544
     171 0000023c 00000000!         .bits   GPIOPortQ3_Handler,32           ; g_pfnVectors[143] @ 4576
     172 00000240 00000000!         .bits   GPIOPortQ4_Handler,32           ; g_pfnVectors[144] @ 4608
     173 00000244 00000000!         .bits   GPIOPortQ5_Handler,32           ; g_pfnVectors[145] @ 4640
     174 00000248 00000000!         .bits   GPIOPortQ6_Handler,32           ; g_pfnVectors[146] @ 4672
     175 0000024c 00000000!         .bits   GPIOPortQ7_Handler,32           ; g_pfnVectors[147] @ 4704
     176 00000250 00000000!         .bits   GPIOPortR_Handler,32            ; g_pfnVectors[148] @ 4736
     177 00000254 00000000!         .bits   GPIOPortS_Handler,32            ; g_pfnVectors[149] @ 4768
     178 00000258 00000000!         .bits   PWM1Generator0_Handler,32               ; g_pfnVectors[150] @ 4800
     179 0000025c 00000000!         .bits   PWM1Generator1_Handler,32               ; g_pfnVectors[151] @ 4832
     180 00000260 00000000!         .bits   PWM1Generator2_Handler,32               ; g_pfnVectors[152] @ 4864
     181 00000264 00000000!         .bits   PWM1Generator3_Handler,32               ; g_pfnVectors[153] @ 4896
     182 00000268 00000000!         .bits   PWM1Fault_Handler,32            ; g_pfnVectors[154] @ 4928
     183                    
     184                    $C$DW$2 .dwtag  DW_TAG_variable
     185                            .dwattr $C$DW$2, DW_AT_name("g_pfnVectors")
     186                            .dwattr $C$DW$2, DW_AT_TI_symbol_name("g_pfnVectors")
     187                            .dwattr $C$DW$2, DW_AT_location[DW_OP_addr g_pfnVectors]
     188                            .dwattr $C$DW$2, DW_AT_type(*$C$DW$T$22)
     189                            .dwattr $C$DW$2, DW_AT_external
     190                            .dwattr $C$DW$2, DW_AT_decl_file("../tm4c123gh6pm_startup_ccs.c")
     191                            .dwattr $C$DW$2, DW_AT_decl_line(0xc2)
     192                            .dwattr $C$DW$2, DW_AT_decl_column(0x0f)
     193                    
     194                    ;       D:\EngineeringSoftware\CCS\ccsv7\tools\compiler\ti-cgt-arm_16.9.0.LTS\bin\armacpia.exe -@C:\\U
     195 00000000                   .sect   ".text"
     196                            .clink
     197                            .thumbfunc ResetISR
     198 00000000                   .thumb
     199                            .global ResetISR
     200                    
     201                    $C$DW$3 .dwtag  DW_TAG_subprogram
     202                            .dwattr $C$DW$3, DW_AT_name("ResetISR")
     203                            .dwattr $C$DW$3, DW_AT_low_pc(ResetISR)
     204                            .dwattr $C$DW$3, DW_AT_high_pc(0x00)
     205                            .dwattr $C$DW$3, DW_AT_TI_symbol_name("ResetISR")
     206                            .dwattr $C$DW$3, DW_AT_external
     207                            .dwattr $C$DW$3, DW_AT_TI_begin_file("../tm4c123gh6pm_startup_ccs.c")
     208                            .dwattr $C$DW$3, DW_AT_TI_begin_line(0x173)
     209                            .dwattr $C$DW$3, DW_AT_TI_begin_column(0x01)
     210                            .dwattr $C$DW$3, DW_AT_decl_file("../tm4c123gh6pm_startup_ccs.c")
     211                            .dwattr $C$DW$3, DW_AT_decl_line(0x173)
     212                            .dwattr $C$DW$3, DW_AT_decl_column(0x01)
     213                            .dwattr $C$DW$3, DW_AT_TI_max_frame_size(0x00)
     214                            .dwpsn  file "../tm4c123gh6pm_startup_ccs.c",line 372,column 1,is_stmt,address ResetISR,isa 1
     215                    
     216                            .dwfde $C$DW$CIE, ResetISR
     217                    ;----------------------------------------------------------------------
     218                    ; 371 | ResetISR(void)                                                         
     219                    ; 373 | //                                                                     
     220                    ; 374 | // Jump to the CCS C initialization routine.  This will enable the     
TI ARM Assembler PC v16.9.0 Fri Mar 10 00:22:01 2017

Tools Copyright (c) 1996-2015 Texas Instruments Incorporated
tm4c123gh6pm_startup_ccs.asm                                         PAGE    5

     221                    ; 375 | // floating-point unit as well, so that does not need to be done here. 
     222                    ; 376 | //                                                                     
     223                    ;----------------------------------------------------------------------
     224                    
     225                    ;*****************************************************************************
     226                    ;* FUNCTION NAME: ResetISR                                                   *
     227                    ;*                                                                           *
     228                    ;*   Regs Modified     :                                                     *
     229                    ;*   Regs Used         : LR                                                  *
     230                    ;*   Local Frame Size  : 0 Args + 0 Auto + 0 Save = 0 byte                   *
     231                    ;*****************************************************************************
     232 00000000           ResetISR:
     233                    ;* --------------------------------------------------------------------------*
     234                            .dwcfi  cfa_offset, 0
     235                            .dwpsn  file "../tm4c123gh6pm_startup_ccs.c",line 377,column 5,is_stmt,isa 1
     236                    ;----------------------------------------------------------------------
     237                    ; 377 | __asm("    .global _c_int00\n"                                         
     238                    ; 378 |       "    b.w     _c_int00");                                         
     239                    ;----------------------------------------------------------------------
     240                        .global _c_int00
     241 00000000 BFFEF7FF!     b.w     _c_int00 ; [KEEP 32-BIT INS]
     242                            .dwpsn  file "../tm4c123gh6pm_startup_ccs.c",line 379,column 1,is_stmt,isa 1
     243                    $C$DW$4 .dwtag  DW_TAG_TI_branch
     244                            .dwattr $C$DW$4, DW_AT_low_pc(0x00)
     245                            .dwattr $C$DW$4, DW_AT_TI_return
     246                    
     247 00000004 4770              BX        LR                    ; [DPU_3_PIPE]  ; [ORIG 16-BIT INS]
     248                            ; BRANCH OCCURS                  ; [] 
     249                            .dwattr $C$DW$3, DW_AT_TI_end_file("../tm4c123gh6pm_startup_ccs.c")
     250                            .dwattr $C$DW$3, DW_AT_TI_end_line(0x17b)
     251                            .dwattr $C$DW$3, DW_AT_TI_end_column(0x01)
     252                            .dwendentry
     253                            .dwendtag $C$DW$3
     254                    
     255 00000006                   .sect   ".text"
     256                            .clink
     257                            .thumbfunc NmiSR
     258 00000006                   .thumb
     259                    
     260                    $C$DW$5 .dwtag  DW_TAG_subprogram
     261                            .dwattr $C$DW$5, DW_AT_name("NmiSR")
     262                            .dwattr $C$DW$5, DW_AT_low_pc(NmiSR)
     263                            .dwattr $C$DW$5, DW_AT_high_pc(0x00)
     264                            .dwattr $C$DW$5, DW_AT_TI_symbol_name("NmiSR")
     265                            .dwattr $C$DW$5, DW_AT_TI_begin_file("../tm4c123gh6pm_startup_ccs.c")
     266                            .dwattr $C$DW$5, DW_AT_TI_begin_line(0x185)
     267                            .dwattr $C$DW$5, DW_AT_TI_begin_column(0x01)
     268                            .dwattr $C$DW$5, DW_AT_decl_file("../tm4c123gh6pm_startup_ccs.c")
     269                            .dwattr $C$DW$5, DW_AT_decl_line(0x185)
     270                            .dwattr $C$DW$5, DW_AT_decl_column(0x01)
     271                            .dwattr $C$DW$5, DW_AT_TI_max_frame_size(0x00)
     272                            .dwpsn  file "../tm4c123gh6pm_startup_ccs.c",line 390,column 1,is_stmt,address NmiSR,isa 1
     273                    
     274                            .dwfde $C$DW$CIE, NmiSR
     275                    ;----------------------------------------------------------------------
TI ARM Assembler PC v16.9.0 Fri Mar 10 00:22:01 2017

Tools Copyright (c) 1996-2015 Texas Instruments Incorporated
tm4c123gh6pm_startup_ccs.asm                                         PAGE    6

     276                    ; 389 | NmiSR(void)                                                            
     277                    ; 391 | //                                                                     
     278                    ; 392 | // Enter an infinite loop.                                             
     279                    ; 393 | //                                                                     
     280                    ;----------------------------------------------------------------------
     281                    
     282                    ;*****************************************************************************
     283                    ;* FUNCTION NAME: NmiSR                                                      *
     284                    ;*                                                                           *
     285                    ;*   Regs Modified     :                                                     *
     286                    ;*   Regs Used         : LR                                                  *
     287                    ;*   Local Frame Size  : 0 Args + 0 Auto + 0 Save = 0 byte                   *
     288                    ;*****************************************************************************
     289 00000006           NmiSR:
     290                    ;* --------------------------------------------------------------------------*
     291                            .dwcfi  cfa_offset, 0
     292                            .dwpsn  file "../tm4c123gh6pm_startup_ccs.c",line 394,column 11,is_stmt,isa 1
     293                    ;----------------------------------------------------------------------
     294                    ; 394 | while(1)                                                               
     295                    ;----------------------------------------------------------------------
     296                    ;* --------------------------------------------------------------------------*
     297                    ;*   BEGIN LOOP ||$C$L1||
     298                    ;*
     299                    ;*   Loop source line                : 394
     300                    ;*   Loop closing brace source line  : 396
     301                    ;*   Known Minimum Trip Count        : 1
     302                    ;*   Known Maximum Trip Count        : 4294967295
     303                    ;*   Known Max Trip Count Factor     : 1
     304                    ;* --------------------------------------------------------------------------*
     305 00000006           ||$C$L1||:    
     306 00000006 E7FE              B         ||$C$L1||             ; [DPU_3_PIPE] |394|  ; [ORIG 16-BIT INS]
     307                            ; BRANCH OCCURS {||$C$L1||}      ; [] |394| 
     308                    ;* --------------------------------------------------------------------------*
     309                            .dwattr $C$DW$5, DW_AT_TI_end_file("../tm4c123gh6pm_startup_ccs.c")
     310                            .dwattr $C$DW$5, DW_AT_TI_end_line(0x18d)
     311                            .dwattr $C$DW$5, DW_AT_TI_end_column(0x01)
     312                            .dwendentry
     313                            .dwendtag $C$DW$5
     314                    
     315 00000008                   .sect   ".text"
     316                            .clink
     317                            .thumbfunc FaultISR
     318 00000008                   .thumb
     319                    
     320                    $C$DW$6 .dwtag  DW_TAG_subprogram
     321                            .dwattr $C$DW$6, DW_AT_name("FaultISR")
     322                            .dwattr $C$DW$6, DW_AT_low_pc(FaultISR)
     323                            .dwattr $C$DW$6, DW_AT_high_pc(0x00)
     324                            .dwattr $C$DW$6, DW_AT_TI_symbol_name("FaultISR")
     325                            .dwattr $C$DW$6, DW_AT_TI_begin_file("../tm4c123gh6pm_startup_ccs.c")
     326                            .dwattr $C$DW$6, DW_AT_TI_begin_line(0x197)
     327                            .dwattr $C$DW$6, DW_AT_TI_begin_column(0x01)
     328                            .dwattr $C$DW$6, DW_AT_decl_file("../tm4c123gh6pm_startup_ccs.c")
     329                            .dwattr $C$DW$6, DW_AT_decl_line(0x197)
     330                            .dwattr $C$DW$6, DW_AT_decl_column(0x01)
TI ARM Assembler PC v16.9.0 Fri Mar 10 00:22:01 2017

Tools Copyright (c) 1996-2015 Texas Instruments Incorporated
tm4c123gh6pm_startup_ccs.asm                                         PAGE    7

     331                            .dwattr $C$DW$6, DW_AT_TI_max_frame_size(0x00)
     332                            .dwpsn  file "../tm4c123gh6pm_startup_ccs.c",line 408,column 1,is_stmt,address FaultISR,isa 1
     333                    
     334                            .dwfde $C$DW$CIE, FaultISR
     335                    ;----------------------------------------------------------------------
     336                    ; 407 | FaultISR(void)                                                         
     337                    ; 409 | //                                                                     
     338                    ; 410 | // Enter an infinite loop.                                             
     339                    ; 411 | //                                                                     
     340                    ;----------------------------------------------------------------------
     341                    
     342                    ;*****************************************************************************
     343                    ;* FUNCTION NAME: FaultISR                                                   *
     344                    ;*                                                                           *
     345                    ;*   Regs Modified     :                                                     *
     346                    ;*   Regs Used         : LR                                                  *
     347                    ;*   Local Frame Size  : 0 Args + 0 Auto + 0 Save = 0 byte                   *
     348                    ;*****************************************************************************
     349 00000008           FaultISR:
     350                    ;* --------------------------------------------------------------------------*
     351                            .dwcfi  cfa_offset, 0
     352                            .dwpsn  file "../tm4c123gh6pm_startup_ccs.c",line 412,column 11,is_stmt,isa 1
     353                    ;----------------------------------------------------------------------
     354                    ; 412 | while(1)                                                               
     355                    ;----------------------------------------------------------------------
     356                    ;* --------------------------------------------------------------------------*
     357                    ;*   BEGIN LOOP ||$C$L2||
     358                    ;*
     359                    ;*   Loop source line                : 412
     360                    ;*   Loop closing brace source line  : 414
     361                    ;*   Known Minimum Trip Count        : 1
     362                    ;*   Known Maximum Trip Count        : 4294967295
     363                    ;*   Known Max Trip Count Factor     : 1
     364                    ;* --------------------------------------------------------------------------*
     365 00000008           ||$C$L2||:    
     366 00000008 E7FE              B         ||$C$L2||             ; [DPU_3_PIPE] |412|  ; [ORIG 16-BIT INS]
     367                            ; BRANCH OCCURS {||$C$L2||}      ; [] |412| 
     368                    ;* --------------------------------------------------------------------------*
     369                            .dwattr $C$DW$6, DW_AT_TI_end_file("../tm4c123gh6pm_startup_ccs.c")
     370                            .dwattr $C$DW$6, DW_AT_TI_end_line(0x19f)
     371                            .dwattr $C$DW$6, DW_AT_TI_end_column(0x01)
     372                            .dwendentry
     373                            .dwendtag $C$DW$6
     374                    
     375 0000000a                   .sect   ".text"
     376                            .clink
     377                            .thumbfunc IntDefaultHandler
     378 0000000a                   .thumb
     379                    
     380                    $C$DW$7 .dwtag  DW_TAG_subprogram
     381                            .dwattr $C$DW$7, DW_AT_name("IntDefaultHandler")
     382                            .dwattr $C$DW$7, DW_AT_low_pc(IntDefaultHandler)
     383                            .dwattr $C$DW$7, DW_AT_high_pc(0x00)
     384                            .dwattr $C$DW$7, DW_AT_TI_symbol_name("IntDefaultHandler")
     385                            .dwattr $C$DW$7, DW_AT_TI_begin_file("../tm4c123gh6pm_startup_ccs.c")
TI ARM Assembler PC v16.9.0 Fri Mar 10 00:22:01 2017

Tools Copyright (c) 1996-2015 Texas Instruments Incorporated
tm4c123gh6pm_startup_ccs.asm                                         PAGE    8

     386                            .dwattr $C$DW$7, DW_AT_TI_begin_line(0x1a9)
     387                            .dwattr $C$DW$7, DW_AT_TI_begin_column(0x01)
     388                            .dwattr $C$DW$7, DW_AT_decl_file("../tm4c123gh6pm_startup_ccs.c")
     389                            .dwattr $C$DW$7, DW_AT_decl_line(0x1a9)
     390                            .dwattr $C$DW$7, DW_AT_decl_column(0x01)
     391                            .dwattr $C$DW$7, DW_AT_TI_max_frame_size(0x00)
     392                            .dwpsn  file "../tm4c123gh6pm_startup_ccs.c",line 426,column 1,is_stmt,address IntDefaultHandl
     393                    
     394                            .dwfde $C$DW$CIE, IntDefaultHandler
     395                    ;----------------------------------------------------------------------
     396                    ; 425 | IntDefaultHandler(void)                                                
     397                    ; 427 | //                                                                     
     398                    ; 428 | // Go into an infinite loop.                                           
     399                    ; 429 | //                                                                     
     400                    ;----------------------------------------------------------------------
     401                    
     402                    ;*****************************************************************************
     403                    ;* FUNCTION NAME: IntDefaultHandler                                          *
     404                    ;*                                                                           *
     405                    ;*   Regs Modified     :                                                     *
     406                    ;*   Regs Used         : LR                                                  *
     407                    ;*   Local Frame Size  : 0 Args + 0 Auto + 0 Save = 0 byte                   *
     408                    ;*****************************************************************************
     409 0000000a           IntDefaultHandler:
     410                    ;* --------------------------------------------------------------------------*
     411                            .dwcfi  cfa_offset, 0
     412                            .dwpsn  file "../tm4c123gh6pm_startup_ccs.c",line 430,column 11,is_stmt,isa 1
     413                    ;----------------------------------------------------------------------
     414                    ; 430 | while(1)                                                               
     415                    ;----------------------------------------------------------------------
     416                    ;* --------------------------------------------------------------------------*
     417                    ;*   BEGIN LOOP ||$C$L3||
     418                    ;*
     419                    ;*   Loop source line                : 430
     420                    ;*   Loop closing brace source line  : 432
     421                    ;*   Known Minimum Trip Count        : 1
     422                    ;*   Known Maximum Trip Count        : 4294967295
     423                    ;*   Known Max Trip Count Factor     : 1
     424                    ;* --------------------------------------------------------------------------*
     425 0000000a           ||$C$L3||:    
     426 0000000a E7FE              B         ||$C$L3||             ; [DPU_3_PIPE] |430|  ; [ORIG 16-BIT INS]
     427                            ; BRANCH OCCURS {||$C$L3||}      ; [] |430| 
     428                    ;* --------------------------------------------------------------------------*
     429                            .dwattr $C$DW$7, DW_AT_TI_end_file("../tm4c123gh6pm_startup_ccs.c")
     430                            .dwattr $C$DW$7, DW_AT_TI_end_line(0x1b1)
     431                            .dwattr $C$DW$7, DW_AT_TI_end_column(0x01)
     432                            .dwendentry
     433                            .dwendtag $C$DW$7
     434                    
     435 0000000c                   .sect   ".text"
     436                            .clink
     437                            .thumbfunc SVC_Handler
     438 0000000c                   .thumb
     439                            .weak   SVC_Handler
     440                    
TI ARM Assembler PC v16.9.0 Fri Mar 10 00:22:01 2017

Tools Copyright (c) 1996-2015 Texas Instruments Incorporated
tm4c123gh6pm_startup_ccs.asm                                         PAGE    9

     441                    $C$DW$8 .dwtag  DW_TAG_subprogram
     442                            .dwattr $C$DW$8, DW_AT_name("SVC_Handler")
     443                            .dwattr $C$DW$8, DW_AT_low_pc(SVC_Handler)
     444                            .dwattr $C$DW$8, DW_AT_high_pc(0x00)
     445                            .dwattr $C$DW$8, DW_AT_TI_symbol_name("SVC_Handler")
     446                            .dwattr $C$DW$8, DW_AT_external
     447                            .dwattr $C$DW$8, DW_AT_TI_begin_file("../tm4c123gh6pm_startup_ccs.c")
     448                            .dwattr $C$DW$8, DW_AT_TI_begin_line(0x1b7)
     449                            .dwattr $C$DW$8, DW_AT_TI_begin_column(0x06)
     450                            .dwattr $C$DW$8, DW_AT_decl_file("../tm4c123gh6pm_startup_ccs.c")
     451                            .dwattr $C$DW$8, DW_AT_decl_line(0x1b7)
     452                            .dwattr $C$DW$8, DW_AT_decl_column(0x06)
     453                            .dwattr $C$DW$8, DW_AT_TI_max_frame_size(0x00)
     454                            .dwpsn  file "../tm4c123gh6pm_startup_ccs.c",line 439,column 23,is_stmt,address SVC_Handler,is
     455                    
     456                            .dwfde $C$DW$CIE, SVC_Handler
     457                    
     458                    ;*****************************************************************************
     459                    ;* FUNCTION NAME: SVC_Handler                                                *
     460                    ;*                                                                           *
     461                    ;*   Regs Modified     :                                                     *
     462                    ;*   Regs Used         : LR                                                  *
     463                    ;*   Local Frame Size  : 0 Args + 0 Auto + 0 Save = 0 byte                   *
     464                    ;*****************************************************************************
     465 0000000c           SVC_Handler:
     466                    ;* --------------------------------------------------------------------------*
     467                            .dwcfi  cfa_offset, 0
     468                            .dwpsn  file "../tm4c123gh6pm_startup_ccs.c",line 439,column 31,is_stmt,isa 1
     469                    ;----------------------------------------------------------------------
     470                    ; 439 | void SVC_Handler(void){ while(1){}}                // SVCall Handler   
     471                    ;----------------------------------------------------------------------
     472                    ;* --------------------------------------------------------------------------*
     473                    ;*   BEGIN LOOP ||$C$L4||
     474                    ;*
     475                    ;*   Loop source line                : 439
     476                    ;*   Loop closing brace source line  : 439
     477                    ;*   Known Minimum Trip Count        : 1
     478                    ;*   Known Maximum Trip Count        : 4294967295
     479                    ;*   Known Max Trip Count Factor     : 1
     480                    ;* --------------------------------------------------------------------------*
     481 0000000c           ||$C$L4||:    
     482 0000000c E7FE              B         ||$C$L4||             ; [DPU_3_PIPE] |439|  ; [ORIG 16-BIT INS]
     483                            ; BRANCH OCCURS {||$C$L4||}      ; [] |439| 
     484                    ;* --------------------------------------------------------------------------*
     485                            .dwattr $C$DW$8, DW_AT_TI_end_file("../tm4c123gh6pm_startup_ccs.c")
     486                            .dwattr $C$DW$8, DW_AT_TI_end_line(0x1b7)
     487                            .dwattr $C$DW$8, DW_AT_TI_end_column(0x23)
     488                            .dwendentry
     489                            .dwendtag $C$DW$8
     490                    
     491 0000000e                   .sect   ".text"
     492                            .clink
     493                            .thumbfunc DebugMon_Handler
     494 0000000e                   .thumb
     495                            .weak   DebugMon_Handler
TI ARM Assembler PC v16.9.0 Fri Mar 10 00:22:01 2017

Tools Copyright (c) 1996-2015 Texas Instruments Incorporated
tm4c123gh6pm_startup_ccs.asm                                         PAGE   10

     496                    
     497                    $C$DW$9 .dwtag  DW_TAG_subprogram
     498                            .dwattr $C$DW$9, DW_AT_name("DebugMon_Handler")
     499                            .dwattr $C$DW$9, DW_AT_low_pc(DebugMon_Handler)
     500                            .dwattr $C$DW$9, DW_AT_high_pc(0x00)
     501                            .dwattr $C$DW$9, DW_AT_TI_symbol_name("DebugMon_Handler")
     502                            .dwattr $C$DW$9, DW_AT_external
     503                            .dwattr $C$DW$9, DW_AT_TI_begin_file("../tm4c123gh6pm_startup_ccs.c")
     504                            .dwattr $C$DW$9, DW_AT_TI_begin_line(0x1b8)
     505                            .dwattr $C$DW$9, DW_AT_TI_begin_column(0x06)
     506                            .dwattr $C$DW$9, DW_AT_decl_file("../tm4c123gh6pm_startup_ccs.c")
     507                            .dwattr $C$DW$9, DW_AT_decl_line(0x1b8)
     508                            .dwattr $C$DW$9, DW_AT_decl_column(0x06)
     509                            .dwattr $C$DW$9, DW_AT_TI_max_frame_size(0x00)
     510                            .dwpsn  file "../tm4c123gh6pm_startup_ccs.c",line 440,column 28,is_stmt,address DebugMon_Handl
     511                    
     512                            .dwfde $C$DW$CIE, DebugMon_Handler
     513                    
     514                    ;*****************************************************************************
     515                    ;* FUNCTION NAME: DebugMon_Handler                                           *
     516                    ;*                                                                           *
     517                    ;*   Regs Modified     :                                                     *
     518                    ;*   Regs Used         : LR                                                  *
     519                    ;*   Local Frame Size  : 0 Args + 0 Auto + 0 Save = 0 byte                   *
     520                    ;*****************************************************************************
     521 0000000e           DebugMon_Handler:
     522                    ;* --------------------------------------------------------------------------*
     523                            .dwcfi  cfa_offset, 0
     524                            .dwpsn  file "../tm4c123gh6pm_startup_ccs.c",line 440,column 36,is_stmt,isa 1
     525                    ;----------------------------------------------------------------------
     526                    ; 440 | void DebugMon_Handler(void){ while(1){}}           // Debug Monitor Han
     527                    ;     | dler                                                                   
     528                    ;----------------------------------------------------------------------
     529                    ;* --------------------------------------------------------------------------*
     530                    ;*   BEGIN LOOP ||$C$L5||
     531                    ;*
     532                    ;*   Loop source line                : 440
     533                    ;*   Loop closing brace source line  : 440
     534                    ;*   Known Minimum Trip Count        : 1
     535                    ;*   Known Maximum Trip Count        : 4294967295
     536                    ;*   Known Max Trip Count Factor     : 1
     537                    ;* --------------------------------------------------------------------------*
     538 0000000e           ||$C$L5||:    
     539 0000000e E7FE              B         ||$C$L5||             ; [DPU_3_PIPE] |440|  ; [ORIG 16-BIT INS]
     540                            ; BRANCH OCCURS {||$C$L5||}      ; [] |440| 
     541                    ;* --------------------------------------------------------------------------*
     542                            .dwattr $C$DW$9, DW_AT_TI_end_file("../tm4c123gh6pm_startup_ccs.c")
     543                            .dwattr $C$DW$9, DW_AT_TI_end_line(0x1b8)
     544                            .dwattr $C$DW$9, DW_AT_TI_end_column(0x28)
     545                            .dwendentry
     546                            .dwendtag $C$DW$9
     547                    
     548 00000010                   .sect   ".text"
     549                            .clink
     550                            .thumbfunc PendSV_Handler
TI ARM Assembler PC v16.9.0 Fri Mar 10 00:22:01 2017

Tools Copyright (c) 1996-2015 Texas Instruments Incorporated
tm4c123gh6pm_startup_ccs.asm                                         PAGE   11

     551 00000010                   .thumb
     552                            .weak   PendSV_Handler
     553                    
     554                    $C$DW$10        .dwtag  DW_TAG_subprogram
     555                            .dwattr $C$DW$10, DW_AT_name("PendSV_Handler")
     556                            .dwattr $C$DW$10, DW_AT_low_pc(PendSV_Handler)
     557                            .dwattr $C$DW$10, DW_AT_high_pc(0x00)
     558                            .dwattr $C$DW$10, DW_AT_TI_symbol_name("PendSV_Handler")
     559                            .dwattr $C$DW$10, DW_AT_external
     560                            .dwattr $C$DW$10, DW_AT_TI_begin_file("../tm4c123gh6pm_startup_ccs.c")
     561                            .dwattr $C$DW$10, DW_AT_TI_begin_line(0x1b9)
     562                            .dwattr $C$DW$10, DW_AT_TI_begin_column(0x06)
     563                            .dwattr $C$DW$10, DW_AT_decl_file("../tm4c123gh6pm_startup_ccs.c")
     564                            .dwattr $C$DW$10, DW_AT_decl_line(0x1b9)
     565                            .dwattr $C$DW$10, DW_AT_decl_column(0x06)
     566                            .dwattr $C$DW$10, DW_AT_TI_max_frame_size(0x00)
     567                            .dwpsn  file "../tm4c123gh6pm_startup_ccs.c",line 441,column 26,is_stmt,address PendSV_Handler
     568                    
     569                            .dwfde $C$DW$CIE, PendSV_Handler
     570                    
     571                    ;*****************************************************************************
     572                    ;* FUNCTION NAME: PendSV_Handler                                             *
     573                    ;*                                                                           *
     574                    ;*   Regs Modified     :                                                     *
     575                    ;*   Regs Used         : LR                                                  *
     576                    ;*   Local Frame Size  : 0 Args + 0 Auto + 0 Save = 0 byte                   *
     577                    ;*****************************************************************************
     578 00000010           PendSV_Handler:
     579                    ;* --------------------------------------------------------------------------*
     580                            .dwcfi  cfa_offset, 0
     581                            .dwpsn  file "../tm4c123gh6pm_startup_ccs.c",line 441,column 34,is_stmt,isa 1
     582                    ;----------------------------------------------------------------------
     583                    ; 441 | void PendSV_Handler(void){ while(1){}}             // PendSV Handler   
     584                    ;----------------------------------------------------------------------
     585                    ;* --------------------------------------------------------------------------*
     586                    ;*   BEGIN LOOP ||$C$L6||
     587                    ;*
     588                    ;*   Loop source line                : 441
     589                    ;*   Loop closing brace source line  : 441
     590                    ;*   Known Minimum Trip Count        : 1
     591                    ;*   Known Maximum Trip Count        : 4294967295
     592                    ;*   Known Max Trip Count Factor     : 1
     593                    ;* --------------------------------------------------------------------------*
     594 00000010           ||$C$L6||:    
     595 00000010 E7FE              B         ||$C$L6||             ; [DPU_3_PIPE] |441|  ; [ORIG 16-BIT INS]
     596                            ; BRANCH OCCURS {||$C$L6||}      ; [] |441| 
     597                    ;* --------------------------------------------------------------------------*
     598                            .dwattr $C$DW$10, DW_AT_TI_end_file("../tm4c123gh6pm_startup_ccs.c")
     599                            .dwattr $C$DW$10, DW_AT_TI_end_line(0x1b9)
     600                            .dwattr $C$DW$10, DW_AT_TI_end_column(0x26)
     601                            .dwendentry
     602                            .dwendtag $C$DW$10
     603                    
     604 00000012                   .sect   ".text"
     605                            .clink
TI ARM Assembler PC v16.9.0 Fri Mar 10 00:22:01 2017

Tools Copyright (c) 1996-2015 Texas Instruments Incorporated
tm4c123gh6pm_startup_ccs.asm                                         PAGE   12

     606                            .thumbfunc SysTick_Handler
     607 00000012                   .thumb
     608                            .weak   SysTick_Handler
     609                    
     610                    $C$DW$11        .dwtag  DW_TAG_subprogram
     611                            .dwattr $C$DW$11, DW_AT_name("SysTick_Handler")
     612                            .dwattr $C$DW$11, DW_AT_low_pc(SysTick_Handler)
     613                            .dwattr $C$DW$11, DW_AT_high_pc(0x00)
     614                            .dwattr $C$DW$11, DW_AT_TI_symbol_name("SysTick_Handler")
     615                            .dwattr $C$DW$11, DW_AT_external
     616                            .dwattr $C$DW$11, DW_AT_TI_begin_file("../tm4c123gh6pm_startup_ccs.c")
     617                            .dwattr $C$DW$11, DW_AT_TI_begin_line(0x1ba)
     618                            .dwattr $C$DW$11, DW_AT_TI_begin_column(0x06)
     619                            .dwattr $C$DW$11, DW_AT_decl_file("../tm4c123gh6pm_startup_ccs.c")
     620                            .dwattr $C$DW$11, DW_AT_decl_line(0x1ba)
     621                            .dwattr $C$DW$11, DW_AT_decl_column(0x06)
     622                            .dwattr $C$DW$11, DW_AT_TI_max_frame_size(0x00)
     623                            .dwpsn  file "../tm4c123gh6pm_startup_ccs.c",line 442,column 27,is_stmt,address SysTick_Handle
     624                    
     625                            .dwfde $C$DW$CIE, SysTick_Handler
     626                    
     627                    ;*****************************************************************************
     628                    ;* FUNCTION NAME: SysTick_Handler                                            *
     629                    ;*                                                                           *
     630                    ;*   Regs Modified     :                                                     *
     631                    ;*   Regs Used         : LR                                                  *
     632                    ;*   Local Frame Size  : 0 Args + 0 Auto + 0 Save = 0 byte                   *
     633                    ;*****************************************************************************
     634 00000012           SysTick_Handler:
     635                    ;* --------------------------------------------------------------------------*
     636                            .dwcfi  cfa_offset, 0
     637                            .dwpsn  file "../tm4c123gh6pm_startup_ccs.c",line 442,column 35,is_stmt,isa 1
     638                    ;----------------------------------------------------------------------
     639                    ; 442 | void SysTick_Handler(void){ while(1){}}            // SysTick Handler  
     640                    ;----------------------------------------------------------------------
     641                    ;* --------------------------------------------------------------------------*
     642                    ;*   BEGIN LOOP ||$C$L7||
     643                    ;*
     644                    ;*   Loop source line                : 442
     645                    ;*   Loop closing brace source line  : 442
     646                    ;*   Known Minimum Trip Count        : 1
     647                    ;*   Known Maximum Trip Count        : 4294967295
     648                    ;*   Known Max Trip Count Factor     : 1
     649                    ;* --------------------------------------------------------------------------*
     650 00000012           ||$C$L7||:    
     651 00000012 E7FE              B         ||$C$L7||             ; [DPU_3_PIPE] |442|  ; [ORIG 16-BIT INS]
     652                            ; BRANCH OCCURS {||$C$L7||}      ; [] |442| 
     653                    ;* --------------------------------------------------------------------------*
     654                            .dwattr $C$DW$11, DW_AT_TI_end_file("../tm4c123gh6pm_startup_ccs.c")
     655                            .dwattr $C$DW$11, DW_AT_TI_end_line(0x1ba)
     656                            .dwattr $C$DW$11, DW_AT_TI_end_column(0x27)
     657                            .dwendentry
     658                            .dwendtag $C$DW$11
     659                    
     660 00000014                   .sect   ".text"
TI ARM Assembler PC v16.9.0 Fri Mar 10 00:22:01 2017

Tools Copyright (c) 1996-2015 Texas Instruments Incorporated
tm4c123gh6pm_startup_ccs.asm                                         PAGE   13

     661                            .clink
     662                            .thumbfunc GPIOPortA_Handler
     663 00000014                   .thumb
     664                            .weak   GPIOPortA_Handler
     665                    
     666                    $C$DW$12        .dwtag  DW_TAG_subprogram
     667                            .dwattr $C$DW$12, DW_AT_name("GPIOPortA_Handler")
     668                            .dwattr $C$DW$12, DW_AT_low_pc(GPIOPortA_Handler)
     669                            .dwattr $C$DW$12, DW_AT_high_pc(0x00)
     670                            .dwattr $C$DW$12, DW_AT_TI_symbol_name("GPIOPortA_Handler")
     671                            .dwattr $C$DW$12, DW_AT_external
     672                            .dwattr $C$DW$12, DW_AT_TI_begin_file("../tm4c123gh6pm_startup_ccs.c")
     673                            .dwattr $C$DW$12, DW_AT_TI_begin_line(0x1bb)
     674                            .dwattr $C$DW$12, DW_AT_TI_begin_column(0x06)
     675                            .dwattr $C$DW$12, DW_AT_decl_file("../tm4c123gh6pm_startup_ccs.c")
     676                            .dwattr $C$DW$12, DW_AT_decl_line(0x1bb)
     677                            .dwattr $C$DW$12, DW_AT_decl_column(0x06)
     678                            .dwattr $C$DW$12, DW_AT_TI_max_frame_size(0x00)
     679                            .dwpsn  file "../tm4c123gh6pm_startup_ccs.c",line 443,column 29,is_stmt,address GPIOPortA_Hand
     680                    
     681                            .dwfde $C$DW$CIE, GPIOPortA_Handler
     682                    
     683                    ;*****************************************************************************
     684                    ;* FUNCTION NAME: GPIOPortA_Handler                                          *
     685                    ;*                                                                           *
     686                    ;*   Regs Modified     :                                                     *
     687                    ;*   Regs Used         : LR                                                  *
     688                    ;*   Local Frame Size  : 0 Args + 0 Auto + 0 Save = 0 byte                   *
     689                    ;*****************************************************************************
     690 00000014           GPIOPortA_Handler:
     691                    ;* --------------------------------------------------------------------------*
     692                            .dwcfi  cfa_offset, 0
     693                            .dwpsn  file "../tm4c123gh6pm_startup_ccs.c",line 443,column 37,is_stmt,isa 1
     694                    ;----------------------------------------------------------------------
     695                    ; 443 | void GPIOPortA_Handler(void){ while(1){}}          // GPIO Port A      
     696                    ;----------------------------------------------------------------------
     697                    ;* --------------------------------------------------------------------------*
     698                    ;*   BEGIN LOOP ||$C$L8||
     699                    ;*
     700                    ;*   Loop source line                : 443
     701                    ;*   Loop closing brace source line  : 443
     702                    ;*   Known Minimum Trip Count        : 1
     703                    ;*   Known Maximum Trip Count        : 4294967295
     704                    ;*   Known Max Trip Count Factor     : 1
     705                    ;* --------------------------------------------------------------------------*
     706 00000014           ||$C$L8||:    
     707 00000014 E7FE              B         ||$C$L8||             ; [DPU_3_PIPE] |443|  ; [ORIG 16-BIT INS]
     708                            ; BRANCH OCCURS {||$C$L8||}      ; [] |443| 
     709                    ;* --------------------------------------------------------------------------*
     710                            .dwattr $C$DW$12, DW_AT_TI_end_file("../tm4c123gh6pm_startup_ccs.c")
     711                            .dwattr $C$DW$12, DW_AT_TI_end_line(0x1bb)
     712                            .dwattr $C$DW$12, DW_AT_TI_end_column(0x29)
     713                            .dwendentry
     714                            .dwendtag $C$DW$12
     715                    
TI ARM Assembler PC v16.9.0 Fri Mar 10 00:22:01 2017

Tools Copyright (c) 1996-2015 Texas Instruments Incorporated
tm4c123gh6pm_startup_ccs.asm                                         PAGE   14

     716 00000016                   .sect   ".text"
     717                            .clink
     718                            .thumbfunc GPIOPortB_Handler
     719 00000016                   .thumb
     720                            .weak   GPIOPortB_Handler
     721                    
     722                    $C$DW$13        .dwtag  DW_TAG_subprogram
     723                            .dwattr $C$DW$13, DW_AT_name("GPIOPortB_Handler")
     724                            .dwattr $C$DW$13, DW_AT_low_pc(GPIOPortB_Handler)
     725                            .dwattr $C$DW$13, DW_AT_high_pc(0x00)
     726                            .dwattr $C$DW$13, DW_AT_TI_symbol_name("GPIOPortB_Handler")
     727                            .dwattr $C$DW$13, DW_AT_external
     728                            .dwattr $C$DW$13, DW_AT_TI_begin_file("../tm4c123gh6pm_startup_ccs.c")
     729                            .dwattr $C$DW$13, DW_AT_TI_begin_line(0x1bc)
     730                            .dwattr $C$DW$13, DW_AT_TI_begin_column(0x06)
     731                            .dwattr $C$DW$13, DW_AT_decl_file("../tm4c123gh6pm_startup_ccs.c")
     732                            .dwattr $C$DW$13, DW_AT_decl_line(0x1bc)
     733                            .dwattr $C$DW$13, DW_AT_decl_column(0x06)
     734                            .dwattr $C$DW$13, DW_AT_TI_max_frame_size(0x00)
     735                            .dwpsn  file "../tm4c123gh6pm_startup_ccs.c",line 444,column 29,is_stmt,address GPIOPortB_Hand
     736                    
     737                            .dwfde $C$DW$CIE, GPIOPortB_Handler
     738                    
     739                    ;*****************************************************************************
     740                    ;* FUNCTION NAME: GPIOPortB_Handler                                          *
     741                    ;*                                                                           *
     742                    ;*   Regs Modified     :                                                     *
     743                    ;*   Regs Used         : LR                                                  *
     744                    ;*   Local Frame Size  : 0 Args + 0 Auto + 0 Save = 0 byte                   *
     745                    ;*****************************************************************************
     746 00000016           GPIOPortB_Handler:
     747                    ;* --------------------------------------------------------------------------*
     748                            .dwcfi  cfa_offset, 0
     749                            .dwpsn  file "../tm4c123gh6pm_startup_ccs.c",line 444,column 37,is_stmt,isa 1
     750                    ;----------------------------------------------------------------------
     751                    ; 444 | void GPIOPortB_Handler(void){ while(1){}}          // GPIO Port B      
     752                    ;----------------------------------------------------------------------
     753                    ;* --------------------------------------------------------------------------*
     754                    ;*   BEGIN LOOP ||$C$L9||
     755                    ;*
     756                    ;*   Loop source line                : 444
     757                    ;*   Loop closing brace source line  : 444
     758                    ;*   Known Minimum Trip Count        : 1
     759                    ;*   Known Maximum Trip Count        : 4294967295
     760                    ;*   Known Max Trip Count Factor     : 1
     761                    ;* --------------------------------------------------------------------------*
     762 00000016           ||$C$L9||:    
     763 00000016 E7FE              B         ||$C$L9||             ; [DPU_3_PIPE] |444|  ; [ORIG 16-BIT INS]
     764                            ; BRANCH OCCURS {||$C$L9||}      ; [] |444| 
     765                    ;* --------------------------------------------------------------------------*
     766                            .dwattr $C$DW$13, DW_AT_TI_end_file("../tm4c123gh6pm_startup_ccs.c")
     767                            .dwattr $C$DW$13, DW_AT_TI_end_line(0x1bc)
     768                            .dwattr $C$DW$13, DW_AT_TI_end_column(0x29)
     769                            .dwendentry
     770                            .dwendtag $C$DW$13
TI ARM Assembler PC v16.9.0 Fri Mar 10 00:22:01 2017

Tools Copyright (c) 1996-2015 Texas Instruments Incorporated
tm4c123gh6pm_startup_ccs.asm                                         PAGE   15

     771                    
     772 00000018                   .sect   ".text"
     773                            .clink
     774                            .thumbfunc GPIOPortC_Handler
     775 00000018                   .thumb
     776                            .weak   GPIOPortC_Handler
     777                    
     778                    $C$DW$14        .dwtag  DW_TAG_subprogram
     779                            .dwattr $C$DW$14, DW_AT_name("GPIOPortC_Handler")
     780                            .dwattr $C$DW$14, DW_AT_low_pc(GPIOPortC_Handler)
     781                            .dwattr $C$DW$14, DW_AT_high_pc(0x00)
     782                            .dwattr $C$DW$14, DW_AT_TI_symbol_name("GPIOPortC_Handler")
     783                            .dwattr $C$DW$14, DW_AT_external
     784                            .dwattr $C$DW$14, DW_AT_TI_begin_file("../tm4c123gh6pm_startup_ccs.c")
     785                            .dwattr $C$DW$14, DW_AT_TI_begin_line(0x1bd)
     786                            .dwattr $C$DW$14, DW_AT_TI_begin_column(0x06)
     787                            .dwattr $C$DW$14, DW_AT_decl_file("../tm4c123gh6pm_startup_ccs.c")
     788                            .dwattr $C$DW$14, DW_AT_decl_line(0x1bd)
     789                            .dwattr $C$DW$14, DW_AT_decl_column(0x06)
     790                            .dwattr $C$DW$14, DW_AT_TI_max_frame_size(0x00)
     791                            .dwpsn  file "../tm4c123gh6pm_startup_ccs.c",line 445,column 29,is_stmt,address GPIOPortC_Hand
     792                    
     793                            .dwfde $C$DW$CIE, GPIOPortC_Handler
     794                    
     795                    ;*****************************************************************************
     796                    ;* FUNCTION NAME: GPIOPortC_Handler                                          *
     797                    ;*                                                                           *
     798                    ;*   Regs Modified     :                                                     *
     799                    ;*   Regs Used         : LR                                                  *
     800                    ;*   Local Frame Size  : 0 Args + 0 Auto + 0 Save = 0 byte                   *
     801                    ;*****************************************************************************
     802 00000018           GPIOPortC_Handler:
     803                    ;* --------------------------------------------------------------------------*
     804                            .dwcfi  cfa_offset, 0
     805                            .dwpsn  file "../tm4c123gh6pm_startup_ccs.c",line 445,column 37,is_stmt,isa 1
     806                    ;----------------------------------------------------------------------
     807                    ; 445 | void GPIOPortC_Handler(void){ while(1){}}          // GPIO Port C      
     808                    ;----------------------------------------------------------------------
     809                    ;* --------------------------------------------------------------------------*
     810                    ;*   BEGIN LOOP ||$C$L10||
     811                    ;*
     812                    ;*   Loop source line                : 445
     813                    ;*   Loop closing brace source line  : 445
     814                    ;*   Known Minimum Trip Count        : 1
     815                    ;*   Known Maximum Trip Count        : 4294967295
     816                    ;*   Known Max Trip Count Factor     : 1
     817                    ;* --------------------------------------------------------------------------*
     818 00000018           ||$C$L10||:    
     819 00000018 E7FE              B         ||$C$L10||            ; [DPU_3_PIPE] |445|  ; [ORIG 16-BIT INS]
     820                            ; BRANCH OCCURS {||$C$L10||}     ; [] |445| 
     821                    ;* --------------------------------------------------------------------------*
     822                            .dwattr $C$DW$14, DW_AT_TI_end_file("../tm4c123gh6pm_startup_ccs.c")
     823                            .dwattr $C$DW$14, DW_AT_TI_end_line(0x1bd)
     824                            .dwattr $C$DW$14, DW_AT_TI_end_column(0x29)
     825                            .dwendentry
TI ARM Assembler PC v16.9.0 Fri Mar 10 00:22:01 2017

Tools Copyright (c) 1996-2015 Texas Instruments Incorporated
tm4c123gh6pm_startup_ccs.asm                                         PAGE   16

     826                            .dwendtag $C$DW$14
     827                    
     828 0000001a                   .sect   ".text"
     829                            .clink
     830                            .thumbfunc GPIOPortD_Handler
     831 0000001a                   .thumb
     832                            .weak   GPIOPortD_Handler
     833                    
     834                    $C$DW$15        .dwtag  DW_TAG_subprogram
     835                            .dwattr $C$DW$15, DW_AT_name("GPIOPortD_Handler")
     836                            .dwattr $C$DW$15, DW_AT_low_pc(GPIOPortD_Handler)
     837                            .dwattr $C$DW$15, DW_AT_high_pc(0x00)
     838                            .dwattr $C$DW$15, DW_AT_TI_symbol_name("GPIOPortD_Handler")
     839                            .dwattr $C$DW$15, DW_AT_external
     840                            .dwattr $C$DW$15, DW_AT_TI_begin_file("../tm4c123gh6pm_startup_ccs.c")
     841                            .dwattr $C$DW$15, DW_AT_TI_begin_line(0x1be)
     842                            .dwattr $C$DW$15, DW_AT_TI_begin_column(0x06)
     843                            .dwattr $C$DW$15, DW_AT_decl_file("../tm4c123gh6pm_startup_ccs.c")
     844                            .dwattr $C$DW$15, DW_AT_decl_line(0x1be)
     845                            .dwattr $C$DW$15, DW_AT_decl_column(0x06)
     846                            .dwattr $C$DW$15, DW_AT_TI_max_frame_size(0x00)
     847                            .dwpsn  file "../tm4c123gh6pm_startup_ccs.c",line 446,column 29,is_stmt,address GPIOPortD_Hand
     848                    
     849                            .dwfde $C$DW$CIE, GPIOPortD_Handler
     850                    
     851                    ;*****************************************************************************
     852                    ;* FUNCTION NAME: GPIOPortD_Handler                                          *
     853                    ;*                                                                           *
     854                    ;*   Regs Modified     :                                                     *
     855                    ;*   Regs Used         : LR                                                  *
     856                    ;*   Local Frame Size  : 0 Args + 0 Auto + 0 Save = 0 byte                   *
     857                    ;*****************************************************************************
     858 0000001a           GPIOPortD_Handler:
     859                    ;* --------------------------------------------------------------------------*
     860                            .dwcfi  cfa_offset, 0
     861                            .dwpsn  file "../tm4c123gh6pm_startup_ccs.c",line 446,column 37,is_stmt,isa 1
     862                    ;----------------------------------------------------------------------
     863                    ; 446 | void GPIOPortD_Handler(void){ while(1){}}          // GPIO Port D      
     864                    ;----------------------------------------------------------------------
     865                    ;* --------------------------------------------------------------------------*
     866                    ;*   BEGIN LOOP ||$C$L11||
     867                    ;*
     868                    ;*   Loop source line                : 446
     869                    ;*   Loop closing brace source line  : 446
     870                    ;*   Known Minimum Trip Count        : 1
     871                    ;*   Known Maximum Trip Count        : 4294967295
     872                    ;*   Known Max Trip Count Factor     : 1
     873                    ;* --------------------------------------------------------------------------*
     874 0000001a           ||$C$L11||:    
     875 0000001a E7FE              B         ||$C$L11||            ; [DPU_3_PIPE] |446|  ; [ORIG 16-BIT INS]
     876                            ; BRANCH OCCURS {||$C$L11||}     ; [] |446| 
     877                    ;* --------------------------------------------------------------------------*
     878                            .dwattr $C$DW$15, DW_AT_TI_end_file("../tm4c123gh6pm_startup_ccs.c")
     879                            .dwattr $C$DW$15, DW_AT_TI_end_line(0x1be)
     880                            .dwattr $C$DW$15, DW_AT_TI_end_column(0x29)
TI ARM Assembler PC v16.9.0 Fri Mar 10 00:22:01 2017

Tools Copyright (c) 1996-2015 Texas Instruments Incorporated
tm4c123gh6pm_startup_ccs.asm                                         PAGE   17

     881                            .dwendentry
     882                            .dwendtag $C$DW$15
     883                    
     884 0000001c                   .sect   ".text"
     885                            .clink
     886                            .thumbfunc GPIOPortE_Handler
     887 0000001c                   .thumb
     888                            .weak   GPIOPortE_Handler
     889                    
     890                    $C$DW$16        .dwtag  DW_TAG_subprogram
     891                            .dwattr $C$DW$16, DW_AT_name("GPIOPortE_Handler")
     892                            .dwattr $C$DW$16, DW_AT_low_pc(GPIOPortE_Handler)
     893                            .dwattr $C$DW$16, DW_AT_high_pc(0x00)
     894                            .dwattr $C$DW$16, DW_AT_TI_symbol_name("GPIOPortE_Handler")
     895                            .dwattr $C$DW$16, DW_AT_external
     896                            .dwattr $C$DW$16, DW_AT_TI_begin_file("../tm4c123gh6pm_startup_ccs.c")
     897                            .dwattr $C$DW$16, DW_AT_TI_begin_line(0x1bf)
     898                            .dwattr $C$DW$16, DW_AT_TI_begin_column(0x06)
     899                            .dwattr $C$DW$16, DW_AT_decl_file("../tm4c123gh6pm_startup_ccs.c")
     900                            .dwattr $C$DW$16, DW_AT_decl_line(0x1bf)
     901                            .dwattr $C$DW$16, DW_AT_decl_column(0x06)
     902                            .dwattr $C$DW$16, DW_AT_TI_max_frame_size(0x00)
     903                            .dwpsn  file "../tm4c123gh6pm_startup_ccs.c",line 447,column 29,is_stmt,address GPIOPortE_Hand
     904                    
     905                            .dwfde $C$DW$CIE, GPIOPortE_Handler
     906                    
     907                    ;*****************************************************************************
     908                    ;* FUNCTION NAME: GPIOPortE_Handler                                          *
     909                    ;*                                                                           *
     910                    ;*   Regs Modified     :                                                     *
     911                    ;*   Regs Used         : LR                                                  *
     912                    ;*   Local Frame Size  : 0 Args + 0 Auto + 0 Save = 0 byte                   *
     913                    ;*****************************************************************************
     914 0000001c           GPIOPortE_Handler:
     915                    ;* --------------------------------------------------------------------------*
     916                            .dwcfi  cfa_offset, 0
     917                            .dwpsn  file "../tm4c123gh6pm_startup_ccs.c",line 447,column 37,is_stmt,isa 1
     918                    ;----------------------------------------------------------------------
     919                    ; 447 | void GPIOPortE_Handler(void){ while(1){}}          // GPIO Port E      
     920                    ;----------------------------------------------------------------------
     921                    ;* --------------------------------------------------------------------------*
     922                    ;*   BEGIN LOOP ||$C$L12||
     923                    ;*
     924                    ;*   Loop source line                : 447
     925                    ;*   Loop closing brace source line  : 447
     926                    ;*   Known Minimum Trip Count        : 1
     927                    ;*   Known Maximum Trip Count        : 4294967295
     928                    ;*   Known Max Trip Count Factor     : 1
     929                    ;* --------------------------------------------------------------------------*
     930 0000001c           ||$C$L12||:    
     931 0000001c E7FE              B         ||$C$L12||            ; [DPU_3_PIPE] |447|  ; [ORIG 16-BIT INS]
     932                            ; BRANCH OCCURS {||$C$L12||}     ; [] |447| 
     933                    ;* --------------------------------------------------------------------------*
     934                            .dwattr $C$DW$16, DW_AT_TI_end_file("../tm4c123gh6pm_startup_ccs.c")
     935                            .dwattr $C$DW$16, DW_AT_TI_end_line(0x1bf)
TI ARM Assembler PC v16.9.0 Fri Mar 10 00:22:01 2017

Tools Copyright (c) 1996-2015 Texas Instruments Incorporated
tm4c123gh6pm_startup_ccs.asm                                         PAGE   18

     936                            .dwattr $C$DW$16, DW_AT_TI_end_column(0x29)
     937                            .dwendentry
     938                            .dwendtag $C$DW$16
     939                    
     940 0000001e                   .sect   ".text"
     941                            .clink
     942                            .thumbfunc UART0_Handler
     943 0000001e                   .thumb
     944                            .weak   UART0_Handler
     945                    
     946                    $C$DW$17        .dwtag  DW_TAG_subprogram
     947                            .dwattr $C$DW$17, DW_AT_name("UART0_Handler")
     948                            .dwattr $C$DW$17, DW_AT_low_pc(UART0_Handler)
     949                            .dwattr $C$DW$17, DW_AT_high_pc(0x00)
     950                            .dwattr $C$DW$17, DW_AT_TI_symbol_name("UART0_Handler")
     951                            .dwattr $C$DW$17, DW_AT_external
     952                            .dwattr $C$DW$17, DW_AT_TI_begin_file("../tm4c123gh6pm_startup_ccs.c")
     953                            .dwattr $C$DW$17, DW_AT_TI_begin_line(0x1c0)
     954                            .dwattr $C$DW$17, DW_AT_TI_begin_column(0x06)
     955                            .dwattr $C$DW$17, DW_AT_decl_file("../tm4c123gh6pm_startup_ccs.c")
     956                            .dwattr $C$DW$17, DW_AT_decl_line(0x1c0)
     957                            .dwattr $C$DW$17, DW_AT_decl_column(0x06)
     958                            .dwattr $C$DW$17, DW_AT_TI_max_frame_size(0x00)
     959                            .dwpsn  file "../tm4c123gh6pm_startup_ccs.c",line 448,column 25,is_stmt,address UART0_Handler,
     960                    
     961                            .dwfde $C$DW$CIE, UART0_Handler
     962                    
     963                    ;*****************************************************************************
     964                    ;* FUNCTION NAME: UART0_Handler                                              *
     965                    ;*                                                                           *
     966                    ;*   Regs Modified     :                                                     *
     967                    ;*   Regs Used         : LR                                                  *
     968                    ;*   Local Frame Size  : 0 Args + 0 Auto + 0 Save = 0 byte                   *
     969                    ;*****************************************************************************
     970 0000001e           UART0_Handler:
     971                    ;* --------------------------------------------------------------------------*
     972                            .dwcfi  cfa_offset, 0
     973                            .dwpsn  file "../tm4c123gh6pm_startup_ccs.c",line 448,column 33,is_stmt,isa 1
     974                    ;----------------------------------------------------------------------
     975                    ; 448 | void UART0_Handler(void){ while(1){}}              // UART0 Rx and Tx  
     976                    ;----------------------------------------------------------------------
     977                    ;* --------------------------------------------------------------------------*
     978                    ;*   BEGIN LOOP ||$C$L13||
     979                    ;*
     980                    ;*   Loop source line                : 448
     981                    ;*   Loop closing brace source line  : 448
     982                    ;*   Known Minimum Trip Count        : 1
     983                    ;*   Known Maximum Trip Count        : 4294967295
     984                    ;*   Known Max Trip Count Factor     : 1
     985                    ;* --------------------------------------------------------------------------*
     986 0000001e           ||$C$L13||:    
     987 0000001e E7FE              B         ||$C$L13||            ; [DPU_3_PIPE] |448|  ; [ORIG 16-BIT INS]
     988                            ; BRANCH OCCURS {||$C$L13||}     ; [] |448| 
     989                    ;* --------------------------------------------------------------------------*
     990                            .dwattr $C$DW$17, DW_AT_TI_end_file("../tm4c123gh6pm_startup_ccs.c")
TI ARM Assembler PC v16.9.0 Fri Mar 10 00:22:01 2017

Tools Copyright (c) 1996-2015 Texas Instruments Incorporated
tm4c123gh6pm_startup_ccs.asm                                         PAGE   19

     991                            .dwattr $C$DW$17, DW_AT_TI_end_line(0x1c0)
     992                            .dwattr $C$DW$17, DW_AT_TI_end_column(0x25)
     993                            .dwendentry
     994                            .dwendtag $C$DW$17
     995                    
     996 00000020                   .sect   ".text"
     997                            .clink
     998                            .thumbfunc UART1_Handler
     999 00000020                   .thumb
    1000                            .weak   UART1_Handler
    1001                    
    1002                    $C$DW$18        .dwtag  DW_TAG_subprogram
    1003                            .dwattr $C$DW$18, DW_AT_name("UART1_Handler")
    1004                            .dwattr $C$DW$18, DW_AT_low_pc(UART1_Handler)
    1005                            .dwattr $C$DW$18, DW_AT_high_pc(0x00)
    1006                            .dwattr $C$DW$18, DW_AT_TI_symbol_name("UART1_Handler")
    1007                            .dwattr $C$DW$18, DW_AT_external
    1008                            .dwattr $C$DW$18, DW_AT_TI_begin_file("../tm4c123gh6pm_startup_ccs.c")
    1009                            .dwattr $C$DW$18, DW_AT_TI_begin_line(0x1c1)
    1010                            .dwattr $C$DW$18, DW_AT_TI_begin_column(0x06)
    1011                            .dwattr $C$DW$18, DW_AT_decl_file("../tm4c123gh6pm_startup_ccs.c")
    1012                            .dwattr $C$DW$18, DW_AT_decl_line(0x1c1)
    1013                            .dwattr $C$DW$18, DW_AT_decl_column(0x06)
    1014                            .dwattr $C$DW$18, DW_AT_TI_max_frame_size(0x00)
    1015                            .dwpsn  file "../tm4c123gh6pm_startup_ccs.c",line 449,column 25,is_stmt,address UART1_Handler,
    1016                    
    1017                            .dwfde $C$DW$CIE, UART1_Handler
    1018                    
    1019                    ;*****************************************************************************
    1020                    ;* FUNCTION NAME: UART1_Handler                                              *
    1021                    ;*                                                                           *
    1022                    ;*   Regs Modified     :                                                     *
    1023                    ;*   Regs Used         : LR                                                  *
    1024                    ;*   Local Frame Size  : 0 Args + 0 Auto + 0 Save = 0 byte                   *
    1025                    ;*****************************************************************************
    1026 00000020           UART1_Handler:
    1027                    ;* --------------------------------------------------------------------------*
    1028                            .dwcfi  cfa_offset, 0
    1029                            .dwpsn  file "../tm4c123gh6pm_startup_ccs.c",line 449,column 33,is_stmt,isa 1
    1030                    ;----------------------------------------------------------------------
    1031                    ; 449 | void UART1_Handler(void){ while(1){}}              // UART1 Rx and Tx  
    1032                    ;----------------------------------------------------------------------
    1033                    ;* --------------------------------------------------------------------------*
    1034                    ;*   BEGIN LOOP ||$C$L14||
    1035                    ;*
    1036                    ;*   Loop source line                : 449
    1037                    ;*   Loop closing brace source line  : 449
    1038                    ;*   Known Minimum Trip Count        : 1
    1039                    ;*   Known Maximum Trip Count        : 4294967295
    1040                    ;*   Known Max Trip Count Factor     : 1
    1041                    ;* --------------------------------------------------------------------------*
    1042 00000020           ||$C$L14||:    
    1043 00000020 E7FE              B         ||$C$L14||            ; [DPU_3_PIPE] |449|  ; [ORIG 16-BIT INS]
    1044                            ; BRANCH OCCURS {||$C$L14||}     ; [] |449| 
    1045                    ;* --------------------------------------------------------------------------*
TI ARM Assembler PC v16.9.0 Fri Mar 10 00:22:01 2017

Tools Copyright (c) 1996-2015 Texas Instruments Incorporated
tm4c123gh6pm_startup_ccs.asm                                         PAGE   20

    1046                            .dwattr $C$DW$18, DW_AT_TI_end_file("../tm4c123gh6pm_startup_ccs.c")
    1047                            .dwattr $C$DW$18, DW_AT_TI_end_line(0x1c1)
    1048                            .dwattr $C$DW$18, DW_AT_TI_end_column(0x25)
    1049                            .dwendentry
    1050                            .dwendtag $C$DW$18
    1051                    
    1052 00000022                   .sect   ".text"
    1053                            .clink
    1054                            .thumbfunc SSI0_Handler
    1055 00000022                   .thumb
    1056                            .weak   SSI0_Handler
    1057                    
    1058                    $C$DW$19        .dwtag  DW_TAG_subprogram
    1059                            .dwattr $C$DW$19, DW_AT_name("SSI0_Handler")
    1060                            .dwattr $C$DW$19, DW_AT_low_pc(SSI0_Handler)
    1061                            .dwattr $C$DW$19, DW_AT_high_pc(0x00)
    1062                            .dwattr $C$DW$19, DW_AT_TI_symbol_name("SSI0_Handler")
    1063                            .dwattr $C$DW$19, DW_AT_external
    1064                            .dwattr $C$DW$19, DW_AT_TI_begin_file("../tm4c123gh6pm_startup_ccs.c")
    1065                            .dwattr $C$DW$19, DW_AT_TI_begin_line(0x1c2)
    1066                            .dwattr $C$DW$19, DW_AT_TI_begin_column(0x06)
    1067                            .dwattr $C$DW$19, DW_AT_decl_file("../tm4c123gh6pm_startup_ccs.c")
    1068                            .dwattr $C$DW$19, DW_AT_decl_line(0x1c2)
    1069                            .dwattr $C$DW$19, DW_AT_decl_column(0x06)
    1070                            .dwattr $C$DW$19, DW_AT_TI_max_frame_size(0x00)
    1071                            .dwpsn  file "../tm4c123gh6pm_startup_ccs.c",line 450,column 24,is_stmt,address SSI0_Handler,i
    1072                    
    1073                            .dwfde $C$DW$CIE, SSI0_Handler
    1074                    
    1075                    ;*****************************************************************************
    1076                    ;* FUNCTION NAME: SSI0_Handler                                               *
    1077                    ;*                                                                           *
    1078                    ;*   Regs Modified     :                                                     *
    1079                    ;*   Regs Used         : LR                                                  *
    1080                    ;*   Local Frame Size  : 0 Args + 0 Auto + 0 Save = 0 byte                   *
    1081                    ;*****************************************************************************
    1082 00000022           SSI0_Handler:
    1083                    ;* --------------------------------------------------------------------------*
    1084                            .dwcfi  cfa_offset, 0
    1085                            .dwpsn  file "../tm4c123gh6pm_startup_ccs.c",line 450,column 32,is_stmt,isa 1
    1086                    ;----------------------------------------------------------------------
    1087                    ; 450 | void SSI0_Handler(void){ while(1){}}               // SSI0 Rx and Tx   
    1088                    ;----------------------------------------------------------------------
    1089                    ;* --------------------------------------------------------------------------*
    1090                    ;*   BEGIN LOOP ||$C$L15||
    1091                    ;*
    1092                    ;*   Loop source line                : 450
    1093                    ;*   Loop closing brace source line  : 450
    1094                    ;*   Known Minimum Trip Count        : 1
    1095                    ;*   Known Maximum Trip Count        : 4294967295
    1096                    ;*   Known Max Trip Count Factor     : 1
    1097                    ;* --------------------------------------------------------------------------*
    1098 00000022           ||$C$L15||:    
    1099 00000022 E7FE              B         ||$C$L15||            ; [DPU_3_PIPE] |450|  ; [ORIG 16-BIT INS]
    1100                            ; BRANCH OCCURS {||$C$L15||}     ; [] |450| 
TI ARM Assembler PC v16.9.0 Fri Mar 10 00:22:01 2017

Tools Copyright (c) 1996-2015 Texas Instruments Incorporated
tm4c123gh6pm_startup_ccs.asm                                         PAGE   21

    1101                    ;* --------------------------------------------------------------------------*
    1102                            .dwattr $C$DW$19, DW_AT_TI_end_file("../tm4c123gh6pm_startup_ccs.c")
    1103                            .dwattr $C$DW$19, DW_AT_TI_end_line(0x1c2)
    1104                            .dwattr $C$DW$19, DW_AT_TI_end_column(0x24)
    1105                            .dwendentry
    1106                            .dwendtag $C$DW$19
    1107                    
    1108 00000024                   .sect   ".text"
    1109                            .clink
    1110                            .thumbfunc I2C0_Handler
    1111 00000024                   .thumb
    1112                            .weak   I2C0_Handler
    1113                    
    1114                    $C$DW$20        .dwtag  DW_TAG_subprogram
    1115                            .dwattr $C$DW$20, DW_AT_name("I2C0_Handler")
    1116                            .dwattr $C$DW$20, DW_AT_low_pc(I2C0_Handler)
    1117                            .dwattr $C$DW$20, DW_AT_high_pc(0x00)
    1118                            .dwattr $C$DW$20, DW_AT_TI_symbol_name("I2C0_Handler")
    1119                            .dwattr $C$DW$20, DW_AT_external
    1120                            .dwattr $C$DW$20, DW_AT_TI_begin_file("../tm4c123gh6pm_startup_ccs.c")
    1121                            .dwattr $C$DW$20, DW_AT_TI_begin_line(0x1c3)
    1122                            .dwattr $C$DW$20, DW_AT_TI_begin_column(0x06)
    1123                            .dwattr $C$DW$20, DW_AT_decl_file("../tm4c123gh6pm_startup_ccs.c")
    1124                            .dwattr $C$DW$20, DW_AT_decl_line(0x1c3)
    1125                            .dwattr $C$DW$20, DW_AT_decl_column(0x06)
    1126                            .dwattr $C$DW$20, DW_AT_TI_max_frame_size(0x00)
    1127                            .dwpsn  file "../tm4c123gh6pm_startup_ccs.c",line 451,column 24,is_stmt,address I2C0_Handler,i
    1128                    
    1129                            .dwfde $C$DW$CIE, I2C0_Handler
    1130                    
    1131                    ;*****************************************************************************
    1132                    ;* FUNCTION NAME: I2C0_Handler                                               *
    1133                    ;*                                                                           *
    1134                    ;*   Regs Modified     :                                                     *
    1135                    ;*   Regs Used         : LR                                                  *
    1136                    ;*   Local Frame Size  : 0 Args + 0 Auto + 0 Save = 0 byte                   *
    1137                    ;*****************************************************************************
    1138 00000024           I2C0_Handler:
    1139                    ;* --------------------------------------------------------------------------*
    1140                            .dwcfi  cfa_offset, 0
    1141                            .dwpsn  file "../tm4c123gh6pm_startup_ccs.c",line 451,column 32,is_stmt,isa 1
    1142                    ;----------------------------------------------------------------------
    1143                    ; 451 | void I2C0_Handler(void){ while(1){}}               // I2C0 Master and S
    1144                    ;     | lave                                                                   
    1145                    ;----------------------------------------------------------------------
    1146                    ;* --------------------------------------------------------------------------*
    1147                    ;*   BEGIN LOOP ||$C$L16||
    1148                    ;*
    1149                    ;*   Loop source line                : 451
    1150                    ;*   Loop closing brace source line  : 451
    1151                    ;*   Known Minimum Trip Count        : 1
    1152                    ;*   Known Maximum Trip Count        : 4294967295
    1153                    ;*   Known Max Trip Count Factor     : 1
    1154                    ;* --------------------------------------------------------------------------*
    1155 00000024           ||$C$L16||:    
TI ARM Assembler PC v16.9.0 Fri Mar 10 00:22:01 2017

Tools Copyright (c) 1996-2015 Texas Instruments Incorporated
tm4c123gh6pm_startup_ccs.asm                                         PAGE   22

    1156 00000024 E7FE              B         ||$C$L16||            ; [DPU_3_PIPE] |451|  ; [ORIG 16-BIT INS]
    1157                            ; BRANCH OCCURS {||$C$L16||}     ; [] |451| 
    1158                    ;* --------------------------------------------------------------------------*
    1159                            .dwattr $C$DW$20, DW_AT_TI_end_file("../tm4c123gh6pm_startup_ccs.c")
    1160                            .dwattr $C$DW$20, DW_AT_TI_end_line(0x1c3)
    1161                            .dwattr $C$DW$20, DW_AT_TI_end_column(0x24)
    1162                            .dwendentry
    1163                            .dwendtag $C$DW$20
    1164                    
    1165 00000026                   .sect   ".text"
    1166                            .clink
    1167                            .thumbfunc PWM0Fault_Handler
    1168 00000026                   .thumb
    1169                            .weak   PWM0Fault_Handler
    1170                    
    1171                    $C$DW$21        .dwtag  DW_TAG_subprogram
    1172                            .dwattr $C$DW$21, DW_AT_name("PWM0Fault_Handler")
    1173                            .dwattr $C$DW$21, DW_AT_low_pc(PWM0Fault_Handler)
    1174                            .dwattr $C$DW$21, DW_AT_high_pc(0x00)
    1175                            .dwattr $C$DW$21, DW_AT_TI_symbol_name("PWM0Fault_Handler")
    1176                            .dwattr $C$DW$21, DW_AT_external
    1177                            .dwattr $C$DW$21, DW_AT_TI_begin_file("../tm4c123gh6pm_startup_ccs.c")
    1178                            .dwattr $C$DW$21, DW_AT_TI_begin_line(0x1c4)
    1179                            .dwattr $C$DW$21, DW_AT_TI_begin_column(0x06)
    1180                            .dwattr $C$DW$21, DW_AT_decl_file("../tm4c123gh6pm_startup_ccs.c")
    1181                            .dwattr $C$DW$21, DW_AT_decl_line(0x1c4)
    1182                            .dwattr $C$DW$21, DW_AT_decl_column(0x06)
    1183                            .dwattr $C$DW$21, DW_AT_TI_max_frame_size(0x00)
    1184                            .dwpsn  file "../tm4c123gh6pm_startup_ccs.c",line 452,column 29,is_stmt,address PWM0Fault_Hand
    1185                    
    1186                            .dwfde $C$DW$CIE, PWM0Fault_Handler
    1187                    
    1188                    ;*****************************************************************************
    1189                    ;* FUNCTION NAME: PWM0Fault_Handler                                          *
    1190                    ;*                                                                           *
    1191                    ;*   Regs Modified     :                                                     *
    1192                    ;*   Regs Used         : LR                                                  *
    1193                    ;*   Local Frame Size  : 0 Args + 0 Auto + 0 Save = 0 byte                   *
    1194                    ;*****************************************************************************
    1195 00000026           PWM0Fault_Handler:
    1196                    ;* --------------------------------------------------------------------------*
    1197                            .dwcfi  cfa_offset, 0
    1198                            .dwpsn  file "../tm4c123gh6pm_startup_ccs.c",line 452,column 37,is_stmt,isa 1
    1199                    ;----------------------------------------------------------------------
    1200                    ; 452 | void PWM0Fault_Handler(void){ while(1){}}          // PWM 0 Fault      
    1201                    ;----------------------------------------------------------------------
    1202                    ;* --------------------------------------------------------------------------*
    1203                    ;*   BEGIN LOOP ||$C$L17||
    1204                    ;*
    1205                    ;*   Loop source line                : 452
    1206                    ;*   Loop closing brace source line  : 452
    1207                    ;*   Known Minimum Trip Count        : 1
    1208                    ;*   Known Maximum Trip Count        : 4294967295
    1209                    ;*   Known Max Trip Count Factor     : 1
    1210                    ;* --------------------------------------------------------------------------*
TI ARM Assembler PC v16.9.0 Fri Mar 10 00:22:01 2017

Tools Copyright (c) 1996-2015 Texas Instruments Incorporated
tm4c123gh6pm_startup_ccs.asm                                         PAGE   23

    1211 00000026           ||$C$L17||:    
    1212 00000026 E7FE              B         ||$C$L17||            ; [DPU_3_PIPE] |452|  ; [ORIG 16-BIT INS]
    1213                            ; BRANCH OCCURS {||$C$L17||}     ; [] |452| 
    1214                    ;* --------------------------------------------------------------------------*
    1215                            .dwattr $C$DW$21, DW_AT_TI_end_file("../tm4c123gh6pm_startup_ccs.c")
    1216                            .dwattr $C$DW$21, DW_AT_TI_end_line(0x1c4)
    1217                            .dwattr $C$DW$21, DW_AT_TI_end_column(0x29)
    1218                            .dwendentry
    1219                            .dwendtag $C$DW$21
    1220                    
    1221 00000028                   .sect   ".text"
    1222                            .clink
    1223                            .thumbfunc PWM0Generator0_Handler
    1224 00000028                   .thumb
    1225                            .weak   PWM0Generator0_Handler
    1226                    
    1227                    $C$DW$22        .dwtag  DW_TAG_subprogram
    1228                            .dwattr $C$DW$22, DW_AT_name("PWM0Generator0_Handler")
    1229                            .dwattr $C$DW$22, DW_AT_low_pc(PWM0Generator0_Handler)
    1230                            .dwattr $C$DW$22, DW_AT_high_pc(0x00)
    1231                            .dwattr $C$DW$22, DW_AT_TI_symbol_name("PWM0Generator0_Handler")
    1232                            .dwattr $C$DW$22, DW_AT_external
    1233                            .dwattr $C$DW$22, DW_AT_TI_begin_file("../tm4c123gh6pm_startup_ccs.c")
    1234                            .dwattr $C$DW$22, DW_AT_TI_begin_line(0x1c5)
    1235                            .dwattr $C$DW$22, DW_AT_TI_begin_column(0x06)
    1236                            .dwattr $C$DW$22, DW_AT_decl_file("../tm4c123gh6pm_startup_ccs.c")
    1237                            .dwattr $C$DW$22, DW_AT_decl_line(0x1c5)
    1238                            .dwattr $C$DW$22, DW_AT_decl_column(0x06)
    1239                            .dwattr $C$DW$22, DW_AT_TI_max_frame_size(0x00)
    1240                            .dwpsn  file "../tm4c123gh6pm_startup_ccs.c",line 453,column 34,is_stmt,address PWM0Generator0
    1241                    
    1242                            .dwfde $C$DW$CIE, PWM0Generator0_Handler
    1243                    
    1244                    ;*****************************************************************************
    1245                    ;* FUNCTION NAME: PWM0Generator0_Handler                                     *
    1246                    ;*                                                                           *
    1247                    ;*   Regs Modified     :                                                     *
    1248                    ;*   Regs Used         : LR                                                  *
    1249                    ;*   Local Frame Size  : 0 Args + 0 Auto + 0 Save = 0 byte                   *
    1250                    ;*****************************************************************************
    1251 00000028           PWM0Generator0_Handler:
    1252                    ;* --------------------------------------------------------------------------*
    1253                            .dwcfi  cfa_offset, 0
    1254                            .dwpsn  file "../tm4c123gh6pm_startup_ccs.c",line 453,column 42,is_stmt,isa 1
    1255                    ;----------------------------------------------------------------------
    1256                    ; 453 | void PWM0Generator0_Handler(void){ while(1){}}     // PWM 0 Generator 0
    1257                    ;----------------------------------------------------------------------
    1258                    ;* --------------------------------------------------------------------------*
    1259                    ;*   BEGIN LOOP ||$C$L18||
    1260                    ;*
    1261                    ;*   Loop source line                : 453
    1262                    ;*   Loop closing brace source line  : 453
    1263                    ;*   Known Minimum Trip Count        : 1
    1264                    ;*   Known Maximum Trip Count        : 4294967295
    1265                    ;*   Known Max Trip Count Factor     : 1
TI ARM Assembler PC v16.9.0 Fri Mar 10 00:22:01 2017

Tools Copyright (c) 1996-2015 Texas Instruments Incorporated
tm4c123gh6pm_startup_ccs.asm                                         PAGE   24

    1266                    ;* --------------------------------------------------------------------------*
    1267 00000028           ||$C$L18||:    
    1268 00000028 E7FE              B         ||$C$L18||            ; [DPU_3_PIPE] |453|  ; [ORIG 16-BIT INS]
    1269                            ; BRANCH OCCURS {||$C$L18||}     ; [] |453| 
    1270                    ;* --------------------------------------------------------------------------*
    1271                            .dwattr $C$DW$22, DW_AT_TI_end_file("../tm4c123gh6pm_startup_ccs.c")
    1272                            .dwattr $C$DW$22, DW_AT_TI_end_line(0x1c5)
    1273                            .dwattr $C$DW$22, DW_AT_TI_end_column(0x2e)
    1274                            .dwendentry
    1275                            .dwendtag $C$DW$22
    1276                    
    1277 0000002a                   .sect   ".text"
    1278                            .clink
    1279                            .thumbfunc PWM0Generator1_Handler
    1280 0000002a                   .thumb
    1281                            .weak   PWM0Generator1_Handler
    1282                    
    1283                    $C$DW$23        .dwtag  DW_TAG_subprogram
    1284                            .dwattr $C$DW$23, DW_AT_name("PWM0Generator1_Handler")
    1285                            .dwattr $C$DW$23, DW_AT_low_pc(PWM0Generator1_Handler)
    1286                            .dwattr $C$DW$23, DW_AT_high_pc(0x00)
    1287                            .dwattr $C$DW$23, DW_AT_TI_symbol_name("PWM0Generator1_Handler")
    1288                            .dwattr $C$DW$23, DW_AT_external
    1289                            .dwattr $C$DW$23, DW_AT_TI_begin_file("../tm4c123gh6pm_startup_ccs.c")
    1290                            .dwattr $C$DW$23, DW_AT_TI_begin_line(0x1c6)
    1291                            .dwattr $C$DW$23, DW_AT_TI_begin_column(0x06)
    1292                            .dwattr $C$DW$23, DW_AT_decl_file("../tm4c123gh6pm_startup_ccs.c")
    1293                            .dwattr $C$DW$23, DW_AT_decl_line(0x1c6)
    1294                            .dwattr $C$DW$23, DW_AT_decl_column(0x06)
    1295                            .dwattr $C$DW$23, DW_AT_TI_max_frame_size(0x00)
    1296                            .dwpsn  file "../tm4c123gh6pm_startup_ccs.c",line 454,column 34,is_stmt,address PWM0Generator1
    1297                    
    1298                            .dwfde $C$DW$CIE, PWM0Generator1_Handler
    1299                    
    1300                    ;*****************************************************************************
    1301                    ;* FUNCTION NAME: PWM0Generator1_Handler                                     *
    1302                    ;*                                                                           *
    1303                    ;*   Regs Modified     :                                                     *
    1304                    ;*   Regs Used         : LR                                                  *
    1305                    ;*   Local Frame Size  : 0 Args + 0 Auto + 0 Save = 0 byte                   *
    1306                    ;*****************************************************************************
    1307 0000002a           PWM0Generator1_Handler:
    1308                    ;* --------------------------------------------------------------------------*
    1309                            .dwcfi  cfa_offset, 0
    1310                            .dwpsn  file "../tm4c123gh6pm_startup_ccs.c",line 454,column 42,is_stmt,isa 1
    1311                    ;----------------------------------------------------------------------
    1312                    ; 454 | void PWM0Generator1_Handler(void){ while(1){}}     // PWM 0 Generator 1
    1313                    ;----------------------------------------------------------------------
    1314                    ;* --------------------------------------------------------------------------*
    1315                    ;*   BEGIN LOOP ||$C$L19||
    1316                    ;*
    1317                    ;*   Loop source line                : 454
    1318                    ;*   Loop closing brace source line  : 454
    1319                    ;*   Known Minimum Trip Count        : 1
    1320                    ;*   Known Maximum Trip Count        : 4294967295
TI ARM Assembler PC v16.9.0 Fri Mar 10 00:22:01 2017

Tools Copyright (c) 1996-2015 Texas Instruments Incorporated
tm4c123gh6pm_startup_ccs.asm                                         PAGE   25

    1321                    ;*   Known Max Trip Count Factor     : 1
    1322                    ;* --------------------------------------------------------------------------*
    1323 0000002a           ||$C$L19||:    
    1324 0000002a E7FE              B         ||$C$L19||            ; [DPU_3_PIPE] |454|  ; [ORIG 16-BIT INS]
    1325                            ; BRANCH OCCURS {||$C$L19||}     ; [] |454| 
    1326                    ;* --------------------------------------------------------------------------*
    1327                            .dwattr $C$DW$23, DW_AT_TI_end_file("../tm4c123gh6pm_startup_ccs.c")
    1328                            .dwattr $C$DW$23, DW_AT_TI_end_line(0x1c6)
    1329                            .dwattr $C$DW$23, DW_AT_TI_end_column(0x2e)
    1330                            .dwendentry
    1331                            .dwendtag $C$DW$23
    1332                    
    1333 0000002c                   .sect   ".text"
    1334                            .clink
    1335                            .thumbfunc PWM0Generator2_Handler
    1336 0000002c                   .thumb
    1337                            .weak   PWM0Generator2_Handler
    1338                    
    1339                    $C$DW$24        .dwtag  DW_TAG_subprogram
    1340                            .dwattr $C$DW$24, DW_AT_name("PWM0Generator2_Handler")
    1341                            .dwattr $C$DW$24, DW_AT_low_pc(PWM0Generator2_Handler)
    1342                            .dwattr $C$DW$24, DW_AT_high_pc(0x00)
    1343                            .dwattr $C$DW$24, DW_AT_TI_symbol_name("PWM0Generator2_Handler")
    1344                            .dwattr $C$DW$24, DW_AT_external
    1345                            .dwattr $C$DW$24, DW_AT_TI_begin_file("../tm4c123gh6pm_startup_ccs.c")
    1346                            .dwattr $C$DW$24, DW_AT_TI_begin_line(0x1c7)
    1347                            .dwattr $C$DW$24, DW_AT_TI_begin_column(0x06)
    1348                            .dwattr $C$DW$24, DW_AT_decl_file("../tm4c123gh6pm_startup_ccs.c")
    1349                            .dwattr $C$DW$24, DW_AT_decl_line(0x1c7)
    1350                            .dwattr $C$DW$24, DW_AT_decl_column(0x06)
    1351                            .dwattr $C$DW$24, DW_AT_TI_max_frame_size(0x00)
    1352                            .dwpsn  file "../tm4c123gh6pm_startup_ccs.c",line 455,column 34,is_stmt,address PWM0Generator2
    1353                    
    1354                            .dwfde $C$DW$CIE, PWM0Generator2_Handler
    1355                    
    1356                    ;*****************************************************************************
    1357                    ;* FUNCTION NAME: PWM0Generator2_Handler                                     *
    1358                    ;*                                                                           *
    1359                    ;*   Regs Modified     :                                                     *
    1360                    ;*   Regs Used         : LR                                                  *
    1361                    ;*   Local Frame Size  : 0 Args + 0 Auto + 0 Save = 0 byte                   *
    1362                    ;*****************************************************************************
    1363 0000002c           PWM0Generator2_Handler:
    1364                    ;* --------------------------------------------------------------------------*
    1365                            .dwcfi  cfa_offset, 0
    1366                            .dwpsn  file "../tm4c123gh6pm_startup_ccs.c",line 455,column 42,is_stmt,isa 1
    1367                    ;----------------------------------------------------------------------
    1368                    ; 455 | void PWM0Generator2_Handler(void){ while(1){}}     // PWM 0 Generator 2
    1369                    ;----------------------------------------------------------------------
    1370                    ;* --------------------------------------------------------------------------*
    1371                    ;*   BEGIN LOOP ||$C$L20||
    1372                    ;*
    1373                    ;*   Loop source line                : 455
    1374                    ;*   Loop closing brace source line  : 455
    1375                    ;*   Known Minimum Trip Count        : 1
TI ARM Assembler PC v16.9.0 Fri Mar 10 00:22:01 2017

Tools Copyright (c) 1996-2015 Texas Instruments Incorporated
tm4c123gh6pm_startup_ccs.asm                                         PAGE   26

    1376                    ;*   Known Maximum Trip Count        : 4294967295
    1377                    ;*   Known Max Trip Count Factor     : 1
    1378                    ;* --------------------------------------------------------------------------*
    1379 0000002c           ||$C$L20||:    
    1380 0000002c E7FE              B         ||$C$L20||            ; [DPU_3_PIPE] |455|  ; [ORIG 16-BIT INS]
    1381                            ; BRANCH OCCURS {||$C$L20||}     ; [] |455| 
    1382                    ;* --------------------------------------------------------------------------*
    1383                            .dwattr $C$DW$24, DW_AT_TI_end_file("../tm4c123gh6pm_startup_ccs.c")
    1384                            .dwattr $C$DW$24, DW_AT_TI_end_line(0x1c7)
    1385                            .dwattr $C$DW$24, DW_AT_TI_end_column(0x2e)
    1386                            .dwendentry
    1387                            .dwendtag $C$DW$24
    1388                    
    1389 0000002e                   .sect   ".text"
    1390                            .clink
    1391                            .thumbfunc Quadrature0_Handler
    1392 0000002e                   .thumb
    1393                            .weak   Quadrature0_Handler
    1394                    
    1395                    $C$DW$25        .dwtag  DW_TAG_subprogram
    1396                            .dwattr $C$DW$25, DW_AT_name("Quadrature0_Handler")
    1397                            .dwattr $C$DW$25, DW_AT_low_pc(Quadrature0_Handler)
    1398                            .dwattr $C$DW$25, DW_AT_high_pc(0x00)
    1399                            .dwattr $C$DW$25, DW_AT_TI_symbol_name("Quadrature0_Handler")
    1400                            .dwattr $C$DW$25, DW_AT_external
    1401                            .dwattr $C$DW$25, DW_AT_TI_begin_file("../tm4c123gh6pm_startup_ccs.c")
    1402                            .dwattr $C$DW$25, DW_AT_TI_begin_line(0x1c8)
    1403                            .dwattr $C$DW$25, DW_AT_TI_begin_column(0x06)
    1404                            .dwattr $C$DW$25, DW_AT_decl_file("../tm4c123gh6pm_startup_ccs.c")
    1405                            .dwattr $C$DW$25, DW_AT_decl_line(0x1c8)
    1406                            .dwattr $C$DW$25, DW_AT_decl_column(0x06)
    1407                            .dwattr $C$DW$25, DW_AT_TI_max_frame_size(0x00)
    1408                            .dwpsn  file "../tm4c123gh6pm_startup_ccs.c",line 456,column 31,is_stmt,address Quadrature0_Ha
    1409                    
    1410                            .dwfde $C$DW$CIE, Quadrature0_Handler
    1411                    
    1412                    ;*****************************************************************************
    1413                    ;* FUNCTION NAME: Quadrature0_Handler                                        *
    1414                    ;*                                                                           *
    1415                    ;*   Regs Modified     :                                                     *
    1416                    ;*   Regs Used         : LR                                                  *
    1417                    ;*   Local Frame Size  : 0 Args + 0 Auto + 0 Save = 0 byte                   *
    1418                    ;*****************************************************************************
    1419 0000002e           Quadrature0_Handler:
    1420                    ;* --------------------------------------------------------------------------*
    1421                            .dwcfi  cfa_offset, 0
    1422                            .dwpsn  file "../tm4c123gh6pm_startup_ccs.c",line 456,column 39,is_stmt,isa 1
    1423                    ;----------------------------------------------------------------------
    1424                    ; 456 | void Quadrature0_Handler(void){ while(1){}}        // Quadrature Encode
    1425                    ;     | r 0                                                                    
    1426                    ;----------------------------------------------------------------------
    1427                    ;* --------------------------------------------------------------------------*
    1428                    ;*   BEGIN LOOP ||$C$L21||
    1429                    ;*
    1430                    ;*   Loop source line                : 456
TI ARM Assembler PC v16.9.0 Fri Mar 10 00:22:01 2017

Tools Copyright (c) 1996-2015 Texas Instruments Incorporated
tm4c123gh6pm_startup_ccs.asm                                         PAGE   27

    1431                    ;*   Loop closing brace source line  : 456
    1432                    ;*   Known Minimum Trip Count        : 1
    1433                    ;*   Known Maximum Trip Count        : 4294967295
    1434                    ;*   Known Max Trip Count Factor     : 1
    1435                    ;* --------------------------------------------------------------------------*
    1436 0000002e           ||$C$L21||:    
    1437 0000002e E7FE              B         ||$C$L21||            ; [DPU_3_PIPE] |456|  ; [ORIG 16-BIT INS]
    1438                            ; BRANCH OCCURS {||$C$L21||}     ; [] |456| 
    1439                    ;* --------------------------------------------------------------------------*
    1440                            .dwattr $C$DW$25, DW_AT_TI_end_file("../tm4c123gh6pm_startup_ccs.c")
    1441                            .dwattr $C$DW$25, DW_AT_TI_end_line(0x1c8)
    1442                            .dwattr $C$DW$25, DW_AT_TI_end_column(0x2b)
    1443                            .dwendentry
    1444                            .dwendtag $C$DW$25
    1445                    
    1446 00000030                   .sect   ".text"
    1447                            .clink
    1448                            .thumbfunc ADC0Seq0_Handler
    1449 00000030                   .thumb
    1450                            .weak   ADC0Seq0_Handler
    1451                    
    1452                    $C$DW$26        .dwtag  DW_TAG_subprogram
    1453                            .dwattr $C$DW$26, DW_AT_name("ADC0Seq0_Handler")
    1454                            .dwattr $C$DW$26, DW_AT_low_pc(ADC0Seq0_Handler)
    1455                            .dwattr $C$DW$26, DW_AT_high_pc(0x00)
    1456                            .dwattr $C$DW$26, DW_AT_TI_symbol_name("ADC0Seq0_Handler")
    1457                            .dwattr $C$DW$26, DW_AT_external
    1458                            .dwattr $C$DW$26, DW_AT_TI_begin_file("../tm4c123gh6pm_startup_ccs.c")
    1459                            .dwattr $C$DW$26, DW_AT_TI_begin_line(0x1c9)
    1460                            .dwattr $C$DW$26, DW_AT_TI_begin_column(0x06)
    1461                            .dwattr $C$DW$26, DW_AT_decl_file("../tm4c123gh6pm_startup_ccs.c")
    1462                            .dwattr $C$DW$26, DW_AT_decl_line(0x1c9)
    1463                            .dwattr $C$DW$26, DW_AT_decl_column(0x06)
    1464                            .dwattr $C$DW$26, DW_AT_TI_max_frame_size(0x00)
    1465                            .dwpsn  file "../tm4c123gh6pm_startup_ccs.c",line 457,column 28,is_stmt,address ADC0Seq0_Handl
    1466                    
    1467                            .dwfde $C$DW$CIE, ADC0Seq0_Handler
    1468                    
    1469                    ;*****************************************************************************
    1470                    ;* FUNCTION NAME: ADC0Seq0_Handler                                           *
    1471                    ;*                                                                           *
    1472                    ;*   Regs Modified     :                                                     *
    1473                    ;*   Regs Used         : LR                                                  *
    1474                    ;*   Local Frame Size  : 0 Args + 0 Auto + 0 Save = 0 byte                   *
    1475                    ;*****************************************************************************
    1476 00000030           ADC0Seq0_Handler:
    1477                    ;* --------------------------------------------------------------------------*
    1478                            .dwcfi  cfa_offset, 0
    1479                            .dwpsn  file "../tm4c123gh6pm_startup_ccs.c",line 457,column 36,is_stmt,isa 1
    1480                    ;----------------------------------------------------------------------
    1481                    ; 457 | void ADC0Seq0_Handler(void){ while(1){}}           // ADC0 Sequence 0  
    1482                    ;----------------------------------------------------------------------
    1483                    ;* --------------------------------------------------------------------------*
    1484                    ;*   BEGIN LOOP ||$C$L22||
    1485                    ;*
TI ARM Assembler PC v16.9.0 Fri Mar 10 00:22:01 2017

Tools Copyright (c) 1996-2015 Texas Instruments Incorporated
tm4c123gh6pm_startup_ccs.asm                                         PAGE   28

    1486                    ;*   Loop source line                : 457
    1487                    ;*   Loop closing brace source line  : 457
    1488                    ;*   Known Minimum Trip Count        : 1
    1489                    ;*   Known Maximum Trip Count        : 4294967295
    1490                    ;*   Known Max Trip Count Factor     : 1
    1491                    ;* --------------------------------------------------------------------------*
    1492 00000030           ||$C$L22||:    
    1493 00000030 E7FE              B         ||$C$L22||            ; [DPU_3_PIPE] |457|  ; [ORIG 16-BIT INS]
    1494                            ; BRANCH OCCURS {||$C$L22||}     ; [] |457| 
    1495                    ;* --------------------------------------------------------------------------*
    1496                            .dwattr $C$DW$26, DW_AT_TI_end_file("../tm4c123gh6pm_startup_ccs.c")
    1497                            .dwattr $C$DW$26, DW_AT_TI_end_line(0x1c9)
    1498                            .dwattr $C$DW$26, DW_AT_TI_end_column(0x28)
    1499                            .dwendentry
    1500                            .dwendtag $C$DW$26
    1501                    
    1502 00000032                   .sect   ".text"
    1503                            .clink
    1504                            .thumbfunc ADC0Seq1_Handler
    1505 00000032                   .thumb
    1506                            .weak   ADC0Seq1_Handler
    1507                    
    1508                    $C$DW$27        .dwtag  DW_TAG_subprogram
    1509                            .dwattr $C$DW$27, DW_AT_name("ADC0Seq1_Handler")
    1510                            .dwattr $C$DW$27, DW_AT_low_pc(ADC0Seq1_Handler)
    1511                            .dwattr $C$DW$27, DW_AT_high_pc(0x00)
    1512                            .dwattr $C$DW$27, DW_AT_TI_symbol_name("ADC0Seq1_Handler")
    1513                            .dwattr $C$DW$27, DW_AT_external
    1514                            .dwattr $C$DW$27, DW_AT_TI_begin_file("../tm4c123gh6pm_startup_ccs.c")
    1515                            .dwattr $C$DW$27, DW_AT_TI_begin_line(0x1ca)
    1516                            .dwattr $C$DW$27, DW_AT_TI_begin_column(0x06)
    1517                            .dwattr $C$DW$27, DW_AT_decl_file("../tm4c123gh6pm_startup_ccs.c")
    1518                            .dwattr $C$DW$27, DW_AT_decl_line(0x1ca)
    1519                            .dwattr $C$DW$27, DW_AT_decl_column(0x06)
    1520                            .dwattr $C$DW$27, DW_AT_TI_max_frame_size(0x00)
    1521                            .dwpsn  file "../tm4c123gh6pm_startup_ccs.c",line 458,column 28,is_stmt,address ADC0Seq1_Handl
    1522                    
    1523                            .dwfde $C$DW$CIE, ADC0Seq1_Handler
    1524                    
    1525                    ;*****************************************************************************
    1526                    ;* FUNCTION NAME: ADC0Seq1_Handler                                           *
    1527                    ;*                                                                           *
    1528                    ;*   Regs Modified     :                                                     *
    1529                    ;*   Regs Used         : LR                                                  *
    1530                    ;*   Local Frame Size  : 0 Args + 0 Auto + 0 Save = 0 byte                   *
    1531                    ;*****************************************************************************
    1532 00000032           ADC0Seq1_Handler:
    1533                    ;* --------------------------------------------------------------------------*
    1534                            .dwcfi  cfa_offset, 0
    1535                            .dwpsn  file "../tm4c123gh6pm_startup_ccs.c",line 458,column 36,is_stmt,isa 1
    1536                    ;----------------------------------------------------------------------
    1537                    ; 458 | void ADC0Seq1_Handler(void){ while(1){}}           // ADC0 Sequence 1  
    1538                    ;----------------------------------------------------------------------
    1539                    ;* --------------------------------------------------------------------------*
    1540                    ;*   BEGIN LOOP ||$C$L23||
TI ARM Assembler PC v16.9.0 Fri Mar 10 00:22:01 2017

Tools Copyright (c) 1996-2015 Texas Instruments Incorporated
tm4c123gh6pm_startup_ccs.asm                                         PAGE   29

    1541                    ;*
    1542                    ;*   Loop source line                : 458
    1543                    ;*   Loop closing brace source line  : 458
    1544                    ;*   Known Minimum Trip Count        : 1
    1545                    ;*   Known Maximum Trip Count        : 4294967295
    1546                    ;*   Known Max Trip Count Factor     : 1
    1547                    ;* --------------------------------------------------------------------------*
    1548 00000032           ||$C$L23||:    
    1549 00000032 E7FE              B         ||$C$L23||            ; [DPU_3_PIPE] |458|  ; [ORIG 16-BIT INS]
    1550                            ; BRANCH OCCURS {||$C$L23||}     ; [] |458| 
    1551                    ;* --------------------------------------------------------------------------*
    1552                            .dwattr $C$DW$27, DW_AT_TI_end_file("../tm4c123gh6pm_startup_ccs.c")
    1553                            .dwattr $C$DW$27, DW_AT_TI_end_line(0x1ca)
    1554                            .dwattr $C$DW$27, DW_AT_TI_end_column(0x28)
    1555                            .dwendentry
    1556                            .dwendtag $C$DW$27
    1557                    
    1558 00000034                   .sect   ".text"
    1559                            .clink
    1560                            .thumbfunc ADC0Seq2_Handler
    1561 00000034                   .thumb
    1562                            .weak   ADC0Seq2_Handler
    1563                    
    1564                    $C$DW$28        .dwtag  DW_TAG_subprogram
    1565                            .dwattr $C$DW$28, DW_AT_name("ADC0Seq2_Handler")
    1566                            .dwattr $C$DW$28, DW_AT_low_pc(ADC0Seq2_Handler)
    1567                            .dwattr $C$DW$28, DW_AT_high_pc(0x00)
    1568                            .dwattr $C$DW$28, DW_AT_TI_symbol_name("ADC0Seq2_Handler")
    1569                            .dwattr $C$DW$28, DW_AT_external
    1570                            .dwattr $C$DW$28, DW_AT_TI_begin_file("../tm4c123gh6pm_startup_ccs.c")
    1571                            .dwattr $C$DW$28, DW_AT_TI_begin_line(0x1cb)
    1572                            .dwattr $C$DW$28, DW_AT_TI_begin_column(0x06)
    1573                            .dwattr $C$DW$28, DW_AT_decl_file("../tm4c123gh6pm_startup_ccs.c")
    1574                            .dwattr $C$DW$28, DW_AT_decl_line(0x1cb)
    1575                            .dwattr $C$DW$28, DW_AT_decl_column(0x06)
    1576                            .dwattr $C$DW$28, DW_AT_TI_max_frame_size(0x00)
    1577                            .dwpsn  file "../tm4c123gh6pm_startup_ccs.c",line 459,column 28,is_stmt,address ADC0Seq2_Handl
    1578                    
    1579                            .dwfde $C$DW$CIE, ADC0Seq2_Handler
    1580                    
    1581                    ;*****************************************************************************
    1582                    ;* FUNCTION NAME: ADC0Seq2_Handler                                           *
    1583                    ;*                                                                           *
    1584                    ;*   Regs Modified     :                                                     *
    1585                    ;*   Regs Used         : LR                                                  *
    1586                    ;*   Local Frame Size  : 0 Args + 0 Auto + 0 Save = 0 byte                   *
    1587                    ;*****************************************************************************
    1588 00000034           ADC0Seq2_Handler:
    1589                    ;* --------------------------------------------------------------------------*
    1590                            .dwcfi  cfa_offset, 0
    1591                            .dwpsn  file "../tm4c123gh6pm_startup_ccs.c",line 459,column 36,is_stmt,isa 1
    1592                    ;----------------------------------------------------------------------
    1593                    ; 459 | void ADC0Seq2_Handler(void){ while(1){}}           // ADC0 Sequence 2  
    1594                    ;----------------------------------------------------------------------
    1595                    ;* --------------------------------------------------------------------------*
TI ARM Assembler PC v16.9.0 Fri Mar 10 00:22:01 2017

Tools Copyright (c) 1996-2015 Texas Instruments Incorporated
tm4c123gh6pm_startup_ccs.asm                                         PAGE   30

    1596                    ;*   BEGIN LOOP ||$C$L24||
    1597                    ;*
    1598                    ;*   Loop source line                : 459
    1599                    ;*   Loop closing brace source line  : 459
    1600                    ;*   Known Minimum Trip Count        : 1
    1601                    ;*   Known Maximum Trip Count        : 4294967295
    1602                    ;*   Known Max Trip Count Factor     : 1
    1603                    ;* --------------------------------------------------------------------------*
    1604 00000034           ||$C$L24||:    
    1605 00000034 E7FE              B         ||$C$L24||            ; [DPU_3_PIPE] |459|  ; [ORIG 16-BIT INS]
    1606                            ; BRANCH OCCURS {||$C$L24||}     ; [] |459| 
    1607                    ;* --------------------------------------------------------------------------*
    1608                            .dwattr $C$DW$28, DW_AT_TI_end_file("../tm4c123gh6pm_startup_ccs.c")
    1609                            .dwattr $C$DW$28, DW_AT_TI_end_line(0x1cb)
    1610                            .dwattr $C$DW$28, DW_AT_TI_end_column(0x28)
    1611                            .dwendentry
    1612                            .dwendtag $C$DW$28
    1613                    
    1614 00000036                   .sect   ".text"
    1615                            .clink
    1616                            .thumbfunc ADC0Seq3_Handler
    1617 00000036                   .thumb
    1618                            .weak   ADC0Seq3_Handler
    1619                    
    1620                    $C$DW$29        .dwtag  DW_TAG_subprogram
    1621                            .dwattr $C$DW$29, DW_AT_name("ADC0Seq3_Handler")
    1622                            .dwattr $C$DW$29, DW_AT_low_pc(ADC0Seq3_Handler)
    1623                            .dwattr $C$DW$29, DW_AT_high_pc(0x00)
    1624                            .dwattr $C$DW$29, DW_AT_TI_symbol_name("ADC0Seq3_Handler")
    1625                            .dwattr $C$DW$29, DW_AT_external
    1626                            .dwattr $C$DW$29, DW_AT_TI_begin_file("../tm4c123gh6pm_startup_ccs.c")
    1627                            .dwattr $C$DW$29, DW_AT_TI_begin_line(0x1cc)
    1628                            .dwattr $C$DW$29, DW_AT_TI_begin_column(0x06)
    1629                            .dwattr $C$DW$29, DW_AT_decl_file("../tm4c123gh6pm_startup_ccs.c")
    1630                            .dwattr $C$DW$29, DW_AT_decl_line(0x1cc)
    1631                            .dwattr $C$DW$29, DW_AT_decl_column(0x06)
    1632                            .dwattr $C$DW$29, DW_AT_TI_max_frame_size(0x00)
    1633                            .dwpsn  file "../tm4c123gh6pm_startup_ccs.c",line 460,column 28,is_stmt,address ADC0Seq3_Handl
    1634                    
    1635                            .dwfde $C$DW$CIE, ADC0Seq3_Handler
    1636                    
    1637                    ;*****************************************************************************
    1638                    ;* FUNCTION NAME: ADC0Seq3_Handler                                           *
    1639                    ;*                                                                           *
    1640                    ;*   Regs Modified     :                                                     *
    1641                    ;*   Regs Used         : LR                                                  *
    1642                    ;*   Local Frame Size  : 0 Args + 0 Auto + 0 Save = 0 byte                   *
    1643                    ;*****************************************************************************
    1644 00000036           ADC0Seq3_Handler:
    1645                    ;* --------------------------------------------------------------------------*
    1646                            .dwcfi  cfa_offset, 0
    1647                            .dwpsn  file "../tm4c123gh6pm_startup_ccs.c",line 460,column 36,is_stmt,isa 1
    1648                    ;----------------------------------------------------------------------
    1649                    ; 460 | void ADC0Seq3_Handler(void){ while(1){}}           // ADC0 Sequence 3  
    1650                    ;----------------------------------------------------------------------
TI ARM Assembler PC v16.9.0 Fri Mar 10 00:22:01 2017

Tools Copyright (c) 1996-2015 Texas Instruments Incorporated
tm4c123gh6pm_startup_ccs.asm                                         PAGE   31

    1651                    ;* --------------------------------------------------------------------------*
    1652                    ;*   BEGIN LOOP ||$C$L25||
    1653                    ;*
    1654                    ;*   Loop source line                : 460
    1655                    ;*   Loop closing brace source line  : 460
    1656                    ;*   Known Minimum Trip Count        : 1
    1657                    ;*   Known Maximum Trip Count        : 4294967295
    1658                    ;*   Known Max Trip Count Factor     : 1
    1659                    ;* --------------------------------------------------------------------------*
    1660 00000036           ||$C$L25||:    
    1661 00000036 E7FE              B         ||$C$L25||            ; [DPU_3_PIPE] |460|  ; [ORIG 16-BIT INS]
    1662                            ; BRANCH OCCURS {||$C$L25||}     ; [] |460| 
    1663                    ;* --------------------------------------------------------------------------*
    1664                            .dwattr $C$DW$29, DW_AT_TI_end_file("../tm4c123gh6pm_startup_ccs.c")
    1665                            .dwattr $C$DW$29, DW_AT_TI_end_line(0x1cc)
    1666                            .dwattr $C$DW$29, DW_AT_TI_end_column(0x28)
    1667                            .dwendentry
    1668                            .dwendtag $C$DW$29
    1669                    
    1670 00000038                   .sect   ".text"
    1671                            .clink
    1672                            .thumbfunc WDT_Handler
    1673 00000038                   .thumb
    1674                            .weak   WDT_Handler
    1675                    
    1676                    $C$DW$30        .dwtag  DW_TAG_subprogram
    1677                            .dwattr $C$DW$30, DW_AT_name("WDT_Handler")
    1678                            .dwattr $C$DW$30, DW_AT_low_pc(WDT_Handler)
    1679                            .dwattr $C$DW$30, DW_AT_high_pc(0x00)
    1680                            .dwattr $C$DW$30, DW_AT_TI_symbol_name("WDT_Handler")
    1681                            .dwattr $C$DW$30, DW_AT_external
    1682                            .dwattr $C$DW$30, DW_AT_TI_begin_file("../tm4c123gh6pm_startup_ccs.c")
    1683                            .dwattr $C$DW$30, DW_AT_TI_begin_line(0x1cd)
    1684                            .dwattr $C$DW$30, DW_AT_TI_begin_column(0x06)
    1685                            .dwattr $C$DW$30, DW_AT_decl_file("../tm4c123gh6pm_startup_ccs.c")
    1686                            .dwattr $C$DW$30, DW_AT_decl_line(0x1cd)
    1687                            .dwattr $C$DW$30, DW_AT_decl_column(0x06)
    1688                            .dwattr $C$DW$30, DW_AT_TI_max_frame_size(0x00)
    1689                            .dwpsn  file "../tm4c123gh6pm_startup_ccs.c",line 461,column 23,is_stmt,address WDT_Handler,is
    1690                    
    1691                            .dwfde $C$DW$CIE, WDT_Handler
    1692                    
    1693                    ;*****************************************************************************
    1694                    ;* FUNCTION NAME: WDT_Handler                                                *
    1695                    ;*                                                                           *
    1696                    ;*   Regs Modified     :                                                     *
    1697                    ;*   Regs Used         : LR                                                  *
    1698                    ;*   Local Frame Size  : 0 Args + 0 Auto + 0 Save = 0 byte                   *
    1699                    ;*****************************************************************************
    1700 00000038           WDT_Handler:
    1701                    ;* --------------------------------------------------------------------------*
    1702                            .dwcfi  cfa_offset, 0
    1703                            .dwpsn  file "../tm4c123gh6pm_startup_ccs.c",line 461,column 31,is_stmt,isa 1
    1704                    ;----------------------------------------------------------------------
    1705                    ; 461 | void WDT_Handler(void){ while(1){}}                // Watchdog         
TI ARM Assembler PC v16.9.0 Fri Mar 10 00:22:01 2017

Tools Copyright (c) 1996-2015 Texas Instruments Incorporated
tm4c123gh6pm_startup_ccs.asm                                         PAGE   32

    1706                    ;----------------------------------------------------------------------
    1707                    ;* --------------------------------------------------------------------------*
    1708                    ;*   BEGIN LOOP ||$C$L26||
    1709                    ;*
    1710                    ;*   Loop source line                : 461
    1711                    ;*   Loop closing brace source line  : 461
    1712                    ;*   Known Minimum Trip Count        : 1
    1713                    ;*   Known Maximum Trip Count        : 4294967295
    1714                    ;*   Known Max Trip Count Factor     : 1
    1715                    ;* --------------------------------------------------------------------------*
    1716 00000038           ||$C$L26||:    
    1717 00000038 E7FE              B         ||$C$L26||            ; [DPU_3_PIPE] |461|  ; [ORIG 16-BIT INS]
    1718                            ; BRANCH OCCURS {||$C$L26||}     ; [] |461| 
    1719                    ;* --------------------------------------------------------------------------*
    1720                            .dwattr $C$DW$30, DW_AT_TI_end_file("../tm4c123gh6pm_startup_ccs.c")
    1721                            .dwattr $C$DW$30, DW_AT_TI_end_line(0x1cd)
    1722                            .dwattr $C$DW$30, DW_AT_TI_end_column(0x23)
    1723                            .dwendentry
    1724                            .dwendtag $C$DW$30
    1725                    
    1726 0000003a                   .sect   ".text"
    1727                            .clink
    1728                            .thumbfunc Timer0A_Handler
    1729 0000003a                   .thumb
    1730                            .weak   Timer0A_Handler
    1731                    
    1732                    $C$DW$31        .dwtag  DW_TAG_subprogram
    1733                            .dwattr $C$DW$31, DW_AT_name("Timer0A_Handler")
    1734                            .dwattr $C$DW$31, DW_AT_low_pc(Timer0A_Handler)
    1735                            .dwattr $C$DW$31, DW_AT_high_pc(0x00)
    1736                            .dwattr $C$DW$31, DW_AT_TI_symbol_name("Timer0A_Handler")
    1737                            .dwattr $C$DW$31, DW_AT_external
    1738                            .dwattr $C$DW$31, DW_AT_TI_begin_file("../tm4c123gh6pm_startup_ccs.c")
    1739                            .dwattr $C$DW$31, DW_AT_TI_begin_line(0x1ce)
    1740                            .dwattr $C$DW$31, DW_AT_TI_begin_column(0x06)
    1741                            .dwattr $C$DW$31, DW_AT_decl_file("../tm4c123gh6pm_startup_ccs.c")
    1742                            .dwattr $C$DW$31, DW_AT_decl_line(0x1ce)
    1743                            .dwattr $C$DW$31, DW_AT_decl_column(0x06)
    1744                            .dwattr $C$DW$31, DW_AT_TI_max_frame_size(0x00)
    1745                            .dwpsn  file "../tm4c123gh6pm_startup_ccs.c",line 462,column 27,is_stmt,address Timer0A_Handle
    1746                    
    1747                            .dwfde $C$DW$CIE, Timer0A_Handler
    1748                    
    1749                    ;*****************************************************************************
    1750                    ;* FUNCTION NAME: Timer0A_Handler                                            *
    1751                    ;*                                                                           *
    1752                    ;*   Regs Modified     :                                                     *
    1753                    ;*   Regs Used         : LR                                                  *
    1754                    ;*   Local Frame Size  : 0 Args + 0 Auto + 0 Save = 0 byte                   *
    1755                    ;*****************************************************************************
    1756 0000003a           Timer0A_Handler:
    1757                    ;* --------------------------------------------------------------------------*
    1758                            .dwcfi  cfa_offset, 0
    1759                            .dwpsn  file "../tm4c123gh6pm_startup_ccs.c",line 462,column 35,is_stmt,isa 1
    1760                    ;----------------------------------------------------------------------
TI ARM Assembler PC v16.9.0 Fri Mar 10 00:22:01 2017

Tools Copyright (c) 1996-2015 Texas Instruments Incorporated
tm4c123gh6pm_startup_ccs.asm                                         PAGE   33

    1761                    ; 462 | void Timer0A_Handler(void){ while(1){}}            // Timer 0 subtimer
    1762                    ;     | A                                                                      
    1763                    ;----------------------------------------------------------------------
    1764                    ;* --------------------------------------------------------------------------*
    1765                    ;*   BEGIN LOOP ||$C$L27||
    1766                    ;*
    1767                    ;*   Loop source line                : 462
    1768                    ;*   Loop closing brace source line  : 462
    1769                    ;*   Known Minimum Trip Count        : 1
    1770                    ;*   Known Maximum Trip Count        : 4294967295
    1771                    ;*   Known Max Trip Count Factor     : 1
    1772                    ;* --------------------------------------------------------------------------*
    1773 0000003a           ||$C$L27||:    
    1774 0000003a E7FE              B         ||$C$L27||            ; [DPU_3_PIPE] |462|  ; [ORIG 16-BIT INS]
    1775                            ; BRANCH OCCURS {||$C$L27||}     ; [] |462| 
    1776                    ;* --------------------------------------------------------------------------*
    1777                            .dwattr $C$DW$31, DW_AT_TI_end_file("../tm4c123gh6pm_startup_ccs.c")
    1778                            .dwattr $C$DW$31, DW_AT_TI_end_line(0x1ce)
    1779                            .dwattr $C$DW$31, DW_AT_TI_end_column(0x27)
    1780                            .dwendentry
    1781                            .dwendtag $C$DW$31
    1782                    
    1783 0000003c                   .sect   ".text"
    1784                            .clink
    1785                            .thumbfunc Timer0B_Handler
    1786 0000003c                   .thumb
    1787                            .weak   Timer0B_Handler
    1788                    
    1789                    $C$DW$32        .dwtag  DW_TAG_subprogram
    1790                            .dwattr $C$DW$32, DW_AT_name("Timer0B_Handler")
    1791                            .dwattr $C$DW$32, DW_AT_low_pc(Timer0B_Handler)
    1792                            .dwattr $C$DW$32, DW_AT_high_pc(0x00)
    1793                            .dwattr $C$DW$32, DW_AT_TI_symbol_name("Timer0B_Handler")
    1794                            .dwattr $C$DW$32, DW_AT_external
    1795                            .dwattr $C$DW$32, DW_AT_TI_begin_file("../tm4c123gh6pm_startup_ccs.c")
    1796                            .dwattr $C$DW$32, DW_AT_TI_begin_line(0x1cf)
    1797                            .dwattr $C$DW$32, DW_AT_TI_begin_column(0x06)
    1798                            .dwattr $C$DW$32, DW_AT_decl_file("../tm4c123gh6pm_startup_ccs.c")
    1799                            .dwattr $C$DW$32, DW_AT_decl_line(0x1cf)
    1800                            .dwattr $C$DW$32, DW_AT_decl_column(0x06)
    1801                            .dwattr $C$DW$32, DW_AT_TI_max_frame_size(0x00)
    1802                            .dwpsn  file "../tm4c123gh6pm_startup_ccs.c",line 463,column 27,is_stmt,address Timer0B_Handle
    1803                    
    1804                            .dwfde $C$DW$CIE, Timer0B_Handler
    1805                    
    1806                    ;*****************************************************************************
    1807                    ;* FUNCTION NAME: Timer0B_Handler                                            *
    1808                    ;*                                                                           *
    1809                    ;*   Regs Modified     :                                                     *
    1810                    ;*   Regs Used         : LR                                                  *
    1811                    ;*   Local Frame Size  : 0 Args + 0 Auto + 0 Save = 0 byte                   *
    1812                    ;*****************************************************************************
    1813 0000003c           Timer0B_Handler:
    1814                    ;* --------------------------------------------------------------------------*
    1815                            .dwcfi  cfa_offset, 0
TI ARM Assembler PC v16.9.0 Fri Mar 10 00:22:01 2017

Tools Copyright (c) 1996-2015 Texas Instruments Incorporated
tm4c123gh6pm_startup_ccs.asm                                         PAGE   34

    1816                            .dwpsn  file "../tm4c123gh6pm_startup_ccs.c",line 463,column 35,is_stmt,isa 1
    1817                    ;----------------------------------------------------------------------
    1818                    ; 463 | void Timer0B_Handler(void){ while(1){}}            // Timer 0 subtimer
    1819                    ;     | B                                                                      
    1820                    ;----------------------------------------------------------------------
    1821                    ;* --------------------------------------------------------------------------*
    1822                    ;*   BEGIN LOOP ||$C$L28||
    1823                    ;*
    1824                    ;*   Loop source line                : 463
    1825                    ;*   Loop closing brace source line  : 463
    1826                    ;*   Known Minimum Trip Count        : 1
    1827                    ;*   Known Maximum Trip Count        : 4294967295
    1828                    ;*   Known Max Trip Count Factor     : 1
    1829                    ;* --------------------------------------------------------------------------*
    1830 0000003c           ||$C$L28||:    
    1831 0000003c E7FE              B         ||$C$L28||            ; [DPU_3_PIPE] |463|  ; [ORIG 16-BIT INS]
    1832                            ; BRANCH OCCURS {||$C$L28||}     ; [] |463| 
    1833                    ;* --------------------------------------------------------------------------*
    1834                            .dwattr $C$DW$32, DW_AT_TI_end_file("../tm4c123gh6pm_startup_ccs.c")
    1835                            .dwattr $C$DW$32, DW_AT_TI_end_line(0x1cf)
    1836                            .dwattr $C$DW$32, DW_AT_TI_end_column(0x27)
    1837                            .dwendentry
    1838                            .dwendtag $C$DW$32
    1839                    
    1840 0000003e                   .sect   ".text"
    1841                            .clink
    1842                            .thumbfunc Timer1A_Handler
    1843 0000003e                   .thumb
    1844                            .weak   Timer1A_Handler
    1845                    
    1846                    $C$DW$33        .dwtag  DW_TAG_subprogram
    1847                            .dwattr $C$DW$33, DW_AT_name("Timer1A_Handler")
    1848                            .dwattr $C$DW$33, DW_AT_low_pc(Timer1A_Handler)
    1849                            .dwattr $C$DW$33, DW_AT_high_pc(0x00)
    1850                            .dwattr $C$DW$33, DW_AT_TI_symbol_name("Timer1A_Handler")
    1851                            .dwattr $C$DW$33, DW_AT_external
    1852                            .dwattr $C$DW$33, DW_AT_TI_begin_file("../tm4c123gh6pm_startup_ccs.c")
    1853                            .dwattr $C$DW$33, DW_AT_TI_begin_line(0x1d0)
    1854                            .dwattr $C$DW$33, DW_AT_TI_begin_column(0x06)
    1855                            .dwattr $C$DW$33, DW_AT_decl_file("../tm4c123gh6pm_startup_ccs.c")
    1856                            .dwattr $C$DW$33, DW_AT_decl_line(0x1d0)
    1857                            .dwattr $C$DW$33, DW_AT_decl_column(0x06)
    1858                            .dwattr $C$DW$33, DW_AT_TI_max_frame_size(0x00)
    1859                            .dwpsn  file "../tm4c123gh6pm_startup_ccs.c",line 464,column 27,is_stmt,address Timer1A_Handle
    1860                    
    1861                            .dwfde $C$DW$CIE, Timer1A_Handler
    1862                    
    1863                    ;*****************************************************************************
    1864                    ;* FUNCTION NAME: Timer1A_Handler                                            *
    1865                    ;*                                                                           *
    1866                    ;*   Regs Modified     :                                                     *
    1867                    ;*   Regs Used         : LR                                                  *
    1868                    ;*   Local Frame Size  : 0 Args + 0 Auto + 0 Save = 0 byte                   *
    1869                    ;*****************************************************************************
    1870 0000003e           Timer1A_Handler:
TI ARM Assembler PC v16.9.0 Fri Mar 10 00:22:01 2017

Tools Copyright (c) 1996-2015 Texas Instruments Incorporated
tm4c123gh6pm_startup_ccs.asm                                         PAGE   35

    1871                    ;* --------------------------------------------------------------------------*
    1872                            .dwcfi  cfa_offset, 0
    1873                            .dwpsn  file "../tm4c123gh6pm_startup_ccs.c",line 464,column 35,is_stmt,isa 1
    1874                    ;----------------------------------------------------------------------
    1875                    ; 464 | void Timer1A_Handler(void){ while(1){}}            // Timer 1 subtimer
    1876                    ;     | A                                                                      
    1877                    ;----------------------------------------------------------------------
    1878                    ;* --------------------------------------------------------------------------*
    1879                    ;*   BEGIN LOOP ||$C$L29||
    1880                    ;*
    1881                    ;*   Loop source line                : 464
    1882                    ;*   Loop closing brace source line  : 464
    1883                    ;*   Known Minimum Trip Count        : 1
    1884                    ;*   Known Maximum Trip Count        : 4294967295
    1885                    ;*   Known Max Trip Count Factor     : 1
    1886                    ;* --------------------------------------------------------------------------*
    1887 0000003e           ||$C$L29||:    
    1888 0000003e E7FE              B         ||$C$L29||            ; [DPU_3_PIPE] |464|  ; [ORIG 16-BIT INS]
    1889                            ; BRANCH OCCURS {||$C$L29||}     ; [] |464| 
    1890                    ;* --------------------------------------------------------------------------*
    1891                            .dwattr $C$DW$33, DW_AT_TI_end_file("../tm4c123gh6pm_startup_ccs.c")
    1892                            .dwattr $C$DW$33, DW_AT_TI_end_line(0x1d0)
    1893                            .dwattr $C$DW$33, DW_AT_TI_end_column(0x27)
    1894                            .dwendentry
    1895                            .dwendtag $C$DW$33
    1896                    
    1897 00000040                   .sect   ".text"
    1898                            .clink
    1899                            .thumbfunc Timer1B_Handler
    1900 00000040                   .thumb
    1901                            .weak   Timer1B_Handler
    1902                    
    1903                    $C$DW$34        .dwtag  DW_TAG_subprogram
    1904                            .dwattr $C$DW$34, DW_AT_name("Timer1B_Handler")
    1905                            .dwattr $C$DW$34, DW_AT_low_pc(Timer1B_Handler)
    1906                            .dwattr $C$DW$34, DW_AT_high_pc(0x00)
    1907                            .dwattr $C$DW$34, DW_AT_TI_symbol_name("Timer1B_Handler")
    1908                            .dwattr $C$DW$34, DW_AT_external
    1909                            .dwattr $C$DW$34, DW_AT_TI_begin_file("../tm4c123gh6pm_startup_ccs.c")
    1910                            .dwattr $C$DW$34, DW_AT_TI_begin_line(0x1d1)
    1911                            .dwattr $C$DW$34, DW_AT_TI_begin_column(0x06)
    1912                            .dwattr $C$DW$34, DW_AT_decl_file("../tm4c123gh6pm_startup_ccs.c")
    1913                            .dwattr $C$DW$34, DW_AT_decl_line(0x1d1)
    1914                            .dwattr $C$DW$34, DW_AT_decl_column(0x06)
    1915                            .dwattr $C$DW$34, DW_AT_TI_max_frame_size(0x00)
    1916                            .dwpsn  file "../tm4c123gh6pm_startup_ccs.c",line 465,column 27,is_stmt,address Timer1B_Handle
    1917                    
    1918                            .dwfde $C$DW$CIE, Timer1B_Handler
    1919                    
    1920                    ;*****************************************************************************
    1921                    ;* FUNCTION NAME: Timer1B_Handler                                            *
    1922                    ;*                                                                           *
    1923                    ;*   Regs Modified     :                                                     *
    1924                    ;*   Regs Used         : LR                                                  *
    1925                    ;*   Local Frame Size  : 0 Args + 0 Auto + 0 Save = 0 byte                   *
TI ARM Assembler PC v16.9.0 Fri Mar 10 00:22:01 2017

Tools Copyright (c) 1996-2015 Texas Instruments Incorporated
tm4c123gh6pm_startup_ccs.asm                                         PAGE   36

    1926                    ;*****************************************************************************
    1927 00000040           Timer1B_Handler:
    1928                    ;* --------------------------------------------------------------------------*
    1929                            .dwcfi  cfa_offset, 0
    1930                            .dwpsn  file "../tm4c123gh6pm_startup_ccs.c",line 465,column 35,is_stmt,isa 1
    1931                    ;----------------------------------------------------------------------
    1932                    ; 465 | void Timer1B_Handler(void){ while(1){}}            // Timer 1 subtimer
    1933                    ;     | B                                                                      
    1934                    ;----------------------------------------------------------------------
    1935                    ;* --------------------------------------------------------------------------*
    1936                    ;*   BEGIN LOOP ||$C$L30||
    1937                    ;*
    1938                    ;*   Loop source line                : 465
    1939                    ;*   Loop closing brace source line  : 465
    1940                    ;*   Known Minimum Trip Count        : 1
    1941                    ;*   Known Maximum Trip Count        : 4294967295
    1942                    ;*   Known Max Trip Count Factor     : 1
    1943                    ;* --------------------------------------------------------------------------*
    1944 00000040           ||$C$L30||:    
    1945 00000040 E7FE              B         ||$C$L30||            ; [DPU_3_PIPE] |465|  ; [ORIG 16-BIT INS]
    1946                            ; BRANCH OCCURS {||$C$L30||}     ; [] |465| 
    1947                    ;* --------------------------------------------------------------------------*
    1948                            .dwattr $C$DW$34, DW_AT_TI_end_file("../tm4c123gh6pm_startup_ccs.c")
    1949                            .dwattr $C$DW$34, DW_AT_TI_end_line(0x1d1)
    1950                            .dwattr $C$DW$34, DW_AT_TI_end_column(0x27)
    1951                            .dwendentry
    1952                            .dwendtag $C$DW$34
    1953                    
    1954 00000042                   .sect   ".text"
    1955                            .clink
    1956                            .thumbfunc Timer2A_Handler
    1957 00000042                   .thumb
    1958                            .weak   Timer2A_Handler
    1959                    
    1960                    $C$DW$35        .dwtag  DW_TAG_subprogram
    1961                            .dwattr $C$DW$35, DW_AT_name("Timer2A_Handler")
    1962                            .dwattr $C$DW$35, DW_AT_low_pc(Timer2A_Handler)
    1963                            .dwattr $C$DW$35, DW_AT_high_pc(0x00)
    1964                            .dwattr $C$DW$35, DW_AT_TI_symbol_name("Timer2A_Handler")
    1965                            .dwattr $C$DW$35, DW_AT_external
    1966                            .dwattr $C$DW$35, DW_AT_TI_begin_file("../tm4c123gh6pm_startup_ccs.c")
    1967                            .dwattr $C$DW$35, DW_AT_TI_begin_line(0x1d2)
    1968                            .dwattr $C$DW$35, DW_AT_TI_begin_column(0x06)
    1969                            .dwattr $C$DW$35, DW_AT_decl_file("../tm4c123gh6pm_startup_ccs.c")
    1970                            .dwattr $C$DW$35, DW_AT_decl_line(0x1d2)
    1971                            .dwattr $C$DW$35, DW_AT_decl_column(0x06)
    1972                            .dwattr $C$DW$35, DW_AT_TI_max_frame_size(0x00)
    1973                            .dwpsn  file "../tm4c123gh6pm_startup_ccs.c",line 466,column 27,is_stmt,address Timer2A_Handle
    1974                    
    1975                            .dwfde $C$DW$CIE, Timer2A_Handler
    1976                    
    1977                    ;*****************************************************************************
    1978                    ;* FUNCTION NAME: Timer2A_Handler                                            *
    1979                    ;*                                                                           *
    1980                    ;*   Regs Modified     :                                                     *
TI ARM Assembler PC v16.9.0 Fri Mar 10 00:22:01 2017

Tools Copyright (c) 1996-2015 Texas Instruments Incorporated
tm4c123gh6pm_startup_ccs.asm                                         PAGE   37

    1981                    ;*   Regs Used         : LR                                                  *
    1982                    ;*   Local Frame Size  : 0 Args + 0 Auto + 0 Save = 0 byte                   *
    1983                    ;*****************************************************************************
    1984 00000042           Timer2A_Handler:
    1985                    ;* --------------------------------------------------------------------------*
    1986                            .dwcfi  cfa_offset, 0
    1987                            .dwpsn  file "../tm4c123gh6pm_startup_ccs.c",line 466,column 35,is_stmt,isa 1
    1988                    ;----------------------------------------------------------------------
    1989                    ; 466 | void Timer2A_Handler(void){ while(1){}}            // Timer 2 subtimer
    1990                    ;     | A                                                                      
    1991                    ;----------------------------------------------------------------------
    1992                    ;* --------------------------------------------------------------------------*
    1993                    ;*   BEGIN LOOP ||$C$L31||
    1994                    ;*
    1995                    ;*   Loop source line                : 466
    1996                    ;*   Loop closing brace source line  : 466
    1997                    ;*   Known Minimum Trip Count        : 1
    1998                    ;*   Known Maximum Trip Count        : 4294967295
    1999                    ;*   Known Max Trip Count Factor     : 1
    2000                    ;* --------------------------------------------------------------------------*
    2001 00000042           ||$C$L31||:    
    2002 00000042 E7FE              B         ||$C$L31||            ; [DPU_3_PIPE] |466|  ; [ORIG 16-BIT INS]
    2003                            ; BRANCH OCCURS {||$C$L31||}     ; [] |466| 
    2004                    ;* --------------------------------------------------------------------------*
    2005                            .dwattr $C$DW$35, DW_AT_TI_end_file("../tm4c123gh6pm_startup_ccs.c")
    2006                            .dwattr $C$DW$35, DW_AT_TI_end_line(0x1d2)
    2007                            .dwattr $C$DW$35, DW_AT_TI_end_column(0x27)
    2008                            .dwendentry
    2009                            .dwendtag $C$DW$35
    2010                    
    2011 00000044                   .sect   ".text"
    2012                            .clink
    2013                            .thumbfunc Timer2B_Handler
    2014 00000044                   .thumb
    2015                            .weak   Timer2B_Handler
    2016                    
    2017                    $C$DW$36        .dwtag  DW_TAG_subprogram
    2018                            .dwattr $C$DW$36, DW_AT_name("Timer2B_Handler")
    2019                            .dwattr $C$DW$36, DW_AT_low_pc(Timer2B_Handler)
    2020                            .dwattr $C$DW$36, DW_AT_high_pc(0x00)
    2021                            .dwattr $C$DW$36, DW_AT_TI_symbol_name("Timer2B_Handler")
    2022                            .dwattr $C$DW$36, DW_AT_external
    2023                            .dwattr $C$DW$36, DW_AT_TI_begin_file("../tm4c123gh6pm_startup_ccs.c")
    2024                            .dwattr $C$DW$36, DW_AT_TI_begin_line(0x1d3)
    2025                            .dwattr $C$DW$36, DW_AT_TI_begin_column(0x06)
    2026                            .dwattr $C$DW$36, DW_AT_decl_file("../tm4c123gh6pm_startup_ccs.c")
    2027                            .dwattr $C$DW$36, DW_AT_decl_line(0x1d3)
    2028                            .dwattr $C$DW$36, DW_AT_decl_column(0x06)
    2029                            .dwattr $C$DW$36, DW_AT_TI_max_frame_size(0x00)
    2030                            .dwpsn  file "../tm4c123gh6pm_startup_ccs.c",line 467,column 27,is_stmt,address Timer2B_Handle
    2031                    
    2032                            .dwfde $C$DW$CIE, Timer2B_Handler
    2033                    
    2034                    ;*****************************************************************************
    2035                    ;* FUNCTION NAME: Timer2B_Handler                                            *
TI ARM Assembler PC v16.9.0 Fri Mar 10 00:22:01 2017

Tools Copyright (c) 1996-2015 Texas Instruments Incorporated
tm4c123gh6pm_startup_ccs.asm                                         PAGE   38

    2036                    ;*                                                                           *
    2037                    ;*   Regs Modified     :                                                     *
    2038                    ;*   Regs Used         : LR                                                  *
    2039                    ;*   Local Frame Size  : 0 Args + 0 Auto + 0 Save = 0 byte                   *
    2040                    ;*****************************************************************************
    2041 00000044           Timer2B_Handler:
    2042                    ;* --------------------------------------------------------------------------*
    2043                            .dwcfi  cfa_offset, 0
    2044                            .dwpsn  file "../tm4c123gh6pm_startup_ccs.c",line 467,column 35,is_stmt,isa 1
    2045                    ;----------------------------------------------------------------------
    2046                    ; 467 | void Timer2B_Handler(void){ while(1){}}            // Timer 2 subtimer
    2047                    ;     | B                                                                      
    2048                    ;----------------------------------------------------------------------
    2049                    ;* --------------------------------------------------------------------------*
    2050                    ;*   BEGIN LOOP ||$C$L32||
    2051                    ;*
    2052                    ;*   Loop source line                : 467
    2053                    ;*   Loop closing brace source line  : 467
    2054                    ;*   Known Minimum Trip Count        : 1
    2055                    ;*   Known Maximum Trip Count        : 4294967295
    2056                    ;*   Known Max Trip Count Factor     : 1
    2057                    ;* --------------------------------------------------------------------------*
    2058 00000044           ||$C$L32||:    
    2059 00000044 E7FE              B         ||$C$L32||            ; [DPU_3_PIPE] |467|  ; [ORIG 16-BIT INS]
    2060                            ; BRANCH OCCURS {||$C$L32||}     ; [] |467| 
    2061                    ;* --------------------------------------------------------------------------*
    2062                            .dwattr $C$DW$36, DW_AT_TI_end_file("../tm4c123gh6pm_startup_ccs.c")
    2063                            .dwattr $C$DW$36, DW_AT_TI_end_line(0x1d3)
    2064                            .dwattr $C$DW$36, DW_AT_TI_end_column(0x27)
    2065                            .dwendentry
    2066                            .dwendtag $C$DW$36
    2067                    
    2068 00000046                   .sect   ".text"
    2069                            .clink
    2070                            .thumbfunc Comp0_Handler
    2071 00000046                   .thumb
    2072                            .weak   Comp0_Handler
    2073                    
    2074                    $C$DW$37        .dwtag  DW_TAG_subprogram
    2075                            .dwattr $C$DW$37, DW_AT_name("Comp0_Handler")
    2076                            .dwattr $C$DW$37, DW_AT_low_pc(Comp0_Handler)
    2077                            .dwattr $C$DW$37, DW_AT_high_pc(0x00)
    2078                            .dwattr $C$DW$37, DW_AT_TI_symbol_name("Comp0_Handler")
    2079                            .dwattr $C$DW$37, DW_AT_external
    2080                            .dwattr $C$DW$37, DW_AT_TI_begin_file("../tm4c123gh6pm_startup_ccs.c")
    2081                            .dwattr $C$DW$37, DW_AT_TI_begin_line(0x1d4)
    2082                            .dwattr $C$DW$37, DW_AT_TI_begin_column(0x06)
    2083                            .dwattr $C$DW$37, DW_AT_decl_file("../tm4c123gh6pm_startup_ccs.c")
    2084                            .dwattr $C$DW$37, DW_AT_decl_line(0x1d4)
    2085                            .dwattr $C$DW$37, DW_AT_decl_column(0x06)
    2086                            .dwattr $C$DW$37, DW_AT_TI_max_frame_size(0x00)
    2087                            .dwpsn  file "../tm4c123gh6pm_startup_ccs.c",line 468,column 25,is_stmt,address Comp0_Handler,
    2088                    
    2089                            .dwfde $C$DW$CIE, Comp0_Handler
    2090                    
TI ARM Assembler PC v16.9.0 Fri Mar 10 00:22:01 2017

Tools Copyright (c) 1996-2015 Texas Instruments Incorporated
tm4c123gh6pm_startup_ccs.asm                                         PAGE   39

    2091                    ;*****************************************************************************
    2092                    ;* FUNCTION NAME: Comp0_Handler                                              *
    2093                    ;*                                                                           *
    2094                    ;*   Regs Modified     :                                                     *
    2095                    ;*   Regs Used         : LR                                                  *
    2096                    ;*   Local Frame Size  : 0 Args + 0 Auto + 0 Save = 0 byte                   *
    2097                    ;*****************************************************************************
    2098 00000046           Comp0_Handler:
    2099                    ;* --------------------------------------------------------------------------*
    2100                            .dwcfi  cfa_offset, 0
    2101                            .dwpsn  file "../tm4c123gh6pm_startup_ccs.c",line 468,column 33,is_stmt,isa 1
    2102                    ;----------------------------------------------------------------------
    2103                    ; 468 | void Comp0_Handler(void){ while(1){}}              // Analog Comp 0    
    2104                    ;----------------------------------------------------------------------
    2105                    ;* --------------------------------------------------------------------------*
    2106                    ;*   BEGIN LOOP ||$C$L33||
    2107                    ;*
    2108                    ;*   Loop source line                : 468
    2109                    ;*   Loop closing brace source line  : 468
    2110                    ;*   Known Minimum Trip Count        : 1
    2111                    ;*   Known Maximum Trip Count        : 4294967295
    2112                    ;*   Known Max Trip Count Factor     : 1
    2113                    ;* --------------------------------------------------------------------------*
    2114 00000046           ||$C$L33||:    
    2115 00000046 E7FE              B         ||$C$L33||            ; [DPU_3_PIPE] |468|  ; [ORIG 16-BIT INS]
    2116                            ; BRANCH OCCURS {||$C$L33||}     ; [] |468| 
    2117                    ;* --------------------------------------------------------------------------*
    2118                            .dwattr $C$DW$37, DW_AT_TI_end_file("../tm4c123gh6pm_startup_ccs.c")
    2119                            .dwattr $C$DW$37, DW_AT_TI_end_line(0x1d4)
    2120                            .dwattr $C$DW$37, DW_AT_TI_end_column(0x25)
    2121                            .dwendentry
    2122                            .dwendtag $C$DW$37
    2123                    
    2124 00000048                   .sect   ".text"
    2125                            .clink
    2126                            .thumbfunc Comp1_Handler
    2127 00000048                   .thumb
    2128                            .weak   Comp1_Handler
    2129                    
    2130                    $C$DW$38        .dwtag  DW_TAG_subprogram
    2131                            .dwattr $C$DW$38, DW_AT_name("Comp1_Handler")
    2132                            .dwattr $C$DW$38, DW_AT_low_pc(Comp1_Handler)
    2133                            .dwattr $C$DW$38, DW_AT_high_pc(0x00)
    2134                            .dwattr $C$DW$38, DW_AT_TI_symbol_name("Comp1_Handler")
    2135                            .dwattr $C$DW$38, DW_AT_external
    2136                            .dwattr $C$DW$38, DW_AT_TI_begin_file("../tm4c123gh6pm_startup_ccs.c")
    2137                            .dwattr $C$DW$38, DW_AT_TI_begin_line(0x1d5)
    2138                            .dwattr $C$DW$38, DW_AT_TI_begin_column(0x06)
    2139                            .dwattr $C$DW$38, DW_AT_decl_file("../tm4c123gh6pm_startup_ccs.c")
    2140                            .dwattr $C$DW$38, DW_AT_decl_line(0x1d5)
    2141                            .dwattr $C$DW$38, DW_AT_decl_column(0x06)
    2142                            .dwattr $C$DW$38, DW_AT_TI_max_frame_size(0x00)
    2143                            .dwpsn  file "../tm4c123gh6pm_startup_ccs.c",line 469,column 25,is_stmt,address Comp1_Handler,
    2144                    
    2145                            .dwfde $C$DW$CIE, Comp1_Handler
TI ARM Assembler PC v16.9.0 Fri Mar 10 00:22:01 2017

Tools Copyright (c) 1996-2015 Texas Instruments Incorporated
tm4c123gh6pm_startup_ccs.asm                                         PAGE   40

    2146                    
    2147                    ;*****************************************************************************
    2148                    ;* FUNCTION NAME: Comp1_Handler                                              *
    2149                    ;*                                                                           *
    2150                    ;*   Regs Modified     :                                                     *
    2151                    ;*   Regs Used         : LR                                                  *
    2152                    ;*   Local Frame Size  : 0 Args + 0 Auto + 0 Save = 0 byte                   *
    2153                    ;*****************************************************************************
    2154 00000048           Comp1_Handler:
    2155                    ;* --------------------------------------------------------------------------*
    2156                            .dwcfi  cfa_offset, 0
    2157                            .dwpsn  file "../tm4c123gh6pm_startup_ccs.c",line 469,column 33,is_stmt,isa 1
    2158                    ;----------------------------------------------------------------------
    2159                    ; 469 | void Comp1_Handler(void){ while(1){}}              // Analog Comp 1    
    2160                    ;----------------------------------------------------------------------
    2161                    ;* --------------------------------------------------------------------------*
    2162                    ;*   BEGIN LOOP ||$C$L34||
    2163                    ;*
    2164                    ;*   Loop source line                : 469
    2165                    ;*   Loop closing brace source line  : 469
    2166                    ;*   Known Minimum Trip Count        : 1
    2167                    ;*   Known Maximum Trip Count        : 4294967295
    2168                    ;*   Known Max Trip Count Factor     : 1
    2169                    ;* --------------------------------------------------------------------------*
    2170 00000048           ||$C$L34||:    
    2171 00000048 E7FE              B         ||$C$L34||            ; [DPU_3_PIPE] |469|  ; [ORIG 16-BIT INS]
    2172                            ; BRANCH OCCURS {||$C$L34||}     ; [] |469| 
    2173                    ;* --------------------------------------------------------------------------*
    2174                            .dwattr $C$DW$38, DW_AT_TI_end_file("../tm4c123gh6pm_startup_ccs.c")
    2175                            .dwattr $C$DW$38, DW_AT_TI_end_line(0x1d5)
    2176                            .dwattr $C$DW$38, DW_AT_TI_end_column(0x25)
    2177                            .dwendentry
    2178                            .dwendtag $C$DW$38
    2179                    
    2180 0000004a                   .sect   ".text"
    2181                            .clink
    2182                            .thumbfunc Comp2_Handler
    2183 0000004a                   .thumb
    2184                            .weak   Comp2_Handler
    2185                    
    2186                    $C$DW$39        .dwtag  DW_TAG_subprogram
    2187                            .dwattr $C$DW$39, DW_AT_name("Comp2_Handler")
    2188                            .dwattr $C$DW$39, DW_AT_low_pc(Comp2_Handler)
    2189                            .dwattr $C$DW$39, DW_AT_high_pc(0x00)
    2190                            .dwattr $C$DW$39, DW_AT_TI_symbol_name("Comp2_Handler")
    2191                            .dwattr $C$DW$39, DW_AT_external
    2192                            .dwattr $C$DW$39, DW_AT_TI_begin_file("../tm4c123gh6pm_startup_ccs.c")
    2193                            .dwattr $C$DW$39, DW_AT_TI_begin_line(0x1d6)
    2194                            .dwattr $C$DW$39, DW_AT_TI_begin_column(0x06)
    2195                            .dwattr $C$DW$39, DW_AT_decl_file("../tm4c123gh6pm_startup_ccs.c")
    2196                            .dwattr $C$DW$39, DW_AT_decl_line(0x1d6)
    2197                            .dwattr $C$DW$39, DW_AT_decl_column(0x06)
    2198                            .dwattr $C$DW$39, DW_AT_TI_max_frame_size(0x00)
    2199                            .dwpsn  file "../tm4c123gh6pm_startup_ccs.c",line 470,column 25,is_stmt,address Comp2_Handler,
    2200                    
TI ARM Assembler PC v16.9.0 Fri Mar 10 00:22:01 2017

Tools Copyright (c) 1996-2015 Texas Instruments Incorporated
tm4c123gh6pm_startup_ccs.asm                                         PAGE   41

    2201                            .dwfde $C$DW$CIE, Comp2_Handler
    2202                    
    2203                    ;*****************************************************************************
    2204                    ;* FUNCTION NAME: Comp2_Handler                                              *
    2205                    ;*                                                                           *
    2206                    ;*   Regs Modified     :                                                     *
    2207                    ;*   Regs Used         : LR                                                  *
    2208                    ;*   Local Frame Size  : 0 Args + 0 Auto + 0 Save = 0 byte                   *
    2209                    ;*****************************************************************************
    2210 0000004a           Comp2_Handler:
    2211                    ;* --------------------------------------------------------------------------*
    2212                            .dwcfi  cfa_offset, 0
    2213                            .dwpsn  file "../tm4c123gh6pm_startup_ccs.c",line 470,column 33,is_stmt,isa 1
    2214                    ;----------------------------------------------------------------------
    2215                    ; 470 | void Comp2_Handler(void){ while(1){}}              // Analog Comp 2    
    2216                    ;----------------------------------------------------------------------
    2217                    ;* --------------------------------------------------------------------------*
    2218                    ;*   BEGIN LOOP ||$C$L35||
    2219                    ;*
    2220                    ;*   Loop source line                : 470
    2221                    ;*   Loop closing brace source line  : 470
    2222                    ;*   Known Minimum Trip Count        : 1
    2223                    ;*   Known Maximum Trip Count        : 4294967295
    2224                    ;*   Known Max Trip Count Factor     : 1
    2225                    ;* --------------------------------------------------------------------------*
    2226 0000004a           ||$C$L35||:    
    2227 0000004a E7FE              B         ||$C$L35||            ; [DPU_3_PIPE] |470|  ; [ORIG 16-BIT INS]
    2228                            ; BRANCH OCCURS {||$C$L35||}     ; [] |470| 
    2229                    ;* --------------------------------------------------------------------------*
    2230                            .dwattr $C$DW$39, DW_AT_TI_end_file("../tm4c123gh6pm_startup_ccs.c")
    2231                            .dwattr $C$DW$39, DW_AT_TI_end_line(0x1d6)
    2232                            .dwattr $C$DW$39, DW_AT_TI_end_column(0x25)
    2233                            .dwendentry
    2234                            .dwendtag $C$DW$39
    2235                    
    2236 0000004c                   .sect   ".text"
    2237                            .clink
    2238                            .thumbfunc SysCtl_Handler
    2239 0000004c                   .thumb
    2240                            .weak   SysCtl_Handler
    2241                    
    2242                    $C$DW$40        .dwtag  DW_TAG_subprogram
    2243                            .dwattr $C$DW$40, DW_AT_name("SysCtl_Handler")
    2244                            .dwattr $C$DW$40, DW_AT_low_pc(SysCtl_Handler)
    2245                            .dwattr $C$DW$40, DW_AT_high_pc(0x00)
    2246                            .dwattr $C$DW$40, DW_AT_TI_symbol_name("SysCtl_Handler")
    2247                            .dwattr $C$DW$40, DW_AT_external
    2248                            .dwattr $C$DW$40, DW_AT_TI_begin_file("../tm4c123gh6pm_startup_ccs.c")
    2249                            .dwattr $C$DW$40, DW_AT_TI_begin_line(0x1d7)
    2250                            .dwattr $C$DW$40, DW_AT_TI_begin_column(0x06)
    2251                            .dwattr $C$DW$40, DW_AT_decl_file("../tm4c123gh6pm_startup_ccs.c")
    2252                            .dwattr $C$DW$40, DW_AT_decl_line(0x1d7)
    2253                            .dwattr $C$DW$40, DW_AT_decl_column(0x06)
    2254                            .dwattr $C$DW$40, DW_AT_TI_max_frame_size(0x00)
    2255                            .dwpsn  file "../tm4c123gh6pm_startup_ccs.c",line 471,column 26,is_stmt,address SysCtl_Handler
TI ARM Assembler PC v16.9.0 Fri Mar 10 00:22:01 2017

Tools Copyright (c) 1996-2015 Texas Instruments Incorporated
tm4c123gh6pm_startup_ccs.asm                                         PAGE   42

    2256                    
    2257                            .dwfde $C$DW$CIE, SysCtl_Handler
    2258                    
    2259                    ;*****************************************************************************
    2260                    ;* FUNCTION NAME: SysCtl_Handler                                             *
    2261                    ;*                                                                           *
    2262                    ;*   Regs Modified     :                                                     *
    2263                    ;*   Regs Used         : LR                                                  *
    2264                    ;*   Local Frame Size  : 0 Args + 0 Auto + 0 Save = 0 byte                   *
    2265                    ;*****************************************************************************
    2266 0000004c           SysCtl_Handler:
    2267                    ;* --------------------------------------------------------------------------*
    2268                            .dwcfi  cfa_offset, 0
    2269                            .dwpsn  file "../tm4c123gh6pm_startup_ccs.c",line 471,column 34,is_stmt,isa 1
    2270                    ;----------------------------------------------------------------------
    2271                    ; 471 | void SysCtl_Handler(void){ while(1){}}             // System Control   
    2272                    ;----------------------------------------------------------------------
    2273                    ;* --------------------------------------------------------------------------*
    2274                    ;*   BEGIN LOOP ||$C$L36||
    2275                    ;*
    2276                    ;*   Loop source line                : 471
    2277                    ;*   Loop closing brace source line  : 471
    2278                    ;*   Known Minimum Trip Count        : 1
    2279                    ;*   Known Maximum Trip Count        : 4294967295
    2280                    ;*   Known Max Trip Count Factor     : 1
    2281                    ;* --------------------------------------------------------------------------*
    2282 0000004c           ||$C$L36||:    
    2283 0000004c E7FE              B         ||$C$L36||            ; [DPU_3_PIPE] |471|  ; [ORIG 16-BIT INS]
    2284                            ; BRANCH OCCURS {||$C$L36||}     ; [] |471| 
    2285                    ;* --------------------------------------------------------------------------*
    2286                            .dwattr $C$DW$40, DW_AT_TI_end_file("../tm4c123gh6pm_startup_ccs.c")
    2287                            .dwattr $C$DW$40, DW_AT_TI_end_line(0x1d7)
    2288                            .dwattr $C$DW$40, DW_AT_TI_end_column(0x26)
    2289                            .dwendentry
    2290                            .dwendtag $C$DW$40
    2291                    
    2292 0000004e                   .sect   ".text"
    2293                            .clink
    2294                            .thumbfunc FlashCtl_Handler
    2295 0000004e                   .thumb
    2296                            .weak   FlashCtl_Handler
    2297                    
    2298                    $C$DW$41        .dwtag  DW_TAG_subprogram
    2299                            .dwattr $C$DW$41, DW_AT_name("FlashCtl_Handler")
    2300                            .dwattr $C$DW$41, DW_AT_low_pc(FlashCtl_Handler)
    2301                            .dwattr $C$DW$41, DW_AT_high_pc(0x00)
    2302                            .dwattr $C$DW$41, DW_AT_TI_symbol_name("FlashCtl_Handler")
    2303                            .dwattr $C$DW$41, DW_AT_external
    2304                            .dwattr $C$DW$41, DW_AT_TI_begin_file("../tm4c123gh6pm_startup_ccs.c")
    2305                            .dwattr $C$DW$41, DW_AT_TI_begin_line(0x1d8)
    2306                            .dwattr $C$DW$41, DW_AT_TI_begin_column(0x06)
    2307                            .dwattr $C$DW$41, DW_AT_decl_file("../tm4c123gh6pm_startup_ccs.c")
    2308                            .dwattr $C$DW$41, DW_AT_decl_line(0x1d8)
    2309                            .dwattr $C$DW$41, DW_AT_decl_column(0x06)
    2310                            .dwattr $C$DW$41, DW_AT_TI_max_frame_size(0x00)
TI ARM Assembler PC v16.9.0 Fri Mar 10 00:22:01 2017

Tools Copyright (c) 1996-2015 Texas Instruments Incorporated
tm4c123gh6pm_startup_ccs.asm                                         PAGE   43

    2311                            .dwpsn  file "../tm4c123gh6pm_startup_ccs.c",line 472,column 28,is_stmt,address FlashCtl_Handl
    2312                    
    2313                            .dwfde $C$DW$CIE, FlashCtl_Handler
    2314                    
    2315                    ;*****************************************************************************
    2316                    ;* FUNCTION NAME: FlashCtl_Handler                                           *
    2317                    ;*                                                                           *
    2318                    ;*   Regs Modified     :                                                     *
    2319                    ;*   Regs Used         : LR                                                  *
    2320                    ;*   Local Frame Size  : 0 Args + 0 Auto + 0 Save = 0 byte                   *
    2321                    ;*****************************************************************************
    2322 0000004e           FlashCtl_Handler:
    2323                    ;* --------------------------------------------------------------------------*
    2324                            .dwcfi  cfa_offset, 0
    2325                            .dwpsn  file "../tm4c123gh6pm_startup_ccs.c",line 472,column 36,is_stmt,isa 1
    2326                    ;----------------------------------------------------------------------
    2327                    ; 472 | void FlashCtl_Handler(void){ while(1){}}           // Flash Control    
    2328                    ;----------------------------------------------------------------------
    2329                    ;* --------------------------------------------------------------------------*
    2330                    ;*   BEGIN LOOP ||$C$L37||
    2331                    ;*
    2332                    ;*   Loop source line                : 472
    2333                    ;*   Loop closing brace source line  : 472
    2334                    ;*   Known Minimum Trip Count        : 1
    2335                    ;*   Known Maximum Trip Count        : 4294967295
    2336                    ;*   Known Max Trip Count Factor     : 1
    2337                    ;* --------------------------------------------------------------------------*
    2338 0000004e           ||$C$L37||:    
    2339 0000004e E7FE              B         ||$C$L37||            ; [DPU_3_PIPE] |472|  ; [ORIG 16-BIT INS]
    2340                            ; BRANCH OCCURS {||$C$L37||}     ; [] |472| 
    2341                    ;* --------------------------------------------------------------------------*
    2342                            .dwattr $C$DW$41, DW_AT_TI_end_file("../tm4c123gh6pm_startup_ccs.c")
    2343                            .dwattr $C$DW$41, DW_AT_TI_end_line(0x1d8)
    2344                            .dwattr $C$DW$41, DW_AT_TI_end_column(0x28)
    2345                            .dwendentry
    2346                            .dwendtag $C$DW$41
    2347                    
    2348 00000050                   .sect   ".text"
    2349                            .clink
    2350                            .thumbfunc GPIOPortF_Handler
    2351 00000050                   .thumb
    2352                            .weak   GPIOPortF_Handler
    2353                    
    2354                    $C$DW$42        .dwtag  DW_TAG_subprogram
    2355                            .dwattr $C$DW$42, DW_AT_name("GPIOPortF_Handler")
    2356                            .dwattr $C$DW$42, DW_AT_low_pc(GPIOPortF_Handler)
    2357                            .dwattr $C$DW$42, DW_AT_high_pc(0x00)
    2358                            .dwattr $C$DW$42, DW_AT_TI_symbol_name("GPIOPortF_Handler")
    2359                            .dwattr $C$DW$42, DW_AT_external
    2360                            .dwattr $C$DW$42, DW_AT_TI_begin_file("../tm4c123gh6pm_startup_ccs.c")
    2361                            .dwattr $C$DW$42, DW_AT_TI_begin_line(0x1d9)
    2362                            .dwattr $C$DW$42, DW_AT_TI_begin_column(0x06)
    2363                            .dwattr $C$DW$42, DW_AT_decl_file("../tm4c123gh6pm_startup_ccs.c")
    2364                            .dwattr $C$DW$42, DW_AT_decl_line(0x1d9)
    2365                            .dwattr $C$DW$42, DW_AT_decl_column(0x06)
TI ARM Assembler PC v16.9.0 Fri Mar 10 00:22:01 2017

Tools Copyright (c) 1996-2015 Texas Instruments Incorporated
tm4c123gh6pm_startup_ccs.asm                                         PAGE   44

    2366                            .dwattr $C$DW$42, DW_AT_TI_max_frame_size(0x00)
    2367                            .dwpsn  file "../tm4c123gh6pm_startup_ccs.c",line 473,column 29,is_stmt,address GPIOPortF_Hand
    2368                    
    2369                            .dwfde $C$DW$CIE, GPIOPortF_Handler
    2370                    
    2371                    ;*****************************************************************************
    2372                    ;* FUNCTION NAME: GPIOPortF_Handler                                          *
    2373                    ;*                                                                           *
    2374                    ;*   Regs Modified     :                                                     *
    2375                    ;*   Regs Used         : LR                                                  *
    2376                    ;*   Local Frame Size  : 0 Args + 0 Auto + 0 Save = 0 byte                   *
    2377                    ;*****************************************************************************
    2378 00000050           GPIOPortF_Handler:
    2379                    ;* --------------------------------------------------------------------------*
    2380                            .dwcfi  cfa_offset, 0
    2381                            .dwpsn  file "../tm4c123gh6pm_startup_ccs.c",line 473,column 37,is_stmt,isa 1
    2382                    ;----------------------------------------------------------------------
    2383                    ; 473 | void GPIOPortF_Handler(void){ while(1){}}          // GPIO Port F      
    2384                    ;----------------------------------------------------------------------
    2385                    ;* --------------------------------------------------------------------------*
    2386                    ;*   BEGIN LOOP ||$C$L38||
    2387                    ;*
    2388                    ;*   Loop source line                : 473
    2389                    ;*   Loop closing brace source line  : 473
    2390                    ;*   Known Minimum Trip Count        : 1
    2391                    ;*   Known Maximum Trip Count        : 4294967295
    2392                    ;*   Known Max Trip Count Factor     : 1
    2393                    ;* --------------------------------------------------------------------------*
    2394 00000050           ||$C$L38||:    
    2395 00000050 E7FE              B         ||$C$L38||            ; [DPU_3_PIPE] |473|  ; [ORIG 16-BIT INS]
    2396                            ; BRANCH OCCURS {||$C$L38||}     ; [] |473| 
    2397                    ;* --------------------------------------------------------------------------*
    2398                            .dwattr $C$DW$42, DW_AT_TI_end_file("../tm4c123gh6pm_startup_ccs.c")
    2399                            .dwattr $C$DW$42, DW_AT_TI_end_line(0x1d9)
    2400                            .dwattr $C$DW$42, DW_AT_TI_end_column(0x29)
    2401                            .dwendentry
    2402                            .dwendtag $C$DW$42
    2403                    
    2404 00000052                   .sect   ".text"
    2405                            .clink
    2406                            .thumbfunc GPIOPortG_Handler
    2407 00000052                   .thumb
    2408                            .weak   GPIOPortG_Handler
    2409                    
    2410                    $C$DW$43        .dwtag  DW_TAG_subprogram
    2411                            .dwattr $C$DW$43, DW_AT_name("GPIOPortG_Handler")
    2412                            .dwattr $C$DW$43, DW_AT_low_pc(GPIOPortG_Handler)
    2413                            .dwattr $C$DW$43, DW_AT_high_pc(0x00)
    2414                            .dwattr $C$DW$43, DW_AT_TI_symbol_name("GPIOPortG_Handler")
    2415                            .dwattr $C$DW$43, DW_AT_external
    2416                            .dwattr $C$DW$43, DW_AT_TI_begin_file("../tm4c123gh6pm_startup_ccs.c")
    2417                            .dwattr $C$DW$43, DW_AT_TI_begin_line(0x1da)
    2418                            .dwattr $C$DW$43, DW_AT_TI_begin_column(0x06)
    2419                            .dwattr $C$DW$43, DW_AT_decl_file("../tm4c123gh6pm_startup_ccs.c")
    2420                            .dwattr $C$DW$43, DW_AT_decl_line(0x1da)
TI ARM Assembler PC v16.9.0 Fri Mar 10 00:22:01 2017

Tools Copyright (c) 1996-2015 Texas Instruments Incorporated
tm4c123gh6pm_startup_ccs.asm                                         PAGE   45

    2421                            .dwattr $C$DW$43, DW_AT_decl_column(0x06)
    2422                            .dwattr $C$DW$43, DW_AT_TI_max_frame_size(0x00)
    2423                            .dwpsn  file "../tm4c123gh6pm_startup_ccs.c",line 474,column 29,is_stmt,address GPIOPortG_Hand
    2424                    
    2425                            .dwfde $C$DW$CIE, GPIOPortG_Handler
    2426                    
    2427                    ;*****************************************************************************
    2428                    ;* FUNCTION NAME: GPIOPortG_Handler                                          *
    2429                    ;*                                                                           *
    2430                    ;*   Regs Modified     :                                                     *
    2431                    ;*   Regs Used         : LR                                                  *
    2432                    ;*   Local Frame Size  : 0 Args + 0 Auto + 0 Save = 0 byte                   *
    2433                    ;*****************************************************************************
    2434 00000052           GPIOPortG_Handler:
    2435                    ;* --------------------------------------------------------------------------*
    2436                            .dwcfi  cfa_offset, 0
    2437                            .dwpsn  file "../tm4c123gh6pm_startup_ccs.c",line 474,column 37,is_stmt,isa 1
    2438                    ;----------------------------------------------------------------------
    2439                    ; 474 | void GPIOPortG_Handler(void){ while(1){}}          // GPIO Port G      
    2440                    ;----------------------------------------------------------------------
    2441                    ;* --------------------------------------------------------------------------*
    2442                    ;*   BEGIN LOOP ||$C$L39||
    2443                    ;*
    2444                    ;*   Loop source line                : 474
    2445                    ;*   Loop closing brace source line  : 474
    2446                    ;*   Known Minimum Trip Count        : 1
    2447                    ;*   Known Maximum Trip Count        : 4294967295
    2448                    ;*   Known Max Trip Count Factor     : 1
    2449                    ;* --------------------------------------------------------------------------*
    2450 00000052           ||$C$L39||:    
    2451 00000052 E7FE              B         ||$C$L39||            ; [DPU_3_PIPE] |474|  ; [ORIG 16-BIT INS]
    2452                            ; BRANCH OCCURS {||$C$L39||}     ; [] |474| 
    2453                    ;* --------------------------------------------------------------------------*
    2454                            .dwattr $C$DW$43, DW_AT_TI_end_file("../tm4c123gh6pm_startup_ccs.c")
    2455                            .dwattr $C$DW$43, DW_AT_TI_end_line(0x1da)
    2456                            .dwattr $C$DW$43, DW_AT_TI_end_column(0x29)
    2457                            .dwendentry
    2458                            .dwendtag $C$DW$43
    2459                    
    2460 00000054                   .sect   ".text"
    2461                            .clink
    2462                            .thumbfunc GPIOPortH_Handler
    2463 00000054                   .thumb
    2464                            .weak   GPIOPortH_Handler
    2465                    
    2466                    $C$DW$44        .dwtag  DW_TAG_subprogram
    2467                            .dwattr $C$DW$44, DW_AT_name("GPIOPortH_Handler")
    2468                            .dwattr $C$DW$44, DW_AT_low_pc(GPIOPortH_Handler)
    2469                            .dwattr $C$DW$44, DW_AT_high_pc(0x00)
    2470                            .dwattr $C$DW$44, DW_AT_TI_symbol_name("GPIOPortH_Handler")
    2471                            .dwattr $C$DW$44, DW_AT_external
    2472                            .dwattr $C$DW$44, DW_AT_TI_begin_file("../tm4c123gh6pm_startup_ccs.c")
    2473                            .dwattr $C$DW$44, DW_AT_TI_begin_line(0x1db)
    2474                            .dwattr $C$DW$44, DW_AT_TI_begin_column(0x06)
    2475                            .dwattr $C$DW$44, DW_AT_decl_file("../tm4c123gh6pm_startup_ccs.c")
TI ARM Assembler PC v16.9.0 Fri Mar 10 00:22:01 2017

Tools Copyright (c) 1996-2015 Texas Instruments Incorporated
tm4c123gh6pm_startup_ccs.asm                                         PAGE   46

    2476                            .dwattr $C$DW$44, DW_AT_decl_line(0x1db)
    2477                            .dwattr $C$DW$44, DW_AT_decl_column(0x06)
    2478                            .dwattr $C$DW$44, DW_AT_TI_max_frame_size(0x00)
    2479                            .dwpsn  file "../tm4c123gh6pm_startup_ccs.c",line 475,column 29,is_stmt,address GPIOPortH_Hand
    2480                    
    2481                            .dwfde $C$DW$CIE, GPIOPortH_Handler
    2482                    
    2483                    ;*****************************************************************************
    2484                    ;* FUNCTION NAME: GPIOPortH_Handler                                          *
    2485                    ;*                                                                           *
    2486                    ;*   Regs Modified     :                                                     *
    2487                    ;*   Regs Used         : LR                                                  *
    2488                    ;*   Local Frame Size  : 0 Args + 0 Auto + 0 Save = 0 byte                   *
    2489                    ;*****************************************************************************
    2490 00000054           GPIOPortH_Handler:
    2491                    ;* --------------------------------------------------------------------------*
    2492                            .dwcfi  cfa_offset, 0
    2493                            .dwpsn  file "../tm4c123gh6pm_startup_ccs.c",line 475,column 37,is_stmt,isa 1
    2494                    ;----------------------------------------------------------------------
    2495                    ; 475 | void GPIOPortH_Handler(void){ while(1){}}          // GPIO Port H      
    2496                    ;----------------------------------------------------------------------
    2497                    ;* --------------------------------------------------------------------------*
    2498                    ;*   BEGIN LOOP ||$C$L40||
    2499                    ;*
    2500                    ;*   Loop source line                : 475
    2501                    ;*   Loop closing brace source line  : 475
    2502                    ;*   Known Minimum Trip Count        : 1
    2503                    ;*   Known Maximum Trip Count        : 4294967295
    2504                    ;*   Known Max Trip Count Factor     : 1
    2505                    ;* --------------------------------------------------------------------------*
    2506 00000054           ||$C$L40||:    
    2507 00000054 E7FE              B         ||$C$L40||            ; [DPU_3_PIPE] |475|  ; [ORIG 16-BIT INS]
    2508                            ; BRANCH OCCURS {||$C$L40||}     ; [] |475| 
    2509                    ;* --------------------------------------------------------------------------*
    2510                            .dwattr $C$DW$44, DW_AT_TI_end_file("../tm4c123gh6pm_startup_ccs.c")
    2511                            .dwattr $C$DW$44, DW_AT_TI_end_line(0x1db)
    2512                            .dwattr $C$DW$44, DW_AT_TI_end_column(0x29)
    2513                            .dwendentry
    2514                            .dwendtag $C$DW$44
    2515                    
    2516 00000056                   .sect   ".text"
    2517                            .clink
    2518                            .thumbfunc UART2_Handler
    2519 00000056                   .thumb
    2520                            .weak   UART2_Handler
    2521                    
    2522                    $C$DW$45        .dwtag  DW_TAG_subprogram
    2523                            .dwattr $C$DW$45, DW_AT_name("UART2_Handler")
    2524                            .dwattr $C$DW$45, DW_AT_low_pc(UART2_Handler)
    2525                            .dwattr $C$DW$45, DW_AT_high_pc(0x00)
    2526                            .dwattr $C$DW$45, DW_AT_TI_symbol_name("UART2_Handler")
    2527                            .dwattr $C$DW$45, DW_AT_external
    2528                            .dwattr $C$DW$45, DW_AT_TI_begin_file("../tm4c123gh6pm_startup_ccs.c")
    2529                            .dwattr $C$DW$45, DW_AT_TI_begin_line(0x1dc)
    2530                            .dwattr $C$DW$45, DW_AT_TI_begin_column(0x06)
TI ARM Assembler PC v16.9.0 Fri Mar 10 00:22:01 2017

Tools Copyright (c) 1996-2015 Texas Instruments Incorporated
tm4c123gh6pm_startup_ccs.asm                                         PAGE   47

    2531                            .dwattr $C$DW$45, DW_AT_decl_file("../tm4c123gh6pm_startup_ccs.c")
    2532                            .dwattr $C$DW$45, DW_AT_decl_line(0x1dc)
    2533                            .dwattr $C$DW$45, DW_AT_decl_column(0x06)
    2534                            .dwattr $C$DW$45, DW_AT_TI_max_frame_size(0x00)
    2535                            .dwpsn  file "../tm4c123gh6pm_startup_ccs.c",line 476,column 25,is_stmt,address UART2_Handler,
    2536                    
    2537                            .dwfde $C$DW$CIE, UART2_Handler
    2538                    
    2539                    ;*****************************************************************************
    2540                    ;* FUNCTION NAME: UART2_Handler                                              *
    2541                    ;*                                                                           *
    2542                    ;*   Regs Modified     :                                                     *
    2543                    ;*   Regs Used         : LR                                                  *
    2544                    ;*   Local Frame Size  : 0 Args + 0 Auto + 0 Save = 0 byte                   *
    2545                    ;*****************************************************************************
    2546 00000056           UART2_Handler:
    2547                    ;* --------------------------------------------------------------------------*
    2548                            .dwcfi  cfa_offset, 0
    2549                            .dwpsn  file "../tm4c123gh6pm_startup_ccs.c",line 476,column 33,is_stmt,isa 1
    2550                    ;----------------------------------------------------------------------
    2551                    ; 476 | void UART2_Handler(void){ while(1){}}              // UART2 Rx and Tx  
    2552                    ;----------------------------------------------------------------------
    2553                    ;* --------------------------------------------------------------------------*
    2554                    ;*   BEGIN LOOP ||$C$L41||
    2555                    ;*
    2556                    ;*   Loop source line                : 476
    2557                    ;*   Loop closing brace source line  : 476
    2558                    ;*   Known Minimum Trip Count        : 1
    2559                    ;*   Known Maximum Trip Count        : 4294967295
    2560                    ;*   Known Max Trip Count Factor     : 1
    2561                    ;* --------------------------------------------------------------------------*
    2562 00000056           ||$C$L41||:    
    2563 00000056 E7FE              B         ||$C$L41||            ; [DPU_3_PIPE] |476|  ; [ORIG 16-BIT INS]
    2564                            ; BRANCH OCCURS {||$C$L41||}     ; [] |476| 
    2565                    ;* --------------------------------------------------------------------------*
    2566                            .dwattr $C$DW$45, DW_AT_TI_end_file("../tm4c123gh6pm_startup_ccs.c")
    2567                            .dwattr $C$DW$45, DW_AT_TI_end_line(0x1dc)
    2568                            .dwattr $C$DW$45, DW_AT_TI_end_column(0x25)
    2569                            .dwendentry
    2570                            .dwendtag $C$DW$45
    2571                    
    2572 00000058                   .sect   ".text"
    2573                            .clink
    2574                            .thumbfunc SSI1_Handler
    2575 00000058                   .thumb
    2576                            .weak   SSI1_Handler
    2577                    
    2578                    $C$DW$46        .dwtag  DW_TAG_subprogram
    2579                            .dwattr $C$DW$46, DW_AT_name("SSI1_Handler")
    2580                            .dwattr $C$DW$46, DW_AT_low_pc(SSI1_Handler)
    2581                            .dwattr $C$DW$46, DW_AT_high_pc(0x00)
    2582                            .dwattr $C$DW$46, DW_AT_TI_symbol_name("SSI1_Handler")
    2583                            .dwattr $C$DW$46, DW_AT_external
    2584                            .dwattr $C$DW$46, DW_AT_TI_begin_file("../tm4c123gh6pm_startup_ccs.c")
    2585                            .dwattr $C$DW$46, DW_AT_TI_begin_line(0x1dd)
TI ARM Assembler PC v16.9.0 Fri Mar 10 00:22:01 2017

Tools Copyright (c) 1996-2015 Texas Instruments Incorporated
tm4c123gh6pm_startup_ccs.asm                                         PAGE   48

    2586                            .dwattr $C$DW$46, DW_AT_TI_begin_column(0x06)
    2587                            .dwattr $C$DW$46, DW_AT_decl_file("../tm4c123gh6pm_startup_ccs.c")
    2588                            .dwattr $C$DW$46, DW_AT_decl_line(0x1dd)
    2589                            .dwattr $C$DW$46, DW_AT_decl_column(0x06)
    2590                            .dwattr $C$DW$46, DW_AT_TI_max_frame_size(0x00)
    2591                            .dwpsn  file "../tm4c123gh6pm_startup_ccs.c",line 477,column 24,is_stmt,address SSI1_Handler,i
    2592                    
    2593                            .dwfde $C$DW$CIE, SSI1_Handler
    2594                    
    2595                    ;*****************************************************************************
    2596                    ;* FUNCTION NAME: SSI1_Handler                                               *
    2597                    ;*                                                                           *
    2598                    ;*   Regs Modified     :                                                     *
    2599                    ;*   Regs Used         : LR                                                  *
    2600                    ;*   Local Frame Size  : 0 Args + 0 Auto + 0 Save = 0 byte                   *
    2601                    ;*****************************************************************************
    2602 00000058           SSI1_Handler:
    2603                    ;* --------------------------------------------------------------------------*
    2604                            .dwcfi  cfa_offset, 0
    2605                            .dwpsn  file "../tm4c123gh6pm_startup_ccs.c",line 477,column 32,is_stmt,isa 1
    2606                    ;----------------------------------------------------------------------
    2607                    ; 477 | void SSI1_Handler(void){ while(1){}}               // SSI1 Rx and Tx   
    2608                    ;----------------------------------------------------------------------
    2609                    ;* --------------------------------------------------------------------------*
    2610                    ;*   BEGIN LOOP ||$C$L42||
    2611                    ;*
    2612                    ;*   Loop source line                : 477
    2613                    ;*   Loop closing brace source line  : 477
    2614                    ;*   Known Minimum Trip Count        : 1
    2615                    ;*   Known Maximum Trip Count        : 4294967295
    2616                    ;*   Known Max Trip Count Factor     : 1
    2617                    ;* --------------------------------------------------------------------------*
    2618 00000058           ||$C$L42||:    
    2619 00000058 E7FE              B         ||$C$L42||            ; [DPU_3_PIPE] |477|  ; [ORIG 16-BIT INS]
    2620                            ; BRANCH OCCURS {||$C$L42||}     ; [] |477| 
    2621                    ;* --------------------------------------------------------------------------*
    2622                            .dwattr $C$DW$46, DW_AT_TI_end_file("../tm4c123gh6pm_startup_ccs.c")
    2623                            .dwattr $C$DW$46, DW_AT_TI_end_line(0x1dd)
    2624                            .dwattr $C$DW$46, DW_AT_TI_end_column(0x24)
    2625                            .dwendentry
    2626                            .dwendtag $C$DW$46
    2627                    
    2628 0000005a                   .sect   ".text"
    2629                            .clink
    2630                            .thumbfunc Timer3A_Handler
    2631 0000005a                   .thumb
    2632                            .weak   Timer3A_Handler
    2633                    
    2634                    $C$DW$47        .dwtag  DW_TAG_subprogram
    2635                            .dwattr $C$DW$47, DW_AT_name("Timer3A_Handler")
    2636                            .dwattr $C$DW$47, DW_AT_low_pc(Timer3A_Handler)
    2637                            .dwattr $C$DW$47, DW_AT_high_pc(0x00)
    2638                            .dwattr $C$DW$47, DW_AT_TI_symbol_name("Timer3A_Handler")
    2639                            .dwattr $C$DW$47, DW_AT_external
    2640                            .dwattr $C$DW$47, DW_AT_TI_begin_file("../tm4c123gh6pm_startup_ccs.c")
TI ARM Assembler PC v16.9.0 Fri Mar 10 00:22:01 2017

Tools Copyright (c) 1996-2015 Texas Instruments Incorporated
tm4c123gh6pm_startup_ccs.asm                                         PAGE   49

    2641                            .dwattr $C$DW$47, DW_AT_TI_begin_line(0x1de)
    2642                            .dwattr $C$DW$47, DW_AT_TI_begin_column(0x06)
    2643                            .dwattr $C$DW$47, DW_AT_decl_file("../tm4c123gh6pm_startup_ccs.c")
    2644                            .dwattr $C$DW$47, DW_AT_decl_line(0x1de)
    2645                            .dwattr $C$DW$47, DW_AT_decl_column(0x06)
    2646                            .dwattr $C$DW$47, DW_AT_TI_max_frame_size(0x00)
    2647                            .dwpsn  file "../tm4c123gh6pm_startup_ccs.c",line 478,column 27,is_stmt,address Timer3A_Handle
    2648                    
    2649                            .dwfde $C$DW$CIE, Timer3A_Handler
    2650                    
    2651                    ;*****************************************************************************
    2652                    ;* FUNCTION NAME: Timer3A_Handler                                            *
    2653                    ;*                                                                           *
    2654                    ;*   Regs Modified     :                                                     *
    2655                    ;*   Regs Used         : LR                                                  *
    2656                    ;*   Local Frame Size  : 0 Args + 0 Auto + 0 Save = 0 byte                   *
    2657                    ;*****************************************************************************
    2658 0000005a           Timer3A_Handler:
    2659                    ;* --------------------------------------------------------------------------*
    2660                            .dwcfi  cfa_offset, 0
    2661                            .dwpsn  file "../tm4c123gh6pm_startup_ccs.c",line 478,column 35,is_stmt,isa 1
    2662                    ;----------------------------------------------------------------------
    2663                    ; 478 | void Timer3A_Handler(void){ while(1){}}            // Timer 3 subtimer
    2664                    ;     | A                                                                      
    2665                    ;----------------------------------------------------------------------
    2666                    ;* --------------------------------------------------------------------------*
    2667                    ;*   BEGIN LOOP ||$C$L43||
    2668                    ;*
    2669                    ;*   Loop source line                : 478
    2670                    ;*   Loop closing brace source line  : 478
    2671                    ;*   Known Minimum Trip Count        : 1
    2672                    ;*   Known Maximum Trip Count        : 4294967295
    2673                    ;*   Known Max Trip Count Factor     : 1
    2674                    ;* --------------------------------------------------------------------------*
    2675 0000005a           ||$C$L43||:    
    2676 0000005a E7FE              B         ||$C$L43||            ; [DPU_3_PIPE] |478|  ; [ORIG 16-BIT INS]
    2677                            ; BRANCH OCCURS {||$C$L43||}     ; [] |478| 
    2678                    ;* --------------------------------------------------------------------------*
    2679                            .dwattr $C$DW$47, DW_AT_TI_end_file("../tm4c123gh6pm_startup_ccs.c")
    2680                            .dwattr $C$DW$47, DW_AT_TI_end_line(0x1de)
    2681                            .dwattr $C$DW$47, DW_AT_TI_end_column(0x27)
    2682                            .dwendentry
    2683                            .dwendtag $C$DW$47
    2684                    
    2685 0000005c                   .sect   ".text"
    2686                            .clink
    2687                            .thumbfunc Timer3B_Handler
    2688 0000005c                   .thumb
    2689                            .weak   Timer3B_Handler
    2690                    
    2691                    $C$DW$48        .dwtag  DW_TAG_subprogram
    2692                            .dwattr $C$DW$48, DW_AT_name("Timer3B_Handler")
    2693                            .dwattr $C$DW$48, DW_AT_low_pc(Timer3B_Handler)
    2694                            .dwattr $C$DW$48, DW_AT_high_pc(0x00)
    2695                            .dwattr $C$DW$48, DW_AT_TI_symbol_name("Timer3B_Handler")
TI ARM Assembler PC v16.9.0 Fri Mar 10 00:22:01 2017

Tools Copyright (c) 1996-2015 Texas Instruments Incorporated
tm4c123gh6pm_startup_ccs.asm                                         PAGE   50

    2696                            .dwattr $C$DW$48, DW_AT_external
    2697                            .dwattr $C$DW$48, DW_AT_TI_begin_file("../tm4c123gh6pm_startup_ccs.c")
    2698                            .dwattr $C$DW$48, DW_AT_TI_begin_line(0x1df)
    2699                            .dwattr $C$DW$48, DW_AT_TI_begin_column(0x06)
    2700                            .dwattr $C$DW$48, DW_AT_decl_file("../tm4c123gh6pm_startup_ccs.c")
    2701                            .dwattr $C$DW$48, DW_AT_decl_line(0x1df)
    2702                            .dwattr $C$DW$48, DW_AT_decl_column(0x06)
    2703                            .dwattr $C$DW$48, DW_AT_TI_max_frame_size(0x00)
    2704                            .dwpsn  file "../tm4c123gh6pm_startup_ccs.c",line 479,column 27,is_stmt,address Timer3B_Handle
    2705                    
    2706                            .dwfde $C$DW$CIE, Timer3B_Handler
    2707                    
    2708                    ;*****************************************************************************
    2709                    ;* FUNCTION NAME: Timer3B_Handler                                            *
    2710                    ;*                                                                           *
    2711                    ;*   Regs Modified     :                                                     *
    2712                    ;*   Regs Used         : LR                                                  *
    2713                    ;*   Local Frame Size  : 0 Args + 0 Auto + 0 Save = 0 byte                   *
    2714                    ;*****************************************************************************
    2715 0000005c           Timer3B_Handler:
    2716                    ;* --------------------------------------------------------------------------*
    2717                            .dwcfi  cfa_offset, 0
    2718                            .dwpsn  file "../tm4c123gh6pm_startup_ccs.c",line 479,column 35,is_stmt,isa 1
    2719                    ;----------------------------------------------------------------------
    2720                    ; 479 | void Timer3B_Handler(void){ while(1){}}            // Timer 3 subtimer
    2721                    ;     | B                                                                      
    2722                    ;----------------------------------------------------------------------
    2723                    ;* --------------------------------------------------------------------------*
    2724                    ;*   BEGIN LOOP ||$C$L44||
    2725                    ;*
    2726                    ;*   Loop source line                : 479
    2727                    ;*   Loop closing brace source line  : 479
    2728                    ;*   Known Minimum Trip Count        : 1
    2729                    ;*   Known Maximum Trip Count        : 4294967295
    2730                    ;*   Known Max Trip Count Factor     : 1
    2731                    ;* --------------------------------------------------------------------------*
    2732 0000005c           ||$C$L44||:    
    2733 0000005c E7FE              B         ||$C$L44||            ; [DPU_3_PIPE] |479|  ; [ORIG 16-BIT INS]
    2734                            ; BRANCH OCCURS {||$C$L44||}     ; [] |479| 
    2735                    ;* --------------------------------------------------------------------------*
    2736                            .dwattr $C$DW$48, DW_AT_TI_end_file("../tm4c123gh6pm_startup_ccs.c")
    2737                            .dwattr $C$DW$48, DW_AT_TI_end_line(0x1df)
    2738                            .dwattr $C$DW$48, DW_AT_TI_end_column(0x27)
    2739                            .dwendentry
    2740                            .dwendtag $C$DW$48
    2741                    
    2742 0000005e                   .sect   ".text"
    2743                            .clink
    2744                            .thumbfunc I2C1_Handler
    2745 0000005e                   .thumb
    2746                            .weak   I2C1_Handler
    2747                    
    2748                    $C$DW$49        .dwtag  DW_TAG_subprogram
    2749                            .dwattr $C$DW$49, DW_AT_name("I2C1_Handler")
    2750                            .dwattr $C$DW$49, DW_AT_low_pc(I2C1_Handler)
TI ARM Assembler PC v16.9.0 Fri Mar 10 00:22:01 2017

Tools Copyright (c) 1996-2015 Texas Instruments Incorporated
tm4c123gh6pm_startup_ccs.asm                                         PAGE   51

    2751                            .dwattr $C$DW$49, DW_AT_high_pc(0x00)
    2752                            .dwattr $C$DW$49, DW_AT_TI_symbol_name("I2C1_Handler")
    2753                            .dwattr $C$DW$49, DW_AT_external
    2754                            .dwattr $C$DW$49, DW_AT_TI_begin_file("../tm4c123gh6pm_startup_ccs.c")
    2755                            .dwattr $C$DW$49, DW_AT_TI_begin_line(0x1e0)
    2756                            .dwattr $C$DW$49, DW_AT_TI_begin_column(0x06)
    2757                            .dwattr $C$DW$49, DW_AT_decl_file("../tm4c123gh6pm_startup_ccs.c")
    2758                            .dwattr $C$DW$49, DW_AT_decl_line(0x1e0)
    2759                            .dwattr $C$DW$49, DW_AT_decl_column(0x06)
    2760                            .dwattr $C$DW$49, DW_AT_TI_max_frame_size(0x00)
    2761                            .dwpsn  file "../tm4c123gh6pm_startup_ccs.c",line 480,column 24,is_stmt,address I2C1_Handler,i
    2762                    
    2763                            .dwfde $C$DW$CIE, I2C1_Handler
    2764                    
    2765                    ;*****************************************************************************
    2766                    ;* FUNCTION NAME: I2C1_Handler                                               *
    2767                    ;*                                                                           *
    2768                    ;*   Regs Modified     :                                                     *
    2769                    ;*   Regs Used         : LR                                                  *
    2770                    ;*   Local Frame Size  : 0 Args + 0 Auto + 0 Save = 0 byte                   *
    2771                    ;*****************************************************************************
    2772 0000005e           I2C1_Handler:
    2773                    ;* --------------------------------------------------------------------------*
    2774                            .dwcfi  cfa_offset, 0
    2775                            .dwpsn  file "../tm4c123gh6pm_startup_ccs.c",line 480,column 32,is_stmt,isa 1
    2776                    ;----------------------------------------------------------------------
    2777                    ; 480 | void I2C1_Handler(void){ while(1){}}               // I2C1 Master and S
    2778                    ;     | lave                                                                   
    2779                    ;----------------------------------------------------------------------
    2780                    ;* --------------------------------------------------------------------------*
    2781                    ;*   BEGIN LOOP ||$C$L45||
    2782                    ;*
    2783                    ;*   Loop source line                : 480
    2784                    ;*   Loop closing brace source line  : 480
    2785                    ;*   Known Minimum Trip Count        : 1
    2786                    ;*   Known Maximum Trip Count        : 4294967295
    2787                    ;*   Known Max Trip Count Factor     : 1
    2788                    ;* --------------------------------------------------------------------------*
    2789 0000005e           ||$C$L45||:    
    2790 0000005e E7FE              B         ||$C$L45||            ; [DPU_3_PIPE] |480|  ; [ORIG 16-BIT INS]
    2791                            ; BRANCH OCCURS {||$C$L45||}     ; [] |480| 
    2792                    ;* --------------------------------------------------------------------------*
    2793                            .dwattr $C$DW$49, DW_AT_TI_end_file("../tm4c123gh6pm_startup_ccs.c")
    2794                            .dwattr $C$DW$49, DW_AT_TI_end_line(0x1e0)
    2795                            .dwattr $C$DW$49, DW_AT_TI_end_column(0x24)
    2796                            .dwendentry
    2797                            .dwendtag $C$DW$49
    2798                    
    2799 00000060                   .sect   ".text"
    2800                            .clink
    2801                            .thumbfunc Quadrature1_Handler
    2802 00000060                   .thumb
    2803                            .weak   Quadrature1_Handler
    2804                    
    2805                    $C$DW$50        .dwtag  DW_TAG_subprogram
TI ARM Assembler PC v16.9.0 Fri Mar 10 00:22:01 2017

Tools Copyright (c) 1996-2015 Texas Instruments Incorporated
tm4c123gh6pm_startup_ccs.asm                                         PAGE   52

    2806                            .dwattr $C$DW$50, DW_AT_name("Quadrature1_Handler")
    2807                            .dwattr $C$DW$50, DW_AT_low_pc(Quadrature1_Handler)
    2808                            .dwattr $C$DW$50, DW_AT_high_pc(0x00)
    2809                            .dwattr $C$DW$50, DW_AT_TI_symbol_name("Quadrature1_Handler")
    2810                            .dwattr $C$DW$50, DW_AT_external
    2811                            .dwattr $C$DW$50, DW_AT_TI_begin_file("../tm4c123gh6pm_startup_ccs.c")
    2812                            .dwattr $C$DW$50, DW_AT_TI_begin_line(0x1e1)
    2813                            .dwattr $C$DW$50, DW_AT_TI_begin_column(0x06)
    2814                            .dwattr $C$DW$50, DW_AT_decl_file("../tm4c123gh6pm_startup_ccs.c")
    2815                            .dwattr $C$DW$50, DW_AT_decl_line(0x1e1)
    2816                            .dwattr $C$DW$50, DW_AT_decl_column(0x06)
    2817                            .dwattr $C$DW$50, DW_AT_TI_max_frame_size(0x00)
    2818                            .dwpsn  file "../tm4c123gh6pm_startup_ccs.c",line 481,column 31,is_stmt,address Quadrature1_Ha
    2819                    
    2820                            .dwfde $C$DW$CIE, Quadrature1_Handler
    2821                    
    2822                    ;*****************************************************************************
    2823                    ;* FUNCTION NAME: Quadrature1_Handler                                        *
    2824                    ;*                                                                           *
    2825                    ;*   Regs Modified     :                                                     *
    2826                    ;*   Regs Used         : LR                                                  *
    2827                    ;*   Local Frame Size  : 0 Args + 0 Auto + 0 Save = 0 byte                   *
    2828                    ;*****************************************************************************
    2829 00000060           Quadrature1_Handler:
    2830                    ;* --------------------------------------------------------------------------*
    2831                            .dwcfi  cfa_offset, 0
    2832                            .dwpsn  file "../tm4c123gh6pm_startup_ccs.c",line 481,column 39,is_stmt,isa 1
    2833                    ;----------------------------------------------------------------------
    2834                    ; 481 | void Quadrature1_Handler(void){ while(1){}}        // Quadrature Encode
    2835                    ;     | r 1                                                                    
    2836                    ;----------------------------------------------------------------------
    2837                    ;* --------------------------------------------------------------------------*
    2838                    ;*   BEGIN LOOP ||$C$L46||
    2839                    ;*
    2840                    ;*   Loop source line                : 481
    2841                    ;*   Loop closing brace source line  : 481
    2842                    ;*   Known Minimum Trip Count        : 1
    2843                    ;*   Known Maximum Trip Count        : 4294967295
    2844                    ;*   Known Max Trip Count Factor     : 1
    2845                    ;* --------------------------------------------------------------------------*
    2846 00000060           ||$C$L46||:    
    2847 00000060 E7FE              B         ||$C$L46||            ; [DPU_3_PIPE] |481|  ; [ORIG 16-BIT INS]
    2848                            ; BRANCH OCCURS {||$C$L46||}     ; [] |481| 
    2849                    ;* --------------------------------------------------------------------------*
    2850                            .dwattr $C$DW$50, DW_AT_TI_end_file("../tm4c123gh6pm_startup_ccs.c")
    2851                            .dwattr $C$DW$50, DW_AT_TI_end_line(0x1e1)
    2852                            .dwattr $C$DW$50, DW_AT_TI_end_column(0x2b)
    2853                            .dwendentry
    2854                            .dwendtag $C$DW$50
    2855                    
    2856 00000062                   .sect   ".text"
    2857                            .clink
    2858                            .thumbfunc CAN0_Handler
    2859 00000062                   .thumb
    2860                            .weak   CAN0_Handler
TI ARM Assembler PC v16.9.0 Fri Mar 10 00:22:01 2017

Tools Copyright (c) 1996-2015 Texas Instruments Incorporated
tm4c123gh6pm_startup_ccs.asm                                         PAGE   53

    2861                    
    2862                    $C$DW$51        .dwtag  DW_TAG_subprogram
    2863                            .dwattr $C$DW$51, DW_AT_name("CAN0_Handler")
    2864                            .dwattr $C$DW$51, DW_AT_low_pc(CAN0_Handler)
    2865                            .dwattr $C$DW$51, DW_AT_high_pc(0x00)
    2866                            .dwattr $C$DW$51, DW_AT_TI_symbol_name("CAN0_Handler")
    2867                            .dwattr $C$DW$51, DW_AT_external
    2868                            .dwattr $C$DW$51, DW_AT_TI_begin_file("../tm4c123gh6pm_startup_ccs.c")
    2869                            .dwattr $C$DW$51, DW_AT_TI_begin_line(0x1e2)
    2870                            .dwattr $C$DW$51, DW_AT_TI_begin_column(0x06)
    2871                            .dwattr $C$DW$51, DW_AT_decl_file("../tm4c123gh6pm_startup_ccs.c")
    2872                            .dwattr $C$DW$51, DW_AT_decl_line(0x1e2)
    2873                            .dwattr $C$DW$51, DW_AT_decl_column(0x06)
    2874                            .dwattr $C$DW$51, DW_AT_TI_max_frame_size(0x00)
    2875                            .dwpsn  file "../tm4c123gh6pm_startup_ccs.c",line 482,column 24,is_stmt,address CAN0_Handler,i
    2876                    
    2877                            .dwfde $C$DW$CIE, CAN0_Handler
    2878                    
    2879                    ;*****************************************************************************
    2880                    ;* FUNCTION NAME: CAN0_Handler                                               *
    2881                    ;*                                                                           *
    2882                    ;*   Regs Modified     :                                                     *
    2883                    ;*   Regs Used         : LR                                                  *
    2884                    ;*   Local Frame Size  : 0 Args + 0 Auto + 0 Save = 0 byte                   *
    2885                    ;*****************************************************************************
    2886 00000062           CAN0_Handler:
    2887                    ;* --------------------------------------------------------------------------*
    2888                            .dwcfi  cfa_offset, 0
    2889                            .dwpsn  file "../tm4c123gh6pm_startup_ccs.c",line 482,column 32,is_stmt,isa 1
    2890                    ;----------------------------------------------------------------------
    2891                    ; 482 | void CAN0_Handler(void){ while(1){}}               // CAN0             
    2892                    ;----------------------------------------------------------------------
    2893                    ;* --------------------------------------------------------------------------*
    2894                    ;*   BEGIN LOOP ||$C$L47||
    2895                    ;*
    2896                    ;*   Loop source line                : 482
    2897                    ;*   Loop closing brace source line  : 482
    2898                    ;*   Known Minimum Trip Count        : 1
    2899                    ;*   Known Maximum Trip Count        : 4294967295
    2900                    ;*   Known Max Trip Count Factor     : 1
    2901                    ;* --------------------------------------------------------------------------*
    2902 00000062           ||$C$L47||:    
    2903 00000062 E7FE              B         ||$C$L47||            ; [DPU_3_PIPE] |482|  ; [ORIG 16-BIT INS]
    2904                            ; BRANCH OCCURS {||$C$L47||}     ; [] |482| 
    2905                    ;* --------------------------------------------------------------------------*
    2906                            .dwattr $C$DW$51, DW_AT_TI_end_file("../tm4c123gh6pm_startup_ccs.c")
    2907                            .dwattr $C$DW$51, DW_AT_TI_end_line(0x1e2)
    2908                            .dwattr $C$DW$51, DW_AT_TI_end_column(0x24)
    2909                            .dwendentry
    2910                            .dwendtag $C$DW$51
    2911                    
    2912 00000064                   .sect   ".text"
    2913                            .clink
    2914                            .thumbfunc CAN1_Handler
    2915 00000064                   .thumb
TI ARM Assembler PC v16.9.0 Fri Mar 10 00:22:01 2017

Tools Copyright (c) 1996-2015 Texas Instruments Incorporated
tm4c123gh6pm_startup_ccs.asm                                         PAGE   54

    2916                            .weak   CAN1_Handler
    2917                    
    2918                    $C$DW$52        .dwtag  DW_TAG_subprogram
    2919                            .dwattr $C$DW$52, DW_AT_name("CAN1_Handler")
    2920                            .dwattr $C$DW$52, DW_AT_low_pc(CAN1_Handler)
    2921                            .dwattr $C$DW$52, DW_AT_high_pc(0x00)
    2922                            .dwattr $C$DW$52, DW_AT_TI_symbol_name("CAN1_Handler")
    2923                            .dwattr $C$DW$52, DW_AT_external
    2924                            .dwattr $C$DW$52, DW_AT_TI_begin_file("../tm4c123gh6pm_startup_ccs.c")
    2925                            .dwattr $C$DW$52, DW_AT_TI_begin_line(0x1e3)
    2926                            .dwattr $C$DW$52, DW_AT_TI_begin_column(0x06)
    2927                            .dwattr $C$DW$52, DW_AT_decl_file("../tm4c123gh6pm_startup_ccs.c")
    2928                            .dwattr $C$DW$52, DW_AT_decl_line(0x1e3)
    2929                            .dwattr $C$DW$52, DW_AT_decl_column(0x06)
    2930                            .dwattr $C$DW$52, DW_AT_TI_max_frame_size(0x00)
    2931                            .dwpsn  file "../tm4c123gh6pm_startup_ccs.c",line 483,column 24,is_stmt,address CAN1_Handler,i
    2932                    
    2933                            .dwfde $C$DW$CIE, CAN1_Handler
    2934                    
    2935                    ;*****************************************************************************
    2936                    ;* FUNCTION NAME: CAN1_Handler                                               *
    2937                    ;*                                                                           *
    2938                    ;*   Regs Modified     :                                                     *
    2939                    ;*   Regs Used         : LR                                                  *
    2940                    ;*   Local Frame Size  : 0 Args + 0 Auto + 0 Save = 0 byte                   *
    2941                    ;*****************************************************************************
    2942 00000064           CAN1_Handler:
    2943                    ;* --------------------------------------------------------------------------*
    2944                            .dwcfi  cfa_offset, 0
    2945                            .dwpsn  file "../tm4c123gh6pm_startup_ccs.c",line 483,column 32,is_stmt,isa 1
    2946                    ;----------------------------------------------------------------------
    2947                    ; 483 | void CAN1_Handler(void){ while(1){}}               // CAN1             
    2948                    ;----------------------------------------------------------------------
    2949                    ;* --------------------------------------------------------------------------*
    2950                    ;*   BEGIN LOOP ||$C$L48||
    2951                    ;*
    2952                    ;*   Loop source line                : 483
    2953                    ;*   Loop closing brace source line  : 483
    2954                    ;*   Known Minimum Trip Count        : 1
    2955                    ;*   Known Maximum Trip Count        : 4294967295
    2956                    ;*   Known Max Trip Count Factor     : 1
    2957                    ;* --------------------------------------------------------------------------*
    2958 00000064           ||$C$L48||:    
    2959 00000064 E7FE              B         ||$C$L48||            ; [DPU_3_PIPE] |483|  ; [ORIG 16-BIT INS]
    2960                            ; BRANCH OCCURS {||$C$L48||}     ; [] |483| 
    2961                    ;* --------------------------------------------------------------------------*
    2962                            .dwattr $C$DW$52, DW_AT_TI_end_file("../tm4c123gh6pm_startup_ccs.c")
    2963                            .dwattr $C$DW$52, DW_AT_TI_end_line(0x1e3)
    2964                            .dwattr $C$DW$52, DW_AT_TI_end_column(0x24)
    2965                            .dwendentry
    2966                            .dwendtag $C$DW$52
    2967                    
    2968 00000066                   .sect   ".text"
    2969                            .clink
    2970                            .thumbfunc CAN2_Handler
TI ARM Assembler PC v16.9.0 Fri Mar 10 00:22:01 2017

Tools Copyright (c) 1996-2015 Texas Instruments Incorporated
tm4c123gh6pm_startup_ccs.asm                                         PAGE   55

    2971 00000066                   .thumb
    2972                            .weak   CAN2_Handler
    2973                    
    2974                    $C$DW$53        .dwtag  DW_TAG_subprogram
    2975                            .dwattr $C$DW$53, DW_AT_name("CAN2_Handler")
    2976                            .dwattr $C$DW$53, DW_AT_low_pc(CAN2_Handler)
    2977                            .dwattr $C$DW$53, DW_AT_high_pc(0x00)
    2978                            .dwattr $C$DW$53, DW_AT_TI_symbol_name("CAN2_Handler")
    2979                            .dwattr $C$DW$53, DW_AT_external
    2980                            .dwattr $C$DW$53, DW_AT_TI_begin_file("../tm4c123gh6pm_startup_ccs.c")
    2981                            .dwattr $C$DW$53, DW_AT_TI_begin_line(0x1e4)
    2982                            .dwattr $C$DW$53, DW_AT_TI_begin_column(0x06)
    2983                            .dwattr $C$DW$53, DW_AT_decl_file("../tm4c123gh6pm_startup_ccs.c")
    2984                            .dwattr $C$DW$53, DW_AT_decl_line(0x1e4)
    2985                            .dwattr $C$DW$53, DW_AT_decl_column(0x06)
