ARM GAS  C:\Users\maxk\AppData\Local\Temp\ccpjUkfa.s 			page 1


   1              		.cpu cortex-m0
   2              		.fpu softvfp
   3              		.eabi_attribute 20, 1
   4              		.eabi_attribute 21, 1
   5              		.eabi_attribute 23, 3
   6              		.eabi_attribute 24, 1
   7              		.eabi_attribute 25, 1
   8              		.eabi_attribute 26, 1
   9              		.eabi_attribute 30, 6
  10              		.eabi_attribute 18, 4
  11              		.code	16
  12              		.file	"Clock_PWM.c"
  19 0000 C3000000 		.text
  19      02006100 
  19      00000201 
  19      FB0E0D00 
  19      01010101 
  20              	.Ltext0:
  21              		.cfi_sections	.debug_frame
  22              		.section	.text.Clock_PWM_Start,"ax",%progbits
  23              		.align	2
  24              		.global	Clock_PWM_Start
  25              		.code	16
  26              		.thumb_func
  27              		.type	Clock_PWM_Start, %function
  28              	Clock_PWM_Start:
  29              	.LFB0:
  30              		.file 1 ".\\Generated_Source\\PSoC4\\Clock_PWM.c"
   1:.\Generated_Source\PSoC4/Clock_PWM.c **** /*******************************************************************************
   2:.\Generated_Source\PSoC4/Clock_PWM.c **** * File Name: Clock_PWM.c
   3:.\Generated_Source\PSoC4/Clock_PWM.c **** * Version 2.0
   4:.\Generated_Source\PSoC4/Clock_PWM.c **** *
   5:.\Generated_Source\PSoC4/Clock_PWM.c **** *  Description:
   6:.\Generated_Source\PSoC4/Clock_PWM.c **** *   Provides system API for the clocking, interrupts and watchdog timer.
   7:.\Generated_Source\PSoC4/Clock_PWM.c **** *
   8:.\Generated_Source\PSoC4/Clock_PWM.c **** *  Note:
   9:.\Generated_Source\PSoC4/Clock_PWM.c **** *   Documentation of the API's in this file is located in the
  10:.\Generated_Source\PSoC4/Clock_PWM.c **** *   System Reference Guide provided with PSoC Creator.
  11:.\Generated_Source\PSoC4/Clock_PWM.c **** *
  12:.\Generated_Source\PSoC4/Clock_PWM.c **** ********************************************************************************
  13:.\Generated_Source\PSoC4/Clock_PWM.c **** * Copyright 2008-2012, Cypress Semiconductor Corporation.  All rights reserved.
  14:.\Generated_Source\PSoC4/Clock_PWM.c **** * You may use this file only in accordance with the license, terms, conditions,
  15:.\Generated_Source\PSoC4/Clock_PWM.c **** * disclaimers, and limitations in the end user license agreement accompanying
  16:.\Generated_Source\PSoC4/Clock_PWM.c **** * the software package with which this file was provided.
  17:.\Generated_Source\PSoC4/Clock_PWM.c **** *******************************************************************************/
  18:.\Generated_Source\PSoC4/Clock_PWM.c **** 
  19:.\Generated_Source\PSoC4/Clock_PWM.c **** #include <cydevice_trm.h>
  20:.\Generated_Source\PSoC4/Clock_PWM.c **** #include "Clock_PWM.h"
  21:.\Generated_Source\PSoC4/Clock_PWM.c **** 
  22:.\Generated_Source\PSoC4/Clock_PWM.c **** 
  23:.\Generated_Source\PSoC4/Clock_PWM.c **** /*******************************************************************************
ARM GAS  C:\Users\maxk\AppData\Local\Temp\ccpjUkfa.s 			page 2


  24:.\Generated_Source\PSoC4/Clock_PWM.c **** * Function Name: Clock_PWM_Start
  25:.\Generated_Source\PSoC4/Clock_PWM.c **** ********************************************************************************
  26:.\Generated_Source\PSoC4/Clock_PWM.c **** *
  27:.\Generated_Source\PSoC4/Clock_PWM.c **** * Summary:
  28:.\Generated_Source\PSoC4/Clock_PWM.c **** *  Starts the clock.
  29:.\Generated_Source\PSoC4/Clock_PWM.c **** *
  30:.\Generated_Source\PSoC4/Clock_PWM.c **** * Parameters:
  31:.\Generated_Source\PSoC4/Clock_PWM.c **** *  None
  32:.\Generated_Source\PSoC4/Clock_PWM.c **** *
  33:.\Generated_Source\PSoC4/Clock_PWM.c **** * Returns:
  34:.\Generated_Source\PSoC4/Clock_PWM.c **** *  None
  35:.\Generated_Source\PSoC4/Clock_PWM.c **** *
  36:.\Generated_Source\PSoC4/Clock_PWM.c **** *******************************************************************************/
  37:.\Generated_Source\PSoC4/Clock_PWM.c **** void Clock_PWM_Start(void)
  38:.\Generated_Source\PSoC4/Clock_PWM.c **** {
  31              		.loc 1 38 0
  32              		.cfi_startproc
  33 0000 80B5     		push	{r7, lr}
  34              	.LCFI0:
  35              		.cfi_def_cfa_offset 8
  36              		.cfi_offset 7, -8
  37              		.cfi_offset 14, -4
  38 0002 00AF     		add	r7, sp, #0
  39              	.LCFI1:
  40              		.cfi_def_cfa_register 7
  39:.\Generated_Source\PSoC4/Clock_PWM.c ****     /* Set the bit to enable the clock. */
  40:.\Generated_Source\PSoC4/Clock_PWM.c ****     Clock_PWM_ENABLE_REG |= Clock_PWM__ENABLE_MASK;
  41              		.loc 1 40 0
  42 0004 044A     		ldr	r2, .L3
  43 0006 044B     		ldr	r3, .L3
  44 0008 1968     		ldr	r1, [r3]
  45 000a 8023     		mov	r3, #128
  46 000c 1B06     		lsl	r3, r3, #24
  47 000e 0B43     		orr	r3, r3, r1
  48 0010 1360     		str	r3, [r2]
  41:.\Generated_Source\PSoC4/Clock_PWM.c **** }
  49              		.loc 1 41 0
  50 0012 BD46     		mov	sp, r7
  51              		@ sp needed for prologue
  52 0014 80BD     		pop	{r7, pc}
  53              	.L4:
  54 0016 C046     		.align	2
  55              	.L3:
  56 0018 00000240 		.word	1073872896
  57              		.cfi_endproc
  58              	.LFE0:
  59              		.size	Clock_PWM_Start, .-Clock_PWM_Start
  60              		.section	.text.Clock_PWM_Stop,"ax",%progbits
  61              		.align	2
  62              		.global	Clock_PWM_Stop
  63              		.code	16
  64              		.thumb_func
  65              		.type	Clock_PWM_Stop, %function
  66              	Clock_PWM_Stop:
  67              	.LFB1:
  42:.\Generated_Source\PSoC4/Clock_PWM.c **** 
  43:.\Generated_Source\PSoC4/Clock_PWM.c **** 
ARM GAS  C:\Users\maxk\AppData\Local\Temp\ccpjUkfa.s 			page 3


  44:.\Generated_Source\PSoC4/Clock_PWM.c **** /*******************************************************************************
  45:.\Generated_Source\PSoC4/Clock_PWM.c **** * Function Name: Clock_PWM_Stop
  46:.\Generated_Source\PSoC4/Clock_PWM.c **** ********************************************************************************
  47:.\Generated_Source\PSoC4/Clock_PWM.c **** *
  48:.\Generated_Source\PSoC4/Clock_PWM.c **** * Summary:
  49:.\Generated_Source\PSoC4/Clock_PWM.c **** *  Stops the clock and returns immediately. This API does not require the
  50:.\Generated_Source\PSoC4/Clock_PWM.c **** *  source clock to be running but may return before the hardware is actually
  51:.\Generated_Source\PSoC4/Clock_PWM.c **** *  disabled.
  52:.\Generated_Source\PSoC4/Clock_PWM.c **** *
  53:.\Generated_Source\PSoC4/Clock_PWM.c **** * Parameters:
  54:.\Generated_Source\PSoC4/Clock_PWM.c **** *  None
  55:.\Generated_Source\PSoC4/Clock_PWM.c **** *
  56:.\Generated_Source\PSoC4/Clock_PWM.c **** * Returns:
  57:.\Generated_Source\PSoC4/Clock_PWM.c **** *  None
  58:.\Generated_Source\PSoC4/Clock_PWM.c **** *
  59:.\Generated_Source\PSoC4/Clock_PWM.c **** *******************************************************************************/
  60:.\Generated_Source\PSoC4/Clock_PWM.c **** void Clock_PWM_Stop(void)
  61:.\Generated_Source\PSoC4/Clock_PWM.c **** {
  68              		.loc 1 61 0
  69              		.cfi_startproc
  70 0000 80B5     		push	{r7, lr}
  71              	.LCFI2:
  72              		.cfi_def_cfa_offset 8
  73              		.cfi_offset 7, -8
  74              		.cfi_offset 14, -4
  75 0002 00AF     		add	r7, sp, #0
  76              	.LCFI3:
  77              		.cfi_def_cfa_register 7
  62:.\Generated_Source\PSoC4/Clock_PWM.c ****     /* Clear the bit to disable the clock. */
  63:.\Generated_Source\PSoC4/Clock_PWM.c ****     Clock_PWM_ENABLE_REG &= (uint32)(~Clock_PWM__ENABLE_MASK);
  78              		.loc 1 63 0
  79 0004 034B     		ldr	r3, .L7
  80 0006 034A     		ldr	r2, .L7
  81 0008 1268     		ldr	r2, [r2]
  82 000a 5200     		lsl	r2, r2, #1
  83 000c 5208     		lsr	r2, r2, #1
  84 000e 1A60     		str	r2, [r3]
  64:.\Generated_Source\PSoC4/Clock_PWM.c **** }
  85              		.loc 1 64 0
  86 0010 BD46     		mov	sp, r7
  87              		@ sp needed for prologue
  88 0012 80BD     		pop	{r7, pc}
  89              	.L8:
  90              		.align	2
  91              	.L7:
  92 0014 00000240 		.word	1073872896
  93              		.cfi_endproc
  94              	.LFE1:
  95              		.size	Clock_PWM_Stop, .-Clock_PWM_Stop
  96              		.section	.text.Clock_PWM_SetFractionalDividerRegister,"ax",%progbits
  97              		.align	2
  98              		.global	Clock_PWM_SetFractionalDividerRegister
  99              		.code	16
 100              		.thumb_func
 101              		.type	Clock_PWM_SetFractionalDividerRegister, %function
 102              	Clock_PWM_SetFractionalDividerRegister:
 103              	.LFB2:
ARM GAS  C:\Users\maxk\AppData\Local\Temp\ccpjUkfa.s 			page 4


  65:.\Generated_Source\PSoC4/Clock_PWM.c **** 
  66:.\Generated_Source\PSoC4/Clock_PWM.c **** 
  67:.\Generated_Source\PSoC4/Clock_PWM.c **** /*******************************************************************************
  68:.\Generated_Source\PSoC4/Clock_PWM.c **** * Function Name: Clock_PWM_SetFractionalDividerRegister
  69:.\Generated_Source\PSoC4/Clock_PWM.c **** ********************************************************************************
  70:.\Generated_Source\PSoC4/Clock_PWM.c **** *
  71:.\Generated_Source\PSoC4/Clock_PWM.c **** * Summary:
  72:.\Generated_Source\PSoC4/Clock_PWM.c **** *  Modifies the clock divider and the fractional divider.
  73:.\Generated_Source\PSoC4/Clock_PWM.c **** *
  74:.\Generated_Source\PSoC4/Clock_PWM.c **** * Parameters:
  75:.\Generated_Source\PSoC4/Clock_PWM.c **** *  clkDivider:  Divider register value (0-65535). This value is NOT the
  76:.\Generated_Source\PSoC4/Clock_PWM.c **** *    divider; the clock hardware divides by clkDivider plus one. For example,
  77:.\Generated_Source\PSoC4/Clock_PWM.c **** *    to divide the clock by 2, this parameter should be set to 1.
  78:.\Generated_Source\PSoC4/Clock_PWM.c **** *  fracDivider:  Fractional Divider register value (0-31).
  79:.\Generated_Source\PSoC4/Clock_PWM.c **** * Returns:
  80:.\Generated_Source\PSoC4/Clock_PWM.c **** *  None
  81:.\Generated_Source\PSoC4/Clock_PWM.c **** *
  82:.\Generated_Source\PSoC4/Clock_PWM.c **** *******************************************************************************/
  83:.\Generated_Source\PSoC4/Clock_PWM.c **** void Clock_PWM_SetFractionalDividerRegister(uint16 clkDivider, uint8 clkFractional)
  84:.\Generated_Source\PSoC4/Clock_PWM.c **** {
 104              		.loc 1 84 0
 105              		.cfi_startproc
 106 0000 80B5     		push	{r7, lr}
 107              	.LCFI4:
 108              		.cfi_def_cfa_offset 8
 109              		.cfi_offset 7, -8
 110              		.cfi_offset 14, -4
 111 0002 84B0     		sub	sp, sp, #16
 112              	.LCFI5:
 113              		.cfi_def_cfa_offset 24
 114 0004 00AF     		add	r7, sp, #0
 115              	.LCFI6:
 116              		.cfi_def_cfa_register 7
 117 0006 0A1C     		mov	r2, r1
 118 0008 BB1D     		add	r3, r7, #6
 119 000a 011C     		add	r1, r0, #0
 120 000c 1980     		strh	r1, [r3]
 121 000e 7B1D     		add	r3, r7, #5
 122 0010 1A70     		strb	r2, [r3]
  85:.\Generated_Source\PSoC4/Clock_PWM.c **** #if defined (Clock_PWM__FRAC_MASK)
  86:.\Generated_Source\PSoC4/Clock_PWM.c **** 	/* get all but divider bits */
  87:.\Generated_Source\PSoC4/Clock_PWM.c ****     uint32 maskVal = Clock_PWM_DIV_REG & 
  88:.\Generated_Source\PSoC4/Clock_PWM.c ****                     (uint32)(~(Clock_PWM__DIVIDER_MASK | Clock_PWM__FRAC_MASK)); 
  89:.\Generated_Source\PSoC4/Clock_PWM.c **** 	/* combine mask and new divider val into 32-bit value */
  90:.\Generated_Source\PSoC4/Clock_PWM.c ****     uint32 regVal = clkDivider | (((uint32)clkFractional << 16) & Clock_PWM__FRAC_MASK) | maskVal;
  91:.\Generated_Source\PSoC4/Clock_PWM.c **** #else
  92:.\Generated_Source\PSoC4/Clock_PWM.c ****     /* get all but integer divider bits */
  93:.\Generated_Source\PSoC4/Clock_PWM.c ****     uint32 maskVal = Clock_PWM_DIV_REG & (uint32)(~(uint32)Clock_PWM__DIVIDER_MASK);
 123              		.loc 1 93 0
 124 0012 084B     		ldr	r3, .L11
 125 0014 1B68     		ldr	r3, [r3]
 126 0016 1B0C     		lsr	r3, r3, #16
 127 0018 1B04     		lsl	r3, r3, #16
 128 001a BB60     		str	r3, [r7, #8]
  94:.\Generated_Source\PSoC4/Clock_PWM.c ****     /* combine mask and new divider val into 32-bit value */
  95:.\Generated_Source\PSoC4/Clock_PWM.c ****     uint32 regVal = clkDivider | maskVal;
 129              		.loc 1 95 0
ARM GAS  C:\Users\maxk\AppData\Local\Temp\ccpjUkfa.s 			page 5


 130 001c BB1D     		add	r3, r7, #6
 131 001e 1A88     		ldrh	r2, [r3]
 132 0020 BB68     		ldr	r3, [r7, #8]
 133 0022 1343     		orr	r3, r3, r2
 134 0024 FB60     		str	r3, [r7, #12]
  96:.\Generated_Source\PSoC4/Clock_PWM.c **** #endif /* Clock_PWM__FRAC_MASK */
  97:.\Generated_Source\PSoC4/Clock_PWM.c **** 
  98:.\Generated_Source\PSoC4/Clock_PWM.c **** 	Clock_PWM_DIV_REG = regVal;
 135              		.loc 1 98 0
 136 0026 034B     		ldr	r3, .L11
 137 0028 FA68     		ldr	r2, [r7, #12]
 138 002a 1A60     		str	r2, [r3]
  99:.\Generated_Source\PSoC4/Clock_PWM.c **** }
 139              		.loc 1 99 0
 140 002c BD46     		mov	sp, r7
 141 002e 04B0     		add	sp, sp, #16
 142              		@ sp needed for prologue
 143 0030 80BD     		pop	{r7, pc}
 144              	.L12:
 145 0032 C046     		.align	2
 146              	.L11:
 147 0034 00000240 		.word	1073872896
 148              		.cfi_endproc
 149              	.LFE2:
 150              		.size	Clock_PWM_SetFractionalDividerRegister, .-Clock_PWM_SetFractionalDividerRegister
 151              		.section	.text.Clock_PWM_GetDividerRegister,"ax",%progbits
 152              		.align	2
 153              		.global	Clock_PWM_GetDividerRegister
 154              		.code	16
 155              		.thumb_func
 156              		.type	Clock_PWM_GetDividerRegister, %function
 157              	Clock_PWM_GetDividerRegister:
 158              	.LFB3:
 100:.\Generated_Source\PSoC4/Clock_PWM.c **** 
 101:.\Generated_Source\PSoC4/Clock_PWM.c **** 
 102:.\Generated_Source\PSoC4/Clock_PWM.c **** /*******************************************************************************
 103:.\Generated_Source\PSoC4/Clock_PWM.c **** * Function Name: Clock_PWM_GetDividerRegister
 104:.\Generated_Source\PSoC4/Clock_PWM.c **** ********************************************************************************
 105:.\Generated_Source\PSoC4/Clock_PWM.c **** *
 106:.\Generated_Source\PSoC4/Clock_PWM.c **** * Summary:
 107:.\Generated_Source\PSoC4/Clock_PWM.c **** *  Gets the clock divider register value.
 108:.\Generated_Source\PSoC4/Clock_PWM.c **** *
 109:.\Generated_Source\PSoC4/Clock_PWM.c **** * Parameters:
 110:.\Generated_Source\PSoC4/Clock_PWM.c **** *  None
 111:.\Generated_Source\PSoC4/Clock_PWM.c **** *
 112:.\Generated_Source\PSoC4/Clock_PWM.c **** * Returns:
 113:.\Generated_Source\PSoC4/Clock_PWM.c **** *  Divide value of the clock minus 1. For example, if the clock is set to
 114:.\Generated_Source\PSoC4/Clock_PWM.c **** *  divide by 2, the return value will be 1.
 115:.\Generated_Source\PSoC4/Clock_PWM.c **** *
 116:.\Generated_Source\PSoC4/Clock_PWM.c **** *******************************************************************************/
 117:.\Generated_Source\PSoC4/Clock_PWM.c **** uint16 Clock_PWM_GetDividerRegister(void)
 118:.\Generated_Source\PSoC4/Clock_PWM.c **** {
 159              		.loc 1 118 0
 160              		.cfi_startproc
 161 0000 80B5     		push	{r7, lr}
 162              	.LCFI7:
 163              		.cfi_def_cfa_offset 8
ARM GAS  C:\Users\maxk\AppData\Local\Temp\ccpjUkfa.s 			page 6


 164              		.cfi_offset 7, -8
 165              		.cfi_offset 14, -4
 166 0002 00AF     		add	r7, sp, #0
 167              	.LCFI8:
 168              		.cfi_def_cfa_register 7
 119:.\Generated_Source\PSoC4/Clock_PWM.c ****     return (uint16)Clock_PWM_DIV_REG;
 169              		.loc 1 119 0
 170 0004 024B     		ldr	r3, .L15
 171 0006 1B68     		ldr	r3, [r3]
 172 0008 9BB2     		uxth	r3, r3
 120:.\Generated_Source\PSoC4/Clock_PWM.c **** }
 173              		.loc 1 120 0
 174 000a 181C     		mov	r0, r3
 175 000c BD46     		mov	sp, r7
 176              		@ sp needed for prologue
 177 000e 80BD     		pop	{r7, pc}
 178              	.L16:
 179              		.align	2
 180              	.L15:
 181 0010 00000240 		.word	1073872896
 182              		.cfi_endproc
 183              	.LFE3:
 184              		.size	Clock_PWM_GetDividerRegister, .-Clock_PWM_GetDividerRegister
 185              		.section	.text.Clock_PWM_GetFractionalDividerRegister,"ax",%progbits
 186              		.align	2
 187              		.global	Clock_PWM_GetFractionalDividerRegister
 188              		.code	16
 189              		.thumb_func
 190              		.type	Clock_PWM_GetFractionalDividerRegister, %function
 191              	Clock_PWM_GetFractionalDividerRegister:
 192              	.LFB4:
 121:.\Generated_Source\PSoC4/Clock_PWM.c **** 
 122:.\Generated_Source\PSoC4/Clock_PWM.c **** 
 123:.\Generated_Source\PSoC4/Clock_PWM.c **** /*******************************************************************************
 124:.\Generated_Source\PSoC4/Clock_PWM.c **** * Function Name: Clock_PWM_GetFractionalDividerRegister
 125:.\Generated_Source\PSoC4/Clock_PWM.c **** ********************************************************************************
 126:.\Generated_Source\PSoC4/Clock_PWM.c **** *
 127:.\Generated_Source\PSoC4/Clock_PWM.c **** * Summary:
 128:.\Generated_Source\PSoC4/Clock_PWM.c **** *  Gets the clock fractional divider register value.
 129:.\Generated_Source\PSoC4/Clock_PWM.c **** *
 130:.\Generated_Source\PSoC4/Clock_PWM.c **** * Parameters:
 131:.\Generated_Source\PSoC4/Clock_PWM.c **** *  None
 132:.\Generated_Source\PSoC4/Clock_PWM.c **** *
 133:.\Generated_Source\PSoC4/Clock_PWM.c **** * Returns:
 134:.\Generated_Source\PSoC4/Clock_PWM.c **** *  Fractional Divide value of the clock
 135:.\Generated_Source\PSoC4/Clock_PWM.c **** *  0 if the fractional divider is not in use.
 136:.\Generated_Source\PSoC4/Clock_PWM.c **** *
 137:.\Generated_Source\PSoC4/Clock_PWM.c **** *******************************************************************************/
 138:.\Generated_Source\PSoC4/Clock_PWM.c **** uint8 Clock_PWM_GetFractionalDividerRegister(void)
 139:.\Generated_Source\PSoC4/Clock_PWM.c **** {
 193              		.loc 1 139 0
 194              		.cfi_startproc
 195 0000 80B5     		push	{r7, lr}
 196              	.LCFI9:
 197              		.cfi_def_cfa_offset 8
 198              		.cfi_offset 7, -8
 199              		.cfi_offset 14, -4
ARM GAS  C:\Users\maxk\AppData\Local\Temp\ccpjUkfa.s 			page 7


 200 0002 00AF     		add	r7, sp, #0
 201              	.LCFI10:
 202              		.cfi_def_cfa_register 7
 140:.\Generated_Source\PSoC4/Clock_PWM.c **** #if defined (Clock_PWM__FRAC_MASK)
 141:.\Generated_Source\PSoC4/Clock_PWM.c ****     /* get fractional divider bits */
 142:.\Generated_Source\PSoC4/Clock_PWM.c ****     uint32 maskVal = Clock_PWM_DIV_REG & Clock_PWM__FRAC_MASK;
 143:.\Generated_Source\PSoC4/Clock_PWM.c ****     return (maskVal >> 16);
 144:.\Generated_Source\PSoC4/Clock_PWM.c **** #else
 145:.\Generated_Source\PSoC4/Clock_PWM.c ****     return 0u;
 203              		.loc 1 145 0
 204 0004 0023     		mov	r3, #0
 146:.\Generated_Source\PSoC4/Clock_PWM.c **** #endif /* Clock_PWM__FRAC_MASK */
 147:.\Generated_Source\PSoC4/Clock_PWM.c **** }
 205              		.loc 1 147 0
 206 0006 181C     		mov	r0, r3
 207 0008 BD46     		mov	sp, r7
 208              		@ sp needed for prologue
 209 000a 80BD     		pop	{r7, pc}
 210              		.cfi_endproc
 211              	.LFE4:
 212              		.size	Clock_PWM_GetFractionalDividerRegister, .-Clock_PWM_GetFractionalDividerRegister
 213              		.text
 214              	.Letext0: