ARM GAS  C:\Users\maxk\AppData\Local\Temp\ccJojHjV.s 			page 1


   1              		.cpu cortex-m0
   2              		.fpu softvfp
   3              		.eabi_attribute 20, 1
   4              		.eabi_attribute 21, 1
   5              		.eabi_attribute 23, 3
   6              		.eabi_attribute 24, 1
   7              		.eabi_attribute 25, 1
   8              		.eabi_attribute 26, 1
   9              		.eabi_attribute 30, 6
  10              		.eabi_attribute 18, 4
  11              		.code	16
  12              		.file	"Cm0Start.c"
  19 0000 A6000000 		.text
  19      02006100 
  19      00000201 
  19      FB0E0D00 
  19      01010101 
  20              	.Ltext0:
  21              		.cfi_sections	.debug_frame
  22              		.section	.noinit,"aw",%progbits
  23              		.align	2
  24              		.type	cySysNoInitDataValid, %object
  25              		.size	cySysNoInitDataValid, 4
  26              	cySysNoInitDataValid:
  27 0000 00000000 		.space	4
  28              		.section	.text.IntDefaultHandler,"ax",%progbits
  29              		.align	2
  30              		.global	IntDefaultHandler
  31              		.code	16
  32              		.thumb_func
  33              		.type	IntDefaultHandler, %function
  34              	IntDefaultHandler:
  35              	.LFB0:
  36              		.file 1 ".\\Generated_Source\\PSoC4\\Cm0Start.c"
   1:.\Generated_Source\PSoC4/Cm0Start.c **** /*******************************************************************************
   2:.\Generated_Source\PSoC4/Cm0Start.c **** * File Name: Cm0Start.c
   3:.\Generated_Source\PSoC4/Cm0Start.c **** * Version 3.40
   4:.\Generated_Source\PSoC4/Cm0Start.c **** *
   5:.\Generated_Source\PSoC4/Cm0Start.c **** *  Description:
   6:.\Generated_Source\PSoC4/Cm0Start.c **** *  Startup code for the ARM CM0.
   7:.\Generated_Source\PSoC4/Cm0Start.c **** *
   8:.\Generated_Source\PSoC4/Cm0Start.c **** ********************************************************************************
   9:.\Generated_Source\PSoC4/Cm0Start.c **** * Copyright 2010-2013, Cypress Semiconductor Corporation.  All rights reserved.
  10:.\Generated_Source\PSoC4/Cm0Start.c **** * You may use this file only in accordance with the license, terms, conditions,
  11:.\Generated_Source\PSoC4/Cm0Start.c **** * disclaimers, and limitations in the end user license agreement accompanying
  12:.\Generated_Source\PSoC4/Cm0Start.c **** * the software package with which this file was provided.
  13:.\Generated_Source\PSoC4/Cm0Start.c **** *******************************************************************************/
  14:.\Generated_Source\PSoC4/Cm0Start.c **** 
  15:.\Generated_Source\PSoC4/Cm0Start.c **** #include "cydevice_trm.h"
  16:.\Generated_Source\PSoC4/Cm0Start.c **** #include "cytypes.h"
  17:.\Generated_Source\PSoC4/Cm0Start.c **** #include "cyfitter_cfg.h"
ARM GAS  C:\Users\maxk\AppData\Local\Temp\ccJojHjV.s 			page 2


  18:.\Generated_Source\PSoC4/Cm0Start.c **** #include "CyLib.h"
  19:.\Generated_Source\PSoC4/Cm0Start.c **** #include "cyfitter.h"
  20:.\Generated_Source\PSoC4/Cm0Start.c **** 
  21:.\Generated_Source\PSoC4/Cm0Start.c **** #define NUM_VECTORS                 (CY_INT_IRQ_BASE + CY_NUM_INTERRUPTS)
  22:.\Generated_Source\PSoC4/Cm0Start.c **** #define CPUSS_CONFIG                ((reg32 *) CYREG_CPUSS_CONFIG)
  23:.\Generated_Source\PSoC4/Cm0Start.c **** #define NUM_ROM_VECTORS             4u
  24:.\Generated_Source\PSoC4/Cm0Start.c **** 
  25:.\Generated_Source\PSoC4/Cm0Start.c **** #if defined(__ARMCC_VERSION)
  26:.\Generated_Source\PSoC4/Cm0Start.c ****     #define INITIAL_STACK_POINTER (cyisraddress)(uint32)&Image$$ARM_LIB_STACK$$ZI$$Limit
  27:.\Generated_Source\PSoC4/Cm0Start.c **** #elif defined (__GNUC__)
  28:.\Generated_Source\PSoC4/Cm0Start.c ****     #define INITIAL_STACK_POINTER __cs3_stack
  29:.\Generated_Source\PSoC4/Cm0Start.c **** #endif  /* (__ARMCC_VERSION) */
  30:.\Generated_Source\PSoC4/Cm0Start.c **** 
  31:.\Generated_Source\PSoC4/Cm0Start.c **** /* Extern functions */
  32:.\Generated_Source\PSoC4/Cm0Start.c **** extern void CyBtldr_CheckLaunch(void);
  33:.\Generated_Source\PSoC4/Cm0Start.c **** 
  34:.\Generated_Source\PSoC4/Cm0Start.c **** /* Function prototypes */
  35:.\Generated_Source\PSoC4/Cm0Start.c **** void initialize_psoc(void);
  36:.\Generated_Source\PSoC4/Cm0Start.c **** 
  37:.\Generated_Source\PSoC4/Cm0Start.c **** /* Global variables */
  38:.\Generated_Source\PSoC4/Cm0Start.c **** CY_NOINIT static uint32 cySysNoInitDataValid;
  39:.\Generated_Source\PSoC4/Cm0Start.c **** 
  40:.\Generated_Source\PSoC4/Cm0Start.c **** #if (CYDEV_PROJ_TYPE != CYDEV_PROJ_TYPE_STANDARD)
  41:.\Generated_Source\PSoC4/Cm0Start.c **** 
  42:.\Generated_Source\PSoC4/Cm0Start.c ****     /*******************************************************************************
  43:.\Generated_Source\PSoC4/Cm0Start.c ****     This variable is used by Bootloader/Bootloadable components to schedule
  44:.\Generated_Source\PSoC4/Cm0Start.c ****     what application will be started after software reset.
  45:.\Generated_Source\PSoC4/Cm0Start.c ****     *******************************************************************************/
  46:.\Generated_Source\PSoC4/Cm0Start.c ****     #if (__ARMCC_VERSION)
  47:.\Generated_Source\PSoC4/Cm0Start.c ****         volatile uint32 __attribute__ ((section(".bootloaderruntype"), zero_init))  cyBtldrRunType;
  48:.\Generated_Source\PSoC4/Cm0Start.c ****     #else   /* (__GNUC__) */
  49:.\Generated_Source\PSoC4/Cm0Start.c ****         volatile uint32 __attribute__ ((section(".bootloaderruntype")))             cyBtldrRunType;
  50:.\Generated_Source\PSoC4/Cm0Start.c ****     #endif  /* (__ARMCC_VERSION) */
  51:.\Generated_Source\PSoC4/Cm0Start.c **** 
  52:.\Generated_Source\PSoC4/Cm0Start.c **** #endif  /* (CYDEV_PROJ_TYPE != CYDEV_PROJ_TYPE_STANDARD) */
  53:.\Generated_Source\PSoC4/Cm0Start.c **** 
  54:.\Generated_Source\PSoC4/Cm0Start.c **** /*******************************************************************************
  55:.\Generated_Source\PSoC4/Cm0Start.c **** * Function Name: IntDefaultHandler
  56:.\Generated_Source\PSoC4/Cm0Start.c **** ********************************************************************************
  57:.\Generated_Source\PSoC4/Cm0Start.c **** *
  58:.\Generated_Source\PSoC4/Cm0Start.c **** * Summary:
  59:.\Generated_Source\PSoC4/Cm0Start.c **** *  This function is called for all interrupts, other than reset, that get called
  60:.\Generated_Source\PSoC4/Cm0Start.c **** *  before the system is setup.
  61:.\Generated_Source\PSoC4/Cm0Start.c **** *
  62:.\Generated_Source\PSoC4/Cm0Start.c **** * Parameters:
  63:.\Generated_Source\PSoC4/Cm0Start.c **** *  None
  64:.\Generated_Source\PSoC4/Cm0Start.c **** *
  65:.\Generated_Source\PSoC4/Cm0Start.c **** * Return:
  66:.\Generated_Source\PSoC4/Cm0Start.c **** *  None
  67:.\Generated_Source\PSoC4/Cm0Start.c **** *
  68:.\Generated_Source\PSoC4/Cm0Start.c **** * Theory:
  69:.\Generated_Source\PSoC4/Cm0Start.c **** *   Any value other than zero is acceptable.
  70:.\Generated_Source\PSoC4/Cm0Start.c **** *
  71:.\Generated_Source\PSoC4/Cm0Start.c **** *******************************************************************************/
  72:.\Generated_Source\PSoC4/Cm0Start.c **** __attribute__ ((noreturn))
  73:.\Generated_Source\PSoC4/Cm0Start.c **** CY_ISR(IntDefaultHandler)
  74:.\Generated_Source\PSoC4/Cm0Start.c **** {
ARM GAS  C:\Users\maxk\AppData\Local\Temp\ccJojHjV.s 			page 3


  37              		.loc 1 74 0
  38              		.cfi_startproc
  39 0000 80B5     		push	{r7, lr}
  40              	.LCFI0:
  41              		.cfi_def_cfa_offset 8
  42              		.cfi_offset 7, -8
  43              		.cfi_offset 14, -4
  44 0002 00AF     		add	r7, sp, #0
  45              	.LCFI1:
  46              		.cfi_def_cfa_register 7
  47              	.L2:
  75:.\Generated_Source\PSoC4/Cm0Start.c ****     /***************************************************************************
  76:.\Generated_Source\PSoC4/Cm0Start.c ****     * We should never get here. If we do, a serious problem occured, so go into
  77:.\Generated_Source\PSoC4/Cm0Start.c ****     * an infinite loop.
  78:.\Generated_Source\PSoC4/Cm0Start.c ****     ***************************************************************************/
  79:.\Generated_Source\PSoC4/Cm0Start.c ****     while(1)
  80:.\Generated_Source\PSoC4/Cm0Start.c ****     {
  81:.\Generated_Source\PSoC4/Cm0Start.c **** 
  82:.\Generated_Source\PSoC4/Cm0Start.c ****     }
  48              		.loc 1 82 0
  49 0004 FEE7     		b	.L2
  50              		.cfi_endproc
  51              	.LFE0:
  52              		.size	IntDefaultHandler, .-IntDefaultHandler
  53 0006 C046     		.section	.text.Reset,"ax",%progbits
  54              		.align	2
  55              		.global	Reset
  56              		.code	16
  57              		.thumb_func
  58              		.type	Reset, %function
  59              	Reset:
  60              	.LFB1:
  83:.\Generated_Source\PSoC4/Cm0Start.c **** }
  84:.\Generated_Source\PSoC4/Cm0Start.c **** 
  85:.\Generated_Source\PSoC4/Cm0Start.c **** #if defined(__ARMCC_VERSION)
  86:.\Generated_Source\PSoC4/Cm0Start.c **** 
  87:.\Generated_Source\PSoC4/Cm0Start.c **** /* Local function for the device reset. */
  88:.\Generated_Source\PSoC4/Cm0Start.c **** extern void Reset(void);
  89:.\Generated_Source\PSoC4/Cm0Start.c **** 
  90:.\Generated_Source\PSoC4/Cm0Start.c **** /* Application entry point. */
  91:.\Generated_Source\PSoC4/Cm0Start.c **** extern void $Super$$main(void);
  92:.\Generated_Source\PSoC4/Cm0Start.c **** 
  93:.\Generated_Source\PSoC4/Cm0Start.c **** /* Linker-generated Stack Base addresses, Two Region and One Region */
  94:.\Generated_Source\PSoC4/Cm0Start.c **** extern unsigned long Image$$ARM_LIB_STACK$$ZI$$Limit;
  95:.\Generated_Source\PSoC4/Cm0Start.c **** 
  96:.\Generated_Source\PSoC4/Cm0Start.c **** /* RealView C Library initialization. */
  97:.\Generated_Source\PSoC4/Cm0Start.c **** extern int __main(void);
  98:.\Generated_Source\PSoC4/Cm0Start.c **** 
  99:.\Generated_Source\PSoC4/Cm0Start.c **** 
 100:.\Generated_Source\PSoC4/Cm0Start.c **** /*******************************************************************************
 101:.\Generated_Source\PSoC4/Cm0Start.c **** * Function Name: Reset
 102:.\Generated_Source\PSoC4/Cm0Start.c **** ********************************************************************************
 103:.\Generated_Source\PSoC4/Cm0Start.c **** *
 104:.\Generated_Source\PSoC4/Cm0Start.c **** * Summary:
 105:.\Generated_Source\PSoC4/Cm0Start.c **** *  This function handles the reset interrupt for the RVDS/MDK toolchains.
 106:.\Generated_Source\PSoC4/Cm0Start.c **** *  This is the first bit of code that is executed at startup.
 107:.\Generated_Source\PSoC4/Cm0Start.c **** *
ARM GAS  C:\Users\maxk\AppData\Local\Temp\ccJojHjV.s 			page 4


 108:.\Generated_Source\PSoC4/Cm0Start.c **** * Parameters:
 109:.\Generated_Source\PSoC4/Cm0Start.c **** *  None
 110:.\Generated_Source\PSoC4/Cm0Start.c **** *
 111:.\Generated_Source\PSoC4/Cm0Start.c **** * Return:
 112:.\Generated_Source\PSoC4/Cm0Start.c **** *  None
 113:.\Generated_Source\PSoC4/Cm0Start.c **** *
 114:.\Generated_Source\PSoC4/Cm0Start.c **** *******************************************************************************/
 115:.\Generated_Source\PSoC4/Cm0Start.c **** __asm void Reset(void)
 116:.\Generated_Source\PSoC4/Cm0Start.c **** {
 117:.\Generated_Source\PSoC4/Cm0Start.c ****     PRESERVE8
 118:.\Generated_Source\PSoC4/Cm0Start.c ****     EXTERN |Image$$ARM_LIB_STACK$$ZI$$Limit|
 119:.\Generated_Source\PSoC4/Cm0Start.c ****     EXTERN __main
 120:.\Generated_Source\PSoC4/Cm0Start.c ****     EXTERN CyBtldr_CheckLaunch
 121:.\Generated_Source\PSoC4/Cm0Start.c ****     LDR R3, =|Image$$ARM_LIB_STACK$$ZI$$Limit|
 122:.\Generated_Source\PSoC4/Cm0Start.c ****     MOV SP, R3
 123:.\Generated_Source\PSoC4/Cm0Start.c **** #if (CYDEV_BOOTLOADER_ENABLE)
 124:.\Generated_Source\PSoC4/Cm0Start.c ****     BL  CyBtldr_CheckLaunch
 125:.\Generated_Source\PSoC4/Cm0Start.c **** #endif /* CYDEV_BOOTLOADER_ENABLE */
 126:.\Generated_Source\PSoC4/Cm0Start.c ****     LDR R0, =__main
 127:.\Generated_Source\PSoC4/Cm0Start.c ****     BX R0
 128:.\Generated_Source\PSoC4/Cm0Start.c **** 
 129:.\Generated_Source\PSoC4/Cm0Start.c ****     ALIGN
 130:.\Generated_Source\PSoC4/Cm0Start.c **** }
 131:.\Generated_Source\PSoC4/Cm0Start.c **** 
 132:.\Generated_Source\PSoC4/Cm0Start.c **** 
 133:.\Generated_Source\PSoC4/Cm0Start.c **** /*******************************************************************************
 134:.\Generated_Source\PSoC4/Cm0Start.c **** * Function Name: $Sub$$main
 135:.\Generated_Source\PSoC4/Cm0Start.c **** ********************************************************************************
 136:.\Generated_Source\PSoC4/Cm0Start.c **** *
 137:.\Generated_Source\PSoC4/Cm0Start.c **** * Summary:
 138:.\Generated_Source\PSoC4/Cm0Start.c **** *  This function is called imediatly before the users main
 139:.\Generated_Source\PSoC4/Cm0Start.c **** *
 140:.\Generated_Source\PSoC4/Cm0Start.c **** * Parameters:
 141:.\Generated_Source\PSoC4/Cm0Start.c **** *  None
 142:.\Generated_Source\PSoC4/Cm0Start.c **** *
 143:.\Generated_Source\PSoC4/Cm0Start.c **** * Return:
 144:.\Generated_Source\PSoC4/Cm0Start.c **** *  None
 145:.\Generated_Source\PSoC4/Cm0Start.c **** *
 146:.\Generated_Source\PSoC4/Cm0Start.c **** *******************************************************************************/
 147:.\Generated_Source\PSoC4/Cm0Start.c **** __attribute__ ((noreturn))
 148:.\Generated_Source\PSoC4/Cm0Start.c **** void $Sub$$main(void)
 149:.\Generated_Source\PSoC4/Cm0Start.c **** {
 150:.\Generated_Source\PSoC4/Cm0Start.c ****     initialize_psoc();
 151:.\Generated_Source\PSoC4/Cm0Start.c **** 
 152:.\Generated_Source\PSoC4/Cm0Start.c ****     /* Call original main */
 153:.\Generated_Source\PSoC4/Cm0Start.c ****     $Super$$main();
 154:.\Generated_Source\PSoC4/Cm0Start.c **** 
 155:.\Generated_Source\PSoC4/Cm0Start.c ****     /* If main returns it is undefined what we should do. */
 156:.\Generated_Source\PSoC4/Cm0Start.c ****     while (1);
 157:.\Generated_Source\PSoC4/Cm0Start.c **** }
 158:.\Generated_Source\PSoC4/Cm0Start.c **** 
 159:.\Generated_Source\PSoC4/Cm0Start.c **** #elif defined(__GNUC__)
 160:.\Generated_Source\PSoC4/Cm0Start.c **** 
 161:.\Generated_Source\PSoC4/Cm0Start.c **** extern void __cs3_stack(void);
 162:.\Generated_Source\PSoC4/Cm0Start.c **** extern void __cs3_start_c(void);
 163:.\Generated_Source\PSoC4/Cm0Start.c **** 
 164:.\Generated_Source\PSoC4/Cm0Start.c **** 
ARM GAS  C:\Users\maxk\AppData\Local\Temp\ccJojHjV.s 			page 5


 165:.\Generated_Source\PSoC4/Cm0Start.c **** /*******************************************************************************
 166:.\Generated_Source\PSoC4/Cm0Start.c **** * Function Name: Reset
 167:.\Generated_Source\PSoC4/Cm0Start.c **** ********************************************************************************
 168:.\Generated_Source\PSoC4/Cm0Start.c **** *
 169:.\Generated_Source\PSoC4/Cm0Start.c **** * Summary:
 170:.\Generated_Source\PSoC4/Cm0Start.c **** *  This function handles the reset interrupt for the GCC toolchain.  This is
 171:.\Generated_Source\PSoC4/Cm0Start.c **** *  the first bit of code that is executed at startup.
 172:.\Generated_Source\PSoC4/Cm0Start.c **** *
 173:.\Generated_Source\PSoC4/Cm0Start.c **** * Parameters:
 174:.\Generated_Source\PSoC4/Cm0Start.c **** *  None
 175:.\Generated_Source\PSoC4/Cm0Start.c **** *
 176:.\Generated_Source\PSoC4/Cm0Start.c **** * Return:
 177:.\Generated_Source\PSoC4/Cm0Start.c **** *  None
 178:.\Generated_Source\PSoC4/Cm0Start.c **** *
 179:.\Generated_Source\PSoC4/Cm0Start.c **** *******************************************************************************/
 180:.\Generated_Source\PSoC4/Cm0Start.c **** __attribute__ ((naked))
 181:.\Generated_Source\PSoC4/Cm0Start.c **** void Reset(void)
 182:.\Generated_Source\PSoC4/Cm0Start.c **** {
  61              		.loc 1 182 0
  62              		.cfi_startproc
 183:.\Generated_Source\PSoC4/Cm0Start.c ****     __asm volatile(
  63              		.loc 1 183 0
  64 0000 014B     		ldr	r3, .L6
  65              	@ 183 ".\Generated_Source\PSoC4\Cm0Start.c" 1
  66 0002 9D46     		    MOV sp, r3
  67              	
  68              	@ 0 "" 2
 184:.\Generated_Source\PSoC4/Cm0Start.c ****           "    MOV sp, %0\n"
 185:.\Generated_Source\PSoC4/Cm0Start.c **** #if (CYDEV_BOOTLOADER_ENABLE)
 186:.\Generated_Source\PSoC4/Cm0Start.c ****           "    BL  CyBtldr_CheckLaunch\n"
 187:.\Generated_Source\PSoC4/Cm0Start.c **** #endif /* CYDEV_BOOTLOADER_ENABLE */
 188:.\Generated_Source\PSoC4/Cm0Start.c ****           : : "r" (__cs3_stack));
 189:.\Generated_Source\PSoC4/Cm0Start.c ****     __asm volatile(
  69              		.loc 1 189 0
  70              		.code	16
  71 0004 014B     		ldr	r3, .L6+4
  72              	@ 189 ".\Generated_Source\PSoC4\Cm0Start.c" 1
  73 0006 1847     		    BX   r3
  74              	
  75              	@ 0 "" 2
 190:.\Generated_Source\PSoC4/Cm0Start.c ****           "    BX   %0\n"
 191:.\Generated_Source\PSoC4/Cm0Start.c ****           : : "r" (__cs3_start_c));
 192:.\Generated_Source\PSoC4/Cm0Start.c **** }
  76              		.loc 1 192 0
  77              		.code	16
  78              	.L7:
  79              		.align	2
  80              	.L6:
  81 0008 00000000 		.word	__cs3_stack
  82 000c 00000000 		.word	__cs3_start_c
  83              		.cfi_endproc
  84              	.LFE1:
  85              		.size	Reset, .-Reset
  86              		.global	CyRamVectors
  87              		.section	.ramvectors,"aw",%progbits
  88              		.align	2
  89              		.type	CyRamVectors, %object
ARM GAS  C:\Users\maxk\AppData\Local\Temp\ccJojHjV.s 			page 6


  90              		.size	CyRamVectors, 192
  91              	CyRamVectors:
  92 0000 00000000 		.space	192
  92      00000000 
  92      00000000 
  92      00000000 
  92      00000000 
  93              		.global	RomVectors
  94              		.section	.romvectors,"a",%progbits
  95              		.align	2
  96              		.type	RomVectors, %object
  97              		.size	RomVectors, 16
  98              	RomVectors:
  99 0000 00000000 		.word	__cs3_stack
 100 0004 00000000 		.word	Reset
 101 0008 00000000 		.word	IntDefaultHandler
 102 000c 00000000 		.word	IntDefaultHandler
 103              		.section	.text.initialize_psoc,"ax",%progbits
 104              		.align	2
 105              		.global	initialize_psoc
 106              		.code	16
 107              		.thumb_func
 108              		.type	initialize_psoc, %function
 109              	initialize_psoc:
 110              	.LFB2:
 193:.\Generated_Source\PSoC4/Cm0Start.c **** 
 194:.\Generated_Source\PSoC4/Cm0Start.c **** #endif /* __GNUC__ */
 195:.\Generated_Source\PSoC4/Cm0Start.c **** 
 196:.\Generated_Source\PSoC4/Cm0Start.c **** 
 197:.\Generated_Source\PSoC4/Cm0Start.c **** /*******************************************************************************
 198:.\Generated_Source\PSoC4/Cm0Start.c **** * Ram Interrupt Vector table storage area. Must be placed at 0x20000000.
 199:.\Generated_Source\PSoC4/Cm0Start.c **** *******************************************************************************/
 200:.\Generated_Source\PSoC4/Cm0Start.c **** 
 201:.\Generated_Source\PSoC4/Cm0Start.c **** __attribute__ ((section(".ramvectors")))
 202:.\Generated_Source\PSoC4/Cm0Start.c **** cyisraddress CyRamVectors[NUM_VECTORS];
 203:.\Generated_Source\PSoC4/Cm0Start.c **** 
 204:.\Generated_Source\PSoC4/Cm0Start.c **** 
 205:.\Generated_Source\PSoC4/Cm0Start.c **** /*******************************************************************************
 206:.\Generated_Source\PSoC4/Cm0Start.c **** * Rom Interrupt Vector table storage area. Must be 256-byte aligned.
 207:.\Generated_Source\PSoC4/Cm0Start.c **** *******************************************************************************/
 208:.\Generated_Source\PSoC4/Cm0Start.c **** 
 209:.\Generated_Source\PSoC4/Cm0Start.c **** #if defined(__ARMCC_VERSION)
 210:.\Generated_Source\PSoC4/Cm0Start.c ****     #pragma diag_suppress 1296
 211:.\Generated_Source\PSoC4/Cm0Start.c **** #endif  /* defined(__ARMCC_VERSION) */
 212:.\Generated_Source\PSoC4/Cm0Start.c **** __attribute__ ((section(".romvectors")))
 213:.\Generated_Source\PSoC4/Cm0Start.c **** const cyisraddress RomVectors[NUM_ROM_VECTORS] =
 214:.\Generated_Source\PSoC4/Cm0Start.c **** {
 215:.\Generated_Source\PSoC4/Cm0Start.c ****     #if defined(__ARMCC_VERSION)
 216:.\Generated_Source\PSoC4/Cm0Start.c ****         INITIAL_STACK_POINTER,           /* The initial stack pointer  0 */
 217:.\Generated_Source\PSoC4/Cm0Start.c ****     #elif defined (__GNUC__)
 218:.\Generated_Source\PSoC4/Cm0Start.c ****         &INITIAL_STACK_POINTER,          /* The initial stack pointer  0 */
 219:.\Generated_Source\PSoC4/Cm0Start.c ****     #endif  /* (__ARMCC_VERSION) */
 220:.\Generated_Source\PSoC4/Cm0Start.c ****     (cyisraddress)&Reset,            /* The reset handler          1 */
 221:.\Generated_Source\PSoC4/Cm0Start.c ****     &IntDefaultHandler,              /* The NMI handler            2 */
 222:.\Generated_Source\PSoC4/Cm0Start.c ****     &IntDefaultHandler,              /* The hard fault handler     3 */
 223:.\Generated_Source\PSoC4/Cm0Start.c **** };
 224:.\Generated_Source\PSoC4/Cm0Start.c **** 
ARM GAS  C:\Users\maxk\AppData\Local\Temp\ccJojHjV.s 			page 7


 225:.\Generated_Source\PSoC4/Cm0Start.c **** 
 226:.\Generated_Source\PSoC4/Cm0Start.c **** /*******************************************************************************
 227:.\Generated_Source\PSoC4/Cm0Start.c **** * Function Name: initialize_psoc
 228:.\Generated_Source\PSoC4/Cm0Start.c **** ********************************************************************************
 229:.\Generated_Source\PSoC4/Cm0Start.c **** *
 230:.\Generated_Source\PSoC4/Cm0Start.c **** * Summary:
 231:.\Generated_Source\PSoC4/Cm0Start.c **** *  This function used to initialize the PSoC chip before calling main.
 232:.\Generated_Source\PSoC4/Cm0Start.c **** *
 233:.\Generated_Source\PSoC4/Cm0Start.c **** * Parameters:
 234:.\Generated_Source\PSoC4/Cm0Start.c **** *  None
 235:.\Generated_Source\PSoC4/Cm0Start.c **** *
 236:.\Generated_Source\PSoC4/Cm0Start.c **** * Return:
 237:.\Generated_Source\PSoC4/Cm0Start.c **** *  None
 238:.\Generated_Source\PSoC4/Cm0Start.c **** *
 239:.\Generated_Source\PSoC4/Cm0Start.c **** *******************************************************************************/
 240:.\Generated_Source\PSoC4/Cm0Start.c **** #if(defined(__GNUC__) && !defined(__ARMCC_VERSION))
 241:.\Generated_Source\PSoC4/Cm0Start.c **** __attribute__ ((constructor(101)))
 242:.\Generated_Source\PSoC4/Cm0Start.c **** #endif  /* (defined(__GNUC__) && !defined(__ARMCC_VERSION)) */
 243:.\Generated_Source\PSoC4/Cm0Start.c **** void initialize_psoc(void)
 244:.\Generated_Source\PSoC4/Cm0Start.c **** {
 111              		.loc 1 244 0
 112              		.cfi_startproc
 113 0000 80B5     		push	{r7, lr}
 114              	.LCFI2:
 115              		.cfi_def_cfa_offset 8
 116              		.cfi_offset 7, -8
 117              		.cfi_offset 14, -4
 118 0002 82B0     		sub	sp, sp, #8
 119              	.LCFI3:
 120              		.cfi_def_cfa_offset 16
 121 0004 00AF     		add	r7, sp, #0
 122              	.LCFI4:
 123              		.cfi_def_cfa_register 7
 245:.\Generated_Source\PSoC4/Cm0Start.c ****     uint32 indexInit;
 246:.\Generated_Source\PSoC4/Cm0Start.c **** 
 247:.\Generated_Source\PSoC4/Cm0Start.c ****     /* Set Ram interrupt vectors to default functions. */
 248:.\Generated_Source\PSoC4/Cm0Start.c ****     for(indexInit = 0u; indexInit < NUM_VECTORS; indexInit++)
 124              		.loc 1 248 0
 125 0006 0023     		mov	r3, #0
 126 0008 7B60     		str	r3, [r7, #4]
 127 000a 0FE0     		b	.L9
 128              	.L12:
 249:.\Generated_Source\PSoC4/Cm0Start.c ****     {
 250:.\Generated_Source\PSoC4/Cm0Start.c ****         CyRamVectors[indexInit] = (indexInit < NUM_ROM_VECTORS) ? RomVectors[indexInit] : &IntDefau
 129              		.loc 1 250 0
 130 000c 7968     		ldr	r1, [r7, #4]
 131 000e 7B68     		ldr	r3, [r7, #4]
 132 0010 032B     		cmp	r3, #3
 133 0012 04D8     		bhi	.L10
 134 0014 7A68     		ldr	r2, [r7, #4]
 135 0016 0D4B     		ldr	r3, .L14
 136 0018 9200     		lsl	r2, r2, #2
 137 001a D358     		ldr	r3, [r2, r3]
 138 001c 00E0     		b	.L11
 139              	.L10:
 140 001e 0C4B     		ldr	r3, .L14+4
 141              	.L11:
ARM GAS  C:\Users\maxk\AppData\Local\Temp\ccJojHjV.s 			page 8


 142 0020 0C4A     		ldr	r2, .L14+8
 143 0022 8900     		lsl	r1, r1, #2
 144 0024 8B50     		str	r3, [r1, r2]
 145              		.loc 1 248 0
 146 0026 7B68     		ldr	r3, [r7, #4]
 147 0028 0133     		add	r3, r3, #1
 148 002a 7B60     		str	r3, [r7, #4]
 149              	.L9:
 150 002c 7B68     		ldr	r3, [r7, #4]
 151 002e 2F2B     		cmp	r3, #47
 152 0030 ECD9     		bls	.L12
 251:.\Generated_Source\PSoC4/Cm0Start.c ****     }
 252:.\Generated_Source\PSoC4/Cm0Start.c **** 
 253:.\Generated_Source\PSoC4/Cm0Start.c ****     /* Initialize the configuration registers. */
 254:.\Generated_Source\PSoC4/Cm0Start.c ****     cyfitter_cfg();
 153              		.loc 1 254 0
 154 0032 FFF7FEFF 		bl	cyfitter_cfg
 255:.\Generated_Source\PSoC4/Cm0Start.c **** 
 256:.\Generated_Source\PSoC4/Cm0Start.c ****     /* Actually, no need to clean this variable, just to make compiler happy. */
 257:.\Generated_Source\PSoC4/Cm0Start.c ****     cySysNoInitDataValid = 0u;
 155              		.loc 1 257 0
 156 0036 084B     		ldr	r3, .L14+12
 157 0038 0022     		mov	r2, #0
 158 003a 1A60     		str	r2, [r3]
 258:.\Generated_Source\PSoC4/Cm0Start.c **** 
 259:.\Generated_Source\PSoC4/Cm0Start.c ****     #if (CYDEV_PROJ_TYPE != CYDEV_PROJ_TYPE_STANDARD)
 260:.\Generated_Source\PSoC4/Cm0Start.c **** 
 261:.\Generated_Source\PSoC4/Cm0Start.c ****         /* Need to make sure that this variable will not be optimized out */
 262:.\Generated_Source\PSoC4/Cm0Start.c ****         if (0u == cyBtldrRunType)
 263:.\Generated_Source\PSoC4/Cm0Start.c ****         {
 264:.\Generated_Source\PSoC4/Cm0Start.c ****             cyBtldrRunType = 0u;
 265:.\Generated_Source\PSoC4/Cm0Start.c ****         }
 266:.\Generated_Source\PSoC4/Cm0Start.c **** 
 267:.\Generated_Source\PSoC4/Cm0Start.c ****     #endif  /* (CYDEV_PROJ_TYPE != CYDEV_PROJ_TYPE_STANDARD) */
 268:.\Generated_Source\PSoC4/Cm0Start.c **** 
 269:.\Generated_Source\PSoC4/Cm0Start.c ****     /* Point Vector Table at the RAM vector table. */
 270:.\Generated_Source\PSoC4/Cm0Start.c ****     #if(CYDEV_CONFIG_READ_ACCELERATOR)
 271:.\Generated_Source\PSoC4/Cm0Start.c ****         *CPUSS_CONFIG = 1u;
 159              		.loc 1 271 0
 160 003c 8023     		mov	r3, #128
 161 003e DB05     		lsl	r3, r3, #23
 162 0040 0122     		mov	r2, #1
 163 0042 1A60     		str	r2, [r3]
 272:.\Generated_Source\PSoC4/Cm0Start.c ****     #else
 273:.\Generated_Source\PSoC4/Cm0Start.c ****         *CPUSS_CONFIG = 3u;
 274:.\Generated_Source\PSoC4/Cm0Start.c ****     #endif  /* (CYDEV_CONFIG_READ_ACCELERATOR) */
 275:.\Generated_Source\PSoC4/Cm0Start.c **** }
 164              		.loc 1 275 0
 165 0044 BD46     		mov	sp, r7
 166 0046 02B0     		add	sp, sp, #8
 167              		@ sp needed for prologue
 168 0048 80BD     		pop	{r7, pc}
 169              	.L15:
 170 004a C046     		.align	2
 171              	.L14:
 172 004c 00000000 		.word	RomVectors
 173 0050 00000000 		.word	IntDefaultHandler
ARM GAS  C:\Users\maxk\AppData\Local\Temp\ccJojHjV.s 			page 9


 174 0054 00000000 		.word	CyRamVectors
 175 0058 00000000 		.word	cySysNoInitDataValid
 176              		.cfi_endproc
 177              	.LFE2:
 178              		.size	initialize_psoc, .-initialize_psoc
 179              		.section	.init_array,"aw",%init_array
 180              		.align	2
 181 0000 00000000 		.word	initialize_psoc(target1)
 182              		.text
 183              	.Letext0: