ARM GAS  C:\Users\maxk\AppData\Local\Temp\ccUpgF9j.s 			page 1


   1              		.cpu cortex-m0
   2              		.fpu softvfp
   3              		.eabi_attribute 20, 1
   4              		.eabi_attribute 21, 1
   5              		.eabi_attribute 23, 3
   6              		.eabi_attribute 24, 1
   7              		.eabi_attribute 25, 1
   8              		.eabi_attribute 26, 1
   9              		.eabi_attribute 30, 6
  10              		.eabi_attribute 18, 4
  11              		.code	16
  12              		.file	"CyFlash.c"
  19 0000 BE000000 		.text
  19      02006000 
  19      00000201 
  19      FB0E0D00 
  19      01010101 
  20              	.Ltext0:
  21              		.cfi_sections	.debug_frame
  22              		.section	.text.CySysFlashWriteRow,"ax",%progbits
  23              		.align	2
  24              		.global	CySysFlashWriteRow
  25              		.code	16
  26              		.thumb_func
  27              		.type	CySysFlashWriteRow, %function
  28              	CySysFlashWriteRow:
  29              	.LFB0:
  30              		.file 1 ".\\Generated_Source\\PSoC4\\CyFlash.c"
   1:.\Generated_Source\PSoC4/CyFlash.c **** /*******************************************************************************
   2:.\Generated_Source\PSoC4/CyFlash.c **** * File Name: CyFlash.c
   3:.\Generated_Source\PSoC4/CyFlash.c **** * Version 3.40
   4:.\Generated_Source\PSoC4/CyFlash.c **** *
   5:.\Generated_Source\PSoC4/CyFlash.c **** *  Description:
   6:.\Generated_Source\PSoC4/CyFlash.c **** *   Provides an API for the FLASH.
   7:.\Generated_Source\PSoC4/CyFlash.c **** *
   8:.\Generated_Source\PSoC4/CyFlash.c **** *  Note:
   9:.\Generated_Source\PSoC4/CyFlash.c **** *   This code is endian agnostic.
  10:.\Generated_Source\PSoC4/CyFlash.c **** *
  11:.\Generated_Source\PSoC4/CyFlash.c **** *  Note:
  12:.\Generated_Source\PSoC4/CyFlash.c **** *   Documentation of the API's in this file is located in the
  13:.\Generated_Source\PSoC4/CyFlash.c **** *   System Reference Guide provided with PSoC Creator.
  14:.\Generated_Source\PSoC4/CyFlash.c **** *
  15:.\Generated_Source\PSoC4/CyFlash.c **** ********************************************************************************
  16:.\Generated_Source\PSoC4/CyFlash.c **** * Copyright 2010-2013, Cypress Semiconductor Corporation.  All rights reserved.
  17:.\Generated_Source\PSoC4/CyFlash.c **** * You may use this file only in accordance with the license, terms, conditions,
  18:.\Generated_Source\PSoC4/CyFlash.c **** * disclaimers, and limitations in the end user license agreement accompanying
  19:.\Generated_Source\PSoC4/CyFlash.c **** * the software package with which this file was provided.
  20:.\Generated_Source\PSoC4/CyFlash.c **** *******************************************************************************/
  21:.\Generated_Source\PSoC4/CyFlash.c **** 
  22:.\Generated_Source\PSoC4/CyFlash.c **** #include "CyFlash.h"
  23:.\Generated_Source\PSoC4/CyFlash.c **** 
ARM GAS  C:\Users\maxk\AppData\Local\Temp\ccUpgF9j.s 			page 2


  24:.\Generated_Source\PSoC4/CyFlash.c **** 
  25:.\Generated_Source\PSoC4/CyFlash.c **** /*******************************************************************************
  26:.\Generated_Source\PSoC4/CyFlash.c **** * Function Name: CySysFlashWriteRow
  27:.\Generated_Source\PSoC4/CyFlash.c **** ********************************************************************************
  28:.\Generated_Source\PSoC4/CyFlash.c **** *
  29:.\Generated_Source\PSoC4/CyFlash.c **** * Summary:
  30:.\Generated_Source\PSoC4/CyFlash.c **** *  Writes a row of Flash.
  31:.\Generated_Source\PSoC4/CyFlash.c **** *
  32:.\Generated_Source\PSoC4/CyFlash.c **** * Parameters:
  33:.\Generated_Source\PSoC4/CyFlash.c **** *  uint16 rowNum:
  34:.\Generated_Source\PSoC4/CyFlash.c **** *   Row number. Each row is 128 bytes so a 32KB flash memory will have a valid
  35:.\Generated_Source\PSoC4/CyFlash.c **** *   range of [0-255].
  36:.\Generated_Source\PSoC4/CyFlash.c **** *
  37:.\Generated_Source\PSoC4/CyFlash.c **** *  uint8* rowData:
  38:.\Generated_Source\PSoC4/CyFlash.c **** *   Array of bytes to write.
  39:.\Generated_Source\PSoC4/CyFlash.c **** *
  40:.\Generated_Source\PSoC4/CyFlash.c **** * Return:
  41:.\Generated_Source\PSoC4/CyFlash.c **** *  Status
  42:.\Generated_Source\PSoC4/CyFlash.c **** *     Value             Description
  43:.\Generated_Source\PSoC4/CyFlash.c **** *    CYRET_SUCCESS     Successful
  44:.\Generated_Source\PSoC4/CyFlash.c **** *    CYRET_LOCKED      Flash writing already in use
  45:.\Generated_Source\PSoC4/CyFlash.c **** *    CYRET_CANCELED    Command not accepted
  46:.\Generated_Source\PSoC4/CyFlash.c **** *    CYRET_BAD_PARAM   One or more invalid parameters
  47:.\Generated_Source\PSoC4/CyFlash.c **** *    Other non-zero    Failure
  48:.\Generated_Source\PSoC4/CyFlash.c **** *
  49:.\Generated_Source\PSoC4/CyFlash.c **** *******************************************************************************/
  50:.\Generated_Source\PSoC4/CyFlash.c **** cystatus CySysFlashWriteRow(uint32 rowNum, const uint8 rowData[])
  51:.\Generated_Source\PSoC4/CyFlash.c **** {
  31              		.loc 1 51 0
  32              		.cfi_startproc
  33 0000 80B5     		push	{r7, lr}
  34              	.LCFI0:
  35              		.cfi_def_cfa_offset 8
  36              		.cfi_offset 7, -8
  37              		.cfi_offset 14, -4
  38 0002 AAB0     		sub	sp, sp, #168
  39              	.LCFI1:
  40              		.cfi_def_cfa_offset 176
  41 0004 00AF     		add	r7, sp, #0
  42              	.LCFI2:
  43              		.cfi_def_cfa_register 7
  44 0006 7860     		str	r0, [r7, #4]
  45 0008 3960     		str	r1, [r7]
  52:.\Generated_Source\PSoC4/CyFlash.c ****     volatile cystatus retValue = CYRET_SUCCESS;
  46              		.loc 1 52 0
  47 000a 0023     		mov	r3, #0
  48 000c 9C21     		mov	r1, #156
  49 000e C919     		add	r1, r1, r7
  50 0010 0B60     		str	r3, [r1]
  53:.\Generated_Source\PSoC4/CyFlash.c ****     volatile uint32   *ptr;
  54:.\Generated_Source\PSoC4/CyFlash.c ****     volatile uint32   cpuValue;
  55:.\Generated_Source\PSoC4/CyFlash.c ****     volatile uint32   localData[(CY_FLASH_SIZEOF_ROW + CY_FLASH_SRAM_ROM_DATA)/4u];
  56:.\Generated_Source\PSoC4/CyFlash.c ****     volatile uint32   imoConfigReg;
  57:.\Generated_Source\PSoC4/CyFlash.c ****     uint8  interruptState;
  58:.\Generated_Source\PSoC4/CyFlash.c **** 
  59:.\Generated_Source\PSoC4/CyFlash.c ****     if ((rowNum < CY_FLASH_NUMBER_ROWS) && (rowData != 0u))
  51              		.loc 1 59 0
ARM GAS  C:\Users\maxk\AppData\Local\Temp\ccUpgF9j.s 			page 3


  52 0012 7B68     		ldr	r3, [r7, #4]
  53 0014 FF2B     		cmp	r3, #255
  54 0016 00D9     		bls	.LCB14
  55 0018 96E0     		b	.L2	@long jump
  56              	.LCB14:
  57 001a 3B68     		ldr	r3, [r7]
  58 001c 002B     		cmp	r3, #0
  59 001e 00D1     		bne	.LCB17
  60 0020 92E0     		b	.L2	@long jump
  61              	.LCB17:
  60:.\Generated_Source\PSoC4/CyFlash.c ****     {
  61:.\Generated_Source\PSoC4/CyFlash.c ****         /* First load the data. Then invoke Write row command. */
  62:.\Generated_Source\PSoC4/CyFlash.c ****         ptr = &localData[CY_FLASH_SRAM_ROM_KEY1];
  62              		.loc 1 62 0
  63 0022 3B1C     		mov	r3, r7
  64 0024 1033     		add	r3, r3, #16
  65 0026 A022     		mov	r2, #160
  66 0028 D219     		add	r2, r2, r7
  67 002a 1360     		str	r3, [r2]
  63:.\Generated_Source\PSoC4/CyFlash.c **** 
  64:.\Generated_Source\PSoC4/CyFlash.c ****         CY_FLASH_CPUSS_SYSARG_REG = (uint32)ptr;
  68              		.loc 1 64 0
  69 002c 4E4B     		ldr	r3, .L13
  70 002e A021     		mov	r1, #160
  71 0030 C919     		add	r1, r1, r7
  72 0032 0A68     		ldr	r2, [r1]
  73 0034 1A60     		str	r2, [r3]
  65:.\Generated_Source\PSoC4/CyFlash.c **** 
  66:.\Generated_Source\PSoC4/CyFlash.c ****         #if(CY_FLASH_NUMBER_ROWS > 255u)
  67:.\Generated_Source\PSoC4/CyFlash.c ****             localData[CY_FLASH_SRAM_ROM_KEY1] = CY_FLASH_SROM_LOAD_CMD | (uint32)((rowNum & 0x100u)
  74              		.loc 1 67 0
  75 0036 7A68     		ldr	r2, [r7, #4]
  76 0038 8023     		mov	r3, #128
  77 003a 5B00     		lsl	r3, r3, #1
  78 003c 1340     		and	r3, r3, r2
  79 003e 1A04     		lsl	r2, r3, #16
  80 0040 4A4B     		ldr	r3, .L13+4
  81 0042 1A43     		orr	r2, r2, r3
  82 0044 3B1C     		mov	r3, r7
  83 0046 1033     		add	r3, r3, #16
  84 0048 1A60     		str	r2, [r3]
  68:.\Generated_Source\PSoC4/CyFlash.c ****         #else
  69:.\Generated_Source\PSoC4/CyFlash.c ****             localData[CY_FLASH_SRAM_ROM_KEY1] = CY_FLASH_SROM_LOAD_CMD;
  70:.\Generated_Source\PSoC4/CyFlash.c ****         #endif /* (CY_FLASH_SIZEOF_ROW > 255) */
  71:.\Generated_Source\PSoC4/CyFlash.c **** 
  72:.\Generated_Source\PSoC4/CyFlash.c ****         localData[CY_FLASH_SRAM_ROM_PARAM2/4u] = ((uint32)(CYDEV_FLS_ROW_SIZE - 1u));
  85              		.loc 1 72 0
  86 004a 3B1C     		mov	r3, r7
  87 004c 1033     		add	r3, r3, #16
  88 004e 7F22     		mov	r2, #127
  89 0050 5A60     		str	r2, [r3, #4]
  73:.\Generated_Source\PSoC4/CyFlash.c **** 
  74:.\Generated_Source\PSoC4/CyFlash.c ****         /* Copy row data from 8bit to 32bit array with shift for CPUSS commands */
  75:.\Generated_Source\PSoC4/CyFlash.c ****         (void)memcpy((void *)&localData[CY_FLASH_SRAM_ROM_DATA/4u], rowData, CYDEV_FLS_ROW_SIZE);
  90              		.loc 1 75 0
  91 0052 3B1C     		mov	r3, r7
  92 0054 1033     		add	r3, r3, #16
ARM GAS  C:\Users\maxk\AppData\Local\Temp\ccUpgF9j.s 			page 4


  93 0056 1A1C     		mov	r2, r3
  94 0058 0832     		add	r2, r2, #8
  95 005a 3B68     		ldr	r3, [r7]
  96 005c 101C     		mov	r0, r2
  97 005e 191C     		mov	r1, r3
  98 0060 8022     		mov	r2, #128
  99 0062 FFF7FEFF 		bl	memcpy
  76:.\Generated_Source\PSoC4/CyFlash.c **** 
  77:.\Generated_Source\PSoC4/CyFlash.c ****         /* Perform sysreq load data, opcode 0x80000004h */
  78:.\Generated_Source\PSoC4/CyFlash.c ****         CY_FLASH_CPUSS_SYSREQ_REG = CY_FLASH_LOAD_BYTE_OPCODE | CY_FLASH_CPUSS_REQ_START;
 100              		.loc 1 78 0
 101 0066 424B     		ldr	r3, .L13+8
 102 0068 424A     		ldr	r2, .L13+12
 103 006a 1A60     		str	r2, [r3]
 104              	.L3:
  79:.\Generated_Source\PSoC4/CyFlash.c **** 
  80:.\Generated_Source\PSoC4/CyFlash.c ****         while((CY_FLASH_CPUSS_SYSREQ_REG & CY_FLASH_CPUSS_REQ_START) == CY_FLASH_CPUSS_REQ_START)
 105              		.loc 1 80 0
 106 006c 404B     		ldr	r3, .L13+8
 107 006e 1B68     		ldr	r3, [r3]
 108 0070 002B     		cmp	r3, #0
 109 0072 FBDB     		blt	.L3
  81:.\Generated_Source\PSoC4/CyFlash.c ****         {
  82:.\Generated_Source\PSoC4/CyFlash.c ****             /* Wait till the CY_FLASH_CPUSS_REQ_START bit goes low */
  83:.\Generated_Source\PSoC4/CyFlash.c ****         }
  84:.\Generated_Source\PSoC4/CyFlash.c **** 
  85:.\Generated_Source\PSoC4/CyFlash.c ****         /* Check if the value is written to the SRAM_BASE */
  86:.\Generated_Source\PSoC4/CyFlash.c ****         cpuValue = CY_FLASH_CPUSS_SYSARG_REG;
 110              		.loc 1 86 0
 111 0074 3C4B     		ldr	r3, .L13
 112 0076 1B68     		ldr	r3, [r3]
 113 0078 9822     		mov	r2, #152
 114 007a D219     		add	r2, r2, r7
 115 007c 1360     		str	r3, [r2]
  87:.\Generated_Source\PSoC4/CyFlash.c ****         if (cpuValue == CY_FLASH_SROM_CMD_RETURN_SUCC)
 116              		.loc 1 87 0
 117 007e 9823     		mov	r3, #152
 118 0080 DB19     		add	r3, r3, r7
 119 0082 1A68     		ldr	r2, [r3]
 120 0084 A023     		mov	r3, #160
 121 0086 1B06     		lsl	r3, r3, #24
 122 0088 9A42     		cmp	r2, r3
 123 008a 04D1     		bne	.L4
  88:.\Generated_Source\PSoC4/CyFlash.c ****         {
  89:.\Generated_Source\PSoC4/CyFlash.c ****             retValue = CYRET_SUCCESS;
 124              		.loc 1 89 0
 125 008c 0023     		mov	r3, #0
 126 008e 9C21     		mov	r1, #156
 127 0090 C919     		add	r1, r1, r7
 128 0092 0B60     		str	r3, [r1]
 129 0094 15E0     		b	.L5
 130              	.L4:
  90:.\Generated_Source\PSoC4/CyFlash.c ****         }
  91:.\Generated_Source\PSoC4/CyFlash.c ****         else if((cpuValue & CY_FLASH_SROM_CMD_RETURN_MASK) == CY_FLASH_SROM_CMD_RETURN_MASK)
 131              		.loc 1 91 0
 132 0096 9822     		mov	r2, #152
 133 0098 D219     		add	r2, r2, r7
ARM GAS  C:\Users\maxk\AppData\Local\Temp\ccUpgF9j.s 			page 5


 134 009a 1368     		ldr	r3, [r2]
 135 009c 1B0F     		lsr	r3, r3, #28
 136 009e 1A07     		lsl	r2, r3, #28
 137 00a0 F023     		mov	r3, #240
 138 00a2 1B06     		lsl	r3, r3, #24
 139 00a4 9A42     		cmp	r2, r3
 140 00a6 04D1     		bne	.L6
  92:.\Generated_Source\PSoC4/CyFlash.c ****         {
  93:.\Generated_Source\PSoC4/CyFlash.c ****             /* Error value, cant proceed */
  94:.\Generated_Source\PSoC4/CyFlash.c ****             retValue = CYRET_CANCELED;
 141              		.loc 1 94 0
 142 00a8 0923     		mov	r3, #9
 143 00aa 9C21     		mov	r1, #156
 144 00ac C919     		add	r1, r1, r7
 145 00ae 0B60     		str	r3, [r1]
 146 00b0 07E0     		b	.L5
 147              	.L6:
  95:.\Generated_Source\PSoC4/CyFlash.c ****         }
  96:.\Generated_Source\PSoC4/CyFlash.c ****         else
  97:.\Generated_Source\PSoC4/CyFlash.c ****         {
  98:.\Generated_Source\PSoC4/CyFlash.c ****             while((CY_FLASH_CPUSS_SYSARG_REG & CY_FLASH_SROM_CMD_RETURN_MASK) != CY_FLASH_SROM_CMD_
 148              		.loc 1 98 0
 149 00b2 2D4B     		ldr	r3, .L13
 150 00b4 1B68     		ldr	r3, [r3]
 151 00b6 1B0F     		lsr	r3, r3, #28
 152 00b8 1A07     		lsl	r2, r3, #28
 153 00ba A023     		mov	r3, #160
 154 00bc 1B06     		lsl	r3, r3, #24
 155 00be 9A42     		cmp	r2, r3
 156 00c0 F7D1     		bne	.L6
 157              	.L5:
  99:.\Generated_Source\PSoC4/CyFlash.c ****             {
 100:.\Generated_Source\PSoC4/CyFlash.c ****                 /* Wait till the request is completed */
 101:.\Generated_Source\PSoC4/CyFlash.c ****             }
 102:.\Generated_Source\PSoC4/CyFlash.c ****         }
 103:.\Generated_Source\PSoC4/CyFlash.c **** 
 104:.\Generated_Source\PSoC4/CyFlash.c ****         if(retValue == CYRET_SUCCESS)
 158              		.loc 1 104 0
 159 00c2 9C22     		mov	r2, #156
 160 00c4 D219     		add	r2, r2, r7
 161 00c6 1368     		ldr	r3, [r2]
 162 00c8 002B     		cmp	r3, #0
 163 00ca 42D1     		bne	.L11
 105:.\Generated_Source\PSoC4/CyFlash.c ****         {
 106:.\Generated_Source\PSoC4/CyFlash.c ****             ptr = &localData[CY_FLASH_SRAM_ROM_KEY1/4u];
 164              		.loc 1 106 0
 165 00cc 3B1C     		mov	r3, r7
 166 00ce 1033     		add	r3, r3, #16
 167 00d0 A021     		mov	r1, #160
 168 00d2 C919     		add	r1, r1, r7
 169 00d4 0B60     		str	r3, [r1]
 107:.\Generated_Source\PSoC4/CyFlash.c ****             CY_FLASH_CPUSS_SYSARG_REG = (uint32)ptr;
 170              		.loc 1 107 0
 171 00d6 244B     		ldr	r3, .L13
 172 00d8 A021     		mov	r1, #160
 173 00da C919     		add	r1, r1, r7
 174 00dc 0A68     		ldr	r2, [r1]
ARM GAS  C:\Users\maxk\AppData\Local\Temp\ccUpgF9j.s 			page 6


 175 00de 1A60     		str	r2, [r3]
 108:.\Generated_Source\PSoC4/CyFlash.c **** 
 109:.\Generated_Source\PSoC4/CyFlash.c ****             /* Write row command to SROM */
 110:.\Generated_Source\PSoC4/CyFlash.c ****             localData[CY_FLASH_SRAM_ROM_KEY1/4u] =  (uint32)(rowNum << 16u) | 
 176              		.loc 1 110 0
 177 00e0 7B68     		ldr	r3, [r7, #4]
 178 00e2 1A04     		lsl	r2, r3, #16
 179 00e4 244B     		ldr	r3, .L13+16
 180 00e6 1A43     		orr	r2, r2, r3
 181 00e8 3B1C     		mov	r3, r7
 182 00ea 1033     		add	r3, r3, #16
 183 00ec 1A60     		str	r2, [r3]
 111:.\Generated_Source\PSoC4/CyFlash.c ****                                                     (uint32)(CY_FLASH_SROM_KEY2_WRITE << 8u) | 
 112:.\Generated_Source\PSoC4/CyFlash.c ****                                                     CY_FLASH_SROM_KEY1;
 113:.\Generated_Source\PSoC4/CyFlash.c **** 
 114:.\Generated_Source\PSoC4/CyFlash.c ****             /* Mask all exceptions to guarantee that IMO configuration will be changed 
 115:.\Generated_Source\PSoC4/CyFlash.c ****             * in the atomic way. It will not affect syscall execution (flash row write) 
 116:.\Generated_Source\PSoC4/CyFlash.c ****             * since it is executed in the NMI context.
 117:.\Generated_Source\PSoC4/CyFlash.c ****             */
 118:.\Generated_Source\PSoC4/CyFlash.c ****             interruptState = CyEnterCriticalSection();
 184              		.loc 1 118 0
 185 00ee FFF7FEFF 		bl	CyEnterCriticalSection
 186 00f2 031C     		mov	r3, r0
 187 00f4 1A1C     		mov	r2, r3
 188 00f6 3B1C     		mov	r3, r7
 189 00f8 A733     		add	r3, r3, #167
 190 00fa 1A70     		strb	r2, [r3]
 119:.\Generated_Source\PSoC4/CyFlash.c **** 
 120:.\Generated_Source\PSoC4/CyFlash.c ****             /* Preserve IMO configuration that could be changed 
 121:.\Generated_Source\PSoC4/CyFlash.c ****             * during syscall execution (Cypress ID #150448).
 122:.\Generated_Source\PSoC4/CyFlash.c ****             */
 123:.\Generated_Source\PSoC4/CyFlash.c ****             imoConfigReg = CY_SYS_CLK_IMO_CONFIG_REG;
 191              		.loc 1 123 0
 192 00fc 1F4B     		ldr	r3, .L13+20
 193 00fe 1B68     		ldr	r3, [r3]
 194 0100 FB60     		str	r3, [r7, #12]
 124:.\Generated_Source\PSoC4/CyFlash.c **** 
 125:.\Generated_Source\PSoC4/CyFlash.c ****             /* Perform sysreq for Write row, opcode 0x80000005 */
 126:.\Generated_Source\PSoC4/CyFlash.c ****             CY_FLASH_CPUSS_SYSREQ_REG = CY_FLASH_WRITE_ROW_OPCODE | CY_FLASH_CPUSS_REQ_START;
 195              		.loc 1 126 0
 196 0102 1B4B     		ldr	r3, .L13+8
 197 0104 1E4A     		ldr	r2, .L13+24
 198 0106 1A60     		str	r2, [r3]
 199              	.L8:
 127:.\Generated_Source\PSoC4/CyFlash.c **** 
 128:.\Generated_Source\PSoC4/CyFlash.c ****             while((CY_FLASH_CPUSS_SYSREQ_REG & CY_FLASH_CPUSS_REQ_START) == CY_FLASH_CPUSS_REQ_STAR
 200              		.loc 1 128 0
 201 0108 194B     		ldr	r3, .L13+8
 202 010a 1B68     		ldr	r3, [r3]
 203 010c 002B     		cmp	r3, #0
 204 010e FBDB     		blt	.L8
 129:.\Generated_Source\PSoC4/CyFlash.c ****             {
 130:.\Generated_Source\PSoC4/CyFlash.c ****                 /* Wait till the CY_FLASH_CPUSS_REQ_START bit goes low */
 131:.\Generated_Source\PSoC4/CyFlash.c ****             }
 132:.\Generated_Source\PSoC4/CyFlash.c **** 
 133:.\Generated_Source\PSoC4/CyFlash.c ****             /* Restore IMO configuration */
 134:.\Generated_Source\PSoC4/CyFlash.c ****             CY_SYS_CLK_IMO_CONFIG_REG = imoConfigReg;
ARM GAS  C:\Users\maxk\AppData\Local\Temp\ccUpgF9j.s 			page 7


 205              		.loc 1 134 0
 206 0110 1A4B     		ldr	r3, .L13+20
 207 0112 FA68     		ldr	r2, [r7, #12]
 208 0114 1A60     		str	r2, [r3]
 135:.\Generated_Source\PSoC4/CyFlash.c **** 
 136:.\Generated_Source\PSoC4/CyFlash.c ****             CyExitCriticalSection(interruptState);
 209              		.loc 1 136 0
 210 0116 3B1C     		mov	r3, r7
 211 0118 A733     		add	r3, r3, #167
 212 011a 1B78     		ldrb	r3, [r3]
 213 011c 181C     		mov	r0, r3
 214 011e FFF7FEFF 		bl	CyExitCriticalSection
 137:.\Generated_Source\PSoC4/CyFlash.c **** 
 138:.\Generated_Source\PSoC4/CyFlash.c ****             cpuValue = CY_FLASH_CPUSS_SYSARG_REG;
 215              		.loc 1 138 0
 216 0122 114B     		ldr	r3, .L13
 217 0124 1B68     		ldr	r3, [r3]
 218 0126 9822     		mov	r2, #152
 219 0128 D219     		add	r2, r2, r7
 220 012a 1360     		str	r3, [r2]
 139:.\Generated_Source\PSoC4/CyFlash.c ****             if (cpuValue != CY_FLASH_SROM_CMD_RETURN_SUCC)
 221              		.loc 1 139 0
 222 012c 9823     		mov	r3, #152
 223 012e DB19     		add	r3, r3, r7
 224 0130 1A68     		ldr	r2, [r3]
 225 0132 A023     		mov	r3, #160
 226 0134 1B06     		lsl	r3, r3, #24
 227 0136 9A42     		cmp	r2, r3
 228 0138 0DD0     		beq	.L12
 140:.\Generated_Source\PSoC4/CyFlash.c ****             {
 141:.\Generated_Source\PSoC4/CyFlash.c ****                 retValue = cpuValue;
 229              		.loc 1 141 0
 230 013a 9821     		mov	r1, #152
 231 013c C919     		add	r1, r1, r7
 232 013e 0B68     		ldr	r3, [r1]
 233 0140 9C22     		mov	r2, #156
 234 0142 D219     		add	r2, r2, r7
 235 0144 1360     		str	r3, [r2]
 236              		.loc 1 59 0
 237 0146 07E0     		b	.L9
 238              	.L2:
 142:.\Generated_Source\PSoC4/CyFlash.c ****             }
 143:.\Generated_Source\PSoC4/CyFlash.c ****         }
 144:.\Generated_Source\PSoC4/CyFlash.c ****     }
 145:.\Generated_Source\PSoC4/CyFlash.c ****     else
 146:.\Generated_Source\PSoC4/CyFlash.c ****     {
 147:.\Generated_Source\PSoC4/CyFlash.c ****         retValue = CYRET_BAD_PARAM;
 239              		.loc 1 147 0
 240 0148 0123     		mov	r3, #1
 241 014a 9C21     		mov	r1, #156
 242 014c C919     		add	r1, r1, r7
 243 014e 0B60     		str	r3, [r1]
 244 0150 02E0     		b	.L9
 245              	.L11:
 246              		.loc 1 59 0
 247 0152 C046     		mov	r8, r8
 248 0154 00E0     		b	.L9
ARM GAS  C:\Users\maxk\AppData\Local\Temp\ccUpgF9j.s 			page 8


 249              	.L12:
 250 0156 C046     		mov	r8, r8
 251              	.L9:
 148:.\Generated_Source\PSoC4/CyFlash.c ****     }
 149:.\Generated_Source\PSoC4/CyFlash.c **** 
 150:.\Generated_Source\PSoC4/CyFlash.c ****     return (retValue);
 252              		.loc 1 150 0
 253 0158 9C22     		mov	r2, #156
 254 015a D219     		add	r2, r2, r7
 255 015c 1368     		ldr	r3, [r2]
 151:.\Generated_Source\PSoC4/CyFlash.c **** }
 256              		.loc 1 151 0
 257 015e 181C     		mov	r0, r3
 258 0160 BD46     		mov	sp, r7
 259 0162 2AB0     		add	sp, sp, #168
 260              		@ sp needed for prologue
 261 0164 80BD     		pop	{r7, pc}
 262              	.L14:
 263 0166 C046     		.align	2
 264              	.L13:
 265 0168 08000040 		.word	1073741832
 266 016c B6D70000 		.word	55222
 267 0170 04000040 		.word	1073741828
 268 0174 04000080 		.word	-2147483644
 269 0178 B6D80000 		.word	55478
 270 017c 08010B40 		.word	1074462984
 271 0180 05000080 		.word	-2147483643
 272              		.cfi_endproc
 273              	.LFE0:
 274              		.size	CySysFlashWriteRow, .-CySysFlashWriteRow
 275              		.section	.text.CySysFlashSetWaitCycles,"ax",%progbits
 276              		.align	2
 277              		.global	CySysFlashSetWaitCycles
 278              		.code	16
 279              		.thumb_func
 280              		.type	CySysFlashSetWaitCycles, %function
 281              	CySysFlashSetWaitCycles:
 282              	.LFB1:
 152:.\Generated_Source\PSoC4/CyFlash.c **** 
 153:.\Generated_Source\PSoC4/CyFlash.c **** 
 154:.\Generated_Source\PSoC4/CyFlash.c **** /*******************************************************************************
 155:.\Generated_Source\PSoC4/CyFlash.c **** * Function Name: CySysFlashSetWaitCycles
 156:.\Generated_Source\PSoC4/CyFlash.c **** ********************************************************************************
 157:.\Generated_Source\PSoC4/CyFlash.c **** *
 158:.\Generated_Source\PSoC4/CyFlash.c **** * Summary:
 159:.\Generated_Source\PSoC4/CyFlash.c **** *  Sets the number of clock cycles the cache will wait before it samples data
 160:.\Generated_Source\PSoC4/CyFlash.c **** *  coming back from Flash. This function must be called before increasing SYSCLK
 161:.\Generated_Source\PSoC4/CyFlash.c **** *  clock frequency. It can optionally be called after lowering SYSCLK clock
 162:.\Generated_Source\PSoC4/CyFlash.c **** *  frequency in order to improve CPU performance.
 163:.\Generated_Source\PSoC4/CyFlash.c **** *
 164:.\Generated_Source\PSoC4/CyFlash.c **** * Parameters:
 165:.\Generated_Source\PSoC4/CyFlash.c **** *  freq: Valid range [3-48].  Frequency for operation of the IMO.
 166:.\Generated_Source\PSoC4/CyFlash.c **** *  Note: Invalid frequency will be ignored.
 167:.\Generated_Source\PSoC4/CyFlash.c **** *
 168:.\Generated_Source\PSoC4/CyFlash.c **** * Return:
 169:.\Generated_Source\PSoC4/CyFlash.c **** *  None
 170:.\Generated_Source\PSoC4/CyFlash.c **** *
ARM GAS  C:\Users\maxk\AppData\Local\Temp\ccUpgF9j.s 			page 9


 171:.\Generated_Source\PSoC4/CyFlash.c **** *******************************************************************************/
 172:.\Generated_Source\PSoC4/CyFlash.c **** void CySysFlashSetWaitCycles(uint32 freq)
 173:.\Generated_Source\PSoC4/CyFlash.c **** {
 283              		.loc 1 173 0
 284              		.cfi_startproc
 285 0000 80B5     		push	{r7, lr}
 286              	.LCFI3:
 287              		.cfi_def_cfa_offset 8
 288              		.cfi_offset 7, -8
 289              		.cfi_offset 14, -4
 290 0002 82B0     		sub	sp, sp, #8
 291              	.LCFI4:
 292              		.cfi_def_cfa_offset 16
 293 0004 00AF     		add	r7, sp, #0
 294              	.LCFI5:
 295              		.cfi_def_cfa_register 7
 296 0006 7860     		str	r0, [r7, #4]
 174:.\Generated_Source\PSoC4/CyFlash.c ****     if ((freq >= CY_SYS_CLK_IMO_MIN_FREQ_MHZ) && (freq <= CY_SYS_CLK_IMO_MAX_FREQ_MHZ))
 297              		.loc 1 174 0
 298 0008 7B68     		ldr	r3, [r7, #4]
 299 000a 022B     		cmp	r3, #2
 300 000c 14D9     		bls	.L16
 301 000e 7B68     		ldr	r3, [r7, #4]
 302 0010 302B     		cmp	r3, #48
 303 0012 11D8     		bhi	.L16
 175:.\Generated_Source\PSoC4/CyFlash.c ****     {
 176:.\Generated_Source\PSoC4/CyFlash.c ****         if ( freq <= CY_FLASH_SYSCLK_BOUNDARY_MHZ )
 304              		.loc 1 176 0
 305 0014 7B68     		ldr	r3, [r7, #4]
 306 0016 182B     		cmp	r3, #24
 307 0018 06D8     		bhi	.L17
 177:.\Generated_Source\PSoC4/CyFlash.c ****         {
 178:.\Generated_Source\PSoC4/CyFlash.c ****             CY_SYS_CLK_SELECT_REG &= (uint32)(~CY_FLASH_WAIT_STATE_EN);
 308              		.loc 1 178 0
 309 001a 0A4B     		ldr	r3, .L21
 310 001c 094A     		ldr	r2, .L21
 311 001e 1168     		ldr	r1, [r2]
 312 0020 094A     		ldr	r2, .L21+4
 313 0022 0A40     		and	r2, r2, r1
 314 0024 1A60     		str	r2, [r3]
 315              		.loc 1 174 0
 316 0026 0AE0     		b	.L20
 317              	.L17:
 179:.\Generated_Source\PSoC4/CyFlash.c ****         }
 180:.\Generated_Source\PSoC4/CyFlash.c ****         else
 181:.\Generated_Source\PSoC4/CyFlash.c ****         {
 182:.\Generated_Source\PSoC4/CyFlash.c ****             CY_SYS_CLK_SELECT_REG |= CY_FLASH_WAIT_STATE_EN;
 318              		.loc 1 182 0
 319 0028 064A     		ldr	r2, .L21
 320 002a 064B     		ldr	r3, .L21
 321 002c 1968     		ldr	r1, [r3]
 322 002e 8023     		mov	r3, #128
 323 0030 DB02     		lsl	r3, r3, #11
 324 0032 0B43     		orr	r3, r3, r1
 325 0034 1360     		str	r3, [r2]
 326              		.loc 1 174 0
 327 0036 02E0     		b	.L20
ARM GAS  C:\Users\maxk\AppData\Local\Temp\ccUpgF9j.s 			page 10


 328              	.L16:
 183:.\Generated_Source\PSoC4/CyFlash.c ****         }
 184:.\Generated_Source\PSoC4/CyFlash.c ****     }
 185:.\Generated_Source\PSoC4/CyFlash.c ****     else
 186:.\Generated_Source\PSoC4/CyFlash.c ****     {
 187:.\Generated_Source\PSoC4/CyFlash.c ****         /* Halt CPU in debug mode if frequency is invalid */
 188:.\Generated_Source\PSoC4/CyFlash.c ****         CYASSERT(0u != 0u);
 329              		.loc 1 188 0
 330 0038 0020     		mov	r0, #0
 331 003a FFF7FEFF 		bl	CyHalt
 332              	.L20:
 189:.\Generated_Source\PSoC4/CyFlash.c ****     }
 190:.\Generated_Source\PSoC4/CyFlash.c **** }
 333              		.loc 1 190 0
 334 003e BD46     		mov	sp, r7
 335 0040 02B0     		add	sp, sp, #8
 336              		@ sp needed for prologue
 337 0042 80BD     		pop	{r7, pc}
 338              	.L22:
 339              		.align	2
 340              	.L21:
 341 0044 00010B40 		.word	1074462976
 342 0048 FFFFFBFF 		.word	-262145
 343              		.cfi_endproc
 344              	.LFE1:
 345              		.size	CySysFlashSetWaitCycles, .-CySysFlashSetWaitCycles
 346              		.text
 347              	.Letext0: