ARM GAS  C:\Users\maxk\AppData\Local\Temp\cc3CwEXA.s 			page 1


   1              		.cpu cortex-m0
   2              		.fpu softvfp
   3              		.eabi_attribute 20, 1
   4              		.eabi_attribute 21, 1
   5              		.eabi_attribute 23, 3
   6              		.eabi_attribute 24, 1
   7              		.eabi_attribute 25, 1
   8              		.eabi_attribute 26, 1
   9              		.eabi_attribute 30, 6
  10              		.eabi_attribute 18, 4
  11              		.code	16
  12              		.file	"main.c"
  19 0000 5F000000 		.text
  19      02004500 
  19      00000201 
  19      FB0E0D00 
  19      01010101 
  20              	.Ltext0:
  21              		.cfi_sections	.debug_frame
  22              		.section	.text.main,"ax",%progbits
  23              		.align	2
  24              		.global	main
  25              		.code	16
  26              		.thumb_func
  27              		.type	main, %function
  28              	main:
  29              	.LFB20:
  30              		.file 1 ".\\main.c"
   1:.\main.c      **** /* ========================================
   2:.\main.c      ****  *
   3:.\main.c      ****  * Copyright YOUR COMPANY, THE YEAR
   4:.\main.c      ****  * All Rights Reserved
   5:.\main.c      ****  * UNPUBLISHED, LICENSED SOFTWARE.
   6:.\main.c      ****  *
   7:.\main.c      ****  * CONFIDENTIAL AND PROPRIETARY INFORMATION
   8:.\main.c      ****  * WHICH IS THE PROPERTY OF your company.
   9:.\main.c      ****  *
  10:.\main.c      ****  * ========================================
  11:.\main.c      **** */
  12:.\main.c      **** #include <device.h>
  13:.\main.c      **** #include <LED_RGB.h>
  14:.\main.c      **** 
  15:.\main.c      **** void main()
  16:.\main.c      **** {
  31              		.loc 1 16 0
  32              		.cfi_startproc
  33 0000 80B5     		push	{r7, lr}
  34              	.LCFI0:
  35              		.cfi_def_cfa_offset 8
  36              		.cfi_offset 7, -8
  37              		.cfi_offset 14, -4
ARM GAS  C:\Users\maxk\AppData\Local\Temp\cc3CwEXA.s 			page 2


  38 0002 82B0     		sub	sp, sp, #8
  39              	.LCFI1:
  40              		.cfi_def_cfa_offset 16
  41 0004 00AF     		add	r7, sp, #0
  42              	.LCFI2:
  43              		.cfi_def_cfa_register 7
  17:.\main.c      ****     /* Place your initialization/startup code here (e.g. MyInst_Start()) */
  18:.\main.c      ****     uint16 redIntensity;
  19:.\main.c      ****     LED_RGB_Start();
  44              		.loc 1 19 0
  45 0006 FFF7FEFF 		bl	LED_RGB_Start
  46              	.L2:
  20:.\main.c      ****      
  21:.\main.c      ****     /* CyGlobalIntEnable; */ /* Uncomment this line to enable global interrupts. */
  22:.\main.c      ****     for(;;)
  23:.\main.c      ****     {
  24:.\main.c      ****         /* Place your application code here. */
  25:.\main.c      ****         redIntensity += 655;
  47              		.loc 1 25 0
  48 000a BB1D     		add	r3, r7, #6
  49 000c BA1D     		add	r2, r7, #6
  50 000e 1288     		ldrh	r2, [r2]
  51 0010 0649     		ldr	r1, .L4
  52 0012 5218     		add	r2, r2, r1
  53 0014 1A80     		strh	r2, [r3]
  26:.\main.c      ****         LED_RGB_SetColorRGB(redIntensity, 0, 0);
  54              		.loc 1 26 0
  55 0016 BB1D     		add	r3, r7, #6
  56 0018 1B88     		ldrh	r3, [r3]
  57 001a 181C     		mov	r0, r3
  58 001c 0021     		mov	r1, #0
  59 001e 0022     		mov	r2, #0
  60 0020 FFF7FEFF 		bl	LED_RGB_SetColorRGB
  27:.\main.c      ****         CyDelay(10);
  61              		.loc 1 27 0
  62 0024 0A20     		mov	r0, #10
  63 0026 FFF7FEFF 		bl	CyDelay
  28:.\main.c      ****     }
  64              		.loc 1 28 0
  65 002a EEE7     		b	.L2
  66              	.L5:
  67              		.align	2
  68              	.L4:
  69 002c 8F020000 		.word	655
  70              		.cfi_endproc
  71              	.LFE20:
  72              		.size	main, .-main
  73              		.text
  74              	.Letext0: