ARM GAS  C:\Users\maxk\AppData\Local\Temp\ccZFaY7b.s 			page 1


   1              		.cpu cortex-m0
   2              		.fpu softvfp
   3              		.eabi_attribute 20, 1
   4              		.eabi_attribute 21, 1
   5              		.eabi_attribute 23, 3
   6              		.eabi_attribute 24, 1
   7              		.eabi_attribute 25, 1
   8              		.eabi_attribute 26, 1
   9              		.eabi_attribute 30, 6
  10              		.eabi_attribute 18, 4
  11              		.code	16
  12              		.file	"PWM_B_PM.c"
  19 0000 BC000000 		.text
  19      02006C00 
  19      00000201 
  19      FB0E0D00 
  19      01010101 
  20              	.Ltext0:
  21              		.cfi_sections	.debug_frame
  22              		.bss
  23              		.align	2
  24              	PWM_B_backup:
  25 0000 00       		.space	1
  26 0001 000000   		.section	.text.PWM_B_SaveConfig,"ax",%progbits
  27              		.align	2
  28              		.global	PWM_B_SaveConfig
  29              		.code	16
  30              		.thumb_func
  31              		.type	PWM_B_SaveConfig, %function
  32              	PWM_B_SaveConfig:
  33              	.LFB0:
  34              		.file 1 ".\\Generated_Source\\PSoC4\\PWM_B_PM.c"
   1:.\Generated_Source\PSoC4/PWM_B_PM.c **** /*******************************************************************************
   2:.\Generated_Source\PSoC4/PWM_B_PM.c **** * File Name: PWM_B_PM.c
   3:.\Generated_Source\PSoC4/PWM_B_PM.c **** * Version 1.0
   4:.\Generated_Source\PSoC4/PWM_B_PM.c **** *
   5:.\Generated_Source\PSoC4/PWM_B_PM.c **** * Description:
   6:.\Generated_Source\PSoC4/PWM_B_PM.c **** *  This file contains the setup, control and status commands to support
   7:.\Generated_Source\PSoC4/PWM_B_PM.c **** *  component operations in low power mode.
   8:.\Generated_Source\PSoC4/PWM_B_PM.c **** *
   9:.\Generated_Source\PSoC4/PWM_B_PM.c **** * Note:
  10:.\Generated_Source\PSoC4/PWM_B_PM.c **** *  None
  11:.\Generated_Source\PSoC4/PWM_B_PM.c **** *
  12:.\Generated_Source\PSoC4/PWM_B_PM.c **** ********************************************************************************
  13:.\Generated_Source\PSoC4/PWM_B_PM.c **** * Copyright 2013, Cypress Semiconductor Corporation.  All rights reserved.
  14:.\Generated_Source\PSoC4/PWM_B_PM.c **** * You may use this file only in accordance with the license, terms, conditions,
  15:.\Generated_Source\PSoC4/PWM_B_PM.c **** * disclaimers, and limitations in the end user license agreement accompanying
  16:.\Generated_Source\PSoC4/PWM_B_PM.c **** * the software package with which this file was provided.
  17:.\Generated_Source\PSoC4/PWM_B_PM.c **** *******************************************************************************/
  18:.\Generated_Source\PSoC4/PWM_B_PM.c **** 
  19:.\Generated_Source\PSoC4/PWM_B_PM.c **** #include "PWM_B.h"
ARM GAS  C:\Users\maxk\AppData\Local\Temp\ccZFaY7b.s 			page 2


  20:.\Generated_Source\PSoC4/PWM_B_PM.c **** 
  21:.\Generated_Source\PSoC4/PWM_B_PM.c **** static PWM_B_BACKUP_STRUCT PWM_B_backup;
  22:.\Generated_Source\PSoC4/PWM_B_PM.c **** 
  23:.\Generated_Source\PSoC4/PWM_B_PM.c **** 
  24:.\Generated_Source\PSoC4/PWM_B_PM.c **** /*******************************************************************************
  25:.\Generated_Source\PSoC4/PWM_B_PM.c **** * Function Name: PWM_B_SaveConfig
  26:.\Generated_Source\PSoC4/PWM_B_PM.c **** ********************************************************************************
  27:.\Generated_Source\PSoC4/PWM_B_PM.c **** *
  28:.\Generated_Source\PSoC4/PWM_B_PM.c **** * Summary:
  29:.\Generated_Source\PSoC4/PWM_B_PM.c **** *  All configuration registers are retention. Nothing to save here.
  30:.\Generated_Source\PSoC4/PWM_B_PM.c **** *
  31:.\Generated_Source\PSoC4/PWM_B_PM.c **** * Parameters:
  32:.\Generated_Source\PSoC4/PWM_B_PM.c **** *  None
  33:.\Generated_Source\PSoC4/PWM_B_PM.c **** *
  34:.\Generated_Source\PSoC4/PWM_B_PM.c **** * Return:
  35:.\Generated_Source\PSoC4/PWM_B_PM.c **** *  None
  36:.\Generated_Source\PSoC4/PWM_B_PM.c **** *
  37:.\Generated_Source\PSoC4/PWM_B_PM.c **** *******************************************************************************/
  38:.\Generated_Source\PSoC4/PWM_B_PM.c **** void PWM_B_SaveConfig(void)
  39:.\Generated_Source\PSoC4/PWM_B_PM.c **** {
  35              		.loc 1 39 0
  36              		.cfi_startproc
  37 0000 80B5     		push	{r7, lr}
  38              	.LCFI0:
  39              		.cfi_def_cfa_offset 8
  40              		.cfi_offset 7, -8
  41              		.cfi_offset 14, -4
  42 0002 00AF     		add	r7, sp, #0
  43              	.LCFI1:
  44              		.cfi_def_cfa_register 7
  40:.\Generated_Source\PSoC4/PWM_B_PM.c **** 
  41:.\Generated_Source\PSoC4/PWM_B_PM.c **** }
  45              		.loc 1 41 0
  46 0004 BD46     		mov	sp, r7
  47              		@ sp needed for prologue
  48 0006 80BD     		pop	{r7, pc}
  49              		.cfi_endproc
  50              	.LFE0:
  51              		.size	PWM_B_SaveConfig, .-PWM_B_SaveConfig
  52              		.section	.text.PWM_B_Sleep,"ax",%progbits
  53              		.align	2
  54              		.global	PWM_B_Sleep
  55              		.code	16
  56              		.thumb_func
  57              		.type	PWM_B_Sleep, %function
  58              	PWM_B_Sleep:
  59              	.LFB1:
  42:.\Generated_Source\PSoC4/PWM_B_PM.c **** 
  43:.\Generated_Source\PSoC4/PWM_B_PM.c **** 
  44:.\Generated_Source\PSoC4/PWM_B_PM.c **** /*******************************************************************************
  45:.\Generated_Source\PSoC4/PWM_B_PM.c **** * Function Name: PWM_B_Sleep
  46:.\Generated_Source\PSoC4/PWM_B_PM.c **** ********************************************************************************
  47:.\Generated_Source\PSoC4/PWM_B_PM.c **** *
  48:.\Generated_Source\PSoC4/PWM_B_PM.c **** * Summary:
  49:.\Generated_Source\PSoC4/PWM_B_PM.c **** *  Stops the component operation and saves the user configuration.
  50:.\Generated_Source\PSoC4/PWM_B_PM.c **** *
  51:.\Generated_Source\PSoC4/PWM_B_PM.c **** * Parameters:
ARM GAS  C:\Users\maxk\AppData\Local\Temp\ccZFaY7b.s 			page 3


  52:.\Generated_Source\PSoC4/PWM_B_PM.c **** *  None
  53:.\Generated_Source\PSoC4/PWM_B_PM.c **** *
  54:.\Generated_Source\PSoC4/PWM_B_PM.c **** * Return:
  55:.\Generated_Source\PSoC4/PWM_B_PM.c **** *  None
  56:.\Generated_Source\PSoC4/PWM_B_PM.c **** *
  57:.\Generated_Source\PSoC4/PWM_B_PM.c **** *******************************************************************************/
  58:.\Generated_Source\PSoC4/PWM_B_PM.c **** void PWM_B_Sleep(void)
  59:.\Generated_Source\PSoC4/PWM_B_PM.c **** {
  60              		.loc 1 59 0
  61              		.cfi_startproc
  62 0000 80B5     		push	{r7, lr}
  63              	.LCFI2:
  64              		.cfi_def_cfa_offset 8
  65              		.cfi_offset 7, -8
  66              		.cfi_offset 14, -4
  67 0002 00AF     		add	r7, sp, #0
  68              	.LCFI3:
  69              		.cfi_def_cfa_register 7
  60:.\Generated_Source\PSoC4/PWM_B_PM.c ****     if(0u != (PWM_B_BLOCK_CONTROL_REG & PWM_B_MASK))
  70              		.loc 1 60 0
  71 0004 0A4B     		ldr	r3, .L7
  72 0006 1B68     		ldr	r3, [r3]
  73 0008 1A1C     		mov	r2, r3
  74 000a 0123     		mov	r3, #1
  75 000c 1340     		and	r3, r3, r2
  76 000e DBB2     		uxtb	r3, r3
  77 0010 002B     		cmp	r3, #0
  78 0012 03D0     		beq	.L4
  61:.\Generated_Source\PSoC4/PWM_B_PM.c ****     {
  62:.\Generated_Source\PSoC4/PWM_B_PM.c ****         PWM_B_backup.enableState = 1u;
  79              		.loc 1 62 0
  80 0014 074B     		ldr	r3, .L7+4
  81 0016 0122     		mov	r2, #1
  82 0018 1A70     		strb	r2, [r3]
  83 001a 02E0     		b	.L5
  84              	.L4:
  63:.\Generated_Source\PSoC4/PWM_B_PM.c ****     }
  64:.\Generated_Source\PSoC4/PWM_B_PM.c ****     else
  65:.\Generated_Source\PSoC4/PWM_B_PM.c ****     {
  66:.\Generated_Source\PSoC4/PWM_B_PM.c ****         PWM_B_backup.enableState = 0u;
  85              		.loc 1 66 0
  86 001c 054B     		ldr	r3, .L7+4
  87 001e 0022     		mov	r2, #0
  88 0020 1A70     		strb	r2, [r3]
  89              	.L5:
  67:.\Generated_Source\PSoC4/PWM_B_PM.c ****     }
  68:.\Generated_Source\PSoC4/PWM_B_PM.c **** 
  69:.\Generated_Source\PSoC4/PWM_B_PM.c ****     PWM_B_Stop();
  90              		.loc 1 69 0
  91 0022 FFF7FEFF 		bl	PWM_B_Stop
  70:.\Generated_Source\PSoC4/PWM_B_PM.c ****     PWM_B_SaveConfig();
  92              		.loc 1 70 0
  93 0026 FFF7FEFF 		bl	PWM_B_SaveConfig
  71:.\Generated_Source\PSoC4/PWM_B_PM.c **** }
  94              		.loc 1 71 0
  95 002a BD46     		mov	sp, r7
  96              		@ sp needed for prologue
ARM GAS  C:\Users\maxk\AppData\Local\Temp\ccZFaY7b.s 			page 4


  97 002c 80BD     		pop	{r7, pc}
  98              	.L8:
  99 002e C046     		.align	2
 100              	.L7:
 101 0030 00000540 		.word	1074069504
 102 0034 00000000 		.word	PWM_B_backup
 103              		.cfi_endproc
 104              	.LFE1:
 105              		.size	PWM_B_Sleep, .-PWM_B_Sleep
 106              		.section	.text.PWM_B_RestoreConfig,"ax",%progbits
 107              		.align	2
 108              		.global	PWM_B_RestoreConfig
 109              		.code	16
 110              		.thumb_func
 111              		.type	PWM_B_RestoreConfig, %function
 112              	PWM_B_RestoreConfig:
 113              	.LFB2:
  72:.\Generated_Source\PSoC4/PWM_B_PM.c **** 
  73:.\Generated_Source\PSoC4/PWM_B_PM.c **** 
  74:.\Generated_Source\PSoC4/PWM_B_PM.c **** /*******************************************************************************
  75:.\Generated_Source\PSoC4/PWM_B_PM.c **** * Function Name: PWM_B_RestoreConfig
  76:.\Generated_Source\PSoC4/PWM_B_PM.c **** ********************************************************************************
  77:.\Generated_Source\PSoC4/PWM_B_PM.c **** *
  78:.\Generated_Source\PSoC4/PWM_B_PM.c **** * Summary:
  79:.\Generated_Source\PSoC4/PWM_B_PM.c **** *  All configuration registers are retention. Nothing to restore here.
  80:.\Generated_Source\PSoC4/PWM_B_PM.c **** *
  81:.\Generated_Source\PSoC4/PWM_B_PM.c **** * Parameters:
  82:.\Generated_Source\PSoC4/PWM_B_PM.c **** *  None
  83:.\Generated_Source\PSoC4/PWM_B_PM.c **** *
  84:.\Generated_Source\PSoC4/PWM_B_PM.c **** * Return:
  85:.\Generated_Source\PSoC4/PWM_B_PM.c **** *  None
  86:.\Generated_Source\PSoC4/PWM_B_PM.c **** *
  87:.\Generated_Source\PSoC4/PWM_B_PM.c **** *******************************************************************************/
  88:.\Generated_Source\PSoC4/PWM_B_PM.c **** void PWM_B_RestoreConfig(void)
  89:.\Generated_Source\PSoC4/PWM_B_PM.c **** {
 114              		.loc 1 89 0
 115              		.cfi_startproc
 116 0000 80B5     		push	{r7, lr}
 117              	.LCFI4:
 118              		.cfi_def_cfa_offset 8
 119              		.cfi_offset 7, -8
 120              		.cfi_offset 14, -4
 121 0002 00AF     		add	r7, sp, #0
 122              	.LCFI5:
 123              		.cfi_def_cfa_register 7
  90:.\Generated_Source\PSoC4/PWM_B_PM.c **** 
  91:.\Generated_Source\PSoC4/PWM_B_PM.c **** }
 124              		.loc 1 91 0
 125 0004 BD46     		mov	sp, r7
 126              		@ sp needed for prologue
 127 0006 80BD     		pop	{r7, pc}
 128              		.cfi_endproc
 129              	.LFE2:
 130              		.size	PWM_B_RestoreConfig, .-PWM_B_RestoreConfig
 131              		.section	.text.PWM_B_Wakeup,"ax",%progbits
 132              		.align	2
 133              		.global	PWM_B_Wakeup
ARM GAS  C:\Users\maxk\AppData\Local\Temp\ccZFaY7b.s 			page 5


 134              		.code	16
 135              		.thumb_func
 136              		.type	PWM_B_Wakeup, %function
 137              	PWM_B_Wakeup:
 138              	.LFB3:
  92:.\Generated_Source\PSoC4/PWM_B_PM.c **** 
  93:.\Generated_Source\PSoC4/PWM_B_PM.c **** 
  94:.\Generated_Source\PSoC4/PWM_B_PM.c **** /*******************************************************************************
  95:.\Generated_Source\PSoC4/PWM_B_PM.c **** * Function Name: PWM_B_Wakeup
  96:.\Generated_Source\PSoC4/PWM_B_PM.c **** ********************************************************************************
  97:.\Generated_Source\PSoC4/PWM_B_PM.c **** *
  98:.\Generated_Source\PSoC4/PWM_B_PM.c **** * Summary:
  99:.\Generated_Source\PSoC4/PWM_B_PM.c **** *  Restores the user configuration and restores the enable state.
 100:.\Generated_Source\PSoC4/PWM_B_PM.c **** *
 101:.\Generated_Source\PSoC4/PWM_B_PM.c **** * Parameters:
 102:.\Generated_Source\PSoC4/PWM_B_PM.c **** *  None
 103:.\Generated_Source\PSoC4/PWM_B_PM.c **** *
 104:.\Generated_Source\PSoC4/PWM_B_PM.c **** * Return:
 105:.\Generated_Source\PSoC4/PWM_B_PM.c **** *  None
 106:.\Generated_Source\PSoC4/PWM_B_PM.c **** *
 107:.\Generated_Source\PSoC4/PWM_B_PM.c **** *******************************************************************************/
 108:.\Generated_Source\PSoC4/PWM_B_PM.c **** void PWM_B_Wakeup(void)
 109:.\Generated_Source\PSoC4/PWM_B_PM.c **** {
 139              		.loc 1 109 0
 140              		.cfi_startproc
 141 0000 80B5     		push	{r7, lr}
 142              	.LCFI6:
 143              		.cfi_def_cfa_offset 8
 144              		.cfi_offset 7, -8
 145              		.cfi_offset 14, -4
 146 0002 00AF     		add	r7, sp, #0
 147              	.LCFI7:
 148              		.cfi_def_cfa_register 7
 110:.\Generated_Source\PSoC4/PWM_B_PM.c ****     PWM_B_RestoreConfig();
 149              		.loc 1 110 0
 150 0004 FFF7FEFF 		bl	PWM_B_RestoreConfig
 111:.\Generated_Source\PSoC4/PWM_B_PM.c **** 
 112:.\Generated_Source\PSoC4/PWM_B_PM.c ****     if(0u != PWM_B_backup.enableState)
 151              		.loc 1 112 0
 152 0008 034B     		ldr	r3, .L14
 153 000a 1B78     		ldrb	r3, [r3]
 154 000c 002B     		cmp	r3, #0
 155 000e 01D0     		beq	.L13
 113:.\Generated_Source\PSoC4/PWM_B_PM.c ****     {
 114:.\Generated_Source\PSoC4/PWM_B_PM.c ****         PWM_B_Enable();
 156              		.loc 1 114 0
 157 0010 FFF7FEFF 		bl	PWM_B_Enable
 158              	.L13:
 115:.\Generated_Source\PSoC4/PWM_B_PM.c ****     }
 116:.\Generated_Source\PSoC4/PWM_B_PM.c **** }
 159              		.loc 1 116 0
 160 0014 BD46     		mov	sp, r7
 161              		@ sp needed for prologue
 162 0016 80BD     		pop	{r7, pc}
 163              	.L15:
 164              		.align	2
 165              	.L14:
ARM GAS  C:\Users\maxk\AppData\Local\Temp\ccZFaY7b.s 			page 6


 166 0018 00000000 		.word	PWM_B_backup
 167              		.cfi_endproc
 168              	.LFE3:
 169              		.size	PWM_B_Wakeup, .-PWM_B_Wakeup
 170              		.text
 171              	.Letext0: