ARM GAS  C:\Users\maxk\AppData\Local\Temp\ccbcH3Vs.s 			page 1


   1              		.cpu cortex-m0
   2              		.fpu softvfp
   3              		.eabi_attribute 20, 1
   4              		.eabi_attribute 21, 1
   5              		.eabi_attribute 23, 3
   6              		.eabi_attribute 24, 1
   7              		.eabi_attribute 25, 1
   8              		.eabi_attribute 26, 1
   9              		.eabi_attribute 30, 6
  10              		.eabi_attribute 18, 4
  11              		.code	16
  12              		.file	"PWM_R_PM.c"
  19 0000 BC000000 		.text
  19      02006C00 
  19      00000201 
  19      FB0E0D00 
  19      01010101 
  20              	.Ltext0:
  21              		.cfi_sections	.debug_frame
  22              		.bss
  23              		.align	2
  24              	PWM_R_backup:
  25 0000 00       		.space	1
  26 0001 000000   		.section	.text.PWM_R_SaveConfig,"ax",%progbits
  27              		.align	2
  28              		.global	PWM_R_SaveConfig
  29              		.code	16
  30              		.thumb_func
  31              		.type	PWM_R_SaveConfig, %function
  32              	PWM_R_SaveConfig:
  33              	.LFB0:
  34              		.file 1 ".\\Generated_Source\\PSoC4\\PWM_R_PM.c"
   1:.\Generated_Source\PSoC4/PWM_R_PM.c **** /*******************************************************************************
   2:.\Generated_Source\PSoC4/PWM_R_PM.c **** * File Name: PWM_R_PM.c
   3:.\Generated_Source\PSoC4/PWM_R_PM.c **** * Version 1.0
   4:.\Generated_Source\PSoC4/PWM_R_PM.c **** *
   5:.\Generated_Source\PSoC4/PWM_R_PM.c **** * Description:
   6:.\Generated_Source\PSoC4/PWM_R_PM.c **** *  This file contains the setup, control and status commands to support
   7:.\Generated_Source\PSoC4/PWM_R_PM.c **** *  component operations in low power mode.
   8:.\Generated_Source\PSoC4/PWM_R_PM.c **** *
   9:.\Generated_Source\PSoC4/PWM_R_PM.c **** * Note:
  10:.\Generated_Source\PSoC4/PWM_R_PM.c **** *  None
  11:.\Generated_Source\PSoC4/PWM_R_PM.c **** *
  12:.\Generated_Source\PSoC4/PWM_R_PM.c **** ********************************************************************************
  13:.\Generated_Source\PSoC4/PWM_R_PM.c **** * Copyright 2013, Cypress Semiconductor Corporation.  All rights reserved.
  14:.\Generated_Source\PSoC4/PWM_R_PM.c **** * You may use this file only in accordance with the license, terms, conditions,
  15:.\Generated_Source\PSoC4/PWM_R_PM.c **** * disclaimers, and limitations in the end user license agreement accompanying
  16:.\Generated_Source\PSoC4/PWM_R_PM.c **** * the software package with which this file was provided.
  17:.\Generated_Source\PSoC4/PWM_R_PM.c **** *******************************************************************************/
  18:.\Generated_Source\PSoC4/PWM_R_PM.c **** 
  19:.\Generated_Source\PSoC4/PWM_R_PM.c **** #include "PWM_R.h"
ARM GAS  C:\Users\maxk\AppData\Local\Temp\ccbcH3Vs.s 			page 2


  20:.\Generated_Source\PSoC4/PWM_R_PM.c **** 
  21:.\Generated_Source\PSoC4/PWM_R_PM.c **** static PWM_R_BACKUP_STRUCT PWM_R_backup;
  22:.\Generated_Source\PSoC4/PWM_R_PM.c **** 
  23:.\Generated_Source\PSoC4/PWM_R_PM.c **** 
  24:.\Generated_Source\PSoC4/PWM_R_PM.c **** /*******************************************************************************
  25:.\Generated_Source\PSoC4/PWM_R_PM.c **** * Function Name: PWM_R_SaveConfig
  26:.\Generated_Source\PSoC4/PWM_R_PM.c **** ********************************************************************************
  27:.\Generated_Source\PSoC4/PWM_R_PM.c **** *
  28:.\Generated_Source\PSoC4/PWM_R_PM.c **** * Summary:
  29:.\Generated_Source\PSoC4/PWM_R_PM.c **** *  All configuration registers are retention. Nothing to save here.
  30:.\Generated_Source\PSoC4/PWM_R_PM.c **** *
  31:.\Generated_Source\PSoC4/PWM_R_PM.c **** * Parameters:
  32:.\Generated_Source\PSoC4/PWM_R_PM.c **** *  None
  33:.\Generated_Source\PSoC4/PWM_R_PM.c **** *
  34:.\Generated_Source\PSoC4/PWM_R_PM.c **** * Return:
  35:.\Generated_Source\PSoC4/PWM_R_PM.c **** *  None
  36:.\Generated_Source\PSoC4/PWM_R_PM.c **** *
  37:.\Generated_Source\PSoC4/PWM_R_PM.c **** *******************************************************************************/
  38:.\Generated_Source\PSoC4/PWM_R_PM.c **** void PWM_R_SaveConfig(void)
  39:.\Generated_Source\PSoC4/PWM_R_PM.c **** {
  35              		.loc 1 39 0
  36              		.cfi_startproc
  37 0000 80B5     		push	{r7, lr}
  38              	.LCFI0:
  39              		.cfi_def_cfa_offset 8
  40              		.cfi_offset 7, -8
  41              		.cfi_offset 14, -4
  42 0002 00AF     		add	r7, sp, #0
  43              	.LCFI1:
  44              		.cfi_def_cfa_register 7
  40:.\Generated_Source\PSoC4/PWM_R_PM.c **** 
  41:.\Generated_Source\PSoC4/PWM_R_PM.c **** }
  45              		.loc 1 41 0
  46 0004 BD46     		mov	sp, r7
  47              		@ sp needed for prologue
  48 0006 80BD     		pop	{r7, pc}
  49              		.cfi_endproc
  50              	.LFE0:
  51              		.size	PWM_R_SaveConfig, .-PWM_R_SaveConfig
  52              		.section	.text.PWM_R_Sleep,"ax",%progbits
  53              		.align	2
  54              		.global	PWM_R_Sleep
  55              		.code	16
  56              		.thumb_func
  57              		.type	PWM_R_Sleep, %function
  58              	PWM_R_Sleep:
  59              	.LFB1:
  42:.\Generated_Source\PSoC4/PWM_R_PM.c **** 
  43:.\Generated_Source\PSoC4/PWM_R_PM.c **** 
  44:.\Generated_Source\PSoC4/PWM_R_PM.c **** /*******************************************************************************
  45:.\Generated_Source\PSoC4/PWM_R_PM.c **** * Function Name: PWM_R_Sleep
  46:.\Generated_Source\PSoC4/PWM_R_PM.c **** ********************************************************************************
  47:.\Generated_Source\PSoC4/PWM_R_PM.c **** *
  48:.\Generated_Source\PSoC4/PWM_R_PM.c **** * Summary:
  49:.\Generated_Source\PSoC4/PWM_R_PM.c **** *  Stops the component operation and saves the user configuration.
  50:.\Generated_Source\PSoC4/PWM_R_PM.c **** *
  51:.\Generated_Source\PSoC4/PWM_R_PM.c **** * Parameters:
ARM GAS  C:\Users\maxk\AppData\Local\Temp\ccbcH3Vs.s 			page 3


  52:.\Generated_Source\PSoC4/PWM_R_PM.c **** *  None
  53:.\Generated_Source\PSoC4/PWM_R_PM.c **** *
  54:.\Generated_Source\PSoC4/PWM_R_PM.c **** * Return:
  55:.\Generated_Source\PSoC4/PWM_R_PM.c **** *  None
  56:.\Generated_Source\PSoC4/PWM_R_PM.c **** *
  57:.\Generated_Source\PSoC4/PWM_R_PM.c **** *******************************************************************************/
  58:.\Generated_Source\PSoC4/PWM_R_PM.c **** void PWM_R_Sleep(void)
  59:.\Generated_Source\PSoC4/PWM_R_PM.c **** {
  60              		.loc 1 59 0
  61              		.cfi_startproc
  62 0000 80B5     		push	{r7, lr}
  63              	.LCFI2:
  64              		.cfi_def_cfa_offset 8
  65              		.cfi_offset 7, -8
  66              		.cfi_offset 14, -4
  67 0002 00AF     		add	r7, sp, #0
  68              	.LCFI3:
  69              		.cfi_def_cfa_register 7
  60:.\Generated_Source\PSoC4/PWM_R_PM.c ****     if(0u != (PWM_R_BLOCK_CONTROL_REG & PWM_R_MASK))
  70              		.loc 1 60 0
  71 0004 094B     		ldr	r3, .L7
  72 0006 1A68     		ldr	r2, [r3]
  73 0008 0423     		mov	r3, #4
  74 000a 1340     		and	r3, r3, r2
  75 000c 002B     		cmp	r3, #0
  76 000e 03D0     		beq	.L4
  61:.\Generated_Source\PSoC4/PWM_R_PM.c ****     {
  62:.\Generated_Source\PSoC4/PWM_R_PM.c ****         PWM_R_backup.enableState = 1u;
  77              		.loc 1 62 0
  78 0010 074B     		ldr	r3, .L7+4
  79 0012 0122     		mov	r2, #1
  80 0014 1A70     		strb	r2, [r3]
  81 0016 02E0     		b	.L5
  82              	.L4:
  63:.\Generated_Source\PSoC4/PWM_R_PM.c ****     }
  64:.\Generated_Source\PSoC4/PWM_R_PM.c ****     else
  65:.\Generated_Source\PSoC4/PWM_R_PM.c ****     {
  66:.\Generated_Source\PSoC4/PWM_R_PM.c ****         PWM_R_backup.enableState = 0u;
  83              		.loc 1 66 0
  84 0018 054B     		ldr	r3, .L7+4
  85 001a 0022     		mov	r2, #0
  86 001c 1A70     		strb	r2, [r3]
  87              	.L5:
  67:.\Generated_Source\PSoC4/PWM_R_PM.c ****     }
  68:.\Generated_Source\PSoC4/PWM_R_PM.c **** 
  69:.\Generated_Source\PSoC4/PWM_R_PM.c ****     PWM_R_Stop();
  88              		.loc 1 69 0
  89 001e FFF7FEFF 		bl	PWM_R_Stop
  70:.\Generated_Source\PSoC4/PWM_R_PM.c ****     PWM_R_SaveConfig();
  90              		.loc 1 70 0
  91 0022 FFF7FEFF 		bl	PWM_R_SaveConfig
  71:.\Generated_Source\PSoC4/PWM_R_PM.c **** }
  92              		.loc 1 71 0
  93 0026 BD46     		mov	sp, r7
  94              		@ sp needed for prologue
  95 0028 80BD     		pop	{r7, pc}
  96              	.L8:
ARM GAS  C:\Users\maxk\AppData\Local\Temp\ccbcH3Vs.s 			page 4


  97 002a C046     		.align	2
  98              	.L7:
  99 002c 00000540 		.word	1074069504
 100 0030 00000000 		.word	PWM_R_backup
 101              		.cfi_endproc
 102              	.LFE1:
 103              		.size	PWM_R_Sleep, .-PWM_R_Sleep
 104              		.section	.text.PWM_R_RestoreConfig,"ax",%progbits
 105              		.align	2
 106              		.global	PWM_R_RestoreConfig
 107              		.code	16
 108              		.thumb_func
 109              		.type	PWM_R_RestoreConfig, %function
 110              	PWM_R_RestoreConfig:
 111              	.LFB2:
  72:.\Generated_Source\PSoC4/PWM_R_PM.c **** 
  73:.\Generated_Source\PSoC4/PWM_R_PM.c **** 
  74:.\Generated_Source\PSoC4/PWM_R_PM.c **** /*******************************************************************************
  75:.\Generated_Source\PSoC4/PWM_R_PM.c **** * Function Name: PWM_R_RestoreConfig
  76:.\Generated_Source\PSoC4/PWM_R_PM.c **** ********************************************************************************
  77:.\Generated_Source\PSoC4/PWM_R_PM.c **** *
  78:.\Generated_Source\PSoC4/PWM_R_PM.c **** * Summary:
  79:.\Generated_Source\PSoC4/PWM_R_PM.c **** *  All configuration registers are retention. Nothing to restore here.
  80:.\Generated_Source\PSoC4/PWM_R_PM.c **** *
  81:.\Generated_Source\PSoC4/PWM_R_PM.c **** * Parameters:
  82:.\Generated_Source\PSoC4/PWM_R_PM.c **** *  None
  83:.\Generated_Source\PSoC4/PWM_R_PM.c **** *
  84:.\Generated_Source\PSoC4/PWM_R_PM.c **** * Return:
  85:.\Generated_Source\PSoC4/PWM_R_PM.c **** *  None
  86:.\Generated_Source\PSoC4/PWM_R_PM.c **** *
  87:.\Generated_Source\PSoC4/PWM_R_PM.c **** *******************************************************************************/
  88:.\Generated_Source\PSoC4/PWM_R_PM.c **** void PWM_R_RestoreConfig(void)
  89:.\Generated_Source\PSoC4/PWM_R_PM.c **** {
 112              		.loc 1 89 0
 113              		.cfi_startproc
 114 0000 80B5     		push	{r7, lr}
 115              	.LCFI4:
 116              		.cfi_def_cfa_offset 8
 117              		.cfi_offset 7, -8
 118              		.cfi_offset 14, -4
 119 0002 00AF     		add	r7, sp, #0
 120              	.LCFI5:
 121              		.cfi_def_cfa_register 7
  90:.\Generated_Source\PSoC4/PWM_R_PM.c **** 
  91:.\Generated_Source\PSoC4/PWM_R_PM.c **** }
 122              		.loc 1 91 0
 123 0004 BD46     		mov	sp, r7
 124              		@ sp needed for prologue
 125 0006 80BD     		pop	{r7, pc}
 126              		.cfi_endproc
 127              	.LFE2:
 128              		.size	PWM_R_RestoreConfig, .-PWM_R_RestoreConfig
 129              		.section	.text.PWM_R_Wakeup,"ax",%progbits
 130              		.align	2
 131              		.global	PWM_R_Wakeup
 132              		.code	16
 133              		.thumb_func
ARM GAS  C:\Users\maxk\AppData\Local\Temp\ccbcH3Vs.s 			page 5


 134              		.type	PWM_R_Wakeup, %function
 135              	PWM_R_Wakeup:
 136              	.LFB3:
  92:.\Generated_Source\PSoC4/PWM_R_PM.c **** 
  93:.\Generated_Source\PSoC4/PWM_R_PM.c **** 
  94:.\Generated_Source\PSoC4/PWM_R_PM.c **** /*******************************************************************************
  95:.\Generated_Source\PSoC4/PWM_R_PM.c **** * Function Name: PWM_R_Wakeup
  96:.\Generated_Source\PSoC4/PWM_R_PM.c **** ********************************************************************************
  97:.\Generated_Source\PSoC4/PWM_R_PM.c **** *
  98:.\Generated_Source\PSoC4/PWM_R_PM.c **** * Summary:
  99:.\Generated_Source\PSoC4/PWM_R_PM.c **** *  Restores the user configuration and restores the enable state.
 100:.\Generated_Source\PSoC4/PWM_R_PM.c **** *
 101:.\Generated_Source\PSoC4/PWM_R_PM.c **** * Parameters:
 102:.\Generated_Source\PSoC4/PWM_R_PM.c **** *  None
 103:.\Generated_Source\PSoC4/PWM_R_PM.c **** *
 104:.\Generated_Source\PSoC4/PWM_R_PM.c **** * Return:
 105:.\Generated_Source\PSoC4/PWM_R_PM.c **** *  None
 106:.\Generated_Source\PSoC4/PWM_R_PM.c **** *
 107:.\Generated_Source\PSoC4/PWM_R_PM.c **** *******************************************************************************/
 108:.\Generated_Source\PSoC4/PWM_R_PM.c **** void PWM_R_Wakeup(void)
 109:.\Generated_Source\PSoC4/PWM_R_PM.c **** {
 137              		.loc 1 109 0
 138              		.cfi_startproc
 139 0000 80B5     		push	{r7, lr}
 140              	.LCFI6:
 141              		.cfi_def_cfa_offset 8
 142              		.cfi_offset 7, -8
 143              		.cfi_offset 14, -4
 144 0002 00AF     		add	r7, sp, #0
 145              	.LCFI7:
 146              		.cfi_def_cfa_register 7
 110:.\Generated_Source\PSoC4/PWM_R_PM.c ****     PWM_R_RestoreConfig();
 147              		.loc 1 110 0
 148 0004 FFF7FEFF 		bl	PWM_R_RestoreConfig
 111:.\Generated_Source\PSoC4/PWM_R_PM.c **** 
 112:.\Generated_Source\PSoC4/PWM_R_PM.c ****     if(0u != PWM_R_backup.enableState)
 149              		.loc 1 112 0
 150 0008 034B     		ldr	r3, .L14
 151 000a 1B78     		ldrb	r3, [r3]
 152 000c 002B     		cmp	r3, #0
 153 000e 01D0     		beq	.L13
 113:.\Generated_Source\PSoC4/PWM_R_PM.c ****     {
 114:.\Generated_Source\PSoC4/PWM_R_PM.c ****         PWM_R_Enable();
 154              		.loc 1 114 0
 155 0010 FFF7FEFF 		bl	PWM_R_Enable
 156              	.L13:
 115:.\Generated_Source\PSoC4/PWM_R_PM.c ****     }
 116:.\Generated_Source\PSoC4/PWM_R_PM.c **** }
 157              		.loc 1 116 0
 158 0014 BD46     		mov	sp, r7
 159              		@ sp needed for prologue
 160 0016 80BD     		pop	{r7, pc}
 161              	.L15:
 162              		.align	2
 163              	.L14:
 164 0018 00000000 		.word	PWM_R_backup
 165              		.cfi_endproc
ARM GAS  C:\Users\maxk\AppData\Local\Temp\ccbcH3Vs.s 			page 6


 166              	.LFE3:
 167              		.size	PWM_R_Wakeup, .-PWM_R_Wakeup
 168              		.text
 169              	.Letext0: