ARM GAS  C:\Users\maxk\AppData\Local\Temp\cc31oBTD.s 			page 1


   1              		.cpu cortex-m0
   2              		.fpu softvfp
   3              		.eabi_attribute 20, 1
   4              		.eabi_attribute 21, 1
   5              		.eabi_attribute 23, 3
   6              		.eabi_attribute 24, 1
   7              		.eabi_attribute 25, 1
   8              		.eabi_attribute 26, 1
   9              		.eabi_attribute 30, 6
  10              		.eabi_attribute 18, 4
  11              		.code	16
  12              		.file	"PWM_G.c"
  19 0000 88030000 		.text
  19      02005E00 
  19      00000201 
  19      FB0E0D00 
  19      01010101 
  20              	.Ltext0:
  21              		.cfi_sections	.debug_frame
  22              		.global	PWM_G_initVar
  23              		.bss
  24              		.type	PWM_G_initVar, %object
  25              		.size	PWM_G_initVar, 1
  26              	PWM_G_initVar:
  27 0000 00       		.space	1
  28              		.section	.text.PWM_G_Init,"ax",%progbits
  29              		.align	2
  30              		.global	PWM_G_Init
  31              		.code	16
  32              		.thumb_func
  33              		.type	PWM_G_Init, %function
  34              	PWM_G_Init:
  35              	.LFB0:
  36              		.file 1 ".\\Generated_Source\\PSoC4\\PWM_G.c"
   1:.\Generated_Source\PSoC4/PWM_G.c **** /*******************************************************************************
   2:.\Generated_Source\PSoC4/PWM_G.c **** * File Name: PWM_G.c
   3:.\Generated_Source\PSoC4/PWM_G.c **** * Version 1.0
   4:.\Generated_Source\PSoC4/PWM_G.c **** *
   5:.\Generated_Source\PSoC4/PWM_G.c **** * Description:
   6:.\Generated_Source\PSoC4/PWM_G.c **** *  This file provides the source code to the API for the PWM_G
   7:.\Generated_Source\PSoC4/PWM_G.c **** *  component
   8:.\Generated_Source\PSoC4/PWM_G.c **** *
   9:.\Generated_Source\PSoC4/PWM_G.c **** * Note:
  10:.\Generated_Source\PSoC4/PWM_G.c **** *  None
  11:.\Generated_Source\PSoC4/PWM_G.c **** *
  12:.\Generated_Source\PSoC4/PWM_G.c **** ********************************************************************************
  13:.\Generated_Source\PSoC4/PWM_G.c **** * Copyright 2013, Cypress Semiconductor Corporation.  All rights reserved.
  14:.\Generated_Source\PSoC4/PWM_G.c **** * You may use this file only in accordance with the license, terms, conditions,
  15:.\Generated_Source\PSoC4/PWM_G.c **** * disclaimers, and limitations in the end user license agreement accompanying
  16:.\Generated_Source\PSoC4/PWM_G.c **** * the software package with which this file was provided.
  17:.\Generated_Source\PSoC4/PWM_G.c **** *******************************************************************************/
ARM GAS  C:\Users\maxk\AppData\Local\Temp\cc31oBTD.s 			page 2


  18:.\Generated_Source\PSoC4/PWM_G.c **** 
  19:.\Generated_Source\PSoC4/PWM_G.c **** #include "PWM_G.h"
  20:.\Generated_Source\PSoC4/PWM_G.c **** #include "cyLib.h"
  21:.\Generated_Source\PSoC4/PWM_G.c **** 
  22:.\Generated_Source\PSoC4/PWM_G.c **** uint8 PWM_G_initVar = 0u;
  23:.\Generated_Source\PSoC4/PWM_G.c **** 
  24:.\Generated_Source\PSoC4/PWM_G.c **** 
  25:.\Generated_Source\PSoC4/PWM_G.c **** /*******************************************************************************
  26:.\Generated_Source\PSoC4/PWM_G.c **** * Function Name: PWM_G_Init
  27:.\Generated_Source\PSoC4/PWM_G.c **** ********************************************************************************
  28:.\Generated_Source\PSoC4/PWM_G.c **** *
  29:.\Generated_Source\PSoC4/PWM_G.c **** * Summary:
  30:.\Generated_Source\PSoC4/PWM_G.c **** *  Initialize/Restore default PWM_G configuration.
  31:.\Generated_Source\PSoC4/PWM_G.c **** *
  32:.\Generated_Source\PSoC4/PWM_G.c **** * Parameters:
  33:.\Generated_Source\PSoC4/PWM_G.c **** *  None
  34:.\Generated_Source\PSoC4/PWM_G.c **** *
  35:.\Generated_Source\PSoC4/PWM_G.c **** * Return:
  36:.\Generated_Source\PSoC4/PWM_G.c **** *  None
  37:.\Generated_Source\PSoC4/PWM_G.c **** *
  38:.\Generated_Source\PSoC4/PWM_G.c **** *******************************************************************************/
  39:.\Generated_Source\PSoC4/PWM_G.c **** void PWM_G_Init(void)
  40:.\Generated_Source\PSoC4/PWM_G.c **** {
  37              		.loc 1 40 0
  38              		.cfi_startproc
  39 0000 80B5     		push	{r7, lr}
  40              	.LCFI0:
  41              		.cfi_def_cfa_offset 8
  42              		.cfi_offset 7, -8
  43              		.cfi_offset 14, -4
  44 0002 00AF     		add	r7, sp, #0
  45              	.LCFI1:
  46              		.cfi_def_cfa_register 7
  41:.\Generated_Source\PSoC4/PWM_G.c **** 
  42:.\Generated_Source\PSoC4/PWM_G.c ****     /* Set values from customizer to CTRL */
  43:.\Generated_Source\PSoC4/PWM_G.c ****     #if (PWM_G__QUAD == PWM_G_CONFIG)
  44:.\Generated_Source\PSoC4/PWM_G.c ****         PWM_G_CONTROL_REG =
  45:.\Generated_Source\PSoC4/PWM_G.c ****         (((uint32)(PWM_G_QUAD_ENCODING_MODES     << PWM_G_QUAD_MODE_SHIFT))       |
  46:.\Generated_Source\PSoC4/PWM_G.c ****          ((uint32)(PWM_G_CONFIG                  << PWM_G_MODE_SHIFT)));
  47:.\Generated_Source\PSoC4/PWM_G.c ****     #endif  /* (PWM_G__QUAD == PWM_G_CONFIG) */
  48:.\Generated_Source\PSoC4/PWM_G.c **** 
  49:.\Generated_Source\PSoC4/PWM_G.c ****     #if (PWM_G__PWM_SEL == PWM_G_CONFIG)
  50:.\Generated_Source\PSoC4/PWM_G.c ****         PWM_G_CONTROL_REG =
  47              		.loc 1 50 0
  48 0004 0F4A     		ldr	r2, .L3
  49 0006 8223     		mov	r3, #130
  50 0008 DB04     		lsl	r3, r3, #19
  51 000a 1360     		str	r3, [r2]
  51:.\Generated_Source\PSoC4/PWM_G.c ****         (((uint32)(PWM_G_PWM_STOP_EVENT          << PWM_G_PWM_STOP_KILL_SHIFT))    |
  52:.\Generated_Source\PSoC4/PWM_G.c ****          ((uint32)(PWM_G_PWM_OUT_INVERT          << PWM_G_INV_OUT_SHIFT))         |
  53:.\Generated_Source\PSoC4/PWM_G.c ****          ((uint32)(PWM_G_PWM_OUT_N_INVERT        << PWM_G_INV_COMPL_OUT_SHIFT))     |
  54:.\Generated_Source\PSoC4/PWM_G.c ****          ((uint32)(PWM_G_PWM_MODE                << PWM_G_MODE_SHIFT)));
  55:.\Generated_Source\PSoC4/PWM_G.c **** 
  56:.\Generated_Source\PSoC4/PWM_G.c ****         #if (PWM_G__PWM_PR == PWM_G_PWM_MODE)
  57:.\Generated_Source\PSoC4/PWM_G.c ****             PWM_G_CONTROL_REG |=
  58:.\Generated_Source\PSoC4/PWM_G.c ****             ((uint32)(PWM_G_PWM_RUN_MODE         << PWM_G_ONESHOT_SHIFT));
  59:.\Generated_Source\PSoC4/PWM_G.c **** 
ARM GAS  C:\Users\maxk\AppData\Local\Temp\cc31oBTD.s 			page 3


  60:.\Generated_Source\PSoC4/PWM_G.c ****             PWM_G_WriteCounter(PWM_G_PWM_PR_INIT_VALUE);
  61:.\Generated_Source\PSoC4/PWM_G.c ****         #else
  62:.\Generated_Source\PSoC4/PWM_G.c ****             PWM_G_CONTROL_REG |=
  52              		.loc 1 62 0
  53 000c 0D4B     		ldr	r3, .L3
  54 000e 0D4A     		ldr	r2, .L3
  55 0010 1268     		ldr	r2, [r2]
  56 0012 1A60     		str	r2, [r3]
  63:.\Generated_Source\PSoC4/PWM_G.c ****             (((uint32)(PWM_G_PWM_ALIGN           << PWM_G_UPDOWN_SHIFT))          |
  64:.\Generated_Source\PSoC4/PWM_G.c ****              ((uint32)(PWM_G_PWM_KILL_EVENT      << PWM_G_PWM_SYNC_KILL_SHIFT)));
  65:.\Generated_Source\PSoC4/PWM_G.c ****         #endif  /* (PWM_G__PWM_PR == PWM_G_PWM_MODE) */
  66:.\Generated_Source\PSoC4/PWM_G.c **** 
  67:.\Generated_Source\PSoC4/PWM_G.c ****         #if (PWM_G__PWM_DT == PWM_G_PWM_MODE)
  68:.\Generated_Source\PSoC4/PWM_G.c ****             PWM_G_CONTROL_REG |=
  69:.\Generated_Source\PSoC4/PWM_G.c ****             ((uint32)(PWM_G_PWM_DEAD_TIME_CYCLE  << PWM_G_PRESCALER_SHIFT));
  70:.\Generated_Source\PSoC4/PWM_G.c ****         #endif  /* (PWM_G__PWM_DT == PWM_G_PWM_MODE) */
  71:.\Generated_Source\PSoC4/PWM_G.c **** 
  72:.\Generated_Source\PSoC4/PWM_G.c ****         #if (PWM_G__PWM == PWM_G_PWM_MODE)
  73:.\Generated_Source\PSoC4/PWM_G.c ****             PWM_G_CONTROL_REG |=
  57              		.loc 1 73 0
  58 0014 0B4B     		ldr	r3, .L3
  59 0016 0B4A     		ldr	r2, .L3
  60 0018 1268     		ldr	r2, [r2]
  61 001a 1A60     		str	r2, [r3]
  74:.\Generated_Source\PSoC4/PWM_G.c ****             ((uint32)PWM_G_PWM_PRESCALER         << PWM_G_PRESCALER_SHIFT);
  75:.\Generated_Source\PSoC4/PWM_G.c ****         #endif  /* (PWM_G__PWM == PWM_G_PWM_MODE) */
  76:.\Generated_Source\PSoC4/PWM_G.c ****     #endif  /* (PWM_G__PWM_SEL == PWM_G_CONFIG) */
  77:.\Generated_Source\PSoC4/PWM_G.c **** 
  78:.\Generated_Source\PSoC4/PWM_G.c ****     #if (PWM_G__TIMER == PWM_G_CONFIG)
  79:.\Generated_Source\PSoC4/PWM_G.c ****         PWM_G_CONTROL_REG =
  80:.\Generated_Source\PSoC4/PWM_G.c ****         (((uint32)(PWM_G_TC_PRESCALER            << PWM_G_PRESCALER_SHIFT))   |
  81:.\Generated_Source\PSoC4/PWM_G.c ****          ((uint32)(PWM_G_TC_COUNTER_MODE         << PWM_G_UPDOWN_SHIFT))      |
  82:.\Generated_Source\PSoC4/PWM_G.c ****          ((uint32)(PWM_G_TC_RUN_MODE             << PWM_G_ONESHOT_SHIFT))     |
  83:.\Generated_Source\PSoC4/PWM_G.c ****          ((uint32)(PWM_G_TC_COMP_CAP_MODE        << PWM_G_MODE_SHIFT)));
  84:.\Generated_Source\PSoC4/PWM_G.c ****     #endif  /* (PWM_G__TIMER == PWM_G_CONFIG) */
  85:.\Generated_Source\PSoC4/PWM_G.c **** 
  86:.\Generated_Source\PSoC4/PWM_G.c ****     /* Set values from customizer to CTRL1 */
  87:.\Generated_Source\PSoC4/PWM_G.c ****     #if (PWM_G__QUAD == PWM_G_CONFIG)
  88:.\Generated_Source\PSoC4/PWM_G.c ****         PWM_G_TRIG_CONTROL1_REG  =
  89:.\Generated_Source\PSoC4/PWM_G.c ****         (((uint32)(PWM_G_QUAD_PHIA_SIGNAL_MODE   << PWM_G_COUNT_SHIFT))       |
  90:.\Generated_Source\PSoC4/PWM_G.c ****          ((uint32)(PWM_G_QUAD_INDEX_SIGNAL_MODE  << PWM_G_RELOAD_SHIFT))      |
  91:.\Generated_Source\PSoC4/PWM_G.c ****          ((uint32)(PWM_G_QUAD_STOP_SIGNAL_MODE   << PWM_G_STOP_SHIFT))        |
  92:.\Generated_Source\PSoC4/PWM_G.c ****          ((uint32)(PWM_G_QUAD_PHIB_SIGNAL_MODE   << PWM_G_START_SHIFT)));
  93:.\Generated_Source\PSoC4/PWM_G.c ****     #endif  /* (PWM_G__QUAD == PWM_G_CONFIG) */
  94:.\Generated_Source\PSoC4/PWM_G.c **** 
  95:.\Generated_Source\PSoC4/PWM_G.c ****     #if (PWM_G__PWM_SEL == PWM_G_CONFIG)
  96:.\Generated_Source\PSoC4/PWM_G.c ****         PWM_G_TRIG_CONTROL1_REG  =
  62              		.loc 1 96 0
  63 001c 0A4B     		ldr	r3, .L3+4
  64 001e 0C22     		mov	r2, #12
  65 0020 1A60     		str	r2, [r3]
  97:.\Generated_Source\PSoC4/PWM_G.c ****         (((uint32)(PWM_G_PWM_SWITCH_SIGNAL_MODE  << PWM_G_CAPTURE_SHIFT))     |
  98:.\Generated_Source\PSoC4/PWM_G.c ****          ((uint32)(PWM_G_PWM_COUNT_SIGNAL_MODE   << PWM_G_COUNT_SHIFT))       |
  99:.\Generated_Source\PSoC4/PWM_G.c ****          ((uint32)(PWM_G_PWM_RELOAD_SIGNAL_MODE  << PWM_G_RELOAD_SHIFT))      |
 100:.\Generated_Source\PSoC4/PWM_G.c ****          ((uint32)(PWM_G_PWM_STOP_SIGNAL_MODE    << PWM_G_STOP_SHIFT))        |
 101:.\Generated_Source\PSoC4/PWM_G.c ****          ((uint32)(PWM_G_PWM_START_SIGNAL_MODE   << PWM_G_START_SHIFT)));
 102:.\Generated_Source\PSoC4/PWM_G.c ****     #endif  /* (PWM_G__PWM_SEL == PWM_G_CONFIG) */
ARM GAS  C:\Users\maxk\AppData\Local\Temp\cc31oBTD.s 			page 4


 103:.\Generated_Source\PSoC4/PWM_G.c **** 
 104:.\Generated_Source\PSoC4/PWM_G.c ****     #if (PWM_G__TIMER == PWM_G_CONFIG)
 105:.\Generated_Source\PSoC4/PWM_G.c ****         PWM_G_TRIG_CONTROL1_REG  =
 106:.\Generated_Source\PSoC4/PWM_G.c ****         (((uint32)(PWM_G_TC_CAPTURE_SIGNAL_MODE  << PWM_G_CAPTURE_SHIFT))     |
 107:.\Generated_Source\PSoC4/PWM_G.c ****          ((uint32)(PWM_G_TC_COUNT_SIGNAL_MODE    << PWM_G_COUNT_SHIFT))       |
 108:.\Generated_Source\PSoC4/PWM_G.c ****          ((uint32)(PWM_G_TC_RELOAD_SIGNAL_MODE   << PWM_G_RELOAD_SHIFT))      |
 109:.\Generated_Source\PSoC4/PWM_G.c ****          ((uint32)(PWM_G_TC_STOP_SIGNAL_MODE     << PWM_G_STOP_SHIFT))        |
 110:.\Generated_Source\PSoC4/PWM_G.c ****          ((uint32)(PWM_G_TC_START_SIGNAL_MODE    << PWM_G_START_SHIFT)));
 111:.\Generated_Source\PSoC4/PWM_G.c ****     #endif  /* (PWM_G__TIMER == PWM_G_CONFIG) */
 112:.\Generated_Source\PSoC4/PWM_G.c **** 
 113:.\Generated_Source\PSoC4/PWM_G.c ****     /* Set values from customizer to INTR */
 114:.\Generated_Source\PSoC4/PWM_G.c ****     #if (PWM_G__QUAD == PWM_G_CONFIG)
 115:.\Generated_Source\PSoC4/PWM_G.c ****         PWM_G_SetInterruptMode(PWM_G_QUAD_INTERRUPT_MASK);
 116:.\Generated_Source\PSoC4/PWM_G.c ****     #endif  /* (PWM_G__QUAD == PWM_G_CONFIG) */
 117:.\Generated_Source\PSoC4/PWM_G.c **** 
 118:.\Generated_Source\PSoC4/PWM_G.c ****     #if (PWM_G__PWM_SEL == PWM_G_CONFIG)
 119:.\Generated_Source\PSoC4/PWM_G.c ****         PWM_G_SetInterruptMode(PWM_G_PWM_INTERRUPT_MASK);
  66              		.loc 1 119 0
  67 0022 0120     		mov	r0, #1
  68 0024 FFF7FEFF 		bl	PWM_G_SetInterruptMode
 120:.\Generated_Source\PSoC4/PWM_G.c ****     #endif  /* (PWM_G__PWM_SEL == PWM_G_CONFIG) */
 121:.\Generated_Source\PSoC4/PWM_G.c **** 
 122:.\Generated_Source\PSoC4/PWM_G.c ****     #if (PWM_G__TIMER == PWM_G_CONFIG)
 123:.\Generated_Source\PSoC4/PWM_G.c ****         PWM_G_SetInterruptMode(PWM_G_TC_INTERRUPT_MASK);
 124:.\Generated_Source\PSoC4/PWM_G.c ****     #endif  /* (PWM_G__TIMER == PWM_G_CONFIG) */
 125:.\Generated_Source\PSoC4/PWM_G.c **** 
 126:.\Generated_Source\PSoC4/PWM_G.c ****     /* Set other values from customizer */
 127:.\Generated_Source\PSoC4/PWM_G.c ****     #if (PWM_G__TIMER == PWM_G_CONFIG)
 128:.\Generated_Source\PSoC4/PWM_G.c ****         PWM_G_WritePeriod(PWM_G_TC_PERIOD_VALUE );
 129:.\Generated_Source\PSoC4/PWM_G.c ****         #if (PWM_G__COMPARE == PWM_G_TC_COMP_CAP_MODE)
 130:.\Generated_Source\PSoC4/PWM_G.c ****             PWM_G_WriteCompare(PWM_G_TC_COMPARE_VALUE);
 131:.\Generated_Source\PSoC4/PWM_G.c **** 
 132:.\Generated_Source\PSoC4/PWM_G.c ****             #if (1u == PWM_G_TC_COMPARE_SWAP)
 133:.\Generated_Source\PSoC4/PWM_G.c ****                 PWM_G_SetCompareSwap(1u);
 134:.\Generated_Source\PSoC4/PWM_G.c ****                 PWM_G_WriteCompareBuf(PWM_G_TC_COMPARE_BUF_VALUE);
 135:.\Generated_Source\PSoC4/PWM_G.c ****             #endif  /* (1u == PWM_G_TC_COMPARE_SWAP) */
 136:.\Generated_Source\PSoC4/PWM_G.c ****         #endif  /* (PWM_G__COMPARE == PWM_G_TC_COMP_CAP_MODE) */
 137:.\Generated_Source\PSoC4/PWM_G.c ****     #endif  /* (PWM_G__TIMER == PWM_G_CONFIG) */
 138:.\Generated_Source\PSoC4/PWM_G.c **** 
 139:.\Generated_Source\PSoC4/PWM_G.c ****     #if (PWM_G__PWM_SEL == PWM_G_CONFIG)
 140:.\Generated_Source\PSoC4/PWM_G.c ****         PWM_G_WritePeriod(PWM_G_PWM_PERIOD_VALUE );
  69              		.loc 1 140 0
  70 0028 084B     		ldr	r3, .L3+8
  71 002a 181C     		mov	r0, r3
  72 002c FFF7FEFF 		bl	PWM_G_WritePeriod
 141:.\Generated_Source\PSoC4/PWM_G.c ****         PWM_G_WriteCompare(PWM_G_PWM_COMPARE_VALUE);
  73              		.loc 1 141 0
  74 0030 064B     		ldr	r3, .L3+8
  75 0032 181C     		mov	r0, r3
  76 0034 FFF7FEFF 		bl	PWM_G_WriteCompare
 142:.\Generated_Source\PSoC4/PWM_G.c **** 
 143:.\Generated_Source\PSoC4/PWM_G.c ****         #if (1u == PWM_G_PWM_COMPARE_SWAP)
 144:.\Generated_Source\PSoC4/PWM_G.c ****             PWM_G_SetCompareSwap(1u);
 145:.\Generated_Source\PSoC4/PWM_G.c ****             PWM_G_WriteCompareBuf(PWM_G_PWM_COMPARE_BUF_VALUE);
 146:.\Generated_Source\PSoC4/PWM_G.c ****         #endif  /* (1u == PWM_G_PWM_COMPARE_SWAP) */
 147:.\Generated_Source\PSoC4/PWM_G.c **** 
 148:.\Generated_Source\PSoC4/PWM_G.c ****         #if (1u == PWM_G_PWM_PERIOD_SWAP)
ARM GAS  C:\Users\maxk\AppData\Local\Temp\cc31oBTD.s 			page 5


 149:.\Generated_Source\PSoC4/PWM_G.c ****             PWM_G_SetPeriodSwap(1u);
 150:.\Generated_Source\PSoC4/PWM_G.c ****             PWM_G_WritePeriodBuf(PWM_G_PWM_PERIOD_BUF_VALUE);
 151:.\Generated_Source\PSoC4/PWM_G.c ****         #endif  /* (1u == PWM_G_PWM_PERIOD_SWAP) */
 152:.\Generated_Source\PSoC4/PWM_G.c **** 
 153:.\Generated_Source\PSoC4/PWM_G.c ****         /* Set values from customizer to CTRL2 */
 154:.\Generated_Source\PSoC4/PWM_G.c ****         #if (PWM_G__PWM_PR == PWM_G_PWM_MODE)
 155:.\Generated_Source\PSoC4/PWM_G.c ****             PWM_G_TRIG_CONTROL2_REG =
 156:.\Generated_Source\PSoC4/PWM_G.c ****                     (PWM_G_CC_MATCH_NO_CHANGE    |
 157:.\Generated_Source\PSoC4/PWM_G.c ****                     PWM_G_OVERLOW_NO_CHANGE      |
 158:.\Generated_Source\PSoC4/PWM_G.c ****                     PWM_G_UNDERFLOW_NO_CHANGE);
 159:.\Generated_Source\PSoC4/PWM_G.c ****         #else
 160:.\Generated_Source\PSoC4/PWM_G.c ****             #if (PWM_G__LEFT == PWM_G_PWM_ALIGN)
 161:.\Generated_Source\PSoC4/PWM_G.c ****                 PWM_G_TRIG_CONTROL2_REG = PWM_G_PWM_MODE_LEFT;
  77              		.loc 1 161 0
  78 0038 054B     		ldr	r3, .L3+12
  79 003a 3122     		mov	r2, #49
  80 003c 1A60     		str	r2, [r3]
 162:.\Generated_Source\PSoC4/PWM_G.c ****             #endif  /* ( PWM_G_PWM_LEFT == PWM_G_PWM_ALIGN) */
 163:.\Generated_Source\PSoC4/PWM_G.c **** 
 164:.\Generated_Source\PSoC4/PWM_G.c ****             #if (PWM_G__RIGHT == PWM_G_PWM_ALIGN)
 165:.\Generated_Source\PSoC4/PWM_G.c ****                 PWM_G_TRIG_CONTROL2_REG = PWM_G_PWM_MODE_RIGHT;
 166:.\Generated_Source\PSoC4/PWM_G.c ****             #endif  /* ( PWM_G_PWM_RIGHT == PWM_G_PWM_ALIGN) */
 167:.\Generated_Source\PSoC4/PWM_G.c **** 
 168:.\Generated_Source\PSoC4/PWM_G.c ****             #if (PWM_G__CENTER == PWM_G_PWM_ALIGN)
 169:.\Generated_Source\PSoC4/PWM_G.c ****                 PWM_G_TRIG_CONTROL2_REG = PWM_G_PWM_MODE_CENTER;
 170:.\Generated_Source\PSoC4/PWM_G.c ****             #endif  /* ( PWM_G_PWM_CENTER == PWM_G_PWM_ALIGN) */
 171:.\Generated_Source\PSoC4/PWM_G.c **** 
 172:.\Generated_Source\PSoC4/PWM_G.c ****             #if (PWM_G__ASYMMETRIC == PWM_G_PWM_ALIGN)
 173:.\Generated_Source\PSoC4/PWM_G.c ****                 PWM_G_TRIG_CONTROL2_REG = PWM_G_PWM_MODE_ASYM;
 174:.\Generated_Source\PSoC4/PWM_G.c ****             #endif  /* (PWM_G__ASYMMETRIC == PWM_G_PWM_ALIGN) */
 175:.\Generated_Source\PSoC4/PWM_G.c ****         #endif  /* (PWM_G__PWM_PR == PWM_G_PWM_MODE) */
 176:.\Generated_Source\PSoC4/PWM_G.c ****     #endif  /* (PWM_G__PWM_SEL == PWM_G_CONFIG) */
 177:.\Generated_Source\PSoC4/PWM_G.c **** }
  81              		.loc 1 177 0
  82 003e BD46     		mov	sp, r7
  83              		@ sp needed for prologue
  84 0040 80BD     		pop	{r7, pc}
  85              	.L4:
  86 0042 C046     		.align	2
  87              	.L3:
  88 0044 40010540 		.word	1074069824
  89 0048 64010540 		.word	1074069860
  90 004c FFFF0000 		.word	65535
  91 0050 68010540 		.word	1074069864
  92              		.cfi_endproc
  93              	.LFE0:
  94              		.size	PWM_G_Init, .-PWM_G_Init
  95              		.section	.text.PWM_G_Enable,"ax",%progbits
  96              		.align	2
  97              		.global	PWM_G_Enable
  98              		.code	16
  99              		.thumb_func
 100              		.type	PWM_G_Enable, %function
 101              	PWM_G_Enable:
 102              	.LFB1:
 178:.\Generated_Source\PSoC4/PWM_G.c **** 
 179:.\Generated_Source\PSoC4/PWM_G.c **** 
ARM GAS  C:\Users\maxk\AppData\Local\Temp\cc31oBTD.s 			page 6


 180:.\Generated_Source\PSoC4/PWM_G.c **** /*******************************************************************************
 181:.\Generated_Source\PSoC4/PWM_G.c **** * Function Name: PWM_G_Enable
 182:.\Generated_Source\PSoC4/PWM_G.c **** ********************************************************************************
 183:.\Generated_Source\PSoC4/PWM_G.c **** *
 184:.\Generated_Source\PSoC4/PWM_G.c **** * Summary:
 185:.\Generated_Source\PSoC4/PWM_G.c **** *  Enables the PWM_G.
 186:.\Generated_Source\PSoC4/PWM_G.c **** *
 187:.\Generated_Source\PSoC4/PWM_G.c **** * Parameters:
 188:.\Generated_Source\PSoC4/PWM_G.c **** *  None
 189:.\Generated_Source\PSoC4/PWM_G.c **** *
 190:.\Generated_Source\PSoC4/PWM_G.c **** * Return:
 191:.\Generated_Source\PSoC4/PWM_G.c **** *  None
 192:.\Generated_Source\PSoC4/PWM_G.c **** *
 193:.\Generated_Source\PSoC4/PWM_G.c **** *******************************************************************************/
 194:.\Generated_Source\PSoC4/PWM_G.c **** void PWM_G_Enable(void)
 195:.\Generated_Source\PSoC4/PWM_G.c **** {
 103              		.loc 1 195 0
 104              		.cfi_startproc
 105 0000 80B5     		push	{r7, lr}
 106              	.LCFI2:
 107              		.cfi_def_cfa_offset 8
 108              		.cfi_offset 7, -8
 109              		.cfi_offset 14, -4
 110 0002 82B0     		sub	sp, sp, #8
 111              	.LCFI3:
 112              		.cfi_def_cfa_offset 16
 113 0004 00AF     		add	r7, sp, #0
 114              	.LCFI4:
 115              		.cfi_def_cfa_register 7
 196:.\Generated_Source\PSoC4/PWM_G.c ****     uint8 enableInterrupts;
 197:.\Generated_Source\PSoC4/PWM_G.c **** 
 198:.\Generated_Source\PSoC4/PWM_G.c ****     enableInterrupts = CyEnterCriticalSection();
 116              		.loc 1 198 0
 117 0006 FFF7FEFF 		bl	CyEnterCriticalSection
 118 000a 031C     		mov	r3, r0
 119 000c 1A1C     		mov	r2, r3
 120 000e FB1D     		add	r3, r7, #7
 121 0010 1A70     		strb	r2, [r3]
 199:.\Generated_Source\PSoC4/PWM_G.c ****     PWM_G_BLOCK_CONTROL_REG |= PWM_G_MASK;
 122              		.loc 1 199 0
 123 0012 094B     		ldr	r3, .L7
 124 0014 084A     		ldr	r2, .L7
 125 0016 1168     		ldr	r1, [r2]
 126 0018 0222     		mov	r2, #2
 127 001a 0A43     		orr	r2, r2, r1
 128 001c 1A60     		str	r2, [r3]
 200:.\Generated_Source\PSoC4/PWM_G.c ****     CyExitCriticalSection(enableInterrupts);
 129              		.loc 1 200 0
 130 001e FB1D     		add	r3, r7, #7
 131 0020 1B78     		ldrb	r3, [r3]
 132 0022 181C     		mov	r0, r3
 133 0024 FFF7FEFF 		bl	CyExitCriticalSection
 201:.\Generated_Source\PSoC4/PWM_G.c **** 
 202:.\Generated_Source\PSoC4/PWM_G.c ****     /* Statr Timer or PWM if start input is absent */
 203:.\Generated_Source\PSoC4/PWM_G.c ****     #if (PWM_G__PWM_SEL == PWM_G_CONFIG)
 204:.\Generated_Source\PSoC4/PWM_G.c ****         #if (0u == PWM_G_PWM_START_SIGNAL_PRESENT)
 205:.\Generated_Source\PSoC4/PWM_G.c ****             PWM_G_TriggerCommand(PWM_G_MASK, PWM_G_CMD_START);
ARM GAS  C:\Users\maxk\AppData\Local\Temp\cc31oBTD.s 			page 7


 134              		.loc 1 205 0
 135 0028 0220     		mov	r0, #2
 136 002a 1821     		mov	r1, #24
 137 002c FFF7FEFF 		bl	PWM_G_TriggerCommand
 206:.\Generated_Source\PSoC4/PWM_G.c ****         #endif /* (0u == PWM_G_PWM_START_SIGNAL_PRESENT) */
 207:.\Generated_Source\PSoC4/PWM_G.c ****     #endif /* (PWM_G__PWM_SEL == PWM_G_CONFIG) */
 208:.\Generated_Source\PSoC4/PWM_G.c **** 
 209:.\Generated_Source\PSoC4/PWM_G.c ****     #if (PWM_G__TIMER == PWM_G_CONFIG)
 210:.\Generated_Source\PSoC4/PWM_G.c ****         #if (0u == PWM_G_TC_START_SIGNAL_PRESENT)
 211:.\Generated_Source\PSoC4/PWM_G.c ****             PWM_G_TriggerCommand(PWM_G_MASK, PWM_G_CMD_START);
 212:.\Generated_Source\PSoC4/PWM_G.c ****         #endif /* (0u == PWM_G_TC_START_SIGNAL_PRESENT) */
 213:.\Generated_Source\PSoC4/PWM_G.c ****     #endif /* (PWM_G__TIMER == PWM_G_CONFIG) */
 214:.\Generated_Source\PSoC4/PWM_G.c **** }
 138              		.loc 1 214 0
 139 0030 BD46     		mov	sp, r7
 140 0032 02B0     		add	sp, sp, #8
 141              		@ sp needed for prologue
 142 0034 80BD     		pop	{r7, pc}
 143              	.L8:
 144 0036 C046     		.align	2
 145              	.L7:
 146 0038 00000540 		.word	1074069504
 147              		.cfi_endproc
 148              	.LFE1:
 149              		.size	PWM_G_Enable, .-PWM_G_Enable
 150              		.section	.text.PWM_G_Start,"ax",%progbits
 151              		.align	2
 152              		.global	PWM_G_Start
 153              		.code	16
 154              		.thumb_func
 155              		.type	PWM_G_Start, %function
 156              	PWM_G_Start:
 157              	.LFB2:
 215:.\Generated_Source\PSoC4/PWM_G.c **** 
 216:.\Generated_Source\PSoC4/PWM_G.c **** 
 217:.\Generated_Source\PSoC4/PWM_G.c **** /*******************************************************************************
 218:.\Generated_Source\PSoC4/PWM_G.c **** * Function Name: PWM_G_Start
 219:.\Generated_Source\PSoC4/PWM_G.c **** ********************************************************************************
 220:.\Generated_Source\PSoC4/PWM_G.c **** *
 221:.\Generated_Source\PSoC4/PWM_G.c **** * Summary:
 222:.\Generated_Source\PSoC4/PWM_G.c **** *  Initialize the PWM_G with default customizer
 223:.\Generated_Source\PSoC4/PWM_G.c **** *  values when called the first time and enables the PWM_G.
 224:.\Generated_Source\PSoC4/PWM_G.c **** *  For subsequent calls the configuration is left unchanged and the component is
 225:.\Generated_Source\PSoC4/PWM_G.c **** *  just enabled.
 226:.\Generated_Source\PSoC4/PWM_G.c **** *
 227:.\Generated_Source\PSoC4/PWM_G.c **** * Parameters:
 228:.\Generated_Source\PSoC4/PWM_G.c **** *  None
 229:.\Generated_Source\PSoC4/PWM_G.c **** *
 230:.\Generated_Source\PSoC4/PWM_G.c **** * Return:
 231:.\Generated_Source\PSoC4/PWM_G.c **** *  None
 232:.\Generated_Source\PSoC4/PWM_G.c **** *
 233:.\Generated_Source\PSoC4/PWM_G.c **** * Global variables:
 234:.\Generated_Source\PSoC4/PWM_G.c **** *  PWM_G_initVar: global variable is used to indicate initial
 235:.\Generated_Source\PSoC4/PWM_G.c **** *  configuration of this component.  The variable is initialized to zero and set
 236:.\Generated_Source\PSoC4/PWM_G.c **** *  to 1 the first time PWM_G_Start() is called. This allows
 237:.\Generated_Source\PSoC4/PWM_G.c **** *  enable/disable component without re-initialization in all subsequent calls
 238:.\Generated_Source\PSoC4/PWM_G.c **** *  to the PWM_G_Start() routine.
ARM GAS  C:\Users\maxk\AppData\Local\Temp\cc31oBTD.s 			page 8


 239:.\Generated_Source\PSoC4/PWM_G.c **** *
 240:.\Generated_Source\PSoC4/PWM_G.c **** *******************************************************************************/
 241:.\Generated_Source\PSoC4/PWM_G.c **** void PWM_G_Start(void)
 242:.\Generated_Source\PSoC4/PWM_G.c **** {
 158              		.loc 1 242 0
 159              		.cfi_startproc
 160 0000 80B5     		push	{r7, lr}
 161              	.LCFI5:
 162              		.cfi_def_cfa_offset 8
 163              		.cfi_offset 7, -8
 164              		.cfi_offset 14, -4
 165 0002 00AF     		add	r7, sp, #0
 166              	.LCFI6:
 167              		.cfi_def_cfa_register 7
 243:.\Generated_Source\PSoC4/PWM_G.c ****     if (0u == PWM_G_initVar)
 168              		.loc 1 243 0
 169 0004 064B     		ldr	r3, .L12
 170 0006 1B78     		ldrb	r3, [r3]
 171 0008 002B     		cmp	r3, #0
 172 000a 04D1     		bne	.L10
 244:.\Generated_Source\PSoC4/PWM_G.c ****     {
 245:.\Generated_Source\PSoC4/PWM_G.c ****         PWM_G_Init();
 173              		.loc 1 245 0
 174 000c FFF7FEFF 		bl	PWM_G_Init
 246:.\Generated_Source\PSoC4/PWM_G.c ****         PWM_G_initVar = 1u;
 175              		.loc 1 246 0
 176 0010 034B     		ldr	r3, .L12
 177 0012 0122     		mov	r2, #1
 178 0014 1A70     		strb	r2, [r3]
 179              	.L10:
 247:.\Generated_Source\PSoC4/PWM_G.c ****     }
 248:.\Generated_Source\PSoC4/PWM_G.c **** 
 249:.\Generated_Source\PSoC4/PWM_G.c ****     PWM_G_Enable();
 180              		.loc 1 249 0
 181 0016 FFF7FEFF 		bl	PWM_G_Enable
 250:.\Generated_Source\PSoC4/PWM_G.c **** }
 182              		.loc 1 250 0
 183 001a BD46     		mov	sp, r7
 184              		@ sp needed for prologue
 185 001c 80BD     		pop	{r7, pc}
 186              	.L13:
 187 001e C046     		.align	2
 188              	.L12:
 189 0020 00000000 		.word	PWM_G_initVar
 190              		.cfi_endproc
 191              	.LFE2:
 192              		.size	PWM_G_Start, .-PWM_G_Start
 193              		.section	.text.PWM_G_Stop,"ax",%progbits
 194              		.align	2
 195              		.global	PWM_G_Stop
 196              		.code	16
 197              		.thumb_func
 198              		.type	PWM_G_Stop, %function
 199              	PWM_G_Stop:
 200              	.LFB3:
 251:.\Generated_Source\PSoC4/PWM_G.c **** 
 252:.\Generated_Source\PSoC4/PWM_G.c **** 
ARM GAS  C:\Users\maxk\AppData\Local\Temp\cc31oBTD.s 			page 9


 253:.\Generated_Source\PSoC4/PWM_G.c **** /*******************************************************************************
 254:.\Generated_Source\PSoC4/PWM_G.c **** * Function Name: PWM_G_Stop
 255:.\Generated_Source\PSoC4/PWM_G.c **** ********************************************************************************
 256:.\Generated_Source\PSoC4/PWM_G.c **** *
 257:.\Generated_Source\PSoC4/PWM_G.c **** * Summary:
 258:.\Generated_Source\PSoC4/PWM_G.c **** *  Disables the PWM_G.
 259:.\Generated_Source\PSoC4/PWM_G.c **** *
 260:.\Generated_Source\PSoC4/PWM_G.c **** * Parameters:
 261:.\Generated_Source\PSoC4/PWM_G.c **** *  None
 262:.\Generated_Source\PSoC4/PWM_G.c **** *
 263:.\Generated_Source\PSoC4/PWM_G.c **** * Return:
 264:.\Generated_Source\PSoC4/PWM_G.c **** *  None
 265:.\Generated_Source\PSoC4/PWM_G.c **** *
 266:.\Generated_Source\PSoC4/PWM_G.c **** *******************************************************************************/
 267:.\Generated_Source\PSoC4/PWM_G.c **** void PWM_G_Stop(void)
 268:.\Generated_Source\PSoC4/PWM_G.c **** {
 201              		.loc 1 268 0
 202              		.cfi_startproc
 203 0000 80B5     		push	{r7, lr}
 204              	.LCFI7:
 205              		.cfi_def_cfa_offset 8
 206              		.cfi_offset 7, -8
 207              		.cfi_offset 14, -4
 208 0002 82B0     		sub	sp, sp, #8
 209              	.LCFI8:
 210              		.cfi_def_cfa_offset 16
 211 0004 00AF     		add	r7, sp, #0
 212              	.LCFI9:
 213              		.cfi_def_cfa_register 7
 269:.\Generated_Source\PSoC4/PWM_G.c ****     uint8 enableInterrupts;
 270:.\Generated_Source\PSoC4/PWM_G.c **** 
 271:.\Generated_Source\PSoC4/PWM_G.c ****     enableInterrupts = CyEnterCriticalSection();
 214              		.loc 1 271 0
 215 0006 FFF7FEFF 		bl	CyEnterCriticalSection
 216 000a 031C     		mov	r3, r0
 217 000c 1A1C     		mov	r2, r3
 218 000e FB1D     		add	r3, r7, #7
 219 0010 1A70     		strb	r2, [r3]
 272:.\Generated_Source\PSoC4/PWM_G.c **** 
 273:.\Generated_Source\PSoC4/PWM_G.c ****     PWM_G_BLOCK_CONTROL_REG &= (uint32)~PWM_G_MASK;
 220              		.loc 1 273 0
 221 0012 074B     		ldr	r3, .L16
 222 0014 064A     		ldr	r2, .L16
 223 0016 1268     		ldr	r2, [r2]
 224 0018 0221     		mov	r1, #2
 225 001a 8A43     		bic	r2, r2, r1
 226 001c 1A60     		str	r2, [r3]
 274:.\Generated_Source\PSoC4/PWM_G.c **** 
 275:.\Generated_Source\PSoC4/PWM_G.c ****     CyExitCriticalSection(enableInterrupts);
 227              		.loc 1 275 0
 228 001e FB1D     		add	r3, r7, #7
 229 0020 1B78     		ldrb	r3, [r3]
 230 0022 181C     		mov	r0, r3
 231 0024 FFF7FEFF 		bl	CyExitCriticalSection
 276:.\Generated_Source\PSoC4/PWM_G.c **** }
 232              		.loc 1 276 0
 233 0028 BD46     		mov	sp, r7
ARM GAS  C:\Users\maxk\AppData\Local\Temp\cc31oBTD.s 			page 10


 234 002a 02B0     		add	sp, sp, #8
 235              		@ sp needed for prologue
 236 002c 80BD     		pop	{r7, pc}
 237              	.L17:
 238 002e C046     		.align	2
 239              	.L16:
 240 0030 00000540 		.word	1074069504
 241              		.cfi_endproc
 242              	.LFE3:
 243              		.size	PWM_G_Stop, .-PWM_G_Stop
 244              		.section	.text.PWM_G_SetMode,"ax",%progbits
 245              		.align	2
 246              		.global	PWM_G_SetMode
 247              		.code	16
 248              		.thumb_func
 249              		.type	PWM_G_SetMode, %function
 250              	PWM_G_SetMode:
 251              	.LFB4:
 277:.\Generated_Source\PSoC4/PWM_G.c **** 
 278:.\Generated_Source\PSoC4/PWM_G.c **** 
 279:.\Generated_Source\PSoC4/PWM_G.c **** /*******************************************************************************
 280:.\Generated_Source\PSoC4/PWM_G.c **** * Function Name: PWM_G_SetMode
 281:.\Generated_Source\PSoC4/PWM_G.c **** ********************************************************************************
 282:.\Generated_Source\PSoC4/PWM_G.c **** *
 283:.\Generated_Source\PSoC4/PWM_G.c **** * Summary:
 284:.\Generated_Source\PSoC4/PWM_G.c **** *  Sets the operation mode of the PWM_G. This function is used when
 285:.\Generated_Source\PSoC4/PWM_G.c **** *  configured as a generic PWM_G and the actual mode of operation is
 286:.\Generated_Source\PSoC4/PWM_G.c **** *  set at runtime. The mode must be set while the component is disabled.
 287:.\Generated_Source\PSoC4/PWM_G.c **** *
 288:.\Generated_Source\PSoC4/PWM_G.c **** * Parameters:
 289:.\Generated_Source\PSoC4/PWM_G.c **** *  mode: Mode for the PWM_G to operate in
 290:.\Generated_Source\PSoC4/PWM_G.c **** *   Values:
 291:.\Generated_Source\PSoC4/PWM_G.c **** *   - PWM_G_MODE_TIMER_COMPARE - Timer / Counter with
 292:.\Generated_Source\PSoC4/PWM_G.c **** *                                                 compare capability
 293:.\Generated_Source\PSoC4/PWM_G.c **** *         - PWM_G_MODE_TIMER_CAPTURE - Timer / Counter with
 294:.\Generated_Source\PSoC4/PWM_G.c **** *                                                 capture capability
 295:.\Generated_Source\PSoC4/PWM_G.c **** *         - PWM_G_MODE_QUAD - Quadrature decoder
 296:.\Generated_Source\PSoC4/PWM_G.c **** *         - PWM_G_MODE_PWM - PWM
 297:.\Generated_Source\PSoC4/PWM_G.c **** *         - PWM_G_MODE_PWM_DT - PWM with dead time
 298:.\Generated_Source\PSoC4/PWM_G.c **** *         - PWM_G_MODE_PWM_PR - PWM with pseudo random capability
 299:.\Generated_Source\PSoC4/PWM_G.c **** *
 300:.\Generated_Source\PSoC4/PWM_G.c **** * Return:
 301:.\Generated_Source\PSoC4/PWM_G.c **** *  None
 302:.\Generated_Source\PSoC4/PWM_G.c **** *
 303:.\Generated_Source\PSoC4/PWM_G.c **** *******************************************************************************/
 304:.\Generated_Source\PSoC4/PWM_G.c **** void PWM_G_SetMode(uint32 mode)
 305:.\Generated_Source\PSoC4/PWM_G.c **** {
 252              		.loc 1 305 0
 253              		.cfi_startproc
 254 0000 80B5     		push	{r7, lr}
 255              	.LCFI10:
 256              		.cfi_def_cfa_offset 8
 257              		.cfi_offset 7, -8
 258              		.cfi_offset 14, -4
 259 0002 84B0     		sub	sp, sp, #16
 260              	.LCFI11:
 261              		.cfi_def_cfa_offset 24
ARM GAS  C:\Users\maxk\AppData\Local\Temp\cc31oBTD.s 			page 11


 262 0004 00AF     		add	r7, sp, #0
 263              	.LCFI12:
 264              		.cfi_def_cfa_register 7
 265 0006 7860     		str	r0, [r7, #4]
 306:.\Generated_Source\PSoC4/PWM_G.c ****     uint8 enableInterrupts;
 307:.\Generated_Source\PSoC4/PWM_G.c **** 
 308:.\Generated_Source\PSoC4/PWM_G.c ****     enableInterrupts = CyEnterCriticalSection();
 266              		.loc 1 308 0
 267 0008 FFF7FEFF 		bl	CyEnterCriticalSection
 268 000c 031C     		mov	r3, r0
 269 000e 1A1C     		mov	r2, r3
 270 0010 3B1C     		mov	r3, r7
 271 0012 0F33     		add	r3, r3, #15
 272 0014 1A70     		strb	r2, [r3]
 309:.\Generated_Source\PSoC4/PWM_G.c **** 
 310:.\Generated_Source\PSoC4/PWM_G.c ****     PWM_G_CONTROL_REG &= (uint32)~PWM_G_MODE_MASK;
 273              		.loc 1 310 0
 274 0016 0A4B     		ldr	r3, .L20
 275 0018 094A     		ldr	r2, .L20
 276 001a 1168     		ldr	r1, [r2]
 277 001c 094A     		ldr	r2, .L20+4
 278 001e 0A40     		and	r2, r2, r1
 279 0020 1A60     		str	r2, [r3]
 311:.\Generated_Source\PSoC4/PWM_G.c ****     PWM_G_CONTROL_REG |= mode;
 280              		.loc 1 311 0
 281 0022 074B     		ldr	r3, .L20
 282 0024 064A     		ldr	r2, .L20
 283 0026 1168     		ldr	r1, [r2]
 284 0028 7A68     		ldr	r2, [r7, #4]
 285 002a 0A43     		orr	r2, r2, r1
 286 002c 1A60     		str	r2, [r3]
 312:.\Generated_Source\PSoC4/PWM_G.c **** 
 313:.\Generated_Source\PSoC4/PWM_G.c ****     CyExitCriticalSection(enableInterrupts);
 287              		.loc 1 313 0
 288 002e 3B1C     		mov	r3, r7
 289 0030 0F33     		add	r3, r3, #15
 290 0032 1B78     		ldrb	r3, [r3]
 291 0034 181C     		mov	r0, r3
 292 0036 FFF7FEFF 		bl	CyExitCriticalSection
 314:.\Generated_Source\PSoC4/PWM_G.c **** }
 293              		.loc 1 314 0
 294 003a BD46     		mov	sp, r7
 295 003c 04B0     		add	sp, sp, #16
 296              		@ sp needed for prologue
 297 003e 80BD     		pop	{r7, pc}
 298              	.L21:
 299              		.align	2
 300              	.L20:
 301 0040 40010540 		.word	1074069824
 302 0044 FFFFFFF8 		.word	-117440513
 303              		.cfi_endproc
 304              	.LFE4:
 305              		.size	PWM_G_SetMode, .-PWM_G_SetMode
 306              		.section	.text.PWM_G_SetQDMode,"ax",%progbits
 307              		.align	2
 308              		.global	PWM_G_SetQDMode
 309              		.code	16
ARM GAS  C:\Users\maxk\AppData\Local\Temp\cc31oBTD.s 			page 12


 310              		.thumb_func
 311              		.type	PWM_G_SetQDMode, %function
 312              	PWM_G_SetQDMode:
 313              	.LFB5:
 315:.\Generated_Source\PSoC4/PWM_G.c **** 
 316:.\Generated_Source\PSoC4/PWM_G.c **** 
 317:.\Generated_Source\PSoC4/PWM_G.c **** /*******************************************************************************
 318:.\Generated_Source\PSoC4/PWM_G.c **** * Function Name: PWM_G_SetQDMode
 319:.\Generated_Source\PSoC4/PWM_G.c **** ********************************************************************************
 320:.\Generated_Source\PSoC4/PWM_G.c **** *
 321:.\Generated_Source\PSoC4/PWM_G.c **** * Summary:
 322:.\Generated_Source\PSoC4/PWM_G.c **** *  Sets the the Quadrature Decoder to one of 3 supported modes.
 323:.\Generated_Source\PSoC4/PWM_G.c **** *  Is functionality is only applicable to Quadrature Decoder operation.
 324:.\Generated_Source\PSoC4/PWM_G.c **** *
 325:.\Generated_Source\PSoC4/PWM_G.c **** * Parameters:
 326:.\Generated_Source\PSoC4/PWM_G.c **** *  qdMode: Quadrature Decoder mode
 327:.\Generated_Source\PSoC4/PWM_G.c **** *   Values:
 328:.\Generated_Source\PSoC4/PWM_G.c **** *         - PWM_G_MODE_X1 - Counts on phi 1 rising
 329:.\Generated_Source\PSoC4/PWM_G.c **** *         - PWM_G_MODE_X2 - Counts on both edges of phi1 (2x faster)
 330:.\Generated_Source\PSoC4/PWM_G.c **** *         - PWM_G_MODE_X4 - Counts on both edges of phi1 and phi2
 331:.\Generated_Source\PSoC4/PWM_G.c **** *                                        (4x faster)
 332:.\Generated_Source\PSoC4/PWM_G.c **** *
 333:.\Generated_Source\PSoC4/PWM_G.c **** * Return:
 334:.\Generated_Source\PSoC4/PWM_G.c **** *  None
 335:.\Generated_Source\PSoC4/PWM_G.c **** *
 336:.\Generated_Source\PSoC4/PWM_G.c **** *******************************************************************************/
 337:.\Generated_Source\PSoC4/PWM_G.c **** void PWM_G_SetQDMode(uint32 qdMode)
 338:.\Generated_Source\PSoC4/PWM_G.c **** {
 314              		.loc 1 338 0
 315              		.cfi_startproc
 316 0000 80B5     		push	{r7, lr}
 317              	.LCFI13:
 318              		.cfi_def_cfa_offset 8
 319              		.cfi_offset 7, -8
 320              		.cfi_offset 14, -4
 321 0002 84B0     		sub	sp, sp, #16
 322              	.LCFI14:
 323              		.cfi_def_cfa_offset 24
 324 0004 00AF     		add	r7, sp, #0
 325              	.LCFI15:
 326              		.cfi_def_cfa_register 7
 327 0006 7860     		str	r0, [r7, #4]
 339:.\Generated_Source\PSoC4/PWM_G.c ****     uint8 enableInterrupts;
 340:.\Generated_Source\PSoC4/PWM_G.c **** 
 341:.\Generated_Source\PSoC4/PWM_G.c ****     enableInterrupts = CyEnterCriticalSection();
 328              		.loc 1 341 0
 329 0008 FFF7FEFF 		bl	CyEnterCriticalSection
 330 000c 031C     		mov	r3, r0
 331 000e 1A1C     		mov	r2, r3
 332 0010 3B1C     		mov	r3, r7
 333 0012 0F33     		add	r3, r3, #15
 334 0014 1A70     		strb	r2, [r3]
 342:.\Generated_Source\PSoC4/PWM_G.c **** 
 343:.\Generated_Source\PSoC4/PWM_G.c ****     PWM_G_CONTROL_REG &= (uint32)~PWM_G_QUAD_MODE_MASK;
 335              		.loc 1 343 0
 336 0016 0A4B     		ldr	r3, .L24
 337 0018 094A     		ldr	r2, .L24
ARM GAS  C:\Users\maxk\AppData\Local\Temp\cc31oBTD.s 			page 13


 338 001a 1168     		ldr	r1, [r2]
 339 001c 094A     		ldr	r2, .L24+4
 340 001e 0A40     		and	r2, r2, r1
 341 0020 1A60     		str	r2, [r3]
 344:.\Generated_Source\PSoC4/PWM_G.c ****     PWM_G_CONTROL_REG |= qdMode;
 342              		.loc 1 344 0
 343 0022 074B     		ldr	r3, .L24
 344 0024 064A     		ldr	r2, .L24
 345 0026 1168     		ldr	r1, [r2]
 346 0028 7A68     		ldr	r2, [r7, #4]
 347 002a 0A43     		orr	r2, r2, r1
 348 002c 1A60     		str	r2, [r3]
 345:.\Generated_Source\PSoC4/PWM_G.c **** 
 346:.\Generated_Source\PSoC4/PWM_G.c ****     CyExitCriticalSection(enableInterrupts);
 349              		.loc 1 346 0
 350 002e 3B1C     		mov	r3, r7
 351 0030 0F33     		add	r3, r3, #15
 352 0032 1B78     		ldrb	r3, [r3]
 353 0034 181C     		mov	r0, r3
 354 0036 FFF7FEFF 		bl	CyExitCriticalSection
 347:.\Generated_Source\PSoC4/PWM_G.c **** }
 355              		.loc 1 347 0
 356 003a BD46     		mov	sp, r7
 357 003c 04B0     		add	sp, sp, #16
 358              		@ sp needed for prologue
 359 003e 80BD     		pop	{r7, pc}
 360              	.L25:
 361              		.align	2
 362              	.L24:
 363 0040 40010540 		.word	1074069824
 364 0044 FFFF8FFF 		.word	-7340033
 365              		.cfi_endproc
 366              	.LFE5:
 367              		.size	PWM_G_SetQDMode, .-PWM_G_SetQDMode
 368              		.section	.text.PWM_G_SetPrescaler,"ax",%progbits
 369              		.align	2
 370              		.global	PWM_G_SetPrescaler
 371              		.code	16
 372              		.thumb_func
 373              		.type	PWM_G_SetPrescaler, %function
 374              	PWM_G_SetPrescaler:
 375              	.LFB6:
 348:.\Generated_Source\PSoC4/PWM_G.c **** 
 349:.\Generated_Source\PSoC4/PWM_G.c **** 
 350:.\Generated_Source\PSoC4/PWM_G.c **** /*******************************************************************************
 351:.\Generated_Source\PSoC4/PWM_G.c **** * Function Name: PWM_G_SetPrescaler
 352:.\Generated_Source\PSoC4/PWM_G.c **** ********************************************************************************
 353:.\Generated_Source\PSoC4/PWM_G.c **** *
 354:.\Generated_Source\PSoC4/PWM_G.c **** * Summary:
 355:.\Generated_Source\PSoC4/PWM_G.c **** *  Sets the prescaler value that is applied to the clock input.  Not applicable
 356:.\Generated_Source\PSoC4/PWM_G.c **** *  to PWM with dead time mode or Quadrature Decoder mode.
 357:.\Generated_Source\PSoC4/PWM_G.c **** *
 358:.\Generated_Source\PSoC4/PWM_G.c **** * Parameters:
 359:.\Generated_Source\PSoC4/PWM_G.c **** *  prescaler: Prescaler divider value
 360:.\Generated_Source\PSoC4/PWM_G.c **** *   Values:
 361:.\Generated_Source\PSoC4/PWM_G.c **** *         - PWM_G_PRESCALE_DIVBY1    - Divide by 1 (no prescaling)
 362:.\Generated_Source\PSoC4/PWM_G.c **** *         - PWM_G_PRESCALE_DIVBY2    - Divide by 2
ARM GAS  C:\Users\maxk\AppData\Local\Temp\cc31oBTD.s 			page 14


 363:.\Generated_Source\PSoC4/PWM_G.c **** *         - PWM_G_PRESCALE_DIVBY4    - Divide by 4
 364:.\Generated_Source\PSoC4/PWM_G.c **** *         - PWM_G_PRESCALE_DIVBY8    - Divide by 8
 365:.\Generated_Source\PSoC4/PWM_G.c **** *         - PWM_G_PRESCALE_DIVBY16   - Divide by 16
 366:.\Generated_Source\PSoC4/PWM_G.c **** *         - PWM_G_PRESCALE_DIVBY32   - Divide by 32
 367:.\Generated_Source\PSoC4/PWM_G.c **** *         - PWM_G_PRESCALE_DIVBY64   - Divide by 64
 368:.\Generated_Source\PSoC4/PWM_G.c **** *         - PWM_G_PRESCALE_DIVBY128  - Divide by 128
 369:.\Generated_Source\PSoC4/PWM_G.c **** *
 370:.\Generated_Source\PSoC4/PWM_G.c **** * Return:
 371:.\Generated_Source\PSoC4/PWM_G.c **** *  None
 372:.\Generated_Source\PSoC4/PWM_G.c **** *
 373:.\Generated_Source\PSoC4/PWM_G.c **** *******************************************************************************/
 374:.\Generated_Source\PSoC4/PWM_G.c **** void PWM_G_SetPrescaler(uint32 prescaler)
 375:.\Generated_Source\PSoC4/PWM_G.c **** {
 376              		.loc 1 375 0
 377              		.cfi_startproc
 378 0000 80B5     		push	{r7, lr}
 379              	.LCFI16:
 380              		.cfi_def_cfa_offset 8
 381              		.cfi_offset 7, -8
 382              		.cfi_offset 14, -4
 383 0002 84B0     		sub	sp, sp, #16
 384              	.LCFI17:
 385              		.cfi_def_cfa_offset 24
 386 0004 00AF     		add	r7, sp, #0
 387              	.LCFI18:
 388              		.cfi_def_cfa_register 7
 389 0006 7860     		str	r0, [r7, #4]
 376:.\Generated_Source\PSoC4/PWM_G.c ****     uint8 enableInterrupts;
 377:.\Generated_Source\PSoC4/PWM_G.c **** 
 378:.\Generated_Source\PSoC4/PWM_G.c ****     enableInterrupts = CyEnterCriticalSection();
 390              		.loc 1 378 0
 391 0008 FFF7FEFF 		bl	CyEnterCriticalSection
 392 000c 031C     		mov	r3, r0
 393 000e 1A1C     		mov	r2, r3
 394 0010 3B1C     		mov	r3, r7
 395 0012 0F33     		add	r3, r3, #15
 396 0014 1A70     		strb	r2, [r3]
 379:.\Generated_Source\PSoC4/PWM_G.c **** 
 380:.\Generated_Source\PSoC4/PWM_G.c ****     PWM_G_CONTROL_REG &= (uint32)~PWM_G_PRESCALER_MASK;
 397              		.loc 1 380 0
 398 0016 0A4B     		ldr	r3, .L28
 399 0018 094A     		ldr	r2, .L28
 400 001a 1168     		ldr	r1, [r2]
 401 001c 094A     		ldr	r2, .L28+4
 402 001e 0A40     		and	r2, r2, r1
 403 0020 1A60     		str	r2, [r3]
 381:.\Generated_Source\PSoC4/PWM_G.c ****     PWM_G_CONTROL_REG |= prescaler;
 404              		.loc 1 381 0
 405 0022 074B     		ldr	r3, .L28
 406 0024 064A     		ldr	r2, .L28
 407 0026 1168     		ldr	r1, [r2]
 408 0028 7A68     		ldr	r2, [r7, #4]
 409 002a 0A43     		orr	r2, r2, r1
 410 002c 1A60     		str	r2, [r3]
 382:.\Generated_Source\PSoC4/PWM_G.c **** 
 383:.\Generated_Source\PSoC4/PWM_G.c ****     CyExitCriticalSection(enableInterrupts);
 411              		.loc 1 383 0
ARM GAS  C:\Users\maxk\AppData\Local\Temp\cc31oBTD.s 			page 15


 412 002e 3B1C     		mov	r3, r7
 413 0030 0F33     		add	r3, r3, #15
 414 0032 1B78     		ldrb	r3, [r3]
 415 0034 181C     		mov	r0, r3
 416 0036 FFF7FEFF 		bl	CyExitCriticalSection
 384:.\Generated_Source\PSoC4/PWM_G.c **** }
 417              		.loc 1 384 0
 418 003a BD46     		mov	sp, r7
 419 003c 04B0     		add	sp, sp, #16
 420              		@ sp needed for prologue
 421 003e 80BD     		pop	{r7, pc}
 422              	.L29:
 423              		.align	2
 424              	.L28:
 425 0040 40010540 		.word	1074069824
 426 0044 FF00FFFF 		.word	-65281
 427              		.cfi_endproc
 428              	.LFE6:
 429              		.size	PWM_G_SetPrescaler, .-PWM_G_SetPrescaler
 430              		.section	.text.PWM_G_SetOneShot,"ax",%progbits
 431              		.align	2
 432              		.global	PWM_G_SetOneShot
 433              		.code	16
 434              		.thumb_func
 435              		.type	PWM_G_SetOneShot, %function
 436              	PWM_G_SetOneShot:
 437              	.LFB7:
 385:.\Generated_Source\PSoC4/PWM_G.c **** 
 386:.\Generated_Source\PSoC4/PWM_G.c **** 
 387:.\Generated_Source\PSoC4/PWM_G.c **** /*******************************************************************************
 388:.\Generated_Source\PSoC4/PWM_G.c **** * Function Name: PWM_G_SetOneShot
 389:.\Generated_Source\PSoC4/PWM_G.c **** ********************************************************************************
 390:.\Generated_Source\PSoC4/PWM_G.c **** *
 391:.\Generated_Source\PSoC4/PWM_G.c **** * Summary:
 392:.\Generated_Source\PSoC4/PWM_G.c **** *  Writes the register that controls whether the PWM_G runs
 393:.\Generated_Source\PSoC4/PWM_G.c **** *  continuously or stops when terminal count is reached.  By default the
 394:.\Generated_Source\PSoC4/PWM_G.c **** *  PWM_G operates in continuous mode.
 395:.\Generated_Source\PSoC4/PWM_G.c **** *
 396:.\Generated_Source\PSoC4/PWM_G.c **** * Parameters:
 397:.\Generated_Source\PSoC4/PWM_G.c **** *  oneShotEnable
 398:.\Generated_Source\PSoC4/PWM_G.c **** *   Values:
 399:.\Generated_Source\PSoC4/PWM_G.c **** *     - 0 - Continuous
 400:.\Generated_Source\PSoC4/PWM_G.c **** *     - 1 - Enable One Shot
 401:.\Generated_Source\PSoC4/PWM_G.c **** *
 402:.\Generated_Source\PSoC4/PWM_G.c **** * Return:
 403:.\Generated_Source\PSoC4/PWM_G.c **** *  None
 404:.\Generated_Source\PSoC4/PWM_G.c **** *
 405:.\Generated_Source\PSoC4/PWM_G.c **** *******************************************************************************/
 406:.\Generated_Source\PSoC4/PWM_G.c **** void PWM_G_SetOneShot(uint32 oneShotEnable)
 407:.\Generated_Source\PSoC4/PWM_G.c **** {
 438              		.loc 1 407 0
 439              		.cfi_startproc
 440 0000 80B5     		push	{r7, lr}
 441              	.LCFI19:
 442              		.cfi_def_cfa_offset 8
 443              		.cfi_offset 7, -8
 444              		.cfi_offset 14, -4
ARM GAS  C:\Users\maxk\AppData\Local\Temp\cc31oBTD.s 			page 16


 445 0002 84B0     		sub	sp, sp, #16
 446              	.LCFI20:
 447              		.cfi_def_cfa_offset 24
 448 0004 00AF     		add	r7, sp, #0
 449              	.LCFI21:
 450              		.cfi_def_cfa_register 7
 451 0006 7860     		str	r0, [r7, #4]
 408:.\Generated_Source\PSoC4/PWM_G.c ****     uint8 enableInterrupts;
 409:.\Generated_Source\PSoC4/PWM_G.c **** 
 410:.\Generated_Source\PSoC4/PWM_G.c ****     enableInterrupts = CyEnterCriticalSection();
 452              		.loc 1 410 0
 453 0008 FFF7FEFF 		bl	CyEnterCriticalSection
 454 000c 031C     		mov	r3, r0
 455 000e 1A1C     		mov	r2, r3
 456 0010 3B1C     		mov	r3, r7
 457 0012 0F33     		add	r3, r3, #15
 458 0014 1A70     		strb	r2, [r3]
 411:.\Generated_Source\PSoC4/PWM_G.c **** 
 412:.\Generated_Source\PSoC4/PWM_G.c ****     PWM_G_CONTROL_REG &= (uint32)~PWM_G_ONESHOT_MASK;
 459              		.loc 1 412 0
 460 0016 0C4B     		ldr	r3, .L32
 461 0018 0B4A     		ldr	r2, .L32
 462 001a 1168     		ldr	r1, [r2]
 463 001c 0B4A     		ldr	r2, .L32+4
 464 001e 0A40     		and	r2, r2, r1
 465 0020 1A60     		str	r2, [r3]
 413:.\Generated_Source\PSoC4/PWM_G.c ****     PWM_G_CONTROL_REG |= ((uint32)((oneShotEnable & PWM_G_1BIT_MASK) <<
 466              		.loc 1 413 0
 467 0022 094B     		ldr	r3, .L32
 468 0024 084A     		ldr	r2, .L32
 469 0026 1168     		ldr	r1, [r2]
 470 0028 7868     		ldr	r0, [r7, #4]
 471 002a 0122     		mov	r2, #1
 472 002c 0240     		and	r2, r2, r0
 473 002e 9204     		lsl	r2, r2, #18
 474 0030 0A43     		orr	r2, r2, r1
 475 0032 1A60     		str	r2, [r3]
 414:.\Generated_Source\PSoC4/PWM_G.c ****                                                                PWM_G_ONESHOT_SHIFT));
 415:.\Generated_Source\PSoC4/PWM_G.c **** 
 416:.\Generated_Source\PSoC4/PWM_G.c ****     CyExitCriticalSection(enableInterrupts);
 476              		.loc 1 416 0
 477 0034 3B1C     		mov	r3, r7
 478 0036 0F33     		add	r3, r3, #15
 479 0038 1B78     		ldrb	r3, [r3]
 480 003a 181C     		mov	r0, r3
 481 003c FFF7FEFF 		bl	CyExitCriticalSection
 417:.\Generated_Source\PSoC4/PWM_G.c **** }
 482              		.loc 1 417 0
 483 0040 BD46     		mov	sp, r7
 484 0042 04B0     		add	sp, sp, #16
 485              		@ sp needed for prologue
 486 0044 80BD     		pop	{r7, pc}
 487              	.L33:
 488 0046 C046     		.align	2
 489              	.L32:
 490 0048 40010540 		.word	1074069824
 491 004c FFFFFBFF 		.word	-262145
ARM GAS  C:\Users\maxk\AppData\Local\Temp\cc31oBTD.s 			page 17


 492              		.cfi_endproc
 493              	.LFE7:
 494              		.size	PWM_G_SetOneShot, .-PWM_G_SetOneShot
 495              		.section	.text.PWM_G_SetPWMMode,"ax",%progbits
 496              		.align	2
 497              		.global	PWM_G_SetPWMMode
 498              		.code	16
 499              		.thumb_func
 500              		.type	PWM_G_SetPWMMode, %function
 501              	PWM_G_SetPWMMode:
 502              	.LFB8:
 418:.\Generated_Source\PSoC4/PWM_G.c **** 
 419:.\Generated_Source\PSoC4/PWM_G.c **** 
 420:.\Generated_Source\PSoC4/PWM_G.c **** /*******************************************************************************
 421:.\Generated_Source\PSoC4/PWM_G.c **** * Function Name: PWM_G_SetPWMMode
 422:.\Generated_Source\PSoC4/PWM_G.c **** ********************************************************************************
 423:.\Generated_Source\PSoC4/PWM_G.c **** *
 424:.\Generated_Source\PSoC4/PWM_G.c **** * Summary:
 425:.\Generated_Source\PSoC4/PWM_G.c **** *  Writes the control register that determines what mode of operation the PWM
 426:.\Generated_Source\PSoC4/PWM_G.c **** *  output lines are driven in.  There is a setting for what to do on a
 427:.\Generated_Source\PSoC4/PWM_G.c **** *  comparison match (CC_MATCH), on an overflow (OVERFLOW) and on an underflow
 428:.\Generated_Source\PSoC4/PWM_G.c **** *  (UNDERFLOW).  The value for each of the 3 must be ORed together to form the
 429:.\Generated_Source\PSoC4/PWM_G.c **** *  mode.
 430:.\Generated_Source\PSoC4/PWM_G.c **** *
 431:.\Generated_Source\PSoC4/PWM_G.c **** * Parameters:
 432:.\Generated_Source\PSoC4/PWM_G.c **** *  modeMask: Combination of the 3 mode settings.  Mask must include a value for
 433:.\Generated_Source\PSoC4/PWM_G.c **** *  each of the 3 or use one of the preconfigured PWM settings.
 434:.\Generated_Source\PSoC4/PWM_G.c **** *   Values:
 435:.\Generated_Source\PSoC4/PWM_G.c **** *     - CC_MATCH_SET        - Set on comparison match
 436:.\Generated_Source\PSoC4/PWM_G.c **** *     - CC_MATCH_CLEAR      - Clear on comparison match
 437:.\Generated_Source\PSoC4/PWM_G.c **** *     - CC_MATCH_INVERT     - Invert on comparison match
 438:.\Generated_Source\PSoC4/PWM_G.c **** *     - CC_MATCH_NO_CHANGE  - No change on comparison match
 439:.\Generated_Source\PSoC4/PWM_G.c **** *     - OVERLOW_SET         - Set on overflow
 440:.\Generated_Source\PSoC4/PWM_G.c **** *     - OVERLOW_CLEAR       - Clear on overflow
 441:.\Generated_Source\PSoC4/PWM_G.c **** *     - OVERLOW_INVERT      - Invert on overflow
 442:.\Generated_Source\PSoC4/PWM_G.c **** *     - OVERLOW_NO_CHANGE   - No change on overflow
 443:.\Generated_Source\PSoC4/PWM_G.c **** *     - UNDERFLOW_SET       - Set on underflow
 444:.\Generated_Source\PSoC4/PWM_G.c **** *     - UNDERFLOW_CLEAR     - Clear on underflow
 445:.\Generated_Source\PSoC4/PWM_G.c **** *     - UNDERFLOW_INVERT    - Invert on underflow
 446:.\Generated_Source\PSoC4/PWM_G.c **** *     - UNDERFLOW_NO_CHANGE - No change on underflow
 447:.\Generated_Source\PSoC4/PWM_G.c **** *     - PWM_MODE_LEFT       - Setting for left aligned PWM.  Should be combined
 448:.\Generated_Source\PSoC4/PWM_G.c **** *                             with up counting mode
 449:.\Generated_Source\PSoC4/PWM_G.c **** *     - PWM_MODE_RIGHT      - Setting for right aligned PWM.  Should be combined
 450:.\Generated_Source\PSoC4/PWM_G.c **** *                             with down counting mode
 451:.\Generated_Source\PSoC4/PWM_G.c **** *     - PWM_MODE_CENTER     - Setting for center aligned PWM.  Should be 
 452:.\Generated_Source\PSoC4/PWM_G.c **** *                             combined with up/down 0 mode
 453:.\Generated_Source\PSoC4/PWM_G.c **** *     - PWM_MODE_ASYM       - Setting for asymmetric PWM.  Should be combined
 454:.\Generated_Source\PSoC4/PWM_G.c **** *                             with up/down 1 mode
 455:.\Generated_Source\PSoC4/PWM_G.c **** *
 456:.\Generated_Source\PSoC4/PWM_G.c **** * Return:
 457:.\Generated_Source\PSoC4/PWM_G.c **** *  None
 458:.\Generated_Source\PSoC4/PWM_G.c **** *
 459:.\Generated_Source\PSoC4/PWM_G.c **** *******************************************************************************/
 460:.\Generated_Source\PSoC4/PWM_G.c **** void PWM_G_SetPWMMode(uint32 modeMask)
 461:.\Generated_Source\PSoC4/PWM_G.c **** {
 503              		.loc 1 461 0
 504              		.cfi_startproc
ARM GAS  C:\Users\maxk\AppData\Local\Temp\cc31oBTD.s 			page 18


 505 0000 80B5     		push	{r7, lr}
 506              	.LCFI22:
 507              		.cfi_def_cfa_offset 8
 508              		.cfi_offset 7, -8
 509              		.cfi_offset 14, -4
 510 0002 82B0     		sub	sp, sp, #8
 511              	.LCFI23:
 512              		.cfi_def_cfa_offset 16
 513 0004 00AF     		add	r7, sp, #0
 514              	.LCFI24:
 515              		.cfi_def_cfa_register 7
 516 0006 7860     		str	r0, [r7, #4]
 462:.\Generated_Source\PSoC4/PWM_G.c ****     PWM_G_TRIG_CONTROL2_REG = (modeMask & PWM_G_6BIT_MASK);
 517              		.loc 1 462 0
 518 0008 034B     		ldr	r3, .L36
 519 000a 7968     		ldr	r1, [r7, #4]
 520 000c 3F22     		mov	r2, #63
 521 000e 0A40     		and	r2, r2, r1
 522 0010 1A60     		str	r2, [r3]
 463:.\Generated_Source\PSoC4/PWM_G.c **** }
 523              		.loc 1 463 0
 524 0012 BD46     		mov	sp, r7
 525 0014 02B0     		add	sp, sp, #8
 526              		@ sp needed for prologue
 527 0016 80BD     		pop	{r7, pc}
 528              	.L37:
 529              		.align	2
 530              	.L36:
 531 0018 68010540 		.word	1074069864
 532              		.cfi_endproc
 533              	.LFE8:
 534              		.size	PWM_G_SetPWMMode, .-PWM_G_SetPWMMode
 535              		.section	.text.PWM_G_SetPWMSyncKill,"ax",%progbits
 536              		.align	2
 537              		.global	PWM_G_SetPWMSyncKill
 538              		.code	16
 539              		.thumb_func
 540              		.type	PWM_G_SetPWMSyncKill, %function
 541              	PWM_G_SetPWMSyncKill:
 542              	.LFB9:
 464:.\Generated_Source\PSoC4/PWM_G.c **** 
 465:.\Generated_Source\PSoC4/PWM_G.c **** 
 466:.\Generated_Source\PSoC4/PWM_G.c **** 
 467:.\Generated_Source\PSoC4/PWM_G.c **** /*******************************************************************************
 468:.\Generated_Source\PSoC4/PWM_G.c **** * Function Name: PWM_G_SetPWMSyncKill
 469:.\Generated_Source\PSoC4/PWM_G.c **** ********************************************************************************
 470:.\Generated_Source\PSoC4/PWM_G.c **** *
 471:.\Generated_Source\PSoC4/PWM_G.c **** * Summary:
 472:.\Generated_Source\PSoC4/PWM_G.c **** *  Writes the register that controls whether the PWM kill signal (stop input)
 473:.\Generated_Source\PSoC4/PWM_G.c **** *  causes an asynchronous or synchronous kill operation.  By default the kill
 474:.\Generated_Source\PSoC4/PWM_G.c **** *  operation is asynchronous.  This functionality is only applicable to PWM and
 475:.\Generated_Source\PSoC4/PWM_G.c **** *  PWM with dead time modes.
 476:.\Generated_Source\PSoC4/PWM_G.c **** *
 477:.\Generated_Source\PSoC4/PWM_G.c **** *  For Synchronous mode the kill signal disables both the line and line_n
 478:.\Generated_Source\PSoC4/PWM_G.c **** *  signals until the next terminal count.
 479:.\Generated_Source\PSoC4/PWM_G.c **** *
 480:.\Generated_Source\PSoC4/PWM_G.c **** *  For Asynchronous mode the kill signal disables both the line and line_n
ARM GAS  C:\Users\maxk\AppData\Local\Temp\cc31oBTD.s 			page 19


 481:.\Generated_Source\PSoC4/PWM_G.c **** *  signals when the kill signal is present.  This mode should only be used
 482:.\Generated_Source\PSoC4/PWM_G.c **** *  when the kill signal (stop input) is configured in pass through mode
 483:.\Generated_Source\PSoC4/PWM_G.c **** *  (Level sensitive signal).
 484:.\Generated_Source\PSoC4/PWM_G.c **** 
 485:.\Generated_Source\PSoC4/PWM_G.c **** *
 486:.\Generated_Source\PSoC4/PWM_G.c **** * Parameters:
 487:.\Generated_Source\PSoC4/PWM_G.c **** *  syncKillEnable
 488:.\Generated_Source\PSoC4/PWM_G.c **** *   Values:
 489:.\Generated_Source\PSoC4/PWM_G.c **** *     - 0 - Asynchronous
 490:.\Generated_Source\PSoC4/PWM_G.c **** *     - 1 - Synchronous
 491:.\Generated_Source\PSoC4/PWM_G.c **** *
 492:.\Generated_Source\PSoC4/PWM_G.c **** * Return:
 493:.\Generated_Source\PSoC4/PWM_G.c **** *  None
 494:.\Generated_Source\PSoC4/PWM_G.c **** *
 495:.\Generated_Source\PSoC4/PWM_G.c **** *******************************************************************************/
 496:.\Generated_Source\PSoC4/PWM_G.c **** void PWM_G_SetPWMSyncKill(uint32 syncKillEnable)
 497:.\Generated_Source\PSoC4/PWM_G.c **** {
 543              		.loc 1 497 0
 544              		.cfi_startproc
 545 0000 80B5     		push	{r7, lr}
 546              	.LCFI25:
 547              		.cfi_def_cfa_offset 8
 548              		.cfi_offset 7, -8
 549              		.cfi_offset 14, -4
 550 0002 84B0     		sub	sp, sp, #16
 551              	.LCFI26:
 552              		.cfi_def_cfa_offset 24
 553 0004 00AF     		add	r7, sp, #0
 554              	.LCFI27:
 555              		.cfi_def_cfa_register 7
 556 0006 7860     		str	r0, [r7, #4]
 498:.\Generated_Source\PSoC4/PWM_G.c ****     uint8 enableInterrupts;
 499:.\Generated_Source\PSoC4/PWM_G.c **** 
 500:.\Generated_Source\PSoC4/PWM_G.c ****     enableInterrupts = CyEnterCriticalSection();
 557              		.loc 1 500 0
 558 0008 FFF7FEFF 		bl	CyEnterCriticalSection
 559 000c 031C     		mov	r3, r0
 560 000e 1A1C     		mov	r2, r3
 561 0010 3B1C     		mov	r3, r7
 562 0012 0F33     		add	r3, r3, #15
 563 0014 1A70     		strb	r2, [r3]
 501:.\Generated_Source\PSoC4/PWM_G.c **** 
 502:.\Generated_Source\PSoC4/PWM_G.c ****     PWM_G_CONTROL_REG &= (uint32)~PWM_G_PWM_SYNC_KILL_MASK;
 564              		.loc 1 502 0
 565 0016 0C4B     		ldr	r3, .L40
 566 0018 0B4A     		ldr	r2, .L40
 567 001a 1268     		ldr	r2, [r2]
 568 001c 0421     		mov	r1, #4
 569 001e 8A43     		bic	r2, r2, r1
 570 0020 1A60     		str	r2, [r3]
 503:.\Generated_Source\PSoC4/PWM_G.c ****     PWM_G_CONTROL_REG |= ((uint32)((syncKillEnable & PWM_G_1BIT_MASK)  <<
 571              		.loc 1 503 0
 572 0022 094B     		ldr	r3, .L40
 573 0024 084A     		ldr	r2, .L40
 574 0026 1168     		ldr	r1, [r2]
 575 0028 7868     		ldr	r0, [r7, #4]
 576 002a 0122     		mov	r2, #1
ARM GAS  C:\Users\maxk\AppData\Local\Temp\cc31oBTD.s 			page 20


 577 002c 0240     		and	r2, r2, r0
 578 002e 9200     		lsl	r2, r2, #2
 579 0030 0A43     		orr	r2, r2, r1
 580 0032 1A60     		str	r2, [r3]
 504:.\Generated_Source\PSoC4/PWM_G.c ****                                                PWM_G_PWM_SYNC_KILL_SHIFT));
 505:.\Generated_Source\PSoC4/PWM_G.c **** 
 506:.\Generated_Source\PSoC4/PWM_G.c ****     CyExitCriticalSection(enableInterrupts);
 581              		.loc 1 506 0
 582 0034 3B1C     		mov	r3, r7
 583 0036 0F33     		add	r3, r3, #15
 584 0038 1B78     		ldrb	r3, [r3]
 585 003a 181C     		mov	r0, r3
 586 003c FFF7FEFF 		bl	CyExitCriticalSection
 507:.\Generated_Source\PSoC4/PWM_G.c **** }
 587              		.loc 1 507 0
 588 0040 BD46     		mov	sp, r7
 589 0042 04B0     		add	sp, sp, #16
 590              		@ sp needed for prologue
 591 0044 80BD     		pop	{r7, pc}
 592              	.L41:
 593 0046 C046     		.align	2
 594              	.L40:
 595 0048 40010540 		.word	1074069824
 596              		.cfi_endproc
 597              	.LFE9:
 598              		.size	PWM_G_SetPWMSyncKill, .-PWM_G_SetPWMSyncKill
 599              		.section	.text.PWM_G_SetPWMStopOnKill,"ax",%progbits
 600              		.align	2
 601              		.global	PWM_G_SetPWMStopOnKill
 602              		.code	16
 603              		.thumb_func
 604              		.type	PWM_G_SetPWMStopOnKill, %function
 605              	PWM_G_SetPWMStopOnKill:
 606              	.LFB10:
 508:.\Generated_Source\PSoC4/PWM_G.c **** 
 509:.\Generated_Source\PSoC4/PWM_G.c **** 
 510:.\Generated_Source\PSoC4/PWM_G.c **** /*******************************************************************************
 511:.\Generated_Source\PSoC4/PWM_G.c **** * Function Name: PWM_G_SetPWMStopOnKill
 512:.\Generated_Source\PSoC4/PWM_G.c **** ********************************************************************************
 513:.\Generated_Source\PSoC4/PWM_G.c **** *
 514:.\Generated_Source\PSoC4/PWM_G.c **** * Summary:
 515:.\Generated_Source\PSoC4/PWM_G.c **** *  Writes the register that controls whether the PWM kill signal (stop input)
 516:.\Generated_Source\PSoC4/PWM_G.c **** *  causes the PWM counter to stop.  By default the kill operation does not stop
 517:.\Generated_Source\PSoC4/PWM_G.c **** *  the counter.  This functionality is only applicable to the three PWM modes.
 518:.\Generated_Source\PSoC4/PWM_G.c **** *
 519:.\Generated_Source\PSoC4/PWM_G.c **** *
 520:.\Generated_Source\PSoC4/PWM_G.c **** * Parameters:
 521:.\Generated_Source\PSoC4/PWM_G.c **** *  stopOnKillEnable
 522:.\Generated_Source\PSoC4/PWM_G.c **** *   Values:
 523:.\Generated_Source\PSoC4/PWM_G.c **** *     - 0 - Don't stop
 524:.\Generated_Source\PSoC4/PWM_G.c **** *     - 1 - Stop
 525:.\Generated_Source\PSoC4/PWM_G.c **** *
 526:.\Generated_Source\PSoC4/PWM_G.c **** * Return:
 527:.\Generated_Source\PSoC4/PWM_G.c **** *  None
 528:.\Generated_Source\PSoC4/PWM_G.c **** *
 529:.\Generated_Source\PSoC4/PWM_G.c **** *******************************************************************************/
 530:.\Generated_Source\PSoC4/PWM_G.c **** void PWM_G_SetPWMStopOnKill(uint32 stopOnKillEnable)
ARM GAS  C:\Users\maxk\AppData\Local\Temp\cc31oBTD.s 			page 21


 531:.\Generated_Source\PSoC4/PWM_G.c **** {
 607              		.loc 1 531 0
 608              		.cfi_startproc
 609 0000 80B5     		push	{r7, lr}
 610              	.LCFI28:
 611              		.cfi_def_cfa_offset 8
 612              		.cfi_offset 7, -8
 613              		.cfi_offset 14, -4
 614 0002 84B0     		sub	sp, sp, #16
 615              	.LCFI29:
 616              		.cfi_def_cfa_offset 24
 617 0004 00AF     		add	r7, sp, #0
 618              	.LCFI30:
 619              		.cfi_def_cfa_register 7
 620 0006 7860     		str	r0, [r7, #4]
 532:.\Generated_Source\PSoC4/PWM_G.c ****     uint8 enableInterrupts;
 533:.\Generated_Source\PSoC4/PWM_G.c **** 
 534:.\Generated_Source\PSoC4/PWM_G.c ****     enableInterrupts = CyEnterCriticalSection();
 621              		.loc 1 534 0
 622 0008 FFF7FEFF 		bl	CyEnterCriticalSection
 623 000c 031C     		mov	r3, r0
 624 000e 1A1C     		mov	r2, r3
 625 0010 3B1C     		mov	r3, r7
 626 0012 0F33     		add	r3, r3, #15
 627 0014 1A70     		strb	r2, [r3]
 535:.\Generated_Source\PSoC4/PWM_G.c **** 
 536:.\Generated_Source\PSoC4/PWM_G.c ****     PWM_G_CONTROL_REG &= (uint32)~PWM_G_PWM_STOP_KILL_MASK;
 628              		.loc 1 536 0
 629 0016 0C4B     		ldr	r3, .L44
 630 0018 0B4A     		ldr	r2, .L44
 631 001a 1268     		ldr	r2, [r2]
 632 001c 0821     		mov	r1, #8
 633 001e 8A43     		bic	r2, r2, r1
 634 0020 1A60     		str	r2, [r3]
 537:.\Generated_Source\PSoC4/PWM_G.c ****     PWM_G_CONTROL_REG |= ((uint32)((stopOnKillEnable & PWM_G_1BIT_MASK)  <<
 635              		.loc 1 537 0
 636 0022 094B     		ldr	r3, .L44
 637 0024 084A     		ldr	r2, .L44
 638 0026 1168     		ldr	r1, [r2]
 639 0028 7868     		ldr	r0, [r7, #4]
 640 002a 0122     		mov	r2, #1
 641 002c 0240     		and	r2, r2, r0
 642 002e D200     		lsl	r2, r2, #3
 643 0030 0A43     		orr	r2, r2, r1
 644 0032 1A60     		str	r2, [r3]
 538:.\Generated_Source\PSoC4/PWM_G.c ****                                                          PWM_G_PWM_STOP_KILL_SHIFT));
 539:.\Generated_Source\PSoC4/PWM_G.c **** 
 540:.\Generated_Source\PSoC4/PWM_G.c ****     CyExitCriticalSection(enableInterrupts);
 645              		.loc 1 540 0
 646 0034 3B1C     		mov	r3, r7
 647 0036 0F33     		add	r3, r3, #15
 648 0038 1B78     		ldrb	r3, [r3]
 649 003a 181C     		mov	r0, r3
 650 003c FFF7FEFF 		bl	CyExitCriticalSection
 541:.\Generated_Source\PSoC4/PWM_G.c **** }
 651              		.loc 1 541 0
 652 0040 BD46     		mov	sp, r7
ARM GAS  C:\Users\maxk\AppData\Local\Temp\cc31oBTD.s 			page 22


 653 0042 04B0     		add	sp, sp, #16
 654              		@ sp needed for prologue
 655 0044 80BD     		pop	{r7, pc}
 656              	.L45:
 657 0046 C046     		.align	2
 658              	.L44:
 659 0048 40010540 		.word	1074069824
 660              		.cfi_endproc
 661              	.LFE10:
 662              		.size	PWM_G_SetPWMStopOnKill, .-PWM_G_SetPWMStopOnKill
 663              		.section	.text.PWM_G_SetPWMDeadTime,"ax",%progbits
 664              		.align	2
 665              		.global	PWM_G_SetPWMDeadTime
 666              		.code	16
 667              		.thumb_func
 668              		.type	PWM_G_SetPWMDeadTime, %function
 669              	PWM_G_SetPWMDeadTime:
 670              	.LFB11:
 542:.\Generated_Source\PSoC4/PWM_G.c **** 
 543:.\Generated_Source\PSoC4/PWM_G.c **** 
 544:.\Generated_Source\PSoC4/PWM_G.c **** /*******************************************************************************
 545:.\Generated_Source\PSoC4/PWM_G.c **** * Function Name: PWM_G_SetPWMDeadTime
 546:.\Generated_Source\PSoC4/PWM_G.c **** ********************************************************************************
 547:.\Generated_Source\PSoC4/PWM_G.c **** *
 548:.\Generated_Source\PSoC4/PWM_G.c **** * Summary:
 549:.\Generated_Source\PSoC4/PWM_G.c **** *  Writes the dead time control value.  This value delays the rising edge of
 550:.\Generated_Source\PSoC4/PWM_G.c **** *  both the line and line_n signals the designated number of cycles resulting
 551:.\Generated_Source\PSoC4/PWM_G.c **** *  in both signals being inactive for that many cycles.  This functionality is
 552:.\Generated_Source\PSoC4/PWM_G.c **** *  only applicable to the PWM in dead time mode.
 553:.\Generated_Source\PSoC4/PWM_G.c **** 
 554:.\Generated_Source\PSoC4/PWM_G.c **** *
 555:.\Generated_Source\PSoC4/PWM_G.c **** * Parameters:
 556:.\Generated_Source\PSoC4/PWM_G.c **** *  Dead time to insert
 557:.\Generated_Source\PSoC4/PWM_G.c **** *   Values: 0 to 255
 558:.\Generated_Source\PSoC4/PWM_G.c **** *
 559:.\Generated_Source\PSoC4/PWM_G.c **** * Return:
 560:.\Generated_Source\PSoC4/PWM_G.c **** *  None
 561:.\Generated_Source\PSoC4/PWM_G.c **** *
 562:.\Generated_Source\PSoC4/PWM_G.c **** *******************************************************************************/
 563:.\Generated_Source\PSoC4/PWM_G.c **** void PWM_G_SetPWMDeadTime(uint32 deadTime)
 564:.\Generated_Source\PSoC4/PWM_G.c **** {
 671              		.loc 1 564 0
 672              		.cfi_startproc
 673 0000 80B5     		push	{r7, lr}
 674              	.LCFI31:
 675              		.cfi_def_cfa_offset 8
 676              		.cfi_offset 7, -8
 677              		.cfi_offset 14, -4
 678 0002 84B0     		sub	sp, sp, #16
 679              	.LCFI32:
 680              		.cfi_def_cfa_offset 24
 681 0004 00AF     		add	r7, sp, #0
 682              	.LCFI33:
 683              		.cfi_def_cfa_register 7
 684 0006 7860     		str	r0, [r7, #4]
 565:.\Generated_Source\PSoC4/PWM_G.c ****     uint8 enableInterrupts;
 566:.\Generated_Source\PSoC4/PWM_G.c **** 
ARM GAS  C:\Users\maxk\AppData\Local\Temp\cc31oBTD.s 			page 23


 567:.\Generated_Source\PSoC4/PWM_G.c ****     enableInterrupts = CyEnterCriticalSection();
 685              		.loc 1 567 0
 686 0008 FFF7FEFF 		bl	CyEnterCriticalSection
 687 000c 031C     		mov	r3, r0
 688 000e 1A1C     		mov	r2, r3
 689 0010 3B1C     		mov	r3, r7
 690 0012 0F33     		add	r3, r3, #15
 691 0014 1A70     		strb	r2, [r3]
 568:.\Generated_Source\PSoC4/PWM_G.c **** 
 569:.\Generated_Source\PSoC4/PWM_G.c ****     PWM_G_CONTROL_REG &= (uint32)~PWM_G_PRESCALER_MASK;
 692              		.loc 1 569 0
 693 0016 0C4B     		ldr	r3, .L48
 694 0018 0B4A     		ldr	r2, .L48
 695 001a 1168     		ldr	r1, [r2]
 696 001c 0B4A     		ldr	r2, .L48+4
 697 001e 0A40     		and	r2, r2, r1
 698 0020 1A60     		str	r2, [r3]
 570:.\Generated_Source\PSoC4/PWM_G.c ****     PWM_G_CONTROL_REG |= ((uint32)((deadTime & PWM_G_8BIT_MASK) <<
 699              		.loc 1 570 0
 700 0022 094B     		ldr	r3, .L48
 701 0024 084A     		ldr	r2, .L48
 702 0026 1168     		ldr	r1, [r2]
 703 0028 7A68     		ldr	r2, [r7, #4]
 704 002a 1202     		lsl	r2, r2, #8
 705 002c 1204     		lsl	r2, r2, #16
 706 002e 120C     		lsr	r2, r2, #16
 707 0030 0A43     		orr	r2, r2, r1
 708 0032 1A60     		str	r2, [r3]
 571:.\Generated_Source\PSoC4/PWM_G.c ****                                                           PWM_G_PRESCALER_SHIFT));
 572:.\Generated_Source\PSoC4/PWM_G.c **** 
 573:.\Generated_Source\PSoC4/PWM_G.c ****     CyExitCriticalSection(enableInterrupts);
 709              		.loc 1 573 0
 710 0034 3B1C     		mov	r3, r7
 711 0036 0F33     		add	r3, r3, #15
 712 0038 1B78     		ldrb	r3, [r3]
 713 003a 181C     		mov	r0, r3
 714 003c FFF7FEFF 		bl	CyExitCriticalSection
 574:.\Generated_Source\PSoC4/PWM_G.c **** }
 715              		.loc 1 574 0
 716 0040 BD46     		mov	sp, r7
 717 0042 04B0     		add	sp, sp, #16
 718              		@ sp needed for prologue
 719 0044 80BD     		pop	{r7, pc}
 720              	.L49:
 721 0046 C046     		.align	2
 722              	.L48:
 723 0048 40010540 		.word	1074069824
 724 004c FF00FFFF 		.word	-65281
 725              		.cfi_endproc
 726              	.LFE11:
 727              		.size	PWM_G_SetPWMDeadTime, .-PWM_G_SetPWMDeadTime
 728              		.section	.text.PWM_G_SetPWMInvert,"ax",%progbits
 729              		.align	2
 730              		.global	PWM_G_SetPWMInvert
 731              		.code	16
 732              		.thumb_func
 733              		.type	PWM_G_SetPWMInvert, %function
ARM GAS  C:\Users\maxk\AppData\Local\Temp\cc31oBTD.s 			page 24


 734              	PWM_G_SetPWMInvert:
 735              	.LFB12:
 575:.\Generated_Source\PSoC4/PWM_G.c **** 
 576:.\Generated_Source\PSoC4/PWM_G.c **** 
 577:.\Generated_Source\PSoC4/PWM_G.c **** /*******************************************************************************
 578:.\Generated_Source\PSoC4/PWM_G.c **** * Function Name: PWM_G_SetPWMInvert
 579:.\Generated_Source\PSoC4/PWM_G.c **** ********************************************************************************
 580:.\Generated_Source\PSoC4/PWM_G.c **** *
 581:.\Generated_Source\PSoC4/PWM_G.c **** * Summary:
 582:.\Generated_Source\PSoC4/PWM_G.c **** *  Writes the bits that control whether the line and line_n outputs are
 583:.\Generated_Source\PSoC4/PWM_G.c **** *  inverted from their normal output values.  This functionality is only
 584:.\Generated_Source\PSoC4/PWM_G.c **** *  applicable to the three PWM modes.
 585:.\Generated_Source\PSoC4/PWM_G.c **** *
 586:.\Generated_Source\PSoC4/PWM_G.c **** * Parameters:
 587:.\Generated_Source\PSoC4/PWM_G.c **** *  mask: Mask of outputs to invert.
 588:.\Generated_Source\PSoC4/PWM_G.c **** *   Values:
 589:.\Generated_Source\PSoC4/PWM_G.c **** *         - PWM_G_INVERT_LINE   - Inverts the line output
 590:.\Generated_Source\PSoC4/PWM_G.c **** *         - PWM_G_INVERT_LINE_N - Inverts the line_n output
 591:.\Generated_Source\PSoC4/PWM_G.c **** *
 592:.\Generated_Source\PSoC4/PWM_G.c **** * Return:
 593:.\Generated_Source\PSoC4/PWM_G.c **** *  None
 594:.\Generated_Source\PSoC4/PWM_G.c **** *
 595:.\Generated_Source\PSoC4/PWM_G.c **** *******************************************************************************/
 596:.\Generated_Source\PSoC4/PWM_G.c **** void PWM_G_SetPWMInvert(uint32 mask)
 597:.\Generated_Source\PSoC4/PWM_G.c **** {
 736              		.loc 1 597 0
 737              		.cfi_startproc
 738 0000 80B5     		push	{r7, lr}
 739              	.LCFI34:
 740              		.cfi_def_cfa_offset 8
 741              		.cfi_offset 7, -8
 742              		.cfi_offset 14, -4
 743 0002 84B0     		sub	sp, sp, #16
 744              	.LCFI35:
 745              		.cfi_def_cfa_offset 24
 746 0004 00AF     		add	r7, sp, #0
 747              	.LCFI36:
 748              		.cfi_def_cfa_register 7
 749 0006 7860     		str	r0, [r7, #4]
 598:.\Generated_Source\PSoC4/PWM_G.c ****     uint8 enableInterrupts;
 599:.\Generated_Source\PSoC4/PWM_G.c **** 
 600:.\Generated_Source\PSoC4/PWM_G.c ****     enableInterrupts = CyEnterCriticalSection();
 750              		.loc 1 600 0
 751 0008 FFF7FEFF 		bl	CyEnterCriticalSection
 752 000c 031C     		mov	r3, r0
 753 000e 1A1C     		mov	r2, r3
 754 0010 3B1C     		mov	r3, r7
 755 0012 0F33     		add	r3, r3, #15
 756 0014 1A70     		strb	r2, [r3]
 601:.\Generated_Source\PSoC4/PWM_G.c **** 
 602:.\Generated_Source\PSoC4/PWM_G.c ****     PWM_G_CONTROL_REG &= (uint32)~PWM_G_INV_OUT_MASK;
 757              		.loc 1 602 0
 758 0016 0A4B     		ldr	r3, .L52
 759 0018 094A     		ldr	r2, .L52
 760 001a 1168     		ldr	r1, [r2]
 761 001c 094A     		ldr	r2, .L52+4
 762 001e 0A40     		and	r2, r2, r1
ARM GAS  C:\Users\maxk\AppData\Local\Temp\cc31oBTD.s 			page 25


 763 0020 1A60     		str	r2, [r3]
 603:.\Generated_Source\PSoC4/PWM_G.c ****     PWM_G_CONTROL_REG |= mask;
 764              		.loc 1 603 0
 765 0022 074B     		ldr	r3, .L52
 766 0024 064A     		ldr	r2, .L52
 767 0026 1168     		ldr	r1, [r2]
 768 0028 7A68     		ldr	r2, [r7, #4]
 769 002a 0A43     		orr	r2, r2, r1
 770 002c 1A60     		str	r2, [r3]
 604:.\Generated_Source\PSoC4/PWM_G.c **** 
 605:.\Generated_Source\PSoC4/PWM_G.c ****     CyExitCriticalSection(enableInterrupts);
 771              		.loc 1 605 0
 772 002e 3B1C     		mov	r3, r7
 773 0030 0F33     		add	r3, r3, #15
 774 0032 1B78     		ldrb	r3, [r3]
 775 0034 181C     		mov	r0, r3
 776 0036 FFF7FEFF 		bl	CyExitCriticalSection
 606:.\Generated_Source\PSoC4/PWM_G.c **** }
 777              		.loc 1 606 0
 778 003a BD46     		mov	sp, r7
 779 003c 04B0     		add	sp, sp, #16
 780              		@ sp needed for prologue
 781 003e 80BD     		pop	{r7, pc}
 782              	.L53:
 783              		.align	2
 784              	.L52:
 785 0040 40010540 		.word	1074069824
 786 0044 FFFFCFFF 		.word	-3145729
 787              		.cfi_endproc
 788              	.LFE12:
 789              		.size	PWM_G_SetPWMInvert, .-PWM_G_SetPWMInvert
 790              		.section	.text.PWM_G_WriteCounter,"ax",%progbits
 791              		.align	2
 792              		.global	PWM_G_WriteCounter
 793              		.code	16
 794              		.thumb_func
 795              		.type	PWM_G_WriteCounter, %function
 796              	PWM_G_WriteCounter:
 797              	.LFB13:
 607:.\Generated_Source\PSoC4/PWM_G.c **** 
 608:.\Generated_Source\PSoC4/PWM_G.c **** 
 609:.\Generated_Source\PSoC4/PWM_G.c **** 
 610:.\Generated_Source\PSoC4/PWM_G.c **** /*******************************************************************************
 611:.\Generated_Source\PSoC4/PWM_G.c **** * Function Name: PWM_G_WriteCounter
 612:.\Generated_Source\PSoC4/PWM_G.c **** ********************************************************************************
 613:.\Generated_Source\PSoC4/PWM_G.c **** *
 614:.\Generated_Source\PSoC4/PWM_G.c **** * Summary:
 615:.\Generated_Source\PSoC4/PWM_G.c **** *  Writes a new 16bit counter value directly into the counter register, thus
 616:.\Generated_Source\PSoC4/PWM_G.c **** *  setting the counter (not the period) to the value written. It is not
 617:.\Generated_Source\PSoC4/PWM_G.c **** *  advised to write to this field when the counter is running.
 618:.\Generated_Source\PSoC4/PWM_G.c **** *
 619:.\Generated_Source\PSoC4/PWM_G.c **** * Parameters:
 620:.\Generated_Source\PSoC4/PWM_G.c **** *  count: value to write
 621:.\Generated_Source\PSoC4/PWM_G.c **** *
 622:.\Generated_Source\PSoC4/PWM_G.c **** * Return:
 623:.\Generated_Source\PSoC4/PWM_G.c **** *  None
 624:.\Generated_Source\PSoC4/PWM_G.c **** *
ARM GAS  C:\Users\maxk\AppData\Local\Temp\cc31oBTD.s 			page 26


 625:.\Generated_Source\PSoC4/PWM_G.c **** *******************************************************************************/
 626:.\Generated_Source\PSoC4/PWM_G.c **** void PWM_G_WriteCounter(uint32 count)
 627:.\Generated_Source\PSoC4/PWM_G.c **** {
 798              		.loc 1 627 0
 799              		.cfi_startproc
 800 0000 80B5     		push	{r7, lr}
 801              	.LCFI37:
 802              		.cfi_def_cfa_offset 8
 803              		.cfi_offset 7, -8
 804              		.cfi_offset 14, -4
 805 0002 82B0     		sub	sp, sp, #8
 806              	.LCFI38:
 807              		.cfi_def_cfa_offset 16
 808 0004 00AF     		add	r7, sp, #0
 809              	.LCFI39:
 810              		.cfi_def_cfa_register 7
 811 0006 7860     		str	r0, [r7, #4]
 628:.\Generated_Source\PSoC4/PWM_G.c ****     PWM_G_COUNTER_REG = (count & PWM_G_16BIT_MASK);
 812              		.loc 1 628 0
 813 0008 034B     		ldr	r3, .L56
 814 000a 7A68     		ldr	r2, [r7, #4]
 815 000c 1204     		lsl	r2, r2, #16
 816 000e 120C     		lsr	r2, r2, #16
 817 0010 1A60     		str	r2, [r3]
 629:.\Generated_Source\PSoC4/PWM_G.c **** }
 818              		.loc 1 629 0
 819 0012 BD46     		mov	sp, r7
 820 0014 02B0     		add	sp, sp, #8
 821              		@ sp needed for prologue
 822 0016 80BD     		pop	{r7, pc}
 823              	.L57:
 824              		.align	2
 825              	.L56:
 826 0018 48010540 		.word	1074069832
 827              		.cfi_endproc
 828              	.LFE13:
 829              		.size	PWM_G_WriteCounter, .-PWM_G_WriteCounter
 830              		.section	.text.PWM_G_ReadCounter,"ax",%progbits
 831              		.align	2
 832              		.global	PWM_G_ReadCounter
 833              		.code	16
 834              		.thumb_func
 835              		.type	PWM_G_ReadCounter, %function
 836              	PWM_G_ReadCounter:
 837              	.LFB14:
 630:.\Generated_Source\PSoC4/PWM_G.c **** 
 631:.\Generated_Source\PSoC4/PWM_G.c **** 
 632:.\Generated_Source\PSoC4/PWM_G.c **** /*******************************************************************************
 633:.\Generated_Source\PSoC4/PWM_G.c **** * Function Name: PWM_G_ReadCounter
 634:.\Generated_Source\PSoC4/PWM_G.c **** ********************************************************************************
 635:.\Generated_Source\PSoC4/PWM_G.c **** *
 636:.\Generated_Source\PSoC4/PWM_G.c **** * Summary:
 637:.\Generated_Source\PSoC4/PWM_G.c **** *  Reads the current counter value.
 638:.\Generated_Source\PSoC4/PWM_G.c **** *
 639:.\Generated_Source\PSoC4/PWM_G.c **** * Parameters:
 640:.\Generated_Source\PSoC4/PWM_G.c **** *  None
 641:.\Generated_Source\PSoC4/PWM_G.c **** *
ARM GAS  C:\Users\maxk\AppData\Local\Temp\cc31oBTD.s 			page 27


 642:.\Generated_Source\PSoC4/PWM_G.c **** * Return:
 643:.\Generated_Source\PSoC4/PWM_G.c **** *  Current counter value
 644:.\Generated_Source\PSoC4/PWM_G.c **** *
 645:.\Generated_Source\PSoC4/PWM_G.c **** *******************************************************************************/
 646:.\Generated_Source\PSoC4/PWM_G.c **** uint32 PWM_G_ReadCounter(void)
 647:.\Generated_Source\PSoC4/PWM_G.c **** {
 838              		.loc 1 647 0
 839              		.cfi_startproc
 840 0000 80B5     		push	{r7, lr}
 841              	.LCFI40:
 842              		.cfi_def_cfa_offset 8
 843              		.cfi_offset 7, -8
 844              		.cfi_offset 14, -4
 845 0002 00AF     		add	r7, sp, #0
 846              	.LCFI41:
 847              		.cfi_def_cfa_register 7
 648:.\Generated_Source\PSoC4/PWM_G.c ****     return (PWM_G_COUNTER_REG & PWM_G_16BIT_MASK);
 848              		.loc 1 648 0
 849 0004 034B     		ldr	r3, .L60
 850 0006 1B68     		ldr	r3, [r3]
 851 0008 1B04     		lsl	r3, r3, #16
 852 000a 1B0C     		lsr	r3, r3, #16
 649:.\Generated_Source\PSoC4/PWM_G.c **** }
 853              		.loc 1 649 0
 854 000c 181C     		mov	r0, r3
 855 000e BD46     		mov	sp, r7
 856              		@ sp needed for prologue
 857 0010 80BD     		pop	{r7, pc}
 858              	.L61:
 859 0012 C046     		.align	2
 860              	.L60:
 861 0014 48010540 		.word	1074069832
 862              		.cfi_endproc
 863              	.LFE14:
 864              		.size	PWM_G_ReadCounter, .-PWM_G_ReadCounter
 865              		.section	.text.PWM_G_SetCounterMode,"ax",%progbits
 866              		.align	2
 867              		.global	PWM_G_SetCounterMode
 868              		.code	16
 869              		.thumb_func
 870              		.type	PWM_G_SetCounterMode, %function
 871              	PWM_G_SetCounterMode:
 872              	.LFB15:
 650:.\Generated_Source\PSoC4/PWM_G.c **** 
 651:.\Generated_Source\PSoC4/PWM_G.c **** 
 652:.\Generated_Source\PSoC4/PWM_G.c **** /*******************************************************************************
 653:.\Generated_Source\PSoC4/PWM_G.c **** * Function Name: PWM_G_SetCounterMode
 654:.\Generated_Source\PSoC4/PWM_G.c **** ********************************************************************************
 655:.\Generated_Source\PSoC4/PWM_G.c **** *
 656:.\Generated_Source\PSoC4/PWM_G.c **** * Summary:
 657:.\Generated_Source\PSoC4/PWM_G.c **** *  Sets the counter mode.  Applicable to all modes except Quadrature Decoder
 658:.\Generated_Source\PSoC4/PWM_G.c **** *  and PWM with pseudo random output.
 659:.\Generated_Source\PSoC4/PWM_G.c **** *
 660:.\Generated_Source\PSoC4/PWM_G.c **** * Parameters:
 661:.\Generated_Source\PSoC4/PWM_G.c **** *  counterMode: Enumerated couner type values
 662:.\Generated_Source\PSoC4/PWM_G.c **** *   Values:
 663:.\Generated_Source\PSoC4/PWM_G.c **** *     - PWM_G_COUNT_UP       - Counts up
ARM GAS  C:\Users\maxk\AppData\Local\Temp\cc31oBTD.s 			page 28


 664:.\Generated_Source\PSoC4/PWM_G.c **** *     - PWM_G_COUNT_DOWN     - Counts down
 665:.\Generated_Source\PSoC4/PWM_G.c **** *     - PWM_G_COUNT_UPDOWN0  - Counts up and down. Terminal count
 666:.\Generated_Source\PSoC4/PWM_G.c **** *                                         generated when counter reaches 0
 667:.\Generated_Source\PSoC4/PWM_G.c **** *     - PWM_G_COUNT_UPDOWN1  - Counts up and down. Terminal count
 668:.\Generated_Source\PSoC4/PWM_G.c **** *                                         generated both when counter reaches 0
 669:.\Generated_Source\PSoC4/PWM_G.c **** *                                         and period
 670:.\Generated_Source\PSoC4/PWM_G.c **** *
 671:.\Generated_Source\PSoC4/PWM_G.c **** * Return:
 672:.\Generated_Source\PSoC4/PWM_G.c **** *  None
 673:.\Generated_Source\PSoC4/PWM_G.c **** *
 674:.\Generated_Source\PSoC4/PWM_G.c **** *******************************************************************************/
 675:.\Generated_Source\PSoC4/PWM_G.c **** void PWM_G_SetCounterMode(uint32 counterMode)
 676:.\Generated_Source\PSoC4/PWM_G.c **** {
 873              		.loc 1 676 0
 874              		.cfi_startproc
 875 0000 80B5     		push	{r7, lr}
 876              	.LCFI42:
 877              		.cfi_def_cfa_offset 8
 878              		.cfi_offset 7, -8
 879              		.cfi_offset 14, -4
 880 0002 84B0     		sub	sp, sp, #16
 881              	.LCFI43:
 882              		.cfi_def_cfa_offset 24
 883 0004 00AF     		add	r7, sp, #0
 884              	.LCFI44:
 885              		.cfi_def_cfa_register 7
 886 0006 7860     		str	r0, [r7, #4]
 677:.\Generated_Source\PSoC4/PWM_G.c ****     uint8 enableInterrupts;
 678:.\Generated_Source\PSoC4/PWM_G.c **** 
 679:.\Generated_Source\PSoC4/PWM_G.c ****     enableInterrupts = CyEnterCriticalSection();
 887              		.loc 1 679 0
 888 0008 FFF7FEFF 		bl	CyEnterCriticalSection
 889 000c 031C     		mov	r3, r0
 890 000e 1A1C     		mov	r2, r3
 891 0010 3B1C     		mov	r3, r7
 892 0012 0F33     		add	r3, r3, #15
 893 0014 1A70     		strb	r2, [r3]
 680:.\Generated_Source\PSoC4/PWM_G.c **** 
 681:.\Generated_Source\PSoC4/PWM_G.c ****     PWM_G_CONTROL_REG &= (uint32)~PWM_G_UPDOWN_MASK;
 894              		.loc 1 681 0
 895 0016 0A4B     		ldr	r3, .L64
 896 0018 094A     		ldr	r2, .L64
 897 001a 1168     		ldr	r1, [r2]
 898 001c 094A     		ldr	r2, .L64+4
 899 001e 0A40     		and	r2, r2, r1
 900 0020 1A60     		str	r2, [r3]
 682:.\Generated_Source\PSoC4/PWM_G.c ****     PWM_G_CONTROL_REG |= counterMode;
 901              		.loc 1 682 0
 902 0022 074B     		ldr	r3, .L64
 903 0024 064A     		ldr	r2, .L64
 904 0026 1168     		ldr	r1, [r2]
 905 0028 7A68     		ldr	r2, [r7, #4]
 906 002a 0A43     		orr	r2, r2, r1
 907 002c 1A60     		str	r2, [r3]
 683:.\Generated_Source\PSoC4/PWM_G.c **** 
 684:.\Generated_Source\PSoC4/PWM_G.c ****     CyExitCriticalSection(enableInterrupts);
 908              		.loc 1 684 0
ARM GAS  C:\Users\maxk\AppData\Local\Temp\cc31oBTD.s 			page 29


 909 002e 3B1C     		mov	r3, r7
 910 0030 0F33     		add	r3, r3, #15
 911 0032 1B78     		ldrb	r3, [r3]
 912 0034 181C     		mov	r0, r3
 913 0036 FFF7FEFF 		bl	CyExitCriticalSection
 685:.\Generated_Source\PSoC4/PWM_G.c **** }
 914              		.loc 1 685 0
 915 003a BD46     		mov	sp, r7
 916 003c 04B0     		add	sp, sp, #16
 917              		@ sp needed for prologue
 918 003e 80BD     		pop	{r7, pc}
 919              	.L65:
 920              		.align	2
 921              	.L64:
 922 0040 40010540 		.word	1074069824
 923 0044 FFFFFCFF 		.word	-196609
 924              		.cfi_endproc
 925              	.LFE15:
 926              		.size	PWM_G_SetCounterMode, .-PWM_G_SetCounterMode
 927              		.section	.text.PWM_G_WritePeriod,"ax",%progbits
 928              		.align	2
 929              		.global	PWM_G_WritePeriod
 930              		.code	16
 931              		.thumb_func
 932              		.type	PWM_G_WritePeriod, %function
 933              	PWM_G_WritePeriod:
 934              	.LFB16:
 686:.\Generated_Source\PSoC4/PWM_G.c **** 
 687:.\Generated_Source\PSoC4/PWM_G.c **** 
 688:.\Generated_Source\PSoC4/PWM_G.c **** /*******************************************************************************
 689:.\Generated_Source\PSoC4/PWM_G.c **** * Function Name: PWM_G_WritePeriod
 690:.\Generated_Source\PSoC4/PWM_G.c **** ********************************************************************************
 691:.\Generated_Source\PSoC4/PWM_G.c **** *
 692:.\Generated_Source\PSoC4/PWM_G.c **** * Summary:
 693:.\Generated_Source\PSoC4/PWM_G.c **** *  Writes the 16 bit period register with the new period value.
 694:.\Generated_Source\PSoC4/PWM_G.c **** *  To cause the counter to count for N cycles this register should be written
 695:.\Generated_Source\PSoC4/PWM_G.c **** *  with N-1 (counts from 0 to period inclusive).
 696:.\Generated_Source\PSoC4/PWM_G.c **** *
 697:.\Generated_Source\PSoC4/PWM_G.c **** * Parameters:
 698:.\Generated_Source\PSoC4/PWM_G.c **** *  period: Period value
 699:.\Generated_Source\PSoC4/PWM_G.c **** *
 700:.\Generated_Source\PSoC4/PWM_G.c **** * Return:
 701:.\Generated_Source\PSoC4/PWM_G.c **** *  None
 702:.\Generated_Source\PSoC4/PWM_G.c **** *
 703:.\Generated_Source\PSoC4/PWM_G.c **** *******************************************************************************/
 704:.\Generated_Source\PSoC4/PWM_G.c **** void PWM_G_WritePeriod(uint32 period)
 705:.\Generated_Source\PSoC4/PWM_G.c **** {
 935              		.loc 1 705 0
 936              		.cfi_startproc
 937 0000 80B5     		push	{r7, lr}
 938              	.LCFI45:
 939              		.cfi_def_cfa_offset 8
 940              		.cfi_offset 7, -8
 941              		.cfi_offset 14, -4
 942 0002 82B0     		sub	sp, sp, #8
 943              	.LCFI46:
 944              		.cfi_def_cfa_offset 16
ARM GAS  C:\Users\maxk\AppData\Local\Temp\cc31oBTD.s 			page 30


 945 0004 00AF     		add	r7, sp, #0
 946              	.LCFI47:
 947              		.cfi_def_cfa_register 7
 948 0006 7860     		str	r0, [r7, #4]
 706:.\Generated_Source\PSoC4/PWM_G.c ****     PWM_G_PERIOD_REG = (period & PWM_G_16BIT_MASK);
 949              		.loc 1 706 0
 950 0008 034B     		ldr	r3, .L68
 951 000a 7A68     		ldr	r2, [r7, #4]
 952 000c 1204     		lsl	r2, r2, #16
 953 000e 120C     		lsr	r2, r2, #16
 954 0010 1A60     		str	r2, [r3]
 707:.\Generated_Source\PSoC4/PWM_G.c **** }
 955              		.loc 1 707 0
 956 0012 BD46     		mov	sp, r7
 957 0014 02B0     		add	sp, sp, #8
 958              		@ sp needed for prologue
 959 0016 80BD     		pop	{r7, pc}
 960              	.L69:
 961              		.align	2
 962              	.L68:
 963 0018 54010540 		.word	1074069844
 964              		.cfi_endproc
 965              	.LFE16:
 966              		.size	PWM_G_WritePeriod, .-PWM_G_WritePeriod
 967              		.section	.text.PWM_G_ReadPeriod,"ax",%progbits
 968              		.align	2
 969              		.global	PWM_G_ReadPeriod
 970              		.code	16
 971              		.thumb_func
 972              		.type	PWM_G_ReadPeriod, %function
 973              	PWM_G_ReadPeriod:
 974              	.LFB17:
 708:.\Generated_Source\PSoC4/PWM_G.c **** 
 709:.\Generated_Source\PSoC4/PWM_G.c **** 
 710:.\Generated_Source\PSoC4/PWM_G.c **** /*******************************************************************************
 711:.\Generated_Source\PSoC4/PWM_G.c **** * Function Name: PWM_G_ReadPeriod
 712:.\Generated_Source\PSoC4/PWM_G.c **** ********************************************************************************
 713:.\Generated_Source\PSoC4/PWM_G.c **** *
 714:.\Generated_Source\PSoC4/PWM_G.c **** * Summary:
 715:.\Generated_Source\PSoC4/PWM_G.c **** *  Reads the 16 bit period register.
 716:.\Generated_Source\PSoC4/PWM_G.c **** *
 717:.\Generated_Source\PSoC4/PWM_G.c **** * Parameters:
 718:.\Generated_Source\PSoC4/PWM_G.c **** *  None
 719:.\Generated_Source\PSoC4/PWM_G.c **** *
 720:.\Generated_Source\PSoC4/PWM_G.c **** * Return:
 721:.\Generated_Source\PSoC4/PWM_G.c **** *  Period value
 722:.\Generated_Source\PSoC4/PWM_G.c **** *
 723:.\Generated_Source\PSoC4/PWM_G.c **** *******************************************************************************/
 724:.\Generated_Source\PSoC4/PWM_G.c **** uint32 PWM_G_ReadPeriod(void)
 725:.\Generated_Source\PSoC4/PWM_G.c **** {
 975              		.loc 1 725 0
 976              		.cfi_startproc
 977 0000 80B5     		push	{r7, lr}
 978              	.LCFI48:
 979              		.cfi_def_cfa_offset 8
 980              		.cfi_offset 7, -8
 981              		.cfi_offset 14, -4
ARM GAS  C:\Users\maxk\AppData\Local\Temp\cc31oBTD.s 			page 31


 982 0002 00AF     		add	r7, sp, #0
 983              	.LCFI49:
 984              		.cfi_def_cfa_register 7
 726:.\Generated_Source\PSoC4/PWM_G.c ****     return (PWM_G_PERIOD_REG & PWM_G_16BIT_MASK);
 985              		.loc 1 726 0
 986 0004 034B     		ldr	r3, .L72
 987 0006 1B68     		ldr	r3, [r3]
 988 0008 1B04     		lsl	r3, r3, #16
 989 000a 1B0C     		lsr	r3, r3, #16
 727:.\Generated_Source\PSoC4/PWM_G.c **** }
 990              		.loc 1 727 0
 991 000c 181C     		mov	r0, r3
 992 000e BD46     		mov	sp, r7
 993              		@ sp needed for prologue
 994 0010 80BD     		pop	{r7, pc}
 995              	.L73:
 996 0012 C046     		.align	2
 997              	.L72:
 998 0014 54010540 		.word	1074069844
 999              		.cfi_endproc
 1000              	.LFE17:
 1001              		.size	PWM_G_ReadPeriod, .-PWM_G_ReadPeriod
 1002              		.section	.text.PWM_G_SetCompareSwap,"ax",%progbits
 1003              		.align	2
 1004              		.global	PWM_G_SetCompareSwap
 1005              		.code	16
 1006              		.thumb_func
 1007              		.type	PWM_G_SetCompareSwap, %function
 1008              	PWM_G_SetCompareSwap:
 1009              	.LFB18:
 728:.\Generated_Source\PSoC4/PWM_G.c **** 
 729:.\Generated_Source\PSoC4/PWM_G.c **** 
 730:.\Generated_Source\PSoC4/PWM_G.c **** /*******************************************************************************
 731:.\Generated_Source\PSoC4/PWM_G.c **** * Function Name: PWM_G_SetCompareSwap
 732:.\Generated_Source\PSoC4/PWM_G.c **** ********************************************************************************
 733:.\Generated_Source\PSoC4/PWM_G.c **** *
 734:.\Generated_Source\PSoC4/PWM_G.c **** * Summary:
 735:.\Generated_Source\PSoC4/PWM_G.c **** *  Writes the register that controls whether the compare registers are
 736:.\Generated_Source\PSoC4/PWM_G.c **** *  swapped. When enabled in Timer/Counter mode(without capture) the swap occurs
 737:.\Generated_Source\PSoC4/PWM_G.c **** *  at a TC event. In PWM mode the swap occurs at the next TC event following
 738:.\Generated_Source\PSoC4/PWM_G.c **** *  a hardware switch event.
 739:.\Generated_Source\PSoC4/PWM_G.c **** *
 740:.\Generated_Source\PSoC4/PWM_G.c **** * Parameters:
 741:.\Generated_Source\PSoC4/PWM_G.c **** *  swapEnable
 742:.\Generated_Source\PSoC4/PWM_G.c **** *   Values:
 743:.\Generated_Source\PSoC4/PWM_G.c **** *     - 0 - Disable swap
 744:.\Generated_Source\PSoC4/PWM_G.c **** *     - 1 - Enable swap
 745:.\Generated_Source\PSoC4/PWM_G.c **** *
 746:.\Generated_Source\PSoC4/PWM_G.c **** * Return:
 747:.\Generated_Source\PSoC4/PWM_G.c **** *  None
 748:.\Generated_Source\PSoC4/PWM_G.c **** *
 749:.\Generated_Source\PSoC4/PWM_G.c **** *******************************************************************************/
 750:.\Generated_Source\PSoC4/PWM_G.c **** void PWM_G_SetCompareSwap(uint32 swapEnable)
 751:.\Generated_Source\PSoC4/PWM_G.c **** {
 1010              		.loc 1 751 0
 1011              		.cfi_startproc
 1012 0000 80B5     		push	{r7, lr}
ARM GAS  C:\Users\maxk\AppData\Local\Temp\cc31oBTD.s 			page 32


 1013              	.LCFI50:
 1014              		.cfi_def_cfa_offset 8
 1015              		.cfi_offset 7, -8
 1016              		.cfi_offset 14, -4
 1017 0002 84B0     		sub	sp, sp, #16
 1018              	.LCFI51:
 1019              		.cfi_def_cfa_offset 24
 1020 0004 00AF     		add	r7, sp, #0
 1021              	.LCFI52:
 1022              		.cfi_def_cfa_register 7
 1023 0006 7860     		str	r0, [r7, #4]
 752:.\Generated_Source\PSoC4/PWM_G.c ****     uint8 enableInterrupts;
 753:.\Generated_Source\PSoC4/PWM_G.c **** 
 754:.\Generated_Source\PSoC4/PWM_G.c ****     enableInterrupts = CyEnterCriticalSection();
 1024              		.loc 1 754 0
 1025 0008 FFF7FEFF 		bl	CyEnterCriticalSection
 1026 000c 031C     		mov	r3, r0
 1027 000e 1A1C     		mov	r2, r3
 1028 0010 3B1C     		mov	r3, r7
 1029 0012 0F33     		add	r3, r3, #15
 1030 0014 1A70     		strb	r2, [r3]
 755:.\Generated_Source\PSoC4/PWM_G.c **** 
 756:.\Generated_Source\PSoC4/PWM_G.c ****     PWM_G_CONTROL_REG &= (uint32)~PWM_G_RELOAD_CC_MASK;
 1031              		.loc 1 756 0
 1032 0016 0B4B     		ldr	r3, .L76
 1033 0018 0A4A     		ldr	r2, .L76
 1034 001a 1268     		ldr	r2, [r2]
 1035 001c 0121     		mov	r1, #1
 1036 001e 8A43     		bic	r2, r2, r1
 1037 0020 1A60     		str	r2, [r3]
 757:.\Generated_Source\PSoC4/PWM_G.c ****     PWM_G_CONTROL_REG |= (swapEnable & PWM_G_1BIT_MASK);
 1038              		.loc 1 757 0
 1039 0022 084B     		ldr	r3, .L76
 1040 0024 074A     		ldr	r2, .L76
 1041 0026 1168     		ldr	r1, [r2]
 1042 0028 7868     		ldr	r0, [r7, #4]
 1043 002a 0122     		mov	r2, #1
 1044 002c 0240     		and	r2, r2, r0
 1045 002e 0A43     		orr	r2, r2, r1
 1046 0030 1A60     		str	r2, [r3]
 758:.\Generated_Source\PSoC4/PWM_G.c **** 
 759:.\Generated_Source\PSoC4/PWM_G.c ****     CyExitCriticalSection(enableInterrupts);
 1047              		.loc 1 759 0
 1048 0032 3B1C     		mov	r3, r7
 1049 0034 0F33     		add	r3, r3, #15
 1050 0036 1B78     		ldrb	r3, [r3]
 1051 0038 181C     		mov	r0, r3
 1052 003a FFF7FEFF 		bl	CyExitCriticalSection
 760:.\Generated_Source\PSoC4/PWM_G.c **** }
 1053              		.loc 1 760 0
 1054 003e BD46     		mov	sp, r7
 1055 0040 04B0     		add	sp, sp, #16
 1056              		@ sp needed for prologue
 1057 0042 80BD     		pop	{r7, pc}
 1058              	.L77:
 1059              		.align	2
 1060              	.L76:
ARM GAS  C:\Users\maxk\AppData\Local\Temp\cc31oBTD.s 			page 33


 1061 0044 40010540 		.word	1074069824
 1062              		.cfi_endproc
 1063              	.LFE18:
 1064              		.size	PWM_G_SetCompareSwap, .-PWM_G_SetCompareSwap
 1065              		.section	.text.PWM_G_WritePeriodBuf,"ax",%progbits
 1066              		.align	2
 1067              		.global	PWM_G_WritePeriodBuf
 1068              		.code	16
 1069              		.thumb_func
 1070              		.type	PWM_G_WritePeriodBuf, %function
 1071              	PWM_G_WritePeriodBuf:
 1072              	.LFB19:
 761:.\Generated_Source\PSoC4/PWM_G.c **** 
 762:.\Generated_Source\PSoC4/PWM_G.c **** 
 763:.\Generated_Source\PSoC4/PWM_G.c **** /*******************************************************************************
 764:.\Generated_Source\PSoC4/PWM_G.c **** * Function Name: PWM_G_WritePeriodBuf
 765:.\Generated_Source\PSoC4/PWM_G.c **** ********************************************************************************
 766:.\Generated_Source\PSoC4/PWM_G.c **** *
 767:.\Generated_Source\PSoC4/PWM_G.c **** * Summary:
 768:.\Generated_Source\PSoC4/PWM_G.c **** *  Writes the 16 bit period buf register with the new period value.
 769:.\Generated_Source\PSoC4/PWM_G.c **** *
 770:.\Generated_Source\PSoC4/PWM_G.c **** * Parameters:
 771:.\Generated_Source\PSoC4/PWM_G.c **** *  periodBuf: Period value
 772:.\Generated_Source\PSoC4/PWM_G.c **** *
 773:.\Generated_Source\PSoC4/PWM_G.c **** * Return:
 774:.\Generated_Source\PSoC4/PWM_G.c **** *  None
 775:.\Generated_Source\PSoC4/PWM_G.c **** *
 776:.\Generated_Source\PSoC4/PWM_G.c **** *******************************************************************************/
 777:.\Generated_Source\PSoC4/PWM_G.c **** void PWM_G_WritePeriodBuf(uint32 periodBuf)
 778:.\Generated_Source\PSoC4/PWM_G.c **** {
 1073              		.loc 1 778 0
 1074              		.cfi_startproc
 1075 0000 80B5     		push	{r7, lr}
 1076              	.LCFI53:
 1077              		.cfi_def_cfa_offset 8
 1078              		.cfi_offset 7, -8
 1079              		.cfi_offset 14, -4
 1080 0002 82B0     		sub	sp, sp, #8
 1081              	.LCFI54:
 1082              		.cfi_def_cfa_offset 16
 1083 0004 00AF     		add	r7, sp, #0
 1084              	.LCFI55:
 1085              		.cfi_def_cfa_register 7
 1086 0006 7860     		str	r0, [r7, #4]
 779:.\Generated_Source\PSoC4/PWM_G.c ****     PWM_G_PERIOD_BUF_REG = (periodBuf & PWM_G_16BIT_MASK);
 1087              		.loc 1 779 0
 1088 0008 034B     		ldr	r3, .L80
 1089 000a 7A68     		ldr	r2, [r7, #4]
 1090 000c 1204     		lsl	r2, r2, #16
 1091 000e 120C     		lsr	r2, r2, #16
 1092 0010 1A60     		str	r2, [r3]
 780:.\Generated_Source\PSoC4/PWM_G.c **** }
 1093              		.loc 1 780 0
 1094 0012 BD46     		mov	sp, r7
 1095 0014 02B0     		add	sp, sp, #8
 1096              		@ sp needed for prologue
 1097 0016 80BD     		pop	{r7, pc}
ARM GAS  C:\Users\maxk\AppData\Local\Temp\cc31oBTD.s 			page 34


 1098              	.L81:
 1099              		.align	2
 1100              	.L80:
 1101 0018 58010540 		.word	1074069848
 1102              		.cfi_endproc
 1103              	.LFE19:
 1104              		.size	PWM_G_WritePeriodBuf, .-PWM_G_WritePeriodBuf
 1105              		.section	.text.PWM_G_ReadPeriodBuf,"ax",%progbits
 1106              		.align	2
 1107              		.global	PWM_G_ReadPeriodBuf
 1108              		.code	16
 1109              		.thumb_func
 1110              		.type	PWM_G_ReadPeriodBuf, %function
 1111              	PWM_G_ReadPeriodBuf:
 1112              	.LFB20:
 781:.\Generated_Source\PSoC4/PWM_G.c **** 
 782:.\Generated_Source\PSoC4/PWM_G.c **** 
 783:.\Generated_Source\PSoC4/PWM_G.c **** /*******************************************************************************
 784:.\Generated_Source\PSoC4/PWM_G.c **** * Function Name: PWM_G_ReadPeriodBuf
 785:.\Generated_Source\PSoC4/PWM_G.c **** ********************************************************************************
 786:.\Generated_Source\PSoC4/PWM_G.c **** *
 787:.\Generated_Source\PSoC4/PWM_G.c **** * Summary:
 788:.\Generated_Source\PSoC4/PWM_G.c **** *  Reads the 16 bit period buf register.
 789:.\Generated_Source\PSoC4/PWM_G.c **** *
 790:.\Generated_Source\PSoC4/PWM_G.c **** * Parameters:
 791:.\Generated_Source\PSoC4/PWM_G.c **** *  None
 792:.\Generated_Source\PSoC4/PWM_G.c **** *
 793:.\Generated_Source\PSoC4/PWM_G.c **** * Return:
 794:.\Generated_Source\PSoC4/PWM_G.c **** *  Period value
 795:.\Generated_Source\PSoC4/PWM_G.c **** *
 796:.\Generated_Source\PSoC4/PWM_G.c **** *******************************************************************************/
 797:.\Generated_Source\PSoC4/PWM_G.c **** uint32 PWM_G_ReadPeriodBuf(void)
 798:.\Generated_Source\PSoC4/PWM_G.c **** {
 1113              		.loc 1 798 0
 1114              		.cfi_startproc
 1115 0000 80B5     		push	{r7, lr}
 1116              	.LCFI56:
 1117              		.cfi_def_cfa_offset 8
 1118              		.cfi_offset 7, -8
 1119              		.cfi_offset 14, -4
 1120 0002 00AF     		add	r7, sp, #0
 1121              	.LCFI57:
 1122              		.cfi_def_cfa_register 7
 799:.\Generated_Source\PSoC4/PWM_G.c ****     return (PWM_G_PERIOD_BUF_REG & PWM_G_16BIT_MASK);
 1123              		.loc 1 799 0
 1124 0004 034B     		ldr	r3, .L84
 1125 0006 1B68     		ldr	r3, [r3]
 1126 0008 1B04     		lsl	r3, r3, #16
 1127 000a 1B0C     		lsr	r3, r3, #16
 800:.\Generated_Source\PSoC4/PWM_G.c **** }
 1128              		.loc 1 800 0
 1129 000c 181C     		mov	r0, r3
 1130 000e BD46     		mov	sp, r7
 1131              		@ sp needed for prologue
 1132 0010 80BD     		pop	{r7, pc}
 1133              	.L85:
 1134 0012 C046     		.align	2
ARM GAS  C:\Users\maxk\AppData\Local\Temp\cc31oBTD.s 			page 35


 1135              	.L84:
 1136 0014 58010540 		.word	1074069848
 1137              		.cfi_endproc
 1138              	.LFE20:
 1139              		.size	PWM_G_ReadPeriodBuf, .-PWM_G_ReadPeriodBuf
 1140              		.section	.text.PWM_G_SetPeriodSwap,"ax",%progbits
 1141              		.align	2
 1142              		.global	PWM_G_SetPeriodSwap
 1143              		.code	16
 1144              		.thumb_func
 1145              		.type	PWM_G_SetPeriodSwap, %function
 1146              	PWM_G_SetPeriodSwap:
 1147              	.LFB21:
 801:.\Generated_Source\PSoC4/PWM_G.c **** 
 802:.\Generated_Source\PSoC4/PWM_G.c **** 
 803:.\Generated_Source\PSoC4/PWM_G.c **** /*******************************************************************************
 804:.\Generated_Source\PSoC4/PWM_G.c **** * Function Name: PWM_G_SetPeriodSwap
 805:.\Generated_Source\PSoC4/PWM_G.c **** ********************************************************************************
 806:.\Generated_Source\PSoC4/PWM_G.c **** *
 807:.\Generated_Source\PSoC4/PWM_G.c **** * Summary:
 808:.\Generated_Source\PSoC4/PWM_G.c **** *  Writes the register that controls whether the period registers are
 809:.\Generated_Source\PSoC4/PWM_G.c **** *  swapped. When enabled in Timer/Counter mode the swap occurs at a TC event.
 810:.\Generated_Source\PSoC4/PWM_G.c **** *  In PWM mode the swap occurs at the next TC event following a hardware switch
 811:.\Generated_Source\PSoC4/PWM_G.c **** *  event.
 812:.\Generated_Source\PSoC4/PWM_G.c **** *
 813:.\Generated_Source\PSoC4/PWM_G.c **** * Parameters:
 814:.\Generated_Source\PSoC4/PWM_G.c **** *  swapEnable
 815:.\Generated_Source\PSoC4/PWM_G.c **** *   Values:
 816:.\Generated_Source\PSoC4/PWM_G.c **** *     - 0 - Disable swap
 817:.\Generated_Source\PSoC4/PWM_G.c **** *     - 1 - Enable swap
 818:.\Generated_Source\PSoC4/PWM_G.c **** *
 819:.\Generated_Source\PSoC4/PWM_G.c **** * Return:
 820:.\Generated_Source\PSoC4/PWM_G.c **** *  None
 821:.\Generated_Source\PSoC4/PWM_G.c **** *
 822:.\Generated_Source\PSoC4/PWM_G.c **** *******************************************************************************/
 823:.\Generated_Source\PSoC4/PWM_G.c **** void PWM_G_SetPeriodSwap(uint32 swapEnable)
 824:.\Generated_Source\PSoC4/PWM_G.c **** {
 1148              		.loc 1 824 0
 1149              		.cfi_startproc
 1150 0000 80B5     		push	{r7, lr}
 1151              	.LCFI58:
 1152              		.cfi_def_cfa_offset 8
 1153              		.cfi_offset 7, -8
 1154              		.cfi_offset 14, -4
 1155 0002 84B0     		sub	sp, sp, #16
 1156              	.LCFI59:
 1157              		.cfi_def_cfa_offset 24
 1158 0004 00AF     		add	r7, sp, #0
 1159              	.LCFI60:
 1160              		.cfi_def_cfa_register 7
 1161 0006 7860     		str	r0, [r7, #4]
 825:.\Generated_Source\PSoC4/PWM_G.c ****     uint8 enableInterrupts;
 826:.\Generated_Source\PSoC4/PWM_G.c **** 
 827:.\Generated_Source\PSoC4/PWM_G.c ****     enableInterrupts = CyEnterCriticalSection();
 1162              		.loc 1 827 0
 1163 0008 FFF7FEFF 		bl	CyEnterCriticalSection
 1164 000c 031C     		mov	r3, r0
ARM GAS  C:\Users\maxk\AppData\Local\Temp\cc31oBTD.s 			page 36


 1165 000e 1A1C     		mov	r2, r3
 1166 0010 3B1C     		mov	r3, r7
 1167 0012 0F33     		add	r3, r3, #15
 1168 0014 1A70     		strb	r2, [r3]
 828:.\Generated_Source\PSoC4/PWM_G.c **** 
 829:.\Generated_Source\PSoC4/PWM_G.c ****     PWM_G_CONTROL_REG &= (uint32)~PWM_G_RELOAD_PERIOD_MASK;
 1169              		.loc 1 829 0
 1170 0016 0C4B     		ldr	r3, .L88
 1171 0018 0B4A     		ldr	r2, .L88
 1172 001a 1268     		ldr	r2, [r2]
 1173 001c 0221     		mov	r1, #2
 1174 001e 8A43     		bic	r2, r2, r1
 1175 0020 1A60     		str	r2, [r3]
 830:.\Generated_Source\PSoC4/PWM_G.c ****     PWM_G_CONTROL_REG |= ((uint32)((swapEnable & PWM_G_1BIT_MASK) <<
 1176              		.loc 1 830 0
 1177 0022 094B     		ldr	r3, .L88
 1178 0024 084A     		ldr	r2, .L88
 1179 0026 1168     		ldr	r1, [r2]
 1180 0028 7868     		ldr	r0, [r7, #4]
 1181 002a 0122     		mov	r2, #1
 1182 002c 0240     		and	r2, r2, r0
 1183 002e 5200     		lsl	r2, r2, #1
 1184 0030 0A43     		orr	r2, r2, r1
 1185 0032 1A60     		str	r2, [r3]
 831:.\Generated_Source\PSoC4/PWM_G.c ****                                                             PWM_G_RELOAD_PERIOD_SHIFT));
 832:.\Generated_Source\PSoC4/PWM_G.c **** 
 833:.\Generated_Source\PSoC4/PWM_G.c ****     CyExitCriticalSection(enableInterrupts);
 1186              		.loc 1 833 0
 1187 0034 3B1C     		mov	r3, r7
 1188 0036 0F33     		add	r3, r3, #15
 1189 0038 1B78     		ldrb	r3, [r3]
 1190 003a 181C     		mov	r0, r3
 1191 003c FFF7FEFF 		bl	CyExitCriticalSection
 834:.\Generated_Source\PSoC4/PWM_G.c **** }
 1192              		.loc 1 834 0
 1193 0040 BD46     		mov	sp, r7
 1194 0042 04B0     		add	sp, sp, #16
 1195              		@ sp needed for prologue
 1196 0044 80BD     		pop	{r7, pc}
 1197              	.L89:
 1198 0046 C046     		.align	2
 1199              	.L88:
 1200 0048 40010540 		.word	1074069824
 1201              		.cfi_endproc
 1202              	.LFE21:
 1203              		.size	PWM_G_SetPeriodSwap, .-PWM_G_SetPeriodSwap
 1204              		.section	.text.PWM_G_WriteCompare,"ax",%progbits
 1205              		.align	2
 1206              		.global	PWM_G_WriteCompare
 1207              		.code	16
 1208              		.thumb_func
 1209              		.type	PWM_G_WriteCompare, %function
 1210              	PWM_G_WriteCompare:
 1211              	.LFB22:
 835:.\Generated_Source\PSoC4/PWM_G.c **** 
 836:.\Generated_Source\PSoC4/PWM_G.c **** 
 837:.\Generated_Source\PSoC4/PWM_G.c **** /*******************************************************************************
ARM GAS  C:\Users\maxk\AppData\Local\Temp\cc31oBTD.s 			page 37


 838:.\Generated_Source\PSoC4/PWM_G.c **** * Function Name: PWM_G_WriteCompare
 839:.\Generated_Source\PSoC4/PWM_G.c **** ********************************************************************************
 840:.\Generated_Source\PSoC4/PWM_G.c **** *
 841:.\Generated_Source\PSoC4/PWM_G.c **** * Summary:
 842:.\Generated_Source\PSoC4/PWM_G.c **** *  Writes the 16 bit compare register with the new compare value. Not
 843:.\Generated_Source\PSoC4/PWM_G.c **** *  applicable for Timer/Counter with Capture or in Quadrature Decoder modes.
 844:.\Generated_Source\PSoC4/PWM_G.c **** *
 845:.\Generated_Source\PSoC4/PWM_G.c **** * Parameters:
 846:.\Generated_Source\PSoC4/PWM_G.c **** *  compare: Compare value
 847:.\Generated_Source\PSoC4/PWM_G.c **** *
 848:.\Generated_Source\PSoC4/PWM_G.c **** * Return:
 849:.\Generated_Source\PSoC4/PWM_G.c **** *  None
 850:.\Generated_Source\PSoC4/PWM_G.c **** *
 851:.\Generated_Source\PSoC4/PWM_G.c **** *******************************************************************************/
 852:.\Generated_Source\PSoC4/PWM_G.c **** void PWM_G_WriteCompare(uint32 compare)
 853:.\Generated_Source\PSoC4/PWM_G.c **** {
 1212              		.loc 1 853 0
 1213              		.cfi_startproc
 1214 0000 80B5     		push	{r7, lr}
 1215              	.LCFI61:
 1216              		.cfi_def_cfa_offset 8
 1217              		.cfi_offset 7, -8
 1218              		.cfi_offset 14, -4
 1219 0002 82B0     		sub	sp, sp, #8
 1220              	.LCFI62:
 1221              		.cfi_def_cfa_offset 16
 1222 0004 00AF     		add	r7, sp, #0
 1223              	.LCFI63:
 1224              		.cfi_def_cfa_register 7
 1225 0006 7860     		str	r0, [r7, #4]
 854:.\Generated_Source\PSoC4/PWM_G.c ****     PWM_G_COMP_CAP_REG = (compare & PWM_G_16BIT_MASK);
 1226              		.loc 1 854 0
 1227 0008 034B     		ldr	r3, .L92
 1228 000a 7A68     		ldr	r2, [r7, #4]
 1229 000c 1204     		lsl	r2, r2, #16
 1230 000e 120C     		lsr	r2, r2, #16
 1231 0010 1A60     		str	r2, [r3]
 855:.\Generated_Source\PSoC4/PWM_G.c **** }
 1232              		.loc 1 855 0
 1233 0012 BD46     		mov	sp, r7
 1234 0014 02B0     		add	sp, sp, #8
 1235              		@ sp needed for prologue
 1236 0016 80BD     		pop	{r7, pc}
 1237              	.L93:
 1238              		.align	2
 1239              	.L92:
 1240 0018 4C010540 		.word	1074069836
 1241              		.cfi_endproc
 1242              	.LFE22:
 1243              		.size	PWM_G_WriteCompare, .-PWM_G_WriteCompare
 1244              		.section	.text.PWM_G_ReadCompare,"ax",%progbits
 1245              		.align	2
 1246              		.global	PWM_G_ReadCompare
 1247              		.code	16
 1248              		.thumb_func
 1249              		.type	PWM_G_ReadCompare, %function
 1250              	PWM_G_ReadCompare:
ARM GAS  C:\Users\maxk\AppData\Local\Temp\cc31oBTD.s 			page 38


 1251              	.LFB23:
 856:.\Generated_Source\PSoC4/PWM_G.c **** 
 857:.\Generated_Source\PSoC4/PWM_G.c **** 
 858:.\Generated_Source\PSoC4/PWM_G.c **** /*******************************************************************************
 859:.\Generated_Source\PSoC4/PWM_G.c **** * Function Name: PWM_G_ReadCompare
 860:.\Generated_Source\PSoC4/PWM_G.c **** ********************************************************************************
 861:.\Generated_Source\PSoC4/PWM_G.c **** *
 862:.\Generated_Source\PSoC4/PWM_G.c **** * Summary:
 863:.\Generated_Source\PSoC4/PWM_G.c **** *  Reads the compare register. Not applicable for Timer/Counter with Capture
 864:.\Generated_Source\PSoC4/PWM_G.c **** *  or in Quadrature Decoder modes.
 865:.\Generated_Source\PSoC4/PWM_G.c **** *
 866:.\Generated_Source\PSoC4/PWM_G.c **** * Parameters:
 867:.\Generated_Source\PSoC4/PWM_G.c **** *  None
 868:.\Generated_Source\PSoC4/PWM_G.c **** *
 869:.\Generated_Source\PSoC4/PWM_G.c **** * Return:
 870:.\Generated_Source\PSoC4/PWM_G.c **** *  Compare value
 871:.\Generated_Source\PSoC4/PWM_G.c **** *
 872:.\Generated_Source\PSoC4/PWM_G.c **** *******************************************************************************/
 873:.\Generated_Source\PSoC4/PWM_G.c **** uint32 PWM_G_ReadCompare(void)
 874:.\Generated_Source\PSoC4/PWM_G.c **** {
 1252              		.loc 1 874 0
 1253              		.cfi_startproc
 1254 0000 80B5     		push	{r7, lr}
 1255              	.LCFI64:
 1256              		.cfi_def_cfa_offset 8
 1257              		.cfi_offset 7, -8
 1258              		.cfi_offset 14, -4
 1259 0002 00AF     		add	r7, sp, #0
 1260              	.LCFI65:
 1261              		.cfi_def_cfa_register 7
 875:.\Generated_Source\PSoC4/PWM_G.c ****     return (PWM_G_COMP_CAP_REG & PWM_G_16BIT_MASK);
 1262              		.loc 1 875 0
 1263 0004 034B     		ldr	r3, .L96
 1264 0006 1B68     		ldr	r3, [r3]
 1265 0008 1B04     		lsl	r3, r3, #16
 1266 000a 1B0C     		lsr	r3, r3, #16
 876:.\Generated_Source\PSoC4/PWM_G.c **** }
 1267              		.loc 1 876 0
 1268 000c 181C     		mov	r0, r3
 1269 000e BD46     		mov	sp, r7
 1270              		@ sp needed for prologue
 1271 0010 80BD     		pop	{r7, pc}
 1272              	.L97:
 1273 0012 C046     		.align	2
 1274              	.L96:
 1275 0014 4C010540 		.word	1074069836
 1276              		.cfi_endproc
 1277              	.LFE23:
 1278              		.size	PWM_G_ReadCompare, .-PWM_G_ReadCompare
 1279              		.section	.text.PWM_G_WriteCompareBuf,"ax",%progbits
 1280              		.align	2
 1281              		.global	PWM_G_WriteCompareBuf
 1282              		.code	16
 1283              		.thumb_func
 1284              		.type	PWM_G_WriteCompareBuf, %function
 1285              	PWM_G_WriteCompareBuf:
 1286              	.LFB24:
ARM GAS  C:\Users\maxk\AppData\Local\Temp\cc31oBTD.s 			page 39


 877:.\Generated_Source\PSoC4/PWM_G.c **** 
 878:.\Generated_Source\PSoC4/PWM_G.c **** 
 879:.\Generated_Source\PSoC4/PWM_G.c **** /*******************************************************************************
 880:.\Generated_Source\PSoC4/PWM_G.c **** * Function Name: PWM_G_WriteCompareBuf
 881:.\Generated_Source\PSoC4/PWM_G.c **** ********************************************************************************
 882:.\Generated_Source\PSoC4/PWM_G.c **** *
 883:.\Generated_Source\PSoC4/PWM_G.c **** * Summary:
 884:.\Generated_Source\PSoC4/PWM_G.c **** *  Writes the 16 bit compare buffer register with the new compare value. Not
 885:.\Generated_Source\PSoC4/PWM_G.c **** *  applicable for Timer/Counter with Capture or in Quadrature Decoder modes.
 886:.\Generated_Source\PSoC4/PWM_G.c **** *
 887:.\Generated_Source\PSoC4/PWM_G.c **** * Parameters:
 888:.\Generated_Source\PSoC4/PWM_G.c **** *  compareBuf: Compare value
 889:.\Generated_Source\PSoC4/PWM_G.c **** *
 890:.\Generated_Source\PSoC4/PWM_G.c **** * Return:
 891:.\Generated_Source\PSoC4/PWM_G.c **** *  None
 892:.\Generated_Source\PSoC4/PWM_G.c **** *
 893:.\Generated_Source\PSoC4/PWM_G.c **** *******************************************************************************/
 894:.\Generated_Source\PSoC4/PWM_G.c **** void PWM_G_WriteCompareBuf(uint32 compareBuf)
 895:.\Generated_Source\PSoC4/PWM_G.c **** {
 1287              		.loc 1 895 0
 1288              		.cfi_startproc
 1289 0000 80B5     		push	{r7, lr}
 1290              	.LCFI66:
 1291              		.cfi_def_cfa_offset 8
 1292              		.cfi_offset 7, -8
 1293              		.cfi_offset 14, -4
 1294 0002 82B0     		sub	sp, sp, #8
 1295              	.LCFI67:
 1296              		.cfi_def_cfa_offset 16
 1297 0004 00AF     		add	r7, sp, #0
 1298              	.LCFI68:
 1299              		.cfi_def_cfa_register 7
 1300 0006 7860     		str	r0, [r7, #4]
 896:.\Generated_Source\PSoC4/PWM_G.c ****    PWM_G_COMP_CAP_BUF_REG = (compareBuf & PWM_G_16BIT_MASK);
 1301              		.loc 1 896 0
 1302 0008 034B     		ldr	r3, .L100
 1303 000a 7A68     		ldr	r2, [r7, #4]
 1304 000c 1204     		lsl	r2, r2, #16
 1305 000e 120C     		lsr	r2, r2, #16
 1306 0010 1A60     		str	r2, [r3]
 897:.\Generated_Source\PSoC4/PWM_G.c **** }
 1307              		.loc 1 897 0
 1308 0012 BD46     		mov	sp, r7
 1309 0014 02B0     		add	sp, sp, #8
 1310              		@ sp needed for prologue
 1311 0016 80BD     		pop	{r7, pc}
 1312              	.L101:
 1313              		.align	2
 1314              	.L100:
 1315 0018 50010540 		.word	1074069840
 1316              		.cfi_endproc
 1317              	.LFE24:
 1318              		.size	PWM_G_WriteCompareBuf, .-PWM_G_WriteCompareBuf
 1319              		.section	.text.PWM_G_ReadCompareBuf,"ax",%progbits
 1320              		.align	2
 1321              		.global	PWM_G_ReadCompareBuf
 1322              		.code	16
ARM GAS  C:\Users\maxk\AppData\Local\Temp\cc31oBTD.s 			page 40


 1323              		.thumb_func
 1324              		.type	PWM_G_ReadCompareBuf, %function
 1325              	PWM_G_ReadCompareBuf:
 1326              	.LFB25:
 898:.\Generated_Source\PSoC4/PWM_G.c **** 
 899:.\Generated_Source\PSoC4/PWM_G.c **** 
 900:.\Generated_Source\PSoC4/PWM_G.c **** /*******************************************************************************
 901:.\Generated_Source\PSoC4/PWM_G.c **** * Function Name: PWM_G_ReadCompareBuf
 902:.\Generated_Source\PSoC4/PWM_G.c **** ********************************************************************************
 903:.\Generated_Source\PSoC4/PWM_G.c **** *
 904:.\Generated_Source\PSoC4/PWM_G.c **** * Summary:
 905:.\Generated_Source\PSoC4/PWM_G.c **** *  Reads the compare buffer register. Not applicable for Timer/Counter with
 906:.\Generated_Source\PSoC4/PWM_G.c **** *  Capture or in Quadrature Decoder modes.
 907:.\Generated_Source\PSoC4/PWM_G.c **** *
 908:.\Generated_Source\PSoC4/PWM_G.c **** * Parameters:
 909:.\Generated_Source\PSoC4/PWM_G.c **** *  None
 910:.\Generated_Source\PSoC4/PWM_G.c **** *
 911:.\Generated_Source\PSoC4/PWM_G.c **** * Return:
 912:.\Generated_Source\PSoC4/PWM_G.c **** *  Compare buffer value
 913:.\Generated_Source\PSoC4/PWM_G.c **** *
 914:.\Generated_Source\PSoC4/PWM_G.c **** *******************************************************************************/
 915:.\Generated_Source\PSoC4/PWM_G.c **** uint32 PWM_G_ReadCompareBuf(void)
 916:.\Generated_Source\PSoC4/PWM_G.c **** {
 1327              		.loc 1 916 0
 1328              		.cfi_startproc
 1329 0000 80B5     		push	{r7, lr}
 1330              	.LCFI69:
 1331              		.cfi_def_cfa_offset 8
 1332              		.cfi_offset 7, -8
 1333              		.cfi_offset 14, -4
 1334 0002 00AF     		add	r7, sp, #0
 1335              	.LCFI70:
 1336              		.cfi_def_cfa_register 7
 917:.\Generated_Source\PSoC4/PWM_G.c ****     return (PWM_G_COMP_CAP_BUF_REG & PWM_G_16BIT_MASK);
 1337              		.loc 1 917 0
 1338 0004 034B     		ldr	r3, .L104
 1339 0006 1B68     		ldr	r3, [r3]
 1340 0008 1B04     		lsl	r3, r3, #16
 1341 000a 1B0C     		lsr	r3, r3, #16
 918:.\Generated_Source\PSoC4/PWM_G.c **** }
 1342              		.loc 1 918 0
 1343 000c 181C     		mov	r0, r3
 1344 000e BD46     		mov	sp, r7
 1345              		@ sp needed for prologue
 1346 0010 80BD     		pop	{r7, pc}
 1347              	.L105:
 1348 0012 C046     		.align	2
 1349              	.L104:
 1350 0014 50010540 		.word	1074069840
 1351              		.cfi_endproc
 1352              	.LFE25:
 1353              		.size	PWM_G_ReadCompareBuf, .-PWM_G_ReadCompareBuf
 1354              		.section	.text.PWM_G_ReadCapture,"ax",%progbits
 1355              		.align	2
 1356              		.global	PWM_G_ReadCapture
 1357              		.code	16
 1358              		.thumb_func
ARM GAS  C:\Users\maxk\AppData\Local\Temp\cc31oBTD.s 			page 41


 1359              		.type	PWM_G_ReadCapture, %function
 1360              	PWM_G_ReadCapture:
 1361              	.LFB26:
 919:.\Generated_Source\PSoC4/PWM_G.c **** 
 920:.\Generated_Source\PSoC4/PWM_G.c **** 
 921:.\Generated_Source\PSoC4/PWM_G.c **** /*******************************************************************************
 922:.\Generated_Source\PSoC4/PWM_G.c **** * Function Name: PWM_G_ReadCapture
 923:.\Generated_Source\PSoC4/PWM_G.c **** ********************************************************************************
 924:.\Generated_Source\PSoC4/PWM_G.c **** *
 925:.\Generated_Source\PSoC4/PWM_G.c **** * Summary:
 926:.\Generated_Source\PSoC4/PWM_G.c **** *  Reads the captured counter value. This API is applicable only for
 927:.\Generated_Source\PSoC4/PWM_G.c **** *  Timer/Counter with capture mode and Quadrature Decoder modes.
 928:.\Generated_Source\PSoC4/PWM_G.c **** *
 929:.\Generated_Source\PSoC4/PWM_G.c **** * Parameters:
 930:.\Generated_Source\PSoC4/PWM_G.c **** *  None
 931:.\Generated_Source\PSoC4/PWM_G.c **** *
 932:.\Generated_Source\PSoC4/PWM_G.c **** * Return:
 933:.\Generated_Source\PSoC4/PWM_G.c **** *  Capture value
 934:.\Generated_Source\PSoC4/PWM_G.c **** *
 935:.\Generated_Source\PSoC4/PWM_G.c **** *******************************************************************************/
 936:.\Generated_Source\PSoC4/PWM_G.c **** uint32 PWM_G_ReadCapture(void)
 937:.\Generated_Source\PSoC4/PWM_G.c **** {
 1362              		.loc 1 937 0
 1363              		.cfi_startproc
 1364 0000 80B5     		push	{r7, lr}
 1365              	.LCFI71:
 1366              		.cfi_def_cfa_offset 8
 1367              		.cfi_offset 7, -8
 1368              		.cfi_offset 14, -4
 1369 0002 00AF     		add	r7, sp, #0
 1370              	.LCFI72:
 1371              		.cfi_def_cfa_register 7
 938:.\Generated_Source\PSoC4/PWM_G.c ****     return (PWM_G_COMP_CAP_REG & PWM_G_16BIT_MASK);
 1372              		.loc 1 938 0
 1373 0004 034B     		ldr	r3, .L108
 1374 0006 1B68     		ldr	r3, [r3]
 1375 0008 1B04     		lsl	r3, r3, #16
 1376 000a 1B0C     		lsr	r3, r3, #16
 939:.\Generated_Source\PSoC4/PWM_G.c **** }
 1377              		.loc 1 939 0
 1378 000c 181C     		mov	r0, r3
 1379 000e BD46     		mov	sp, r7
 1380              		@ sp needed for prologue
 1381 0010 80BD     		pop	{r7, pc}
 1382              	.L109:
 1383 0012 C046     		.align	2
 1384              	.L108:
 1385 0014 4C010540 		.word	1074069836
 1386              		.cfi_endproc
 1387              	.LFE26:
 1388              		.size	PWM_G_ReadCapture, .-PWM_G_ReadCapture
 1389              		.section	.text.PWM_G_ReadCaptureBuf,"ax",%progbits
 1390              		.align	2
 1391              		.global	PWM_G_ReadCaptureBuf
 1392              		.code	16
 1393              		.thumb_func
 1394              		.type	PWM_G_ReadCaptureBuf, %function
ARM GAS  C:\Users\maxk\AppData\Local\Temp\cc31oBTD.s 			page 42


 1395              	PWM_G_ReadCaptureBuf:
 1396              	.LFB27:
 940:.\Generated_Source\PSoC4/PWM_G.c **** 
 941:.\Generated_Source\PSoC4/PWM_G.c **** 
 942:.\Generated_Source\PSoC4/PWM_G.c **** /*******************************************************************************
 943:.\Generated_Source\PSoC4/PWM_G.c **** * Function Name: PWM_G_ReadCaptureBuf
 944:.\Generated_Source\PSoC4/PWM_G.c **** ********************************************************************************
 945:.\Generated_Source\PSoC4/PWM_G.c **** *
 946:.\Generated_Source\PSoC4/PWM_G.c **** * Summary:
 947:.\Generated_Source\PSoC4/PWM_G.c **** *  Reads the capture buffer register. This API is applicable only for
 948:.\Generated_Source\PSoC4/PWM_G.c **** *  Timer/Counter with capture mode and Quadrature Decoder modes.
 949:.\Generated_Source\PSoC4/PWM_G.c **** *
 950:.\Generated_Source\PSoC4/PWM_G.c **** * Parameters:
 951:.\Generated_Source\PSoC4/PWM_G.c **** *  None
 952:.\Generated_Source\PSoC4/PWM_G.c **** *
 953:.\Generated_Source\PSoC4/PWM_G.c **** * Return:
 954:.\Generated_Source\PSoC4/PWM_G.c **** *  Capture buffer value
 955:.\Generated_Source\PSoC4/PWM_G.c **** *
 956:.\Generated_Source\PSoC4/PWM_G.c **** *******************************************************************************/
 957:.\Generated_Source\PSoC4/PWM_G.c **** uint32 PWM_G_ReadCaptureBuf(void)
 958:.\Generated_Source\PSoC4/PWM_G.c **** {
 1397              		.loc 1 958 0
 1398              		.cfi_startproc
 1399 0000 80B5     		push	{r7, lr}
 1400              	.LCFI73:
 1401              		.cfi_def_cfa_offset 8
 1402              		.cfi_offset 7, -8
 1403              		.cfi_offset 14, -4
 1404 0002 00AF     		add	r7, sp, #0
 1405              	.LCFI74:
 1406              		.cfi_def_cfa_register 7
 959:.\Generated_Source\PSoC4/PWM_G.c ****     return (PWM_G_COMP_CAP_BUF_REG & PWM_G_16BIT_MASK);
 1407              		.loc 1 959 0
 1408 0004 034B     		ldr	r3, .L112
 1409 0006 1B68     		ldr	r3, [r3]
 1410 0008 1B04     		lsl	r3, r3, #16
 1411 000a 1B0C     		lsr	r3, r3, #16
 960:.\Generated_Source\PSoC4/PWM_G.c **** }
 1412              		.loc 1 960 0
 1413 000c 181C     		mov	r0, r3
 1414 000e BD46     		mov	sp, r7
 1415              		@ sp needed for prologue
 1416 0010 80BD     		pop	{r7, pc}
 1417              	.L113:
 1418 0012 C046     		.align	2
 1419              	.L112:
 1420 0014 50010540 		.word	1074069840
 1421              		.cfi_endproc
 1422              	.LFE27:
 1423              		.size	PWM_G_ReadCaptureBuf, .-PWM_G_ReadCaptureBuf
 1424              		.section	.text.PWM_G_SetCaptureMode,"ax",%progbits
 1425              		.align	2
 1426              		.global	PWM_G_SetCaptureMode
 1427              		.code	16
 1428              		.thumb_func
 1429              		.type	PWM_G_SetCaptureMode, %function
 1430              	PWM_G_SetCaptureMode:
ARM GAS  C:\Users\maxk\AppData\Local\Temp\cc31oBTD.s 			page 43


 1431              	.LFB28:
 961:.\Generated_Source\PSoC4/PWM_G.c **** 
 962:.\Generated_Source\PSoC4/PWM_G.c **** 
 963:.\Generated_Source\PSoC4/PWM_G.c **** /*******************************************************************************
 964:.\Generated_Source\PSoC4/PWM_G.c **** * Function Name: PWM_G_SetCaptureMode
 965:.\Generated_Source\PSoC4/PWM_G.c **** ********************************************************************************
 966:.\Generated_Source\PSoC4/PWM_G.c **** *
 967:.\Generated_Source\PSoC4/PWM_G.c **** * Summary:
 968:.\Generated_Source\PSoC4/PWM_G.c **** *  Sets the capture trigger mode. For PWM mode this is the switch input.
 969:.\Generated_Source\PSoC4/PWM_G.c **** *  This input is not applicable to the Timer/Counter without Capture and
 970:.\Generated_Source\PSoC4/PWM_G.c **** *  Quadrature Decoder modes.
 971:.\Generated_Source\PSoC4/PWM_G.c **** *
 972:.\Generated_Source\PSoC4/PWM_G.c **** * Parameters:
 973:.\Generated_Source\PSoC4/PWM_G.c **** *  triggerMode: Enumerated trigger mode value
 974:.\Generated_Source\PSoC4/PWM_G.c **** *   Values:
 975:.\Generated_Source\PSoC4/PWM_G.c **** *     - PWM_G_TRIG_LEVEL     - Level
 976:.\Generated_Source\PSoC4/PWM_G.c **** *     - PWM_G_TRIG_RISING    - Rising edge
 977:.\Generated_Source\PSoC4/PWM_G.c **** *     - PWM_G_TRIG_FALLING   - Falling edge
 978:.\Generated_Source\PSoC4/PWM_G.c **** *     - PWM_G_TRIG_BOTH      - Both rising and falling edge
 979:.\Generated_Source\PSoC4/PWM_G.c **** *
 980:.\Generated_Source\PSoC4/PWM_G.c **** * Return:
 981:.\Generated_Source\PSoC4/PWM_G.c **** *  None
 982:.\Generated_Source\PSoC4/PWM_G.c **** *
 983:.\Generated_Source\PSoC4/PWM_G.c **** *******************************************************************************/
 984:.\Generated_Source\PSoC4/PWM_G.c **** void PWM_G_SetCaptureMode(uint32 triggerMode)
 985:.\Generated_Source\PSoC4/PWM_G.c **** {
 1432              		.loc 1 985 0
 1433              		.cfi_startproc
 1434 0000 80B5     		push	{r7, lr}
 1435              	.LCFI75:
 1436              		.cfi_def_cfa_offset 8
 1437              		.cfi_offset 7, -8
 1438              		.cfi_offset 14, -4
 1439 0002 84B0     		sub	sp, sp, #16
 1440              	.LCFI76:
 1441              		.cfi_def_cfa_offset 24
 1442 0004 00AF     		add	r7, sp, #0
 1443              	.LCFI77:
 1444              		.cfi_def_cfa_register 7
 1445 0006 7860     		str	r0, [r7, #4]
 986:.\Generated_Source\PSoC4/PWM_G.c ****     uint8 enableInterrupts;
 987:.\Generated_Source\PSoC4/PWM_G.c **** 
 988:.\Generated_Source\PSoC4/PWM_G.c ****     enableInterrupts = CyEnterCriticalSection();
 1446              		.loc 1 988 0
 1447 0008 FFF7FEFF 		bl	CyEnterCriticalSection
 1448 000c 031C     		mov	r3, r0
 1449 000e 1A1C     		mov	r2, r3
 1450 0010 3B1C     		mov	r3, r7
 1451 0012 0F33     		add	r3, r3, #15
 1452 0014 1A70     		strb	r2, [r3]
 989:.\Generated_Source\PSoC4/PWM_G.c **** 
 990:.\Generated_Source\PSoC4/PWM_G.c ****     PWM_G_TRIG_CONTROL1_REG &= (uint32)~PWM_G_CAPTURE_MASK;
 1453              		.loc 1 990 0
 1454 0016 0A4B     		ldr	r3, .L116
 1455 0018 094A     		ldr	r2, .L116
 1456 001a 1268     		ldr	r2, [r2]
 1457 001c 0321     		mov	r1, #3
ARM GAS  C:\Users\maxk\AppData\Local\Temp\cc31oBTD.s 			page 44


 1458 001e 8A43     		bic	r2, r2, r1
 1459 0020 1A60     		str	r2, [r3]
 991:.\Generated_Source\PSoC4/PWM_G.c ****     PWM_G_TRIG_CONTROL1_REG |= triggerMode;
 1460              		.loc 1 991 0
 1461 0022 074B     		ldr	r3, .L116
 1462 0024 064A     		ldr	r2, .L116
 1463 0026 1168     		ldr	r1, [r2]
 1464 0028 7A68     		ldr	r2, [r7, #4]
 1465 002a 0A43     		orr	r2, r2, r1
 1466 002c 1A60     		str	r2, [r3]
 992:.\Generated_Source\PSoC4/PWM_G.c **** 
 993:.\Generated_Source\PSoC4/PWM_G.c ****     CyExitCriticalSection(enableInterrupts);
 1467              		.loc 1 993 0
 1468 002e 3B1C     		mov	r3, r7
 1469 0030 0F33     		add	r3, r3, #15
 1470 0032 1B78     		ldrb	r3, [r3]
 1471 0034 181C     		mov	r0, r3
 1472 0036 FFF7FEFF 		bl	CyExitCriticalSection
 994:.\Generated_Source\PSoC4/PWM_G.c **** }
 1473              		.loc 1 994 0
 1474 003a BD46     		mov	sp, r7
 1475 003c 04B0     		add	sp, sp, #16
 1476              		@ sp needed for prologue
 1477 003e 80BD     		pop	{r7, pc}
 1478              	.L117:
 1479              		.align	2
 1480              	.L116:
 1481 0040 64010540 		.word	1074069860
 1482              		.cfi_endproc
 1483              	.LFE28:
 1484              		.size	PWM_G_SetCaptureMode, .-PWM_G_SetCaptureMode
 1485              		.section	.text.PWM_G_SetReloadMode,"ax",%progbits
 1486              		.align	2
 1487              		.global	PWM_G_SetReloadMode
 1488              		.code	16
 1489              		.thumb_func
 1490              		.type	PWM_G_SetReloadMode, %function
 1491              	PWM_G_SetReloadMode:
 1492              	.LFB29:
 995:.\Generated_Source\PSoC4/PWM_G.c **** 
 996:.\Generated_Source\PSoC4/PWM_G.c **** 
 997:.\Generated_Source\PSoC4/PWM_G.c **** /*******************************************************************************
 998:.\Generated_Source\PSoC4/PWM_G.c **** * Function Name: PWM_G_SetReloadMode
 999:.\Generated_Source\PSoC4/PWM_G.c **** ********************************************************************************
1000:.\Generated_Source\PSoC4/PWM_G.c **** *
1001:.\Generated_Source\PSoC4/PWM_G.c **** * Summary:
1002:.\Generated_Source\PSoC4/PWM_G.c **** *  Sets the reload trigger mode. For Quadrature Decoder mode this is the index
1003:.\Generated_Source\PSoC4/PWM_G.c **** *  input.
1004:.\Generated_Source\PSoC4/PWM_G.c **** *
1005:.\Generated_Source\PSoC4/PWM_G.c **** * Parameters:
1006:.\Generated_Source\PSoC4/PWM_G.c **** *  triggerMode: Enumerated trigger mode value
1007:.\Generated_Source\PSoC4/PWM_G.c **** *   Values:
1008:.\Generated_Source\PSoC4/PWM_G.c **** *     - PWM_G_TRIG_LEVEL     - Level
1009:.\Generated_Source\PSoC4/PWM_G.c **** *     - PWM_G_TRIG_RISING    - Rising edge
1010:.\Generated_Source\PSoC4/PWM_G.c **** *     - PWM_G_TRIG_FALLING   - Falling edge
1011:.\Generated_Source\PSoC4/PWM_G.c **** *     - PWM_G_TRIG_BOTH      - Both rising and falling edge
1012:.\Generated_Source\PSoC4/PWM_G.c **** *
ARM GAS  C:\Users\maxk\AppData\Local\Temp\cc31oBTD.s 			page 45


1013:.\Generated_Source\PSoC4/PWM_G.c **** * Return:
1014:.\Generated_Source\PSoC4/PWM_G.c **** *  None
1015:.\Generated_Source\PSoC4/PWM_G.c **** *
1016:.\Generated_Source\PSoC4/PWM_G.c **** *******************************************************************************/
1017:.\Generated_Source\PSoC4/PWM_G.c **** void PWM_G_SetReloadMode(uint32 triggerMode)
1018:.\Generated_Source\PSoC4/PWM_G.c **** {
 1493              		.loc 1 1018 0
 1494              		.cfi_startproc
 1495 0000 80B5     		push	{r7, lr}
 1496              	.LCFI78:
 1497              		.cfi_def_cfa_offset 8
 1498              		.cfi_offset 7, -8
 1499              		.cfi_offset 14, -4
 1500 0002 84B0     		sub	sp, sp, #16
 1501              	.LCFI79:
 1502              		.cfi_def_cfa_offset 24
 1503 0004 00AF     		add	r7, sp, #0
 1504              	.LCFI80:
 1505              		.cfi_def_cfa_register 7
 1506 0006 7860     		str	r0, [r7, #4]
1019:.\Generated_Source\PSoC4/PWM_G.c ****     uint8 enableInterrupts;
1020:.\Generated_Source\PSoC4/PWM_G.c **** 
1021:.\Generated_Source\PSoC4/PWM_G.c ****     enableInterrupts = CyEnterCriticalSection();
 1507              		.loc 1 1021 0
 1508 0008 FFF7FEFF 		bl	CyEnterCriticalSection
 1509 000c 031C     		mov	r3, r0
 1510 000e 1A1C     		mov	r2, r3
 1511 0010 3B1C     		mov	r3, r7
 1512 0012 0F33     		add	r3, r3, #15
 1513 0014 1A70     		strb	r2, [r3]
1022:.\Generated_Source\PSoC4/PWM_G.c **** 
1023:.\Generated_Source\PSoC4/PWM_G.c ****     PWM_G_TRIG_CONTROL1_REG &= (uint32)~PWM_G_RELOAD_MASK;
 1514              		.loc 1 1023 0
 1515 0016 0B4B     		ldr	r3, .L120
 1516 0018 0A4A     		ldr	r2, .L120
 1517 001a 1268     		ldr	r2, [r2]
 1518 001c 3021     		mov	r1, #48
 1519 001e 8A43     		bic	r2, r2, r1
 1520 0020 1A60     		str	r2, [r3]
1024:.\Generated_Source\PSoC4/PWM_G.c ****     PWM_G_TRIG_CONTROL1_REG |= ((uint32)(triggerMode << PWM_G_RELOAD_SHIFT));
 1521              		.loc 1 1024 0
 1522 0022 084B     		ldr	r3, .L120
 1523 0024 074A     		ldr	r2, .L120
 1524 0026 1168     		ldr	r1, [r2]
 1525 0028 7A68     		ldr	r2, [r7, #4]
 1526 002a 1201     		lsl	r2, r2, #4
 1527 002c 0A43     		orr	r2, r2, r1
 1528 002e 1A60     		str	r2, [r3]
1025:.\Generated_Source\PSoC4/PWM_G.c **** 
1026:.\Generated_Source\PSoC4/PWM_G.c ****     CyExitCriticalSection(enableInterrupts);
 1529              		.loc 1 1026 0
 1530 0030 3B1C     		mov	r3, r7
 1531 0032 0F33     		add	r3, r3, #15
 1532 0034 1B78     		ldrb	r3, [r3]
 1533 0036 181C     		mov	r0, r3
 1534 0038 FFF7FEFF 		bl	CyExitCriticalSection
1027:.\Generated_Source\PSoC4/PWM_G.c **** }
ARM GAS  C:\Users\maxk\AppData\Local\Temp\cc31oBTD.s 			page 46


 1535              		.loc 1 1027 0
 1536 003c BD46     		mov	sp, r7
 1537 003e 04B0     		add	sp, sp, #16
 1538              		@ sp needed for prologue
 1539 0040 80BD     		pop	{r7, pc}
 1540              	.L121:
 1541 0042 C046     		.align	2
 1542              	.L120:
 1543 0044 64010540 		.word	1074069860
 1544              		.cfi_endproc
 1545              	.LFE29:
 1546              		.size	PWM_G_SetReloadMode, .-PWM_G_SetReloadMode
 1547              		.section	.text.PWM_G_SetStartMode,"ax",%progbits
 1548              		.align	2
 1549              		.global	PWM_G_SetStartMode
 1550              		.code	16
 1551              		.thumb_func
 1552              		.type	PWM_G_SetStartMode, %function
 1553              	PWM_G_SetStartMode:
 1554              	.LFB30:
1028:.\Generated_Source\PSoC4/PWM_G.c **** 
1029:.\Generated_Source\PSoC4/PWM_G.c **** 
1030:.\Generated_Source\PSoC4/PWM_G.c **** /*******************************************************************************
1031:.\Generated_Source\PSoC4/PWM_G.c **** * Function Name: PWM_G_SetStartMode
1032:.\Generated_Source\PSoC4/PWM_G.c **** ********************************************************************************
1033:.\Generated_Source\PSoC4/PWM_G.c **** *
1034:.\Generated_Source\PSoC4/PWM_G.c **** * Summary:
1035:.\Generated_Source\PSoC4/PWM_G.c **** *  Sets the start trigger mode. For Quadrature Decoder mode this is the
1036:.\Generated_Source\PSoC4/PWM_G.c **** *  phiB input.
1037:.\Generated_Source\PSoC4/PWM_G.c **** *
1038:.\Generated_Source\PSoC4/PWM_G.c **** * Parameters:
1039:.\Generated_Source\PSoC4/PWM_G.c **** *  triggerMode: Enumerated trigger mode value
1040:.\Generated_Source\PSoC4/PWM_G.c **** *   Values:
1041:.\Generated_Source\PSoC4/PWM_G.c **** *     - PWM_G_TRIG_LEVEL     - Level
1042:.\Generated_Source\PSoC4/PWM_G.c **** *     - PWM_G_TRIG_RISING    - Rising edge
1043:.\Generated_Source\PSoC4/PWM_G.c **** *     - PWM_G_TRIG_FALLING   - Falling edge
1044:.\Generated_Source\PSoC4/PWM_G.c **** *     - PWM_G_TRIG_BOTH      - Both rising and falling edge
1045:.\Generated_Source\PSoC4/PWM_G.c **** *
1046:.\Generated_Source\PSoC4/PWM_G.c **** * Return:
1047:.\Generated_Source\PSoC4/PWM_G.c **** *  None
1048:.\Generated_Source\PSoC4/PWM_G.c **** *
1049:.\Generated_Source\PSoC4/PWM_G.c **** *******************************************************************************/
1050:.\Generated_Source\PSoC4/PWM_G.c **** void PWM_G_SetStartMode(uint32 triggerMode)
1051:.\Generated_Source\PSoC4/PWM_G.c **** {
 1555              		.loc 1 1051 0
 1556              		.cfi_startproc
 1557 0000 80B5     		push	{r7, lr}
 1558              	.LCFI81:
 1559              		.cfi_def_cfa_offset 8
 1560              		.cfi_offset 7, -8
 1561              		.cfi_offset 14, -4
 1562 0002 84B0     		sub	sp, sp, #16
 1563              	.LCFI82:
 1564              		.cfi_def_cfa_offset 24
 1565 0004 00AF     		add	r7, sp, #0
 1566              	.LCFI83:
 1567              		.cfi_def_cfa_register 7
ARM GAS  C:\Users\maxk\AppData\Local\Temp\cc31oBTD.s 			page 47


 1568 0006 7860     		str	r0, [r7, #4]
1052:.\Generated_Source\PSoC4/PWM_G.c ****     uint8 enableInterrupts;
1053:.\Generated_Source\PSoC4/PWM_G.c **** 
1054:.\Generated_Source\PSoC4/PWM_G.c ****     enableInterrupts = CyEnterCriticalSection();
 1569              		.loc 1 1054 0
 1570 0008 FFF7FEFF 		bl	CyEnterCriticalSection
 1571 000c 031C     		mov	r3, r0
 1572 000e 1A1C     		mov	r2, r3
 1573 0010 3B1C     		mov	r3, r7
 1574 0012 0F33     		add	r3, r3, #15
 1575 0014 1A70     		strb	r2, [r3]
1055:.\Generated_Source\PSoC4/PWM_G.c **** 
1056:.\Generated_Source\PSoC4/PWM_G.c ****     PWM_G_TRIG_CONTROL1_REG &= (uint32)~PWM_G_START_MASK;
 1576              		.loc 1 1056 0
 1577 0016 0B4B     		ldr	r3, .L124
 1578 0018 0A4A     		ldr	r2, .L124
 1579 001a 1168     		ldr	r1, [r2]
 1580 001c 0A4A     		ldr	r2, .L124+4
 1581 001e 0A40     		and	r2, r2, r1
 1582 0020 1A60     		str	r2, [r3]
1057:.\Generated_Source\PSoC4/PWM_G.c ****     PWM_G_TRIG_CONTROL1_REG |= ((uint32)(triggerMode << PWM_G_START_SHIFT));
 1583              		.loc 1 1057 0
 1584 0022 084B     		ldr	r3, .L124
 1585 0024 074A     		ldr	r2, .L124
 1586 0026 1168     		ldr	r1, [r2]
 1587 0028 7A68     		ldr	r2, [r7, #4]
 1588 002a 1202     		lsl	r2, r2, #8
 1589 002c 0A43     		orr	r2, r2, r1
 1590 002e 1A60     		str	r2, [r3]
1058:.\Generated_Source\PSoC4/PWM_G.c **** 
1059:.\Generated_Source\PSoC4/PWM_G.c ****     CyExitCriticalSection(enableInterrupts);
 1591              		.loc 1 1059 0
 1592 0030 3B1C     		mov	r3, r7
 1593 0032 0F33     		add	r3, r3, #15
 1594 0034 1B78     		ldrb	r3, [r3]
 1595 0036 181C     		mov	r0, r3
 1596 0038 FFF7FEFF 		bl	CyExitCriticalSection
1060:.\Generated_Source\PSoC4/PWM_G.c **** }
 1597              		.loc 1 1060 0
 1598 003c BD46     		mov	sp, r7
 1599 003e 04B0     		add	sp, sp, #16
 1600              		@ sp needed for prologue
 1601 0040 80BD     		pop	{r7, pc}
 1602              	.L125:
 1603 0042 C046     		.align	2
 1604              	.L124:
 1605 0044 64010540 		.word	1074069860
 1606 0048 FFFCFFFF 		.word	-769
 1607              		.cfi_endproc
 1608              	.LFE30:
 1609              		.size	PWM_G_SetStartMode, .-PWM_G_SetStartMode
 1610              		.section	.text.PWM_G_SetStopMode,"ax",%progbits
 1611              		.align	2
 1612              		.global	PWM_G_SetStopMode
 1613              		.code	16
 1614              		.thumb_func
 1615              		.type	PWM_G_SetStopMode, %function
ARM GAS  C:\Users\maxk\AppData\Local\Temp\cc31oBTD.s 			page 48


 1616              	PWM_G_SetStopMode:
 1617              	.LFB31:
1061:.\Generated_Source\PSoC4/PWM_G.c **** 
1062:.\Generated_Source\PSoC4/PWM_G.c **** 
1063:.\Generated_Source\PSoC4/PWM_G.c **** /*******************************************************************************
1064:.\Generated_Source\PSoC4/PWM_G.c **** * Function Name: PWM_G_SetStopMode
1065:.\Generated_Source\PSoC4/PWM_G.c **** ********************************************************************************
1066:.\Generated_Source\PSoC4/PWM_G.c **** *
1067:.\Generated_Source\PSoC4/PWM_G.c **** * Summary:
1068:.\Generated_Source\PSoC4/PWM_G.c **** *  Sets the stop trigger mode. For PWM mode this is the kill input.
1069:.\Generated_Source\PSoC4/PWM_G.c **** *
1070:.\Generated_Source\PSoC4/PWM_G.c **** * Parameters:
1071:.\Generated_Source\PSoC4/PWM_G.c **** *  triggerMode: Enumerated trigger mode value
1072:.\Generated_Source\PSoC4/PWM_G.c **** *   Values:
1073:.\Generated_Source\PSoC4/PWM_G.c **** *     - PWM_G_TRIG_LEVEL     - Level
1074:.\Generated_Source\PSoC4/PWM_G.c **** *     - PWM_G_TRIG_RISING    - Rising edge
1075:.\Generated_Source\PSoC4/PWM_G.c **** *     - PWM_G_TRIG_FALLING   - Falling edge
1076:.\Generated_Source\PSoC4/PWM_G.c **** *     - PWM_G_TRIG_BOTH      - Both rising and falling edge
1077:.\Generated_Source\PSoC4/PWM_G.c **** *
1078:.\Generated_Source\PSoC4/PWM_G.c **** * Return:
1079:.\Generated_Source\PSoC4/PWM_G.c **** *  None
1080:.\Generated_Source\PSoC4/PWM_G.c **** *
1081:.\Generated_Source\PSoC4/PWM_G.c **** *******************************************************************************/
1082:.\Generated_Source\PSoC4/PWM_G.c **** void PWM_G_SetStopMode(uint32 triggerMode)
1083:.\Generated_Source\PSoC4/PWM_G.c **** {
 1618              		.loc 1 1083 0
 1619              		.cfi_startproc
 1620 0000 80B5     		push	{r7, lr}
 1621              	.LCFI84:
 1622              		.cfi_def_cfa_offset 8
 1623              		.cfi_offset 7, -8
 1624              		.cfi_offset 14, -4
 1625 0002 84B0     		sub	sp, sp, #16
 1626              	.LCFI85:
 1627              		.cfi_def_cfa_offset 24
 1628 0004 00AF     		add	r7, sp, #0
 1629              	.LCFI86:
 1630              		.cfi_def_cfa_register 7
 1631 0006 7860     		str	r0, [r7, #4]
1084:.\Generated_Source\PSoC4/PWM_G.c ****     uint8 enableInterrupts;
1085:.\Generated_Source\PSoC4/PWM_G.c **** 
1086:.\Generated_Source\PSoC4/PWM_G.c ****     enableInterrupts = CyEnterCriticalSection();
 1632              		.loc 1 1086 0
 1633 0008 FFF7FEFF 		bl	CyEnterCriticalSection
 1634 000c 031C     		mov	r3, r0
 1635 000e 1A1C     		mov	r2, r3
 1636 0010 3B1C     		mov	r3, r7
 1637 0012 0F33     		add	r3, r3, #15
 1638 0014 1A70     		strb	r2, [r3]
1087:.\Generated_Source\PSoC4/PWM_G.c **** 
1088:.\Generated_Source\PSoC4/PWM_G.c ****     PWM_G_TRIG_CONTROL1_REG &= (uint32)~PWM_G_STOP_MASK;
 1639              		.loc 1 1088 0
 1640 0016 0B4B     		ldr	r3, .L128
 1641 0018 0A4A     		ldr	r2, .L128
 1642 001a 1268     		ldr	r2, [r2]
 1643 001c C021     		mov	r1, #192
 1644 001e 8A43     		bic	r2, r2, r1
ARM GAS  C:\Users\maxk\AppData\Local\Temp\cc31oBTD.s 			page 49


 1645 0020 1A60     		str	r2, [r3]
1089:.\Generated_Source\PSoC4/PWM_G.c ****     PWM_G_TRIG_CONTROL1_REG |= ((uint32)(triggerMode << PWM_G_STOP_SHIFT));
 1646              		.loc 1 1089 0
 1647 0022 084B     		ldr	r3, .L128
 1648 0024 074A     		ldr	r2, .L128
 1649 0026 1168     		ldr	r1, [r2]
 1650 0028 7A68     		ldr	r2, [r7, #4]
 1651 002a 9201     		lsl	r2, r2, #6
 1652 002c 0A43     		orr	r2, r2, r1
 1653 002e 1A60     		str	r2, [r3]
1090:.\Generated_Source\PSoC4/PWM_G.c **** 
1091:.\Generated_Source\PSoC4/PWM_G.c ****     CyExitCriticalSection(enableInterrupts);
 1654              		.loc 1 1091 0
 1655 0030 3B1C     		mov	r3, r7
 1656 0032 0F33     		add	r3, r3, #15
 1657 0034 1B78     		ldrb	r3, [r3]
 1658 0036 181C     		mov	r0, r3
 1659 0038 FFF7FEFF 		bl	CyExitCriticalSection
1092:.\Generated_Source\PSoC4/PWM_G.c **** }
 1660              		.loc 1 1092 0
 1661 003c BD46     		mov	sp, r7
 1662 003e 04B0     		add	sp, sp, #16
 1663              		@ sp needed for prologue
 1664 0040 80BD     		pop	{r7, pc}
 1665              	.L129:
 1666 0042 C046     		.align	2
 1667              	.L128:
 1668 0044 64010540 		.word	1074069860
 1669              		.cfi_endproc
 1670              	.LFE31:
 1671              		.size	PWM_G_SetStopMode, .-PWM_G_SetStopMode
 1672              		.section	.text.PWM_G_SetCountMode,"ax",%progbits
 1673              		.align	2
 1674              		.global	PWM_G_SetCountMode
 1675              		.code	16
 1676              		.thumb_func
 1677              		.type	PWM_G_SetCountMode, %function
 1678              	PWM_G_SetCountMode:
 1679              	.LFB32:
1093:.\Generated_Source\PSoC4/PWM_G.c **** 
1094:.\Generated_Source\PSoC4/PWM_G.c **** 
1095:.\Generated_Source\PSoC4/PWM_G.c **** /*******************************************************************************
1096:.\Generated_Source\PSoC4/PWM_G.c **** * Function Name: PWM_G_SetCountMode
1097:.\Generated_Source\PSoC4/PWM_G.c **** ********************************************************************************
1098:.\Generated_Source\PSoC4/PWM_G.c **** *
1099:.\Generated_Source\PSoC4/PWM_G.c **** * Summary:
1100:.\Generated_Source\PSoC4/PWM_G.c **** *  Sets the count trigger mode. For Quadrature Decoder mode this is the phiA
1101:.\Generated_Source\PSoC4/PWM_G.c **** *  input.
1102:.\Generated_Source\PSoC4/PWM_G.c **** *
1103:.\Generated_Source\PSoC4/PWM_G.c **** * Parameters:
1104:.\Generated_Source\PSoC4/PWM_G.c **** *  triggerMode: Enumerated trigger mode value
1105:.\Generated_Source\PSoC4/PWM_G.c **** *   Values:
1106:.\Generated_Source\PSoC4/PWM_G.c **** *     - PWM_G_TRIG_LEVEL     - Level
1107:.\Generated_Source\PSoC4/PWM_G.c **** *     - PWM_G_TRIG_RISING    - Rising edge
1108:.\Generated_Source\PSoC4/PWM_G.c **** *     - PWM_G_TRIG_FALLING   - Falling edge
1109:.\Generated_Source\PSoC4/PWM_G.c **** *     - PWM_G_TRIG_BOTH      - Both rising and falling edge
1110:.\Generated_Source\PSoC4/PWM_G.c **** *
ARM GAS  C:\Users\maxk\AppData\Local\Temp\cc31oBTD.s 			page 50


1111:.\Generated_Source\PSoC4/PWM_G.c **** * Return:
1112:.\Generated_Source\PSoC4/PWM_G.c **** *  None
1113:.\Generated_Source\PSoC4/PWM_G.c **** *
1114:.\Generated_Source\PSoC4/PWM_G.c **** *******************************************************************************/
1115:.\Generated_Source\PSoC4/PWM_G.c **** void PWM_G_SetCountMode(uint32 triggerMode)
1116:.\Generated_Source\PSoC4/PWM_G.c **** {
 1680              		.loc 1 1116 0
 1681              		.cfi_startproc
 1682 0000 80B5     		push	{r7, lr}
 1683              	.LCFI87:
 1684              		.cfi_def_cfa_offset 8
 1685              		.cfi_offset 7, -8
 1686              		.cfi_offset 14, -4
 1687 0002 84B0     		sub	sp, sp, #16
 1688              	.LCFI88:
 1689              		.cfi_def_cfa_offset 24
 1690 0004 00AF     		add	r7, sp, #0
 1691              	.LCFI89:
 1692              		.cfi_def_cfa_register 7
 1693 0006 7860     		str	r0, [r7, #4]
1117:.\Generated_Source\PSoC4/PWM_G.c ****     uint8 enableInterrupts;
1118:.\Generated_Source\PSoC4/PWM_G.c **** 
1119:.\Generated_Source\PSoC4/PWM_G.c ****     enableInterrupts = CyEnterCriticalSection();
 1694              		.loc 1 1119 0
 1695 0008 FFF7FEFF 		bl	CyEnterCriticalSection
 1696 000c 031C     		mov	r3, r0
 1697 000e 1A1C     		mov	r2, r3
 1698 0010 3B1C     		mov	r3, r7
 1699 0012 0F33     		add	r3, r3, #15
 1700 0014 1A70     		strb	r2, [r3]
1120:.\Generated_Source\PSoC4/PWM_G.c **** 
1121:.\Generated_Source\PSoC4/PWM_G.c ****     PWM_G_TRIG_CONTROL1_REG &= (uint32)~PWM_G_COUNT_MASK;
 1701              		.loc 1 1121 0
 1702 0016 0B4B     		ldr	r3, .L132
 1703 0018 0A4A     		ldr	r2, .L132
 1704 001a 1268     		ldr	r2, [r2]
 1705 001c 0C21     		mov	r1, #12
 1706 001e 8A43     		bic	r2, r2, r1
 1707 0020 1A60     		str	r2, [r3]
1122:.\Generated_Source\PSoC4/PWM_G.c ****     PWM_G_TRIG_CONTROL1_REG |= ((uint32)(triggerMode << PWM_G_COUNT_SHIFT));
 1708              		.loc 1 1122 0
 1709 0022 084B     		ldr	r3, .L132
 1710 0024 074A     		ldr	r2, .L132
 1711 0026 1168     		ldr	r1, [r2]
 1712 0028 7A68     		ldr	r2, [r7, #4]
 1713 002a 9200     		lsl	r2, r2, #2
 1714 002c 0A43     		orr	r2, r2, r1
 1715 002e 1A60     		str	r2, [r3]
1123:.\Generated_Source\PSoC4/PWM_G.c **** 
1124:.\Generated_Source\PSoC4/PWM_G.c ****     CyExitCriticalSection(enableInterrupts);
 1716              		.loc 1 1124 0
 1717 0030 3B1C     		mov	r3, r7
 1718 0032 0F33     		add	r3, r3, #15
 1719 0034 1B78     		ldrb	r3, [r3]
 1720 0036 181C     		mov	r0, r3
 1721 0038 FFF7FEFF 		bl	CyExitCriticalSection
1125:.\Generated_Source\PSoC4/PWM_G.c **** }
ARM GAS  C:\Users\maxk\AppData\Local\Temp\cc31oBTD.s 			page 51


 1722              		.loc 1 1125 0
 1723 003c BD46     		mov	sp, r7
 1724 003e 04B0     		add	sp, sp, #16
 1725              		@ sp needed for prologue
 1726 0040 80BD     		pop	{r7, pc}
 1727              	.L133:
 1728 0042 C046     		.align	2
 1729              	.L132:
 1730 0044 64010540 		.word	1074069860
 1731              		.cfi_endproc
 1732              	.LFE32:
 1733              		.size	PWM_G_SetCountMode, .-PWM_G_SetCountMode
 1734              		.section	.text.PWM_G_TriggerCommand,"ax",%progbits
 1735              		.align	2
 1736              		.global	PWM_G_TriggerCommand
 1737              		.code	16
 1738              		.thumb_func
 1739              		.type	PWM_G_TriggerCommand, %function
 1740              	PWM_G_TriggerCommand:
 1741              	.LFB33:
1126:.\Generated_Source\PSoC4/PWM_G.c **** 
1127:.\Generated_Source\PSoC4/PWM_G.c **** 
1128:.\Generated_Source\PSoC4/PWM_G.c **** /*******************************************************************************
1129:.\Generated_Source\PSoC4/PWM_G.c **** * Function Name: PWM_G_TriggerCommand
1130:.\Generated_Source\PSoC4/PWM_G.c **** ********************************************************************************
1131:.\Generated_Source\PSoC4/PWM_G.c **** *
1132:.\Generated_Source\PSoC4/PWM_G.c **** * Summary:
1133:.\Generated_Source\PSoC4/PWM_G.c **** *  Triggers the designated command to occur on the designated TCPWM instances.
1134:.\Generated_Source\PSoC4/PWM_G.c **** *  The mask can be used to apply this command simultaneously to more than one
1135:.\Generated_Source\PSoC4/PWM_G.c **** *  instance.  This allows multiple TCPWM instances to be synchronized.
1136:.\Generated_Source\PSoC4/PWM_G.c **** *
1137:.\Generated_Source\PSoC4/PWM_G.c **** * Parameters:
1138:.\Generated_Source\PSoC4/PWM_G.c **** *  mask: Combination of mask bits for each instance of the TCPWM that the
1139:.\Generated_Source\PSoC4/PWM_G.c **** *        command should apply to.  This function from one instance can be used
1140:.\Generated_Source\PSoC4/PWM_G.c **** *        to apply the command to any of the instances in the design.
1141:.\Generated_Source\PSoC4/PWM_G.c **** *        The mask value for a specific instance is available with the MASK
1142:.\Generated_Source\PSoC4/PWM_G.c **** *        define.
1143:.\Generated_Source\PSoC4/PWM_G.c **** *  command: Enumerated command values. Capture command only applicable for
1144:.\Generated_Source\PSoC4/PWM_G.c **** *           Timer/Counter with Capture and PWM modes.
1145:.\Generated_Source\PSoC4/PWM_G.c **** *   Values:
1146:.\Generated_Source\PSoC4/PWM_G.c **** *     - PWM_G_CMD_CAPTURE    - Trigger Capture command
1147:.\Generated_Source\PSoC4/PWM_G.c **** *     - PWM_G_CMD_RELOAD     - Trigger Reload command
1148:.\Generated_Source\PSoC4/PWM_G.c **** *     - PWM_G_CMD_STOP       - Trigger Stop command
1149:.\Generated_Source\PSoC4/PWM_G.c **** *     - PWM_G_CMD_START      - Trigger Start command
1150:.\Generated_Source\PSoC4/PWM_G.c **** *
1151:.\Generated_Source\PSoC4/PWM_G.c **** * Return:
1152:.\Generated_Source\PSoC4/PWM_G.c **** *  None
1153:.\Generated_Source\PSoC4/PWM_G.c **** *
1154:.\Generated_Source\PSoC4/PWM_G.c **** *******************************************************************************/
1155:.\Generated_Source\PSoC4/PWM_G.c **** void PWM_G_TriggerCommand(uint32 mask, uint32 command)
1156:.\Generated_Source\PSoC4/PWM_G.c **** {
 1742              		.loc 1 1156 0
 1743              		.cfi_startproc
 1744 0000 80B5     		push	{r7, lr}
 1745              	.LCFI90:
 1746              		.cfi_def_cfa_offset 8
 1747              		.cfi_offset 7, -8
ARM GAS  C:\Users\maxk\AppData\Local\Temp\cc31oBTD.s 			page 52


 1748              		.cfi_offset 14, -4
 1749 0002 84B0     		sub	sp, sp, #16
 1750              	.LCFI91:
 1751              		.cfi_def_cfa_offset 24
 1752 0004 00AF     		add	r7, sp, #0
 1753              	.LCFI92:
 1754              		.cfi_def_cfa_register 7
 1755 0006 7860     		str	r0, [r7, #4]
 1756 0008 3960     		str	r1, [r7]
1157:.\Generated_Source\PSoC4/PWM_G.c ****     uint8 enableInterrupts;
1158:.\Generated_Source\PSoC4/PWM_G.c **** 
1159:.\Generated_Source\PSoC4/PWM_G.c ****     enableInterrupts = CyEnterCriticalSection();
 1757              		.loc 1 1159 0
 1758 000a FFF7FEFF 		bl	CyEnterCriticalSection
 1759 000e 031C     		mov	r3, r0
 1760 0010 1A1C     		mov	r2, r3
 1761 0012 3B1C     		mov	r3, r7
 1762 0014 0F33     		add	r3, r3, #15
 1763 0016 1A70     		strb	r2, [r3]
1160:.\Generated_Source\PSoC4/PWM_G.c **** 
1161:.\Generated_Source\PSoC4/PWM_G.c ****     PWM_G_COMMAND_REG = ((uint32)(mask << command));
 1764              		.loc 1 1161 0
 1765 0018 074B     		ldr	r3, .L136
 1766 001a 3A68     		ldr	r2, [r7]
 1767 001c 7968     		ldr	r1, [r7, #4]
 1768 001e 081C     		mov	r0, r1
 1769 0020 9040     		lsl	r0, r0, r2
 1770 0022 021C     		mov	r2, r0
 1771 0024 1A60     		str	r2, [r3]
1162:.\Generated_Source\PSoC4/PWM_G.c **** 
1163:.\Generated_Source\PSoC4/PWM_G.c ****     CyExitCriticalSection(enableInterrupts);
 1772              		.loc 1 1163 0
 1773 0026 3B1C     		mov	r3, r7
 1774 0028 0F33     		add	r3, r3, #15
 1775 002a 1B78     		ldrb	r3, [r3]
 1776 002c 181C     		mov	r0, r3
 1777 002e FFF7FEFF 		bl	CyExitCriticalSection
1164:.\Generated_Source\PSoC4/PWM_G.c **** }
 1778              		.loc 1 1164 0
 1779 0032 BD46     		mov	sp, r7
 1780 0034 04B0     		add	sp, sp, #16
 1781              		@ sp needed for prologue
 1782 0036 80BD     		pop	{r7, pc}
 1783              	.L137:
 1784              		.align	2
 1785              	.L136:
 1786 0038 08000540 		.word	1074069512
 1787              		.cfi_endproc
 1788              	.LFE33:
 1789              		.size	PWM_G_TriggerCommand, .-PWM_G_TriggerCommand
 1790              		.section	.text.PWM_G_ReadStatus,"ax",%progbits
 1791              		.align	2
 1792              		.global	PWM_G_ReadStatus
 1793              		.code	16
 1794              		.thumb_func
 1795              		.type	PWM_G_ReadStatus, %function
 1796              	PWM_G_ReadStatus:
ARM GAS  C:\Users\maxk\AppData\Local\Temp\cc31oBTD.s 			page 53


 1797              	.LFB34:
1165:.\Generated_Source\PSoC4/PWM_G.c **** 
1166:.\Generated_Source\PSoC4/PWM_G.c **** 
1167:.\Generated_Source\PSoC4/PWM_G.c **** /*******************************************************************************
1168:.\Generated_Source\PSoC4/PWM_G.c **** * Function Name: PWM_G_ReadStatus
1169:.\Generated_Source\PSoC4/PWM_G.c **** ********************************************************************************
1170:.\Generated_Source\PSoC4/PWM_G.c **** *
1171:.\Generated_Source\PSoC4/PWM_G.c **** * Summary:
1172:.\Generated_Source\PSoC4/PWM_G.c **** *  Reads the status of the PWM_G.
1173:.\Generated_Source\PSoC4/PWM_G.c **** *
1174:.\Generated_Source\PSoC4/PWM_G.c **** * Parameters:
1175:.\Generated_Source\PSoC4/PWM_G.c **** *  None
1176:.\Generated_Source\PSoC4/PWM_G.c **** *
1177:.\Generated_Source\PSoC4/PWM_G.c **** * Return:
1178:.\Generated_Source\PSoC4/PWM_G.c **** *  Status
1179:.\Generated_Source\PSoC4/PWM_G.c **** *   Values:
1180:.\Generated_Source\PSoC4/PWM_G.c **** *     - PWM_G_STATUS_DOWN    - Set if counting down
1181:.\Generated_Source\PSoC4/PWM_G.c **** *     - PWM_G_STATUS_RUNNING - Set if counter is running
1182:.\Generated_Source\PSoC4/PWM_G.c **** *
1183:.\Generated_Source\PSoC4/PWM_G.c **** *******************************************************************************/
1184:.\Generated_Source\PSoC4/PWM_G.c **** uint32 PWM_G_ReadStatus(void)
1185:.\Generated_Source\PSoC4/PWM_G.c **** {
 1798              		.loc 1 1185 0
 1799              		.cfi_startproc
 1800 0000 80B5     		push	{r7, lr}
 1801              	.LCFI93:
 1802              		.cfi_def_cfa_offset 8
 1803              		.cfi_offset 7, -8
 1804              		.cfi_offset 14, -4
 1805 0002 00AF     		add	r7, sp, #0
 1806              	.LCFI94:
 1807              		.cfi_def_cfa_register 7
1186:.\Generated_Source\PSoC4/PWM_G.c ****     return ((PWM_G_STATUS_REG >> PWM_G_RUNNING_STATUS_SHIFT) |
 1808              		.loc 1 1186 0
 1809 0004 054B     		ldr	r3, .L140
 1810 0006 1B68     		ldr	r3, [r3]
 1811 0008 9A0F     		lsr	r2, r3, #30
1187:.\Generated_Source\PSoC4/PWM_G.c ****             (PWM_G_STATUS_REG & PWM_G_STATUS_DOWN));
 1812              		.loc 1 1187 0
 1813 000a 044B     		ldr	r3, .L140
 1814 000c 1968     		ldr	r1, [r3]
 1815 000e 0123     		mov	r3, #1
 1816 0010 0B40     		and	r3, r3, r1
 1817              		.loc 1 1186 0
 1818 0012 1343     		orr	r3, r3, r2
1188:.\Generated_Source\PSoC4/PWM_G.c **** }
 1819              		.loc 1 1188 0
 1820 0014 181C     		mov	r0, r3
 1821 0016 BD46     		mov	sp, r7
 1822              		@ sp needed for prologue
 1823 0018 80BD     		pop	{r7, pc}
 1824              	.L141:
 1825 001a C046     		.align	2
 1826              	.L140:
 1827 001c 44010540 		.word	1074069828
 1828              		.cfi_endproc
 1829              	.LFE34:
ARM GAS  C:\Users\maxk\AppData\Local\Temp\cc31oBTD.s 			page 54


 1830              		.size	PWM_G_ReadStatus, .-PWM_G_ReadStatus
 1831              		.section	.text.PWM_G_SetInterruptMode,"ax",%progbits
 1832              		.align	2
 1833              		.global	PWM_G_SetInterruptMode
 1834              		.code	16
 1835              		.thumb_func
 1836              		.type	PWM_G_SetInterruptMode, %function
 1837              	PWM_G_SetInterruptMode:
 1838              	.LFB35:
1189:.\Generated_Source\PSoC4/PWM_G.c **** 
1190:.\Generated_Source\PSoC4/PWM_G.c **** 
1191:.\Generated_Source\PSoC4/PWM_G.c **** /*******************************************************************************
1192:.\Generated_Source\PSoC4/PWM_G.c **** * Function Name: PWM_G_SetInterruptMode
1193:.\Generated_Source\PSoC4/PWM_G.c **** ********************************************************************************
1194:.\Generated_Source\PSoC4/PWM_G.c **** *
1195:.\Generated_Source\PSoC4/PWM_G.c **** * Summary:
1196:.\Generated_Source\PSoC4/PWM_G.c **** *  Sets the interrupt mask to control which interrupt
1197:.\Generated_Source\PSoC4/PWM_G.c **** *  requests generate the interrupt signal.
1198:.\Generated_Source\PSoC4/PWM_G.c **** *
1199:.\Generated_Source\PSoC4/PWM_G.c **** * Parameters:
1200:.\Generated_Source\PSoC4/PWM_G.c **** *   interruptMask: Mask of bits to be enabled
1201:.\Generated_Source\PSoC4/PWM_G.c **** *   Values:
1202:.\Generated_Source\PSoC4/PWM_G.c **** *     - PWM_G_INTR_MASK_TC       - Terminal count mask
1203:.\Generated_Source\PSoC4/PWM_G.c **** *     - PWM_G_INTR_MASK_CC_MATCH - Compare count / capture mask
1204:.\Generated_Source\PSoC4/PWM_G.c **** *
1205:.\Generated_Source\PSoC4/PWM_G.c **** * Return:
1206:.\Generated_Source\PSoC4/PWM_G.c **** *  None
1207:.\Generated_Source\PSoC4/PWM_G.c **** *
1208:.\Generated_Source\PSoC4/PWM_G.c **** *******************************************************************************/
1209:.\Generated_Source\PSoC4/PWM_G.c **** void PWM_G_SetInterruptMode(uint32 interruptMask)
1210:.\Generated_Source\PSoC4/PWM_G.c **** {
 1839              		.loc 1 1210 0
 1840              		.cfi_startproc
 1841 0000 80B5     		push	{r7, lr}
 1842              	.LCFI95:
 1843              		.cfi_def_cfa_offset 8
 1844              		.cfi_offset 7, -8
 1845              		.cfi_offset 14, -4
 1846 0002 82B0     		sub	sp, sp, #8
 1847              	.LCFI96:
 1848              		.cfi_def_cfa_offset 16
 1849 0004 00AF     		add	r7, sp, #0
 1850              	.LCFI97:
 1851              		.cfi_def_cfa_register 7
 1852 0006 7860     		str	r0, [r7, #4]
1211:.\Generated_Source\PSoC4/PWM_G.c ****     PWM_G_INTERRUPT_MASK_REG =  interruptMask;
 1853              		.loc 1 1211 0
 1854 0008 024B     		ldr	r3, .L144
 1855 000a 7A68     		ldr	r2, [r7, #4]
 1856 000c 1A60     		str	r2, [r3]
1212:.\Generated_Source\PSoC4/PWM_G.c **** }
 1857              		.loc 1 1212 0
 1858 000e BD46     		mov	sp, r7
 1859 0010 02B0     		add	sp, sp, #8
 1860              		@ sp needed for prologue
 1861 0012 80BD     		pop	{r7, pc}
 1862              	.L145:
ARM GAS  C:\Users\maxk\AppData\Local\Temp\cc31oBTD.s 			page 55


 1863              		.align	2
 1864              	.L144:
 1865 0014 78010540 		.word	1074069880
 1866              		.cfi_endproc
 1867              	.LFE35:
 1868              		.size	PWM_G_SetInterruptMode, .-PWM_G_SetInterruptMode
 1869              		.section	.text.PWM_G_GetInterruptSourceMasked,"ax",%progbits
 1870              		.align	2
 1871              		.global	PWM_G_GetInterruptSourceMasked
 1872              		.code	16
 1873              		.thumb_func
 1874              		.type	PWM_G_GetInterruptSourceMasked, %function
 1875              	PWM_G_GetInterruptSourceMasked:
 1876              	.LFB36:
1213:.\Generated_Source\PSoC4/PWM_G.c **** 
1214:.\Generated_Source\PSoC4/PWM_G.c **** 
1215:.\Generated_Source\PSoC4/PWM_G.c **** /*******************************************************************************
1216:.\Generated_Source\PSoC4/PWM_G.c **** * Function Name: PWM_G_GetInterruptSourceMasked
1217:.\Generated_Source\PSoC4/PWM_G.c **** ********************************************************************************
1218:.\Generated_Source\PSoC4/PWM_G.c **** *
1219:.\Generated_Source\PSoC4/PWM_G.c **** * Summary:
1220:.\Generated_Source\PSoC4/PWM_G.c **** *  Gets the interrupt requests masked by the interrupt mask.
1221:.\Generated_Source\PSoC4/PWM_G.c **** *
1222:.\Generated_Source\PSoC4/PWM_G.c **** * Parameters:
1223:.\Generated_Source\PSoC4/PWM_G.c **** *   None
1224:.\Generated_Source\PSoC4/PWM_G.c **** *
1225:.\Generated_Source\PSoC4/PWM_G.c **** * Return:
1226:.\Generated_Source\PSoC4/PWM_G.c **** *  Masked interrupt source
1227:.\Generated_Source\PSoC4/PWM_G.c **** *   Values:
1228:.\Generated_Source\PSoC4/PWM_G.c **** *     - PWM_G_INTR_MASK_TC       - Terminal count mask
1229:.\Generated_Source\PSoC4/PWM_G.c **** *     - PWM_G_INTR_MASK_CC_MATCH - Compare count / capture mask
1230:.\Generated_Source\PSoC4/PWM_G.c **** *
1231:.\Generated_Source\PSoC4/PWM_G.c **** *******************************************************************************/
1232:.\Generated_Source\PSoC4/PWM_G.c **** uint32 PWM_G_GetInterruptSourceMasked(void)
1233:.\Generated_Source\PSoC4/PWM_G.c **** {
 1877              		.loc 1 1233 0
 1878              		.cfi_startproc
 1879 0000 80B5     		push	{r7, lr}
 1880              	.LCFI98:
 1881              		.cfi_def_cfa_offset 8
 1882              		.cfi_offset 7, -8
 1883              		.cfi_offset 14, -4
 1884 0002 00AF     		add	r7, sp, #0
 1885              	.LCFI99:
 1886              		.cfi_def_cfa_register 7
1234:.\Generated_Source\PSoC4/PWM_G.c ****     return (PWM_G_INTERRUPT_MASKED_REG);
 1887              		.loc 1 1234 0
 1888 0004 024B     		ldr	r3, .L148
 1889 0006 1B68     		ldr	r3, [r3]
1235:.\Generated_Source\PSoC4/PWM_G.c **** }
 1890              		.loc 1 1235 0
 1891 0008 181C     		mov	r0, r3
 1892 000a BD46     		mov	sp, r7
 1893              		@ sp needed for prologue
 1894 000c 80BD     		pop	{r7, pc}
 1895              	.L149:
 1896 000e C046     		.align	2
ARM GAS  C:\Users\maxk\AppData\Local\Temp\cc31oBTD.s 			page 56


 1897              	.L148:
 1898 0010 7C010540 		.word	1074069884
 1899              		.cfi_endproc
 1900              	.LFE36:
 1901              		.size	PWM_G_GetInterruptSourceMasked, .-PWM_G_GetInterruptSourceMasked
 1902              		.section	.text.PWM_G_GetInterruptSource,"ax",%progbits
 1903              		.align	2
 1904              		.global	PWM_G_GetInterruptSource
 1905              		.code	16
 1906              		.thumb_func
 1907              		.type	PWM_G_GetInterruptSource, %function
 1908              	PWM_G_GetInterruptSource:
 1909              	.LFB37:
1236:.\Generated_Source\PSoC4/PWM_G.c **** 
1237:.\Generated_Source\PSoC4/PWM_G.c **** 
1238:.\Generated_Source\PSoC4/PWM_G.c **** /*******************************************************************************
1239:.\Generated_Source\PSoC4/PWM_G.c **** * Function Name: PWM_G_GetInterruptSource
1240:.\Generated_Source\PSoC4/PWM_G.c **** ********************************************************************************
1241:.\Generated_Source\PSoC4/PWM_G.c **** *
1242:.\Generated_Source\PSoC4/PWM_G.c **** * Summary:
1243:.\Generated_Source\PSoC4/PWM_G.c **** *  Gets the interrupt requests (without masking).
1244:.\Generated_Source\PSoC4/PWM_G.c **** *
1245:.\Generated_Source\PSoC4/PWM_G.c **** * Parameters:
1246:.\Generated_Source\PSoC4/PWM_G.c **** *  None
1247:.\Generated_Source\PSoC4/PWM_G.c **** *
1248:.\Generated_Source\PSoC4/PWM_G.c **** * Return:
1249:.\Generated_Source\PSoC4/PWM_G.c **** *  Interrupt request value
1250:.\Generated_Source\PSoC4/PWM_G.c **** *   Values:
1251:.\Generated_Source\PSoC4/PWM_G.c **** *     - PWM_G_INTR_MASK_TC       - Terminal count mask
1252:.\Generated_Source\PSoC4/PWM_G.c **** *     - PWM_G_INTR_MASK_CC_MATCH - Compare count / capture mask
1253:.\Generated_Source\PSoC4/PWM_G.c **** *
1254:.\Generated_Source\PSoC4/PWM_G.c **** *******************************************************************************/
1255:.\Generated_Source\PSoC4/PWM_G.c **** uint32 PWM_G_GetInterruptSource(void)
1256:.\Generated_Source\PSoC4/PWM_G.c **** {
 1910              		.loc 1 1256 0
 1911              		.cfi_startproc
 1912 0000 80B5     		push	{r7, lr}
 1913              	.LCFI100:
 1914              		.cfi_def_cfa_offset 8
 1915              		.cfi_offset 7, -8
 1916              		.cfi_offset 14, -4
 1917 0002 00AF     		add	r7, sp, #0
 1918              	.LCFI101:
 1919              		.cfi_def_cfa_register 7
1257:.\Generated_Source\PSoC4/PWM_G.c ****     return (PWM_G_INTERRUPT_REQ_REG);
 1920              		.loc 1 1257 0
 1921 0004 024B     		ldr	r3, .L152
 1922 0006 1B68     		ldr	r3, [r3]
1258:.\Generated_Source\PSoC4/PWM_G.c **** }
 1923              		.loc 1 1258 0
 1924 0008 181C     		mov	r0, r3
 1925 000a BD46     		mov	sp, r7
 1926              		@ sp needed for prologue
 1927 000c 80BD     		pop	{r7, pc}
 1928              	.L153:
 1929 000e C046     		.align	2
 1930              	.L152:
ARM GAS  C:\Users\maxk\AppData\Local\Temp\cc31oBTD.s 			page 57


 1931 0010 70010540 		.word	1074069872
 1932              		.cfi_endproc
 1933              	.LFE37:
 1934              		.size	PWM_G_GetInterruptSource, .-PWM_G_GetInterruptSource
 1935              		.section	.text.PWM_G_ClearInterrupt,"ax",%progbits
 1936              		.align	2
 1937              		.global	PWM_G_ClearInterrupt
 1938              		.code	16
 1939              		.thumb_func
 1940              		.type	PWM_G_ClearInterrupt, %function
 1941              	PWM_G_ClearInterrupt:
 1942              	.LFB38:
1259:.\Generated_Source\PSoC4/PWM_G.c **** 
1260:.\Generated_Source\PSoC4/PWM_G.c **** 
1261:.\Generated_Source\PSoC4/PWM_G.c **** /*******************************************************************************
1262:.\Generated_Source\PSoC4/PWM_G.c **** * Function Name: PWM_G_ClearInterrupt
1263:.\Generated_Source\PSoC4/PWM_G.c **** ********************************************************************************
1264:.\Generated_Source\PSoC4/PWM_G.c **** *
1265:.\Generated_Source\PSoC4/PWM_G.c **** * Summary:
1266:.\Generated_Source\PSoC4/PWM_G.c **** *  Clears the interrupt request.
1267:.\Generated_Source\PSoC4/PWM_G.c **** *
1268:.\Generated_Source\PSoC4/PWM_G.c **** * Parameters:
1269:.\Generated_Source\PSoC4/PWM_G.c **** *   interruptMask: Mask of interrupts to clear
1270:.\Generated_Source\PSoC4/PWM_G.c **** *   Values:
1271:.\Generated_Source\PSoC4/PWM_G.c **** *     - PWM_G_INTR_MASK_TC       - Terminal count mask
1272:.\Generated_Source\PSoC4/PWM_G.c **** *     - PWM_G_INTR_MASK_CC_MATCH - Compare count / capture mask
1273:.\Generated_Source\PSoC4/PWM_G.c **** *
1274:.\Generated_Source\PSoC4/PWM_G.c **** * Return:
1275:.\Generated_Source\PSoC4/PWM_G.c **** *  None
1276:.\Generated_Source\PSoC4/PWM_G.c **** *
1277:.\Generated_Source\PSoC4/PWM_G.c **** *******************************************************************************/
1278:.\Generated_Source\PSoC4/PWM_G.c **** void PWM_G_ClearInterrupt(uint32 interruptMask)
1279:.\Generated_Source\PSoC4/PWM_G.c **** {
 1943              		.loc 1 1279 0
 1944              		.cfi_startproc
 1945 0000 80B5     		push	{r7, lr}
 1946              	.LCFI102:
 1947              		.cfi_def_cfa_offset 8
 1948              		.cfi_offset 7, -8
 1949              		.cfi_offset 14, -4
 1950 0002 82B0     		sub	sp, sp, #8
 1951              	.LCFI103:
 1952              		.cfi_def_cfa_offset 16
 1953 0004 00AF     		add	r7, sp, #0
 1954              	.LCFI104:
 1955              		.cfi_def_cfa_register 7
 1956 0006 7860     		str	r0, [r7, #4]
1280:.\Generated_Source\PSoC4/PWM_G.c ****     PWM_G_INTERRUPT_REQ_REG = interruptMask;
 1957              		.loc 1 1280 0
 1958 0008 024B     		ldr	r3, .L156
 1959 000a 7A68     		ldr	r2, [r7, #4]
 1960 000c 1A60     		str	r2, [r3]
1281:.\Generated_Source\PSoC4/PWM_G.c **** }
 1961              		.loc 1 1281 0
 1962 000e BD46     		mov	sp, r7
 1963 0010 02B0     		add	sp, sp, #8
 1964              		@ sp needed for prologue
ARM GAS  C:\Users\maxk\AppData\Local\Temp\cc31oBTD.s 			page 58


 1965 0012 80BD     		pop	{r7, pc}
 1966              	.L157:
 1967              		.align	2
 1968              	.L156:
 1969 0014 70010540 		.word	1074069872
 1970              		.cfi_endproc
 1971              	.LFE38:
 1972              		.size	PWM_G_ClearInterrupt, .-PWM_G_ClearInterrupt
 1973              		.section	.text.PWM_G_SetInterrupt,"ax",%progbits
 1974              		.align	2
 1975              		.global	PWM_G_SetInterrupt
 1976              		.code	16
 1977              		.thumb_func
 1978              		.type	PWM_G_SetInterrupt, %function
 1979              	PWM_G_SetInterrupt:
 1980              	.LFB39:
1282:.\Generated_Source\PSoC4/PWM_G.c **** 
1283:.\Generated_Source\PSoC4/PWM_G.c **** 
1284:.\Generated_Source\PSoC4/PWM_G.c **** /*******************************************************************************
1285:.\Generated_Source\PSoC4/PWM_G.c **** * Function Name: PWM_G_SetInterrupt
1286:.\Generated_Source\PSoC4/PWM_G.c **** ********************************************************************************
1287:.\Generated_Source\PSoC4/PWM_G.c **** *
1288:.\Generated_Source\PSoC4/PWM_G.c **** * Summary:
1289:.\Generated_Source\PSoC4/PWM_G.c **** *  Sets a software interrupt request.
1290:.\Generated_Source\PSoC4/PWM_G.c **** *
1291:.\Generated_Source\PSoC4/PWM_G.c **** * Parameters:
1292:.\Generated_Source\PSoC4/PWM_G.c **** *   interruptMask: Mask of interrupts to set
1293:.\Generated_Source\PSoC4/PWM_G.c **** *   Values:
1294:.\Generated_Source\PSoC4/PWM_G.c **** *     - PWM_G_INTR_MASK_TC       - Terminal count mask
1295:.\Generated_Source\PSoC4/PWM_G.c **** *     - PWM_G_INTR_MASK_CC_MATCH - Compare count / capture mask
1296:.\Generated_Source\PSoC4/PWM_G.c **** *
1297:.\Generated_Source\PSoC4/PWM_G.c **** * Return:
1298:.\Generated_Source\PSoC4/PWM_G.c **** *  None
1299:.\Generated_Source\PSoC4/PWM_G.c **** *
1300:.\Generated_Source\PSoC4/PWM_G.c **** *******************************************************************************/
1301:.\Generated_Source\PSoC4/PWM_G.c **** void PWM_G_SetInterrupt(uint32 interruptMask)
1302:.\Generated_Source\PSoC4/PWM_G.c **** {
 1981              		.loc 1 1302 0
 1982              		.cfi_startproc
 1983 0000 80B5     		push	{r7, lr}
 1984              	.LCFI105:
 1985              		.cfi_def_cfa_offset 8
 1986              		.cfi_offset 7, -8
 1987              		.cfi_offset 14, -4
 1988 0002 82B0     		sub	sp, sp, #8
 1989              	.LCFI106:
 1990              		.cfi_def_cfa_offset 16
 1991 0004 00AF     		add	r7, sp, #0
 1992              	.LCFI107:
 1993              		.cfi_def_cfa_register 7
 1994 0006 7860     		str	r0, [r7, #4]
1303:.\Generated_Source\PSoC4/PWM_G.c ****     PWM_G_INTERRUPT_SET_REG = interruptMask;
 1995              		.loc 1 1303 0
 1996 0008 024B     		ldr	r3, .L160
 1997 000a 7A68     		ldr	r2, [r7, #4]
 1998 000c 1A60     		str	r2, [r3]
1304:.\Generated_Source\PSoC4/PWM_G.c **** }
ARM GAS  C:\Users\maxk\AppData\Local\Temp\cc31oBTD.s 			page 59


 1999              		.loc 1 1304 0
 2000 000e BD46     		mov	sp, r7
 2001 0010 02B0     		add	sp, sp, #8
 2002              		@ sp needed for prologue
 2003 0012 80BD     		pop	{r7, pc}
 2004              	.L161:
 2005              		.align	2
 2006              	.L160:
 2007 0014 74010540 		.word	1074069876
 2008              		.cfi_endproc
 2009              	.LFE39:
 2010              		.size	PWM_G_SetInterrupt, .-PWM_G_SetInterrupt
 2011              		.text
 2012              	.Letext0: