ARM GAS  C:\Users\GLENNL~1\AppData\Local\Temp\cc1oWoSN.s 			page 1


   1              		.cpu cortex-m0
   2              		.fpu softvfp
   3              		.eabi_attribute 20, 1
   4              		.eabi_attribute 21, 1
   5              		.eabi_attribute 23, 3
   6              		.eabi_attribute 24, 1
   7              		.eabi_attribute 25, 1
   8              		.eabi_attribute 26, 1
   9              		.eabi_attribute 30, 6
  10              		.eabi_attribute 34, 0
  11              		.eabi_attribute 18, 4
  12              		.code	16
  13              		.file	"clk_1.c"
  14              		.text
  15              	.Ltext0:
  16              		.cfi_sections	.debug_frame
  17              		.section	.text.clk_1_Start,"ax",%progbits
  18              		.align	2
  19              		.global	clk_1_Start
  20              		.code	16
  21              		.thumb_func
  22              		.type	clk_1_Start, %function
  23              	clk_1_Start:
  24              	.LFB0:
  25              		.file 1 ".\\Generated_Source\\PSoC4\\clk_1.c"
   1:.\Generated_Source\PSoC4/clk_1.c **** /*******************************************************************************
   2:.\Generated_Source\PSoC4/clk_1.c **** * File Name: clk_1.c
   3:.\Generated_Source\PSoC4/clk_1.c **** * Version 2.20
   4:.\Generated_Source\PSoC4/clk_1.c **** *
   5:.\Generated_Source\PSoC4/clk_1.c **** *  Description:
   6:.\Generated_Source\PSoC4/clk_1.c **** *   Provides system API for the clocking, interrupts and watchdog timer.
   7:.\Generated_Source\PSoC4/clk_1.c **** *
   8:.\Generated_Source\PSoC4/clk_1.c **** *  Note:
   9:.\Generated_Source\PSoC4/clk_1.c **** *   Documentation of the API's in this file is located in the
  10:.\Generated_Source\PSoC4/clk_1.c **** *   System Reference Guide provided with PSoC Creator.
  11:.\Generated_Source\PSoC4/clk_1.c **** *
  12:.\Generated_Source\PSoC4/clk_1.c **** ********************************************************************************
  13:.\Generated_Source\PSoC4/clk_1.c **** * Copyright 2008-2012, Cypress Semiconductor Corporation.  All rights reserved.
  14:.\Generated_Source\PSoC4/clk_1.c **** * You may use this file only in accordance with the license, terms, conditions,
  15:.\Generated_Source\PSoC4/clk_1.c **** * disclaimers, and limitations in the end user license agreement accompanying
  16:.\Generated_Source\PSoC4/clk_1.c **** * the software package with which this file was provided.
  17:.\Generated_Source\PSoC4/clk_1.c **** *******************************************************************************/
  18:.\Generated_Source\PSoC4/clk_1.c **** 
  19:.\Generated_Source\PSoC4/clk_1.c **** #include <cydevice_trm.h>
  20:.\Generated_Source\PSoC4/clk_1.c **** #include "clk_1.h"
  21:.\Generated_Source\PSoC4/clk_1.c **** 
  22:.\Generated_Source\PSoC4/clk_1.c **** #if defined CYREG_PERI_DIV_CMD
  23:.\Generated_Source\PSoC4/clk_1.c **** 
  24:.\Generated_Source\PSoC4/clk_1.c **** /*******************************************************************************
  25:.\Generated_Source\PSoC4/clk_1.c **** * Function Name: clk_1_StartEx
  26:.\Generated_Source\PSoC4/clk_1.c **** ********************************************************************************
  27:.\Generated_Source\PSoC4/clk_1.c **** *
  28:.\Generated_Source\PSoC4/clk_1.c **** * Summary:
  29:.\Generated_Source\PSoC4/clk_1.c **** *  Starts the clock, aligned to the specified running clock.
  30:.\Generated_Source\PSoC4/clk_1.c **** *
  31:.\Generated_Source\PSoC4/clk_1.c **** * Parameters:
  32:.\Generated_Source\PSoC4/clk_1.c **** *  alignClkDiv:  The divider to which phase alignment is performed when the
ARM GAS  C:\Users\GLENNL~1\AppData\Local\Temp\cc1oWoSN.s 			page 2


  33:.\Generated_Source\PSoC4/clk_1.c **** *    clock is started.
  34:.\Generated_Source\PSoC4/clk_1.c **** *
  35:.\Generated_Source\PSoC4/clk_1.c **** * Returns:
  36:.\Generated_Source\PSoC4/clk_1.c **** *  None
  37:.\Generated_Source\PSoC4/clk_1.c **** *
  38:.\Generated_Source\PSoC4/clk_1.c **** *******************************************************************************/
  39:.\Generated_Source\PSoC4/clk_1.c **** void clk_1_StartEx(uint32 alignClkDiv)
  40:.\Generated_Source\PSoC4/clk_1.c **** {
  41:.\Generated_Source\PSoC4/clk_1.c ****     /* Make sure any previous start command has finished. */
  42:.\Generated_Source\PSoC4/clk_1.c ****     while((clk_1_CMD_REG & clk_1_CMD_ENABLE_MASK) != 0u)
  43:.\Generated_Source\PSoC4/clk_1.c ****     {
  44:.\Generated_Source\PSoC4/clk_1.c ****     }
  45:.\Generated_Source\PSoC4/clk_1.c ****     
  46:.\Generated_Source\PSoC4/clk_1.c ****     /* Specify the target divider and it's alignment divider, and enable. */
  47:.\Generated_Source\PSoC4/clk_1.c ****     clk_1_CMD_REG =
  48:.\Generated_Source\PSoC4/clk_1.c ****         ((uint32)clk_1__DIV_ID << clk_1_CMD_DIV_SHIFT)|
  49:.\Generated_Source\PSoC4/clk_1.c ****         (alignClkDiv << clk_1_CMD_PA_DIV_SHIFT) |
  50:.\Generated_Source\PSoC4/clk_1.c ****         (uint32)clk_1_CMD_ENABLE_MASK;
  51:.\Generated_Source\PSoC4/clk_1.c **** }
  52:.\Generated_Source\PSoC4/clk_1.c **** 
  53:.\Generated_Source\PSoC4/clk_1.c **** #else
  54:.\Generated_Source\PSoC4/clk_1.c **** 
  55:.\Generated_Source\PSoC4/clk_1.c **** /*******************************************************************************
  56:.\Generated_Source\PSoC4/clk_1.c **** * Function Name: clk_1_Start
  57:.\Generated_Source\PSoC4/clk_1.c **** ********************************************************************************
  58:.\Generated_Source\PSoC4/clk_1.c **** *
  59:.\Generated_Source\PSoC4/clk_1.c **** * Summary:
  60:.\Generated_Source\PSoC4/clk_1.c **** *  Starts the clock.
  61:.\Generated_Source\PSoC4/clk_1.c **** *
  62:.\Generated_Source\PSoC4/clk_1.c **** * Parameters:
  63:.\Generated_Source\PSoC4/clk_1.c **** *  None
  64:.\Generated_Source\PSoC4/clk_1.c **** *
  65:.\Generated_Source\PSoC4/clk_1.c **** * Returns:
  66:.\Generated_Source\PSoC4/clk_1.c **** *  None
  67:.\Generated_Source\PSoC4/clk_1.c **** *
  68:.\Generated_Source\PSoC4/clk_1.c **** *******************************************************************************/
  69:.\Generated_Source\PSoC4/clk_1.c **** 
  70:.\Generated_Source\PSoC4/clk_1.c **** void clk_1_Start(void)
  71:.\Generated_Source\PSoC4/clk_1.c **** {
  26              		.loc 1 71 0
  27              		.cfi_startproc
  28 0000 80B5     		push	{r7, lr}
  29              	.LCFI0:
  30              		.cfi_def_cfa_offset 8
  31              		.cfi_offset 7, -8
  32              		.cfi_offset 14, -4
  33 0002 00AF     		add	r7, sp, #0
  34              	.LCFI1:
  35              		.cfi_def_cfa_register 7
  72:.\Generated_Source\PSoC4/clk_1.c ****     /* Set the bit to enable the clock. */
  73:.\Generated_Source\PSoC4/clk_1.c ****     clk_1_ENABLE_REG |= clk_1__ENABLE_MASK;
  36              		.loc 1 73 0
  37 0004 044B     		ldr	r3, .L2
  38 0006 044A     		ldr	r2, .L2
  39 0008 1268     		ldr	r2, [r2]
  40 000a 8021     		mov	r1, #128
  41 000c 0906     		lsl	r1, r1, #24
ARM GAS  C:\Users\GLENNL~1\AppData\Local\Temp\cc1oWoSN.s 			page 3


  42 000e 0A43     		orr	r2, r1
  43 0010 1A60     		str	r2, [r3]
  74:.\Generated_Source\PSoC4/clk_1.c **** }
  44              		.loc 1 74 0
  45 0012 BD46     		mov	sp, r7
  46              		@ sp needed for prologue
  47 0014 80BD     		pop	{r7, pc}
  48              	.L3:
  49 0016 C046     		.align	2
  50              	.L2:
  51 0018 80000240 		.word	1073873024
  52              		.cfi_endproc
  53              	.LFE0:
  54              		.size	clk_1_Start, .-clk_1_Start
  55              		.section	.text.clk_1_Stop,"ax",%progbits
  56              		.align	2
  57              		.global	clk_1_Stop
  58              		.code	16
  59              		.thumb_func
  60              		.type	clk_1_Stop, %function
  61              	clk_1_Stop:
  62              	.LFB1:
  75:.\Generated_Source\PSoC4/clk_1.c **** 
  76:.\Generated_Source\PSoC4/clk_1.c **** #endif /* CYREG_PERI_DIV_CMD */
  77:.\Generated_Source\PSoC4/clk_1.c **** 
  78:.\Generated_Source\PSoC4/clk_1.c **** 
  79:.\Generated_Source\PSoC4/clk_1.c **** /*******************************************************************************
  80:.\Generated_Source\PSoC4/clk_1.c **** * Function Name: clk_1_Stop
  81:.\Generated_Source\PSoC4/clk_1.c **** ********************************************************************************
  82:.\Generated_Source\PSoC4/clk_1.c **** *
  83:.\Generated_Source\PSoC4/clk_1.c **** * Summary:
  84:.\Generated_Source\PSoC4/clk_1.c **** *  Stops the clock and returns immediately. This API does not require the
  85:.\Generated_Source\PSoC4/clk_1.c **** *  source clock to be running but may return before the hardware is actually
  86:.\Generated_Source\PSoC4/clk_1.c **** *  disabled.
  87:.\Generated_Source\PSoC4/clk_1.c **** *
  88:.\Generated_Source\PSoC4/clk_1.c **** * Parameters:
  89:.\Generated_Source\PSoC4/clk_1.c **** *  None
  90:.\Generated_Source\PSoC4/clk_1.c **** *
  91:.\Generated_Source\PSoC4/clk_1.c **** * Returns:
  92:.\Generated_Source\PSoC4/clk_1.c **** *  None
  93:.\Generated_Source\PSoC4/clk_1.c **** *
  94:.\Generated_Source\PSoC4/clk_1.c **** *******************************************************************************/
  95:.\Generated_Source\PSoC4/clk_1.c **** void clk_1_Stop(void)
  96:.\Generated_Source\PSoC4/clk_1.c **** {
  63              		.loc 1 96 0
  64              		.cfi_startproc
  65 0000 80B5     		push	{r7, lr}
  66              	.LCFI2:
  67              		.cfi_def_cfa_offset 8
  68              		.cfi_offset 7, -8
  69              		.cfi_offset 14, -4
  70 0002 00AF     		add	r7, sp, #0
  71              	.LCFI3:
  72              		.cfi_def_cfa_register 7
  97:.\Generated_Source\PSoC4/clk_1.c **** #if defined CYREG_PERI_DIV_CMD
  98:.\Generated_Source\PSoC4/clk_1.c **** 
  99:.\Generated_Source\PSoC4/clk_1.c ****     /* Make sure any previous start command has finished. */
ARM GAS  C:\Users\GLENNL~1\AppData\Local\Temp\cc1oWoSN.s 			page 4


 100:.\Generated_Source\PSoC4/clk_1.c ****     while((clk_1_CMD_REG & clk_1_CMD_ENABLE_MASK) != 0u)
 101:.\Generated_Source\PSoC4/clk_1.c ****     {
 102:.\Generated_Source\PSoC4/clk_1.c ****     }
 103:.\Generated_Source\PSoC4/clk_1.c ****     
 104:.\Generated_Source\PSoC4/clk_1.c ****     /* Specify the target divider and it's alignment divider, and disable. */
 105:.\Generated_Source\PSoC4/clk_1.c ****     clk_1_CMD_REG =
 106:.\Generated_Source\PSoC4/clk_1.c ****         ((uint32)clk_1__DIV_ID << clk_1_CMD_DIV_SHIFT)|
 107:.\Generated_Source\PSoC4/clk_1.c ****         ((uint32)clk_1_CMD_DISABLE_MASK);
 108:.\Generated_Source\PSoC4/clk_1.c **** 
 109:.\Generated_Source\PSoC4/clk_1.c **** #else
 110:.\Generated_Source\PSoC4/clk_1.c **** 
 111:.\Generated_Source\PSoC4/clk_1.c ****     /* Clear the bit to disable the clock. */
 112:.\Generated_Source\PSoC4/clk_1.c ****     clk_1_ENABLE_REG &= (uint32)(~clk_1__ENABLE_MASK);
  73              		.loc 1 112 0
  74 0004 034B     		ldr	r3, .L5
  75 0006 034A     		ldr	r2, .L5
  76 0008 1268     		ldr	r2, [r2]
  77 000a 5200     		lsl	r2, r2, #1
  78 000c 5208     		lsr	r2, r2, #1
  79 000e 1A60     		str	r2, [r3]
 113:.\Generated_Source\PSoC4/clk_1.c ****     
 114:.\Generated_Source\PSoC4/clk_1.c **** #endif /* CYREG_PERI_DIV_CMD */
 115:.\Generated_Source\PSoC4/clk_1.c **** }
  80              		.loc 1 115 0
  81 0010 BD46     		mov	sp, r7
  82              		@ sp needed for prologue
  83 0012 80BD     		pop	{r7, pc}
  84              	.L6:
  85              		.align	2
  86              	.L5:
  87 0014 80000240 		.word	1073873024
  88              		.cfi_endproc
  89              	.LFE1:
  90              		.size	clk_1_Stop, .-clk_1_Stop
  91              		.section	.text.clk_1_SetFractionalDividerRegister,"ax",%progbits
  92              		.align	2
  93              		.global	clk_1_SetFractionalDividerRegister
  94              		.code	16
  95              		.thumb_func
  96              		.type	clk_1_SetFractionalDividerRegister, %function
  97              	clk_1_SetFractionalDividerRegister:
  98              	.LFB2:
 116:.\Generated_Source\PSoC4/clk_1.c **** 
 117:.\Generated_Source\PSoC4/clk_1.c **** 
 118:.\Generated_Source\PSoC4/clk_1.c **** /*******************************************************************************
 119:.\Generated_Source\PSoC4/clk_1.c **** * Function Name: clk_1_SetFractionalDividerRegister
 120:.\Generated_Source\PSoC4/clk_1.c **** ********************************************************************************
 121:.\Generated_Source\PSoC4/clk_1.c **** *
 122:.\Generated_Source\PSoC4/clk_1.c **** * Summary:
 123:.\Generated_Source\PSoC4/clk_1.c **** *  Modifies the clock divider and the fractional divider.
 124:.\Generated_Source\PSoC4/clk_1.c **** *
 125:.\Generated_Source\PSoC4/clk_1.c **** * Parameters:
 126:.\Generated_Source\PSoC4/clk_1.c **** *  clkDivider:  Divider register value (0-65535). This value is NOT the
 127:.\Generated_Source\PSoC4/clk_1.c **** *    divider; the clock hardware divides by clkDivider plus one. For example,
 128:.\Generated_Source\PSoC4/clk_1.c **** *    to divide the clock by 2, this parameter should be set to 1.
 129:.\Generated_Source\PSoC4/clk_1.c **** *  fracDivider:  Fractional Divider register value (0-31).
 130:.\Generated_Source\PSoC4/clk_1.c **** * Returns:
ARM GAS  C:\Users\GLENNL~1\AppData\Local\Temp\cc1oWoSN.s 			page 5


 131:.\Generated_Source\PSoC4/clk_1.c **** *  None
 132:.\Generated_Source\PSoC4/clk_1.c **** *
 133:.\Generated_Source\PSoC4/clk_1.c **** *******************************************************************************/
 134:.\Generated_Source\PSoC4/clk_1.c **** void clk_1_SetFractionalDividerRegister(uint16 clkDivider, uint8 clkFractional)
 135:.\Generated_Source\PSoC4/clk_1.c **** {
  99              		.loc 1 135 0
 100              		.cfi_startproc
 101 0000 80B5     		push	{r7, lr}
 102              	.LCFI4:
 103              		.cfi_def_cfa_offset 8
 104              		.cfi_offset 7, -8
 105              		.cfi_offset 14, -4
 106 0002 84B0     		sub	sp, sp, #16
 107              	.LCFI5:
 108              		.cfi_def_cfa_offset 24
 109 0004 00AF     		add	r7, sp, #0
 110              	.LCFI6:
 111              		.cfi_def_cfa_register 7
 112 0006 0A1C     		mov	r2, r1
 113 0008 BB1D     		add	r3, r7, #6
 114 000a 011C     		add	r1, r0, #0
 115 000c 1980     		strh	r1, [r3]
 116 000e 7B1D     		add	r3, r7, #5
 117 0010 1A70     		strb	r2, [r3]
 136:.\Generated_Source\PSoC4/clk_1.c ****     uint32 maskVal;
 137:.\Generated_Source\PSoC4/clk_1.c ****     uint32 regVal;
 138:.\Generated_Source\PSoC4/clk_1.c ****     
 139:.\Generated_Source\PSoC4/clk_1.c **** #if defined (clk_1__FRAC_MASK) || defined (CYREG_PERI_DIV_CMD)
 140:.\Generated_Source\PSoC4/clk_1.c ****     
 141:.\Generated_Source\PSoC4/clk_1.c **** 	/* get all but divider bits */
 142:.\Generated_Source\PSoC4/clk_1.c ****     maskVal = clk_1_DIV_REG & 
 143:.\Generated_Source\PSoC4/clk_1.c ****                     (uint32)(~(uint32)(clk_1_DIV_INT_MASK | clk_1_DIV_FRAC_MASK)); 
 144:.\Generated_Source\PSoC4/clk_1.c **** 	/* combine mask and new divider vals into 32-bit value */
 145:.\Generated_Source\PSoC4/clk_1.c ****     regVal = maskVal |
 146:.\Generated_Source\PSoC4/clk_1.c ****         ((uint32)((uint32)clkDivider <<  clk_1_DIV_INT_SHIFT) & clk_1_DIV_INT_MASK) |
 147:.\Generated_Source\PSoC4/clk_1.c ****         ((uint32)((uint32)clkFractional << clk_1_DIV_FRAC_SHIFT) & clk_1_DIV_FRAC_MASK);
 148:.\Generated_Source\PSoC4/clk_1.c ****     
 149:.\Generated_Source\PSoC4/clk_1.c **** #else
 150:.\Generated_Source\PSoC4/clk_1.c ****     /* get all but integer divider bits */
 151:.\Generated_Source\PSoC4/clk_1.c ****     maskVal = clk_1_DIV_REG & (uint32)(~(uint32)clk_1__DIVIDER_MASK);
 118              		.loc 1 151 0
 119 0012 084B     		ldr	r3, .L8
 120 0014 1B68     		ldr	r3, [r3]
 121 0016 1B0C     		lsr	r3, r3, #16
 122 0018 1B04     		lsl	r3, r3, #16
 123 001a FB60     		str	r3, [r7, #12]
 152:.\Generated_Source\PSoC4/clk_1.c ****     /* combine mask and new divider val into 32-bit value */
 153:.\Generated_Source\PSoC4/clk_1.c ****     regVal = clkDivider | maskVal;
 124              		.loc 1 153 0
 125 001c BB1D     		add	r3, r7, #6
 126 001e 1A88     		ldrh	r2, [r3]
 127 0020 FB68     		ldr	r3, [r7, #12]
 128 0022 1343     		orr	r3, r2
 129 0024 BB60     		str	r3, [r7, #8]
 154:.\Generated_Source\PSoC4/clk_1.c ****     
 155:.\Generated_Source\PSoC4/clk_1.c **** #endif /* clk_1__FRAC_MASK || CYREG_PERI_DIV_CMD */
 156:.\Generated_Source\PSoC4/clk_1.c **** 
ARM GAS  C:\Users\GLENNL~1\AppData\Local\Temp\cc1oWoSN.s 			page 6


 157:.\Generated_Source\PSoC4/clk_1.c ****     clk_1_DIV_REG = regVal;
 130              		.loc 1 157 0
 131 0026 034B     		ldr	r3, .L8
 132 0028 BA68     		ldr	r2, [r7, #8]
 133 002a 1A60     		str	r2, [r3]
 158:.\Generated_Source\PSoC4/clk_1.c **** }
 134              		.loc 1 158 0
 135 002c BD46     		mov	sp, r7
 136 002e 04B0     		add	sp, sp, #16
 137              		@ sp needed for prologue
 138 0030 80BD     		pop	{r7, pc}
 139              	.L9:
 140 0032 C046     		.align	2
 141              	.L8:
 142 0034 80000240 		.word	1073873024
 143              		.cfi_endproc
 144              	.LFE2:
 145              		.size	clk_1_SetFractionalDividerRegister, .-clk_1_SetFractionalDividerRegister
 146              		.section	.text.clk_1_GetDividerRegister,"ax",%progbits
 147              		.align	2
 148              		.global	clk_1_GetDividerRegister
 149              		.code	16
 150              		.thumb_func
 151              		.type	clk_1_GetDividerRegister, %function
 152              	clk_1_GetDividerRegister:
 153              	.LFB3:
 159:.\Generated_Source\PSoC4/clk_1.c **** 
 160:.\Generated_Source\PSoC4/clk_1.c **** 
 161:.\Generated_Source\PSoC4/clk_1.c **** /*******************************************************************************
 162:.\Generated_Source\PSoC4/clk_1.c **** * Function Name: clk_1_GetDividerRegister
 163:.\Generated_Source\PSoC4/clk_1.c **** ********************************************************************************
 164:.\Generated_Source\PSoC4/clk_1.c **** *
 165:.\Generated_Source\PSoC4/clk_1.c **** * Summary:
 166:.\Generated_Source\PSoC4/clk_1.c **** *  Gets the clock divider register value.
 167:.\Generated_Source\PSoC4/clk_1.c **** *
 168:.\Generated_Source\PSoC4/clk_1.c **** * Parameters:
 169:.\Generated_Source\PSoC4/clk_1.c **** *  None
 170:.\Generated_Source\PSoC4/clk_1.c **** *
 171:.\Generated_Source\PSoC4/clk_1.c **** * Returns:
 172:.\Generated_Source\PSoC4/clk_1.c **** *  Divide value of the clock minus 1. For example, if the clock is set to
 173:.\Generated_Source\PSoC4/clk_1.c **** *  divide by 2, the return value will be 1.
 174:.\Generated_Source\PSoC4/clk_1.c **** *
 175:.\Generated_Source\PSoC4/clk_1.c **** *******************************************************************************/
 176:.\Generated_Source\PSoC4/clk_1.c **** uint16 clk_1_GetDividerRegister(void)
 177:.\Generated_Source\PSoC4/clk_1.c **** {
 154              		.loc 1 177 0
 155              		.cfi_startproc
 156 0000 80B5     		push	{r7, lr}
 157              	.LCFI7:
 158              		.cfi_def_cfa_offset 8
 159              		.cfi_offset 7, -8
 160              		.cfi_offset 14, -4
 161 0002 00AF     		add	r7, sp, #0
 162              	.LCFI8:
 163              		.cfi_def_cfa_register 7
 178:.\Generated_Source\PSoC4/clk_1.c ****     return (uint16)((clk_1_DIV_REG & clk_1_DIV_INT_MASK)
 164              		.loc 1 178 0
ARM GAS  C:\Users\GLENNL~1\AppData\Local\Temp\cc1oWoSN.s 			page 7


 165 0004 024B     		ldr	r3, .L12
 166 0006 1B68     		ldr	r3, [r3]
 167 0008 9BB2     		uxth	r3, r3
 179:.\Generated_Source\PSoC4/clk_1.c ****         >> clk_1_DIV_INT_SHIFT);
 180:.\Generated_Source\PSoC4/clk_1.c **** }
 168              		.loc 1 180 0
 169 000a 181C     		mov	r0, r3
 170 000c BD46     		mov	sp, r7
 171              		@ sp needed for prologue
 172 000e 80BD     		pop	{r7, pc}
 173              	.L13:
 174              		.align	2
 175              	.L12:
 176 0010 80000240 		.word	1073873024
 177              		.cfi_endproc
 178              	.LFE3:
 179              		.size	clk_1_GetDividerRegister, .-clk_1_GetDividerRegister
 180              		.section	.text.clk_1_GetFractionalDividerRegister,"ax",%progbits
 181              		.align	2
 182              		.global	clk_1_GetFractionalDividerRegister
 183              		.code	16
 184              		.thumb_func
 185              		.type	clk_1_GetFractionalDividerRegister, %function
 186              	clk_1_GetFractionalDividerRegister:
 187              	.LFB4:
 181:.\Generated_Source\PSoC4/clk_1.c **** 
 182:.\Generated_Source\PSoC4/clk_1.c **** 
 183:.\Generated_Source\PSoC4/clk_1.c **** /*******************************************************************************
 184:.\Generated_Source\PSoC4/clk_1.c **** * Function Name: clk_1_GetFractionalDividerRegister
 185:.\Generated_Source\PSoC4/clk_1.c **** ********************************************************************************
 186:.\Generated_Source\PSoC4/clk_1.c **** *
 187:.\Generated_Source\PSoC4/clk_1.c **** * Summary:
 188:.\Generated_Source\PSoC4/clk_1.c **** *  Gets the clock fractional divider register value.
 189:.\Generated_Source\PSoC4/clk_1.c **** *
 190:.\Generated_Source\PSoC4/clk_1.c **** * Parameters:
 191:.\Generated_Source\PSoC4/clk_1.c **** *  None
 192:.\Generated_Source\PSoC4/clk_1.c **** *
 193:.\Generated_Source\PSoC4/clk_1.c **** * Returns:
 194:.\Generated_Source\PSoC4/clk_1.c **** *  Fractional Divide value of the clock
 195:.\Generated_Source\PSoC4/clk_1.c **** *  0 if the fractional divider is not in use.
 196:.\Generated_Source\PSoC4/clk_1.c **** *
 197:.\Generated_Source\PSoC4/clk_1.c **** *******************************************************************************/
 198:.\Generated_Source\PSoC4/clk_1.c **** uint8 clk_1_GetFractionalDividerRegister(void)
 199:.\Generated_Source\PSoC4/clk_1.c **** {
 188              		.loc 1 199 0
 189              		.cfi_startproc
 190 0000 80B5     		push	{r7, lr}
 191              	.LCFI9:
 192              		.cfi_def_cfa_offset 8
 193              		.cfi_offset 7, -8
 194              		.cfi_offset 14, -4
 195 0002 00AF     		add	r7, sp, #0
 196              	.LCFI10:
 197              		.cfi_def_cfa_register 7
 200:.\Generated_Source\PSoC4/clk_1.c **** #if defined (clk_1__FRAC_MASK)
 201:.\Generated_Source\PSoC4/clk_1.c ****     /* return fractional divider bits */
 202:.\Generated_Source\PSoC4/clk_1.c ****     return (uint8)((clk_1_DIV_REG & clk_1_DIV_FRAC_MASK)
ARM GAS  C:\Users\GLENNL~1\AppData\Local\Temp\cc1oWoSN.s 			page 8


 203:.\Generated_Source\PSoC4/clk_1.c ****         >> clk_1_DIV_FRAC_SHIFT);
 204:.\Generated_Source\PSoC4/clk_1.c **** #else
 205:.\Generated_Source\PSoC4/clk_1.c ****     return 0u;
 198              		.loc 1 205 0
 199 0004 0023     		mov	r3, #0
 206:.\Generated_Source\PSoC4/clk_1.c **** #endif /* clk_1__FRAC_MASK */
 207:.\Generated_Source\PSoC4/clk_1.c **** }
 200              		.loc 1 207 0
 201 0006 181C     		mov	r0, r3
 202 0008 BD46     		mov	sp, r7
 203              		@ sp needed for prologue
 204 000a 80BD     		pop	{r7, pc}
 205              		.cfi_endproc
 206              	.LFE4:
 207              		.size	clk_1_GetFractionalDividerRegister, .-clk_1_GetFractionalDividerRegister
 208              		.text
 209              	.Letext0:
 210              		.file 2 "./Generated_Source/PSoC4/cytypes.h"