ARM GAS  C:\Users\GLENNL~1\AppData\Local\Temp\cc9CBuac.s 			page 1


   1              		.cpu cortex-m0
   2              		.fpu softvfp
   3              		.eabi_attribute 20, 1
   4              		.eabi_attribute 21, 1
   5              		.eabi_attribute 23, 3
   6              		.eabi_attribute 24, 1
   7              		.eabi_attribute 25, 1
   8              		.eabi_attribute 26, 1
   9              		.eabi_attribute 30, 6
  10              		.eabi_attribute 34, 0
  11              		.eabi_attribute 18, 4
  12              		.code	16
  13              		.file	"PWM2.c"
  14              		.text
  15              	.Ltext0:
  16              		.cfi_sections	.debug_frame
  17              		.global	PWM2_initVar
  18              		.bss
  19              		.type	PWM2_initVar, %object
  20              		.size	PWM2_initVar, 1
  21              	PWM2_initVar:
  22 0000 00       		.space	1
  23              		.section	.text.PWM2_Start,"ax",%progbits
  24              		.align	2
  25              		.global	PWM2_Start
  26              		.code	16
  27              		.thumb_func
  28              		.type	PWM2_Start, %function
  29              	PWM2_Start:
  30              	.LFB0:
  31              		.file 1 ".\\Generated_Source\\PSoC4\\PWM2.c"
   1:.\Generated_Source\PSoC4/PWM2.c **** /*******************************************************************************
   2:.\Generated_Source\PSoC4/PWM2.c **** * File Name: PWM2.c  
   3:.\Generated_Source\PSoC4/PWM2.c **** * Version 3.0
   4:.\Generated_Source\PSoC4/PWM2.c **** *
   5:.\Generated_Source\PSoC4/PWM2.c **** * Description:
   6:.\Generated_Source\PSoC4/PWM2.c **** *  The PWM User Module consist of an 8 or 16-bit counter with two 8 or 16-bit
   7:.\Generated_Source\PSoC4/PWM2.c **** *  comparitors. Each instance of this user module is capable of generating
   8:.\Generated_Source\PSoC4/PWM2.c **** *  two PWM outputs with the same period. The pulse width is selectable between
   9:.\Generated_Source\PSoC4/PWM2.c **** *  1 and 255/65535. The period is selectable between 2 and 255/65536 clocks. 
  10:.\Generated_Source\PSoC4/PWM2.c **** *  The compare value output may be configured to be active when the present 
  11:.\Generated_Source\PSoC4/PWM2.c **** *  counter is less than or less than/equal to the compare value.
  12:.\Generated_Source\PSoC4/PWM2.c **** *  A terminal count output is also provided. It generates a pulse one clock
  13:.\Generated_Source\PSoC4/PWM2.c **** *  width wide when the counter is equal to zero.
  14:.\Generated_Source\PSoC4/PWM2.c **** *
  15:.\Generated_Source\PSoC4/PWM2.c **** * Note:
  16:.\Generated_Source\PSoC4/PWM2.c **** *
  17:.\Generated_Source\PSoC4/PWM2.c **** *******************************************************************************
  18:.\Generated_Source\PSoC4/PWM2.c **** * Copyright 2008-2012, Cypress Semiconductor Corporation.  All rights reserved.
  19:.\Generated_Source\PSoC4/PWM2.c **** * You may use this file only in accordance with the license, terms, conditions, 
  20:.\Generated_Source\PSoC4/PWM2.c **** * disclaimers, and limitations in the end user license agreement accompanying 
  21:.\Generated_Source\PSoC4/PWM2.c **** * the software package with which this file was provided.
  22:.\Generated_Source\PSoC4/PWM2.c **** ********************************************************************************/
  23:.\Generated_Source\PSoC4/PWM2.c **** 
  24:.\Generated_Source\PSoC4/PWM2.c **** #include "cytypes.h"
  25:.\Generated_Source\PSoC4/PWM2.c **** #include "PWM2.h"
  26:.\Generated_Source\PSoC4/PWM2.c **** 
ARM GAS  C:\Users\GLENNL~1\AppData\Local\Temp\cc9CBuac.s 			page 2


  27:.\Generated_Source\PSoC4/PWM2.c **** uint8 PWM2_initVar = 0u;
  28:.\Generated_Source\PSoC4/PWM2.c **** 
  29:.\Generated_Source\PSoC4/PWM2.c **** 
  30:.\Generated_Source\PSoC4/PWM2.c **** /*******************************************************************************
  31:.\Generated_Source\PSoC4/PWM2.c **** * Function Name: PWM2_Start
  32:.\Generated_Source\PSoC4/PWM2.c **** ********************************************************************************
  33:.\Generated_Source\PSoC4/PWM2.c **** *
  34:.\Generated_Source\PSoC4/PWM2.c **** * Summary:
  35:.\Generated_Source\PSoC4/PWM2.c **** *  The start function initializes the pwm with the default values, the 
  36:.\Generated_Source\PSoC4/PWM2.c **** *  enables the counter to begin counting.  It does not enable interrupts,
  37:.\Generated_Source\PSoC4/PWM2.c **** *  the EnableInt command should be called if interrupt generation is required.
  38:.\Generated_Source\PSoC4/PWM2.c **** *
  39:.\Generated_Source\PSoC4/PWM2.c **** * Parameters:  
  40:.\Generated_Source\PSoC4/PWM2.c **** *  None  
  41:.\Generated_Source\PSoC4/PWM2.c **** *
  42:.\Generated_Source\PSoC4/PWM2.c **** * Return: 
  43:.\Generated_Source\PSoC4/PWM2.c **** *  None
  44:.\Generated_Source\PSoC4/PWM2.c **** *
  45:.\Generated_Source\PSoC4/PWM2.c **** * Global variables:
  46:.\Generated_Source\PSoC4/PWM2.c **** *  PWM2_initVar: Is modified when this function is called for the 
  47:.\Generated_Source\PSoC4/PWM2.c **** *   first time. Is used to ensure that initialization happens only once.
  48:.\Generated_Source\PSoC4/PWM2.c **** *
  49:.\Generated_Source\PSoC4/PWM2.c **** *******************************************************************************/
  50:.\Generated_Source\PSoC4/PWM2.c **** void PWM2_Start(void) 
  51:.\Generated_Source\PSoC4/PWM2.c **** {
  32              		.loc 1 51 0
  33              		.cfi_startproc
  34 0000 80B5     		push	{r7, lr}
  35              	.LCFI0:
  36              		.cfi_def_cfa_offset 8
  37              		.cfi_offset 7, -8
  38              		.cfi_offset 14, -4
  39 0002 00AF     		add	r7, sp, #0
  40              	.LCFI1:
  41              		.cfi_def_cfa_register 7
  52:.\Generated_Source\PSoC4/PWM2.c ****     /* If not Initialized then initialize all required hardware and software */
  53:.\Generated_Source\PSoC4/PWM2.c ****     if(PWM2_initVar == 0u)
  42              		.loc 1 53 0
  43 0004 064B     		ldr	r3, .L3
  44 0006 1B78     		ldrb	r3, [r3]
  45 0008 002B     		cmp	r3, #0
  46 000a 04D1     		bne	.L2
  54:.\Generated_Source\PSoC4/PWM2.c ****     {
  55:.\Generated_Source\PSoC4/PWM2.c ****         PWM2_Init();
  47              		.loc 1 55 0
  48 000c FFF7FEFF 		bl	PWM2_Init
  56:.\Generated_Source\PSoC4/PWM2.c ****         PWM2_initVar = 1u;
  49              		.loc 1 56 0
  50 0010 034B     		ldr	r3, .L3
  51 0012 0122     		mov	r2, #1
  52 0014 1A70     		strb	r2, [r3]
  53              	.L2:
  57:.\Generated_Source\PSoC4/PWM2.c ****     }
  58:.\Generated_Source\PSoC4/PWM2.c ****     PWM2_Enable();
  54              		.loc 1 58 0
  55 0016 FFF7FEFF 		bl	PWM2_Enable
  59:.\Generated_Source\PSoC4/PWM2.c **** 
ARM GAS  C:\Users\GLENNL~1\AppData\Local\Temp\cc9CBuac.s 			page 3


  60:.\Generated_Source\PSoC4/PWM2.c **** }
  56              		.loc 1 60 0
  57 001a BD46     		mov	sp, r7
  58              		@ sp needed for prologue
  59 001c 80BD     		pop	{r7, pc}
  60              	.L4:
  61 001e C046     		.align	2
  62              	.L3:
  63 0020 00000000 		.word	PWM2_initVar
  64              		.cfi_endproc
  65              	.LFE0:
  66              		.size	PWM2_Start, .-PWM2_Start
  67              		.section	.text.PWM2_Init,"ax",%progbits
  68              		.align	2
  69              		.global	PWM2_Init
  70              		.code	16
  71              		.thumb_func
  72              		.type	PWM2_Init, %function
  73              	PWM2_Init:
  74              	.LFB1:
  61:.\Generated_Source\PSoC4/PWM2.c **** 
  62:.\Generated_Source\PSoC4/PWM2.c **** 
  63:.\Generated_Source\PSoC4/PWM2.c **** /*******************************************************************************
  64:.\Generated_Source\PSoC4/PWM2.c **** * Function Name: PWM2_Init
  65:.\Generated_Source\PSoC4/PWM2.c **** ********************************************************************************
  66:.\Generated_Source\PSoC4/PWM2.c **** *
  67:.\Generated_Source\PSoC4/PWM2.c **** * Summary:
  68:.\Generated_Source\PSoC4/PWM2.c **** *  Initialize component's parameters to the parameters set by user in the 
  69:.\Generated_Source\PSoC4/PWM2.c **** *  customizer of the component placed onto schematic. Usually called in 
  70:.\Generated_Source\PSoC4/PWM2.c **** *  PWM2_Start().
  71:.\Generated_Source\PSoC4/PWM2.c **** *
  72:.\Generated_Source\PSoC4/PWM2.c **** * Parameters:  
  73:.\Generated_Source\PSoC4/PWM2.c **** *  None
  74:.\Generated_Source\PSoC4/PWM2.c **** *
  75:.\Generated_Source\PSoC4/PWM2.c **** * Return: 
  76:.\Generated_Source\PSoC4/PWM2.c **** *  None
  77:.\Generated_Source\PSoC4/PWM2.c **** *
  78:.\Generated_Source\PSoC4/PWM2.c **** *******************************************************************************/
  79:.\Generated_Source\PSoC4/PWM2.c **** void PWM2_Init(void) 
  80:.\Generated_Source\PSoC4/PWM2.c **** {
  75              		.loc 1 80 0
  76              		.cfi_startproc
  77 0000 90B5     		push	{r4, r7, lr}
  78              	.LCFI2:
  79              		.cfi_def_cfa_offset 12
  80              		.cfi_offset 4, -12
  81              		.cfi_offset 7, -8
  82              		.cfi_offset 14, -4
  83 0002 83B0     		sub	sp, sp, #12
  84              	.LCFI3:
  85              		.cfi_def_cfa_offset 24
  86 0004 00AF     		add	r7, sp, #0
  87              	.LCFI4:
  88              		.cfi_def_cfa_register 7
  81:.\Generated_Source\PSoC4/PWM2.c ****     #if (PWM2_UsingFixedFunction || PWM2_UseControl)
  82:.\Generated_Source\PSoC4/PWM2.c ****         uint8 ctrl;
  83:.\Generated_Source\PSoC4/PWM2.c ****     #endif /* (PWM2_UsingFixedFunction || PWM2_UseControl) */
ARM GAS  C:\Users\GLENNL~1\AppData\Local\Temp\cc9CBuac.s 			page 4


  84:.\Generated_Source\PSoC4/PWM2.c ****     
  85:.\Generated_Source\PSoC4/PWM2.c ****     #if(!PWM2_UsingFixedFunction) 
  86:.\Generated_Source\PSoC4/PWM2.c ****         #if(PWM2_UseStatus)
  87:.\Generated_Source\PSoC4/PWM2.c ****             /* Interrupt State Backup for Critical Region*/
  88:.\Generated_Source\PSoC4/PWM2.c ****             uint8 PWM2_interruptState;
  89:.\Generated_Source\PSoC4/PWM2.c ****         #endif /* (PWM2_UseStatus) */
  90:.\Generated_Source\PSoC4/PWM2.c ****     #endif /* (!PWM2_UsingFixedFunction) */
  91:.\Generated_Source\PSoC4/PWM2.c ****     
  92:.\Generated_Source\PSoC4/PWM2.c ****     #if (PWM2_UsingFixedFunction)
  93:.\Generated_Source\PSoC4/PWM2.c ****         /* You are allowed to write the compare value (FF only) */
  94:.\Generated_Source\PSoC4/PWM2.c ****         PWM2_CONTROL |= PWM2_CFG0_MODE;
  95:.\Generated_Source\PSoC4/PWM2.c ****         #if (PWM2_DeadBand2_4)
  96:.\Generated_Source\PSoC4/PWM2.c ****             PWM2_CONTROL |= PWM2_CFG0_DB;
  97:.\Generated_Source\PSoC4/PWM2.c ****         #endif /* (PWM2_DeadBand2_4) */
  98:.\Generated_Source\PSoC4/PWM2.c ****                 
  99:.\Generated_Source\PSoC4/PWM2.c ****         ctrl = PWM2_CONTROL3 & ((uint8 )(~PWM2_CTRL_CMPMODE1_MASK));
 100:.\Generated_Source\PSoC4/PWM2.c ****         PWM2_CONTROL3 = ctrl | PWM2_DEFAULT_COMPARE1_MODE;
 101:.\Generated_Source\PSoC4/PWM2.c ****         
 102:.\Generated_Source\PSoC4/PWM2.c ****          /* Clear and Set SYNCTC and SYNCCMP bits of RT1 register */
 103:.\Generated_Source\PSoC4/PWM2.c ****         PWM2_RT1 &= ((uint8)(~PWM2_RT1_MASK));
 104:.\Generated_Source\PSoC4/PWM2.c ****         PWM2_RT1 |= PWM2_SYNC;     
 105:.\Generated_Source\PSoC4/PWM2.c ****                 
 106:.\Generated_Source\PSoC4/PWM2.c ****         /*Enable DSI Sync all all inputs of the PWM*/
 107:.\Generated_Source\PSoC4/PWM2.c ****         PWM2_RT1 &= ((uint8)(~PWM2_SYNCDSI_MASK));
 108:.\Generated_Source\PSoC4/PWM2.c ****         PWM2_RT1 |= PWM2_SYNCDSI_EN;
 109:.\Generated_Source\PSoC4/PWM2.c ****        
 110:.\Generated_Source\PSoC4/PWM2.c ****     #elif (PWM2_UseControl)
 111:.\Generated_Source\PSoC4/PWM2.c ****         /* Set the default compare mode defined in the parameter */
 112:.\Generated_Source\PSoC4/PWM2.c ****         ctrl = PWM2_CONTROL & ((uint8)(~PWM2_CTRL_CMPMODE2_MASK)) & ((uint8)(~PWM2_CTRL_CMPMODE1_MA
  89              		.loc 1 112 0
  90 0006 1C4B     		ldr	r3, .L6
  91 0008 1B78     		ldrb	r3, [r3]
  92 000a DAB2     		uxtb	r2, r3
  93 000c FB1D     		add	r3, r7, #7
  94 000e 3F21     		mov	r1, #63
  95 0010 8A43     		bic	r2, r1
  96 0012 1A70     		strb	r2, [r3]
 113:.\Generated_Source\PSoC4/PWM2.c ****         PWM2_CONTROL = ctrl | PWM2_DEFAULT_COMPARE2_MODE | 
  97              		.loc 1 113 0
  98 0014 184B     		ldr	r3, .L6
  99 0016 FA1D     		add	r2, r7, #7
 100 0018 1278     		ldrb	r2, [r2]
 101 001a 0921     		mov	r1, #9
 102 001c 0A43     		orr	r2, r1
 103 001e D2B2     		uxtb	r2, r2
 104 0020 1A70     		strb	r2, [r3]
 114:.\Generated_Source\PSoC4/PWM2.c ****                                    PWM2_DEFAULT_COMPARE1_MODE;
 115:.\Generated_Source\PSoC4/PWM2.c ****     #endif /* (PWM2_UsingFixedFunction) */
 116:.\Generated_Source\PSoC4/PWM2.c ****         
 117:.\Generated_Source\PSoC4/PWM2.c ****     #if (!PWM2_UsingFixedFunction)
 118:.\Generated_Source\PSoC4/PWM2.c ****         #if (PWM2_Resolution == 8)
 119:.\Generated_Source\PSoC4/PWM2.c ****             /* Set FIFO 0 to 1 byte register for period*/
 120:.\Generated_Source\PSoC4/PWM2.c ****             PWM2_AUX_CONTROLDP0 |= (PWM2_AUX_CTRL_FIFO0_CLR);
 105              		.loc 1 120 0
 106 0022 164B     		ldr	r3, .L6+4
 107 0024 154A     		ldr	r2, .L6+4
 108 0026 1278     		ldrb	r2, [r2]
ARM GAS  C:\Users\GLENNL~1\AppData\Local\Temp\cc9CBuac.s 			page 5


 109 0028 D2B2     		uxtb	r2, r2
 110 002a 0121     		mov	r1, #1
 111 002c 0A43     		orr	r2, r1
 112 002e D2B2     		uxtb	r2, r2
 113 0030 1A70     		strb	r2, [r3]
 121:.\Generated_Source\PSoC4/PWM2.c ****         #else /* (PWM2_Resolution == 16)*/
 122:.\Generated_Source\PSoC4/PWM2.c ****             /* Set FIFO 0 to 1 byte register for period */
 123:.\Generated_Source\PSoC4/PWM2.c ****             PWM2_AUX_CONTROLDP0 |= (PWM2_AUX_CTRL_FIFO0_CLR);
 124:.\Generated_Source\PSoC4/PWM2.c ****             PWM2_AUX_CONTROLDP1 |= (PWM2_AUX_CTRL_FIFO0_CLR);
 125:.\Generated_Source\PSoC4/PWM2.c ****         #endif /* (PWM2_Resolution == 8) */
 126:.\Generated_Source\PSoC4/PWM2.c **** 
 127:.\Generated_Source\PSoC4/PWM2.c ****         PWM2_WriteCounter(PWM2_INIT_PERIOD_VALUE);
 114              		.loc 1 127 0
 115 0032 FF20     		mov	r0, #255
 116 0034 FFF7FEFF 		bl	PWM2_WriteCounter
 128:.\Generated_Source\PSoC4/PWM2.c ****     #endif /* (!PWM2_UsingFixedFunction) */
 129:.\Generated_Source\PSoC4/PWM2.c ****         
 130:.\Generated_Source\PSoC4/PWM2.c ****     PWM2_WritePeriod(PWM2_INIT_PERIOD_VALUE);
 117              		.loc 1 130 0
 118 0038 FF20     		mov	r0, #255
 119 003a FFF7FEFF 		bl	PWM2_WritePeriod
 131:.\Generated_Source\PSoC4/PWM2.c **** 
 132:.\Generated_Source\PSoC4/PWM2.c ****         #if (PWM2_UseOneCompareMode)
 133:.\Generated_Source\PSoC4/PWM2.c ****             PWM2_WriteCompare(PWM2_INIT_COMPARE_VALUE1);
 120              		.loc 1 133 0
 121 003e 7F20     		mov	r0, #127
 122 0040 FFF7FEFF 		bl	PWM2_WriteCompare
 134:.\Generated_Source\PSoC4/PWM2.c ****         #else
 135:.\Generated_Source\PSoC4/PWM2.c ****             PWM2_WriteCompare1(PWM2_INIT_COMPARE_VALUE1);
 136:.\Generated_Source\PSoC4/PWM2.c ****             PWM2_WriteCompare2(PWM2_INIT_COMPARE_VALUE2);
 137:.\Generated_Source\PSoC4/PWM2.c ****         #endif /* (PWM2_UseOneCompareMode) */
 138:.\Generated_Source\PSoC4/PWM2.c ****         
 139:.\Generated_Source\PSoC4/PWM2.c ****         #if (PWM2_KillModeMinTime)
 140:.\Generated_Source\PSoC4/PWM2.c ****             PWM2_WriteKillTime(PWM2_MinimumKillTime);
 141:.\Generated_Source\PSoC4/PWM2.c ****         #endif /* (PWM2_KillModeMinTime) */
 142:.\Generated_Source\PSoC4/PWM2.c ****         
 143:.\Generated_Source\PSoC4/PWM2.c ****         #if (PWM2_DeadBandUsed)
 144:.\Generated_Source\PSoC4/PWM2.c ****             PWM2_WriteDeadTime(PWM2_INIT_DEAD_TIME);
 145:.\Generated_Source\PSoC4/PWM2.c ****         #endif /* (PWM2_DeadBandUsed) */
 146:.\Generated_Source\PSoC4/PWM2.c **** 
 147:.\Generated_Source\PSoC4/PWM2.c ****     #if (PWM2_UseStatus || PWM2_UsingFixedFunction)
 148:.\Generated_Source\PSoC4/PWM2.c ****         PWM2_SetInterruptMode(PWM2_INIT_INTERRUPTS_MODE);
 123              		.loc 1 148 0
 124 0044 0020     		mov	r0, #0
 125 0046 FFF7FEFF 		bl	PWM2_SetInterruptMode
 149:.\Generated_Source\PSoC4/PWM2.c ****     #endif /* (PWM2_UseStatus || PWM2_UsingFixedFunction) */
 150:.\Generated_Source\PSoC4/PWM2.c ****         
 151:.\Generated_Source\PSoC4/PWM2.c ****     #if (PWM2_UsingFixedFunction)
 152:.\Generated_Source\PSoC4/PWM2.c ****         /* Globally Enable the Fixed Function Block chosen */
 153:.\Generated_Source\PSoC4/PWM2.c ****         PWM2_GLOBAL_ENABLE |= PWM2_BLOCK_EN_MASK;
 154:.\Generated_Source\PSoC4/PWM2.c ****         /* Set the Interrupt source to come from the status register */
 155:.\Generated_Source\PSoC4/PWM2.c ****         PWM2_CONTROL2 |= PWM2_CTRL2_IRQ_SEL;
 156:.\Generated_Source\PSoC4/PWM2.c ****     #else
 157:.\Generated_Source\PSoC4/PWM2.c ****         #if(PWM2_UseStatus)
 158:.\Generated_Source\PSoC4/PWM2.c ****             
 159:.\Generated_Source\PSoC4/PWM2.c ****             /* CyEnterCriticalRegion and CyExitCriticalRegion are used to mark following region cri
 160:.\Generated_Source\PSoC4/PWM2.c ****             /* Enter Critical Region*/
ARM GAS  C:\Users\GLENNL~1\AppData\Local\Temp\cc9CBuac.s 			page 6


 161:.\Generated_Source\PSoC4/PWM2.c ****             PWM2_interruptState = CyEnterCriticalSection();
 126              		.loc 1 161 0
 127 004a BC1D     		add	r4, r7, #6
 128 004c FFF7FEFF 		bl	CyEnterCriticalSection
 129 0050 031C     		mov	r3, r0
 130 0052 2370     		strb	r3, [r4]
 162:.\Generated_Source\PSoC4/PWM2.c ****             /* Use the interrupt output of the status register for IRQ output */
 163:.\Generated_Source\PSoC4/PWM2.c ****             PWM2_STATUS_AUX_CTRL |= PWM2_STATUS_ACTL_INT_EN_MASK;
 131              		.loc 1 163 0
 132 0054 094B     		ldr	r3, .L6+4
 133 0056 094A     		ldr	r2, .L6+4
 134 0058 1278     		ldrb	r2, [r2]
 135 005a D2B2     		uxtb	r2, r2
 136 005c 1021     		mov	r1, #16
 137 005e 0A43     		orr	r2, r1
 138 0060 D2B2     		uxtb	r2, r2
 139 0062 1A70     		strb	r2, [r3]
 164:.\Generated_Source\PSoC4/PWM2.c ****             
 165:.\Generated_Source\PSoC4/PWM2.c ****              /* Exit Critical Region*/
 166:.\Generated_Source\PSoC4/PWM2.c ****             CyExitCriticalSection(PWM2_interruptState);
 140              		.loc 1 166 0
 141 0064 BB1D     		add	r3, r7, #6
 142 0066 1B78     		ldrb	r3, [r3]
 143 0068 181C     		mov	r0, r3
 144 006a FFF7FEFF 		bl	CyExitCriticalSection
 167:.\Generated_Source\PSoC4/PWM2.c ****             
 168:.\Generated_Source\PSoC4/PWM2.c ****             /* Clear the FIFO to enable the PWM2_STATUS_FIFOFULL
 169:.\Generated_Source\PSoC4/PWM2.c ****                    bit to be set on FIFO full. */
 170:.\Generated_Source\PSoC4/PWM2.c ****             PWM2_ClearFIFO();
 145              		.loc 1 170 0
 146 006e FFF7FEFF 		bl	PWM2_ClearFIFO
 171:.\Generated_Source\PSoC4/PWM2.c ****         #endif /* (PWM2_UseStatus) */
 172:.\Generated_Source\PSoC4/PWM2.c ****     #endif /* (PWM2_UsingFixedFunction) */
 173:.\Generated_Source\PSoC4/PWM2.c **** }
 147              		.loc 1 173 0
 148 0072 BD46     		mov	sp, r7
 149 0074 03B0     		add	sp, sp, #12
 150              		@ sp needed for prologue
 151 0076 90BD     		pop	{r4, r7, pc}
 152              	.L7:
 153              		.align	2
 154              	.L6:
 155 0078 72000F40 		.word	1074724978
 156 007c 92000F40 		.word	1074725010
 157              		.cfi_endproc
 158              	.LFE1:
 159              		.size	PWM2_Init, .-PWM2_Init
 160              		.section	.text.PWM2_Enable,"ax",%progbits
 161              		.align	2
 162              		.global	PWM2_Enable
 163              		.code	16
 164              		.thumb_func
 165              		.type	PWM2_Enable, %function
 166              	PWM2_Enable:
 167              	.LFB2:
 174:.\Generated_Source\PSoC4/PWM2.c **** 
 175:.\Generated_Source\PSoC4/PWM2.c **** 
ARM GAS  C:\Users\GLENNL~1\AppData\Local\Temp\cc9CBuac.s 			page 7


 176:.\Generated_Source\PSoC4/PWM2.c **** /*******************************************************************************
 177:.\Generated_Source\PSoC4/PWM2.c **** * Function Name: PWM2_Enable
 178:.\Generated_Source\PSoC4/PWM2.c **** ********************************************************************************
 179:.\Generated_Source\PSoC4/PWM2.c **** *
 180:.\Generated_Source\PSoC4/PWM2.c **** * Summary: 
 181:.\Generated_Source\PSoC4/PWM2.c **** *  Enables the PWM block operation
 182:.\Generated_Source\PSoC4/PWM2.c **** *
 183:.\Generated_Source\PSoC4/PWM2.c **** * Parameters:  
 184:.\Generated_Source\PSoC4/PWM2.c **** *  None
 185:.\Generated_Source\PSoC4/PWM2.c **** *
 186:.\Generated_Source\PSoC4/PWM2.c **** * Return: 
 187:.\Generated_Source\PSoC4/PWM2.c **** *  None
 188:.\Generated_Source\PSoC4/PWM2.c **** *
 189:.\Generated_Source\PSoC4/PWM2.c **** * Side Effects: 
 190:.\Generated_Source\PSoC4/PWM2.c **** *  This works only if software enable mode is chosen
 191:.\Generated_Source\PSoC4/PWM2.c **** *
 192:.\Generated_Source\PSoC4/PWM2.c **** *******************************************************************************/
 193:.\Generated_Source\PSoC4/PWM2.c **** void PWM2_Enable(void) 
 194:.\Generated_Source\PSoC4/PWM2.c **** {
 168              		.loc 1 194 0
 169              		.cfi_startproc
 170 0000 80B5     		push	{r7, lr}
 171              	.LCFI5:
 172              		.cfi_def_cfa_offset 8
 173              		.cfi_offset 7, -8
 174              		.cfi_offset 14, -4
 175 0002 00AF     		add	r7, sp, #0
 176              	.LCFI6:
 177              		.cfi_def_cfa_register 7
 195:.\Generated_Source\PSoC4/PWM2.c ****     /* Globally Enable the Fixed Function Block chosen */
 196:.\Generated_Source\PSoC4/PWM2.c ****     #if (PWM2_UsingFixedFunction)
 197:.\Generated_Source\PSoC4/PWM2.c ****         PWM2_GLOBAL_ENABLE |= PWM2_BLOCK_EN_MASK;
 198:.\Generated_Source\PSoC4/PWM2.c ****         PWM2_GLOBAL_STBY_ENABLE |= PWM2_BLOCK_STBY_EN_MASK;
 199:.\Generated_Source\PSoC4/PWM2.c ****     #endif /* (PWM2_UsingFixedFunction) */
 200:.\Generated_Source\PSoC4/PWM2.c ****     
 201:.\Generated_Source\PSoC4/PWM2.c ****     /* Enable the PWM from the control register  */
 202:.\Generated_Source\PSoC4/PWM2.c ****     #if (PWM2_UseControl || PWM2_UsingFixedFunction)
 203:.\Generated_Source\PSoC4/PWM2.c ****         PWM2_CONTROL |= PWM2_CTRL_ENABLE;
 178              		.loc 1 203 0
 179 0004 054B     		ldr	r3, .L9
 180 0006 054A     		ldr	r2, .L9
 181 0008 1278     		ldrb	r2, [r2]
 182 000a D2B2     		uxtb	r2, r2
 183 000c 8021     		mov	r1, #128
 184 000e 4942     		neg	r1, r1
 185 0010 0A43     		orr	r2, r1
 186 0012 D2B2     		uxtb	r2, r2
 187 0014 1A70     		strb	r2, [r3]
 204:.\Generated_Source\PSoC4/PWM2.c ****     #endif /* (PWM2_UseControl || PWM2_UsingFixedFunction) */
 205:.\Generated_Source\PSoC4/PWM2.c **** }
 188              		.loc 1 205 0
 189 0016 BD46     		mov	sp, r7
 190              		@ sp needed for prologue
 191 0018 80BD     		pop	{r7, pc}
 192              	.L10:
 193 001a C046     		.align	2
 194              	.L9:
ARM GAS  C:\Users\GLENNL~1\AppData\Local\Temp\cc9CBuac.s 			page 8


 195 001c 72000F40 		.word	1074724978
 196              		.cfi_endproc
 197              	.LFE2:
 198              		.size	PWM2_Enable, .-PWM2_Enable
 199              		.section	.text.PWM2_Stop,"ax",%progbits
 200              		.align	2
 201              		.global	PWM2_Stop
 202              		.code	16
 203              		.thumb_func
 204              		.type	PWM2_Stop, %function
 205              	PWM2_Stop:
 206              	.LFB3:
 206:.\Generated_Source\PSoC4/PWM2.c **** 
 207:.\Generated_Source\PSoC4/PWM2.c **** 
 208:.\Generated_Source\PSoC4/PWM2.c **** /*******************************************************************************
 209:.\Generated_Source\PSoC4/PWM2.c **** * Function Name: PWM2_Stop
 210:.\Generated_Source\PSoC4/PWM2.c **** ********************************************************************************
 211:.\Generated_Source\PSoC4/PWM2.c **** *
 212:.\Generated_Source\PSoC4/PWM2.c **** * Summary:
 213:.\Generated_Source\PSoC4/PWM2.c **** *  The stop function halts the PWM, but does not change any modes or disable
 214:.\Generated_Source\PSoC4/PWM2.c **** *  interrupts.
 215:.\Generated_Source\PSoC4/PWM2.c **** *
 216:.\Generated_Source\PSoC4/PWM2.c **** * Parameters:  
 217:.\Generated_Source\PSoC4/PWM2.c **** *  None  
 218:.\Generated_Source\PSoC4/PWM2.c **** *
 219:.\Generated_Source\PSoC4/PWM2.c **** * Return: 
 220:.\Generated_Source\PSoC4/PWM2.c **** *  None
 221:.\Generated_Source\PSoC4/PWM2.c **** *
 222:.\Generated_Source\PSoC4/PWM2.c **** * Side Effects:
 223:.\Generated_Source\PSoC4/PWM2.c **** *  If the Enable mode is set to Hardware only then this function
 224:.\Generated_Source\PSoC4/PWM2.c **** *  has no effect on the operation of the PWM
 225:.\Generated_Source\PSoC4/PWM2.c **** *
 226:.\Generated_Source\PSoC4/PWM2.c **** *******************************************************************************/
 227:.\Generated_Source\PSoC4/PWM2.c **** void PWM2_Stop(void) 
 228:.\Generated_Source\PSoC4/PWM2.c **** {
 207              		.loc 1 228 0
 208              		.cfi_startproc
 209 0000 80B5     		push	{r7, lr}
 210              	.LCFI7:
 211              		.cfi_def_cfa_offset 8
 212              		.cfi_offset 7, -8
 213              		.cfi_offset 14, -4
 214 0002 00AF     		add	r7, sp, #0
 215              	.LCFI8:
 216              		.cfi_def_cfa_register 7
 229:.\Generated_Source\PSoC4/PWM2.c ****     #if (PWM2_UseControl || PWM2_UsingFixedFunction)
 230:.\Generated_Source\PSoC4/PWM2.c ****         PWM2_CONTROL &= ((uint8)(~PWM2_CTRL_ENABLE));
 217              		.loc 1 230 0
 218 0004 044B     		ldr	r3, .L12
 219 0006 044A     		ldr	r2, .L12
 220 0008 1278     		ldrb	r2, [r2]
 221 000a D1B2     		uxtb	r1, r2
 222 000c 7F22     		mov	r2, #127
 223 000e 0A40     		and	r2, r1
 224 0010 D2B2     		uxtb	r2, r2
 225 0012 1A70     		strb	r2, [r3]
 231:.\Generated_Source\PSoC4/PWM2.c ****     #endif /* (PWM2_UseControl || PWM2_UsingFixedFunction) */
ARM GAS  C:\Users\GLENNL~1\AppData\Local\Temp\cc9CBuac.s 			page 9


 232:.\Generated_Source\PSoC4/PWM2.c ****     
 233:.\Generated_Source\PSoC4/PWM2.c ****     /* Globally disable the Fixed Function Block chosen */
 234:.\Generated_Source\PSoC4/PWM2.c ****     #if (PWM2_UsingFixedFunction)
 235:.\Generated_Source\PSoC4/PWM2.c ****         PWM2_GLOBAL_ENABLE &= ((uint8)(~PWM2_BLOCK_EN_MASK));
 236:.\Generated_Source\PSoC4/PWM2.c ****         PWM2_GLOBAL_STBY_ENABLE &= ((uint8)(~PWM2_BLOCK_STBY_EN_MASK));
 237:.\Generated_Source\PSoC4/PWM2.c ****     #endif /* (PWM2_UsingFixedFunction) */
 238:.\Generated_Source\PSoC4/PWM2.c **** }
 226              		.loc 1 238 0
 227 0014 BD46     		mov	sp, r7
 228              		@ sp needed for prologue
 229 0016 80BD     		pop	{r7, pc}
 230              	.L13:
 231              		.align	2
 232              	.L12:
 233 0018 72000F40 		.word	1074724978
 234              		.cfi_endproc
 235              	.LFE3:
 236              		.size	PWM2_Stop, .-PWM2_Stop
 237              		.section	.text.PWM2_WriteCounter,"ax",%progbits
 238              		.align	2
 239              		.global	PWM2_WriteCounter
 240              		.code	16
 241              		.thumb_func
 242              		.type	PWM2_WriteCounter, %function
 243              	PWM2_WriteCounter:
 244              	.LFB4:
 239:.\Generated_Source\PSoC4/PWM2.c **** 
 240:.\Generated_Source\PSoC4/PWM2.c **** 
 241:.\Generated_Source\PSoC4/PWM2.c **** #if (PWM2_UseOneCompareMode)
 242:.\Generated_Source\PSoC4/PWM2.c **** 	#if (PWM2_CompareMode1SW)
 243:.\Generated_Source\PSoC4/PWM2.c **** 
 244:.\Generated_Source\PSoC4/PWM2.c **** 
 245:.\Generated_Source\PSoC4/PWM2.c **** 		/*******************************************************************************
 246:.\Generated_Source\PSoC4/PWM2.c **** 		* Function Name: PWM2_SetCompareMode
 247:.\Generated_Source\PSoC4/PWM2.c **** 		********************************************************************************
 248:.\Generated_Source\PSoC4/PWM2.c **** 		* 
 249:.\Generated_Source\PSoC4/PWM2.c **** 		* Summary:
 250:.\Generated_Source\PSoC4/PWM2.c **** 		*  This function writes the Compare Mode for the pwm output when in Dither mode,
 251:.\Generated_Source\PSoC4/PWM2.c **** 		*  Center Align Mode or One Output Mode.
 252:.\Generated_Source\PSoC4/PWM2.c **** 		*
 253:.\Generated_Source\PSoC4/PWM2.c **** 		* Parameters:
 254:.\Generated_Source\PSoC4/PWM2.c **** 		*  comparemode:  The new compare mode for the PWM output. Use the compare types
 255:.\Generated_Source\PSoC4/PWM2.c **** 		*                defined in the H file as input arguments.
 256:.\Generated_Source\PSoC4/PWM2.c **** 		*
 257:.\Generated_Source\PSoC4/PWM2.c **** 		* Return:
 258:.\Generated_Source\PSoC4/PWM2.c **** 		*  None
 259:.\Generated_Source\PSoC4/PWM2.c **** 		*
 260:.\Generated_Source\PSoC4/PWM2.c **** 		*******************************************************************************/
 261:.\Generated_Source\PSoC4/PWM2.c **** 		void PWM2_SetCompareMode(uint8 comparemode) 
 262:.\Generated_Source\PSoC4/PWM2.c **** 		{
 263:.\Generated_Source\PSoC4/PWM2.c **** 		    #if(PWM2_UsingFixedFunction)
 264:.\Generated_Source\PSoC4/PWM2.c ****             
 265:.\Generated_Source\PSoC4/PWM2.c ****                 #if(0 != PWM2_CTRL_CMPMODE1_SHIFT)
 266:.\Generated_Source\PSoC4/PWM2.c ****                     uint8 comparemodemasked = ((uint8)((uint8)comparemode << PWM2_CTRL_CMPMODE1_SHI
 267:.\Generated_Source\PSoC4/PWM2.c ****                 #else
 268:.\Generated_Source\PSoC4/PWM2.c ****                     uint8 comparemodemasked = comparemode;
 269:.\Generated_Source\PSoC4/PWM2.c ****                 #endif /* (0 != PWM2_CTRL_CMPMODE1_SHIFT) */
ARM GAS  C:\Users\GLENNL~1\AppData\Local\Temp\cc9CBuac.s 			page 10


 270:.\Generated_Source\PSoC4/PWM2.c ****             
 271:.\Generated_Source\PSoC4/PWM2.c **** 	            PWM2_CONTROL3 &= ((uint8)(~PWM2_CTRL_CMPMODE1_MASK)); /*Clear Existing Data */
 272:.\Generated_Source\PSoC4/PWM2.c **** 	            PWM2_CONTROL3 |= comparemodemasked;     
 273:.\Generated_Source\PSoC4/PWM2.c **** 		                
 274:.\Generated_Source\PSoC4/PWM2.c **** 		    #elif (PWM2_UseControl)
 275:.\Generated_Source\PSoC4/PWM2.c **** 		        
 276:.\Generated_Source\PSoC4/PWM2.c ****                 #if(0 != PWM2_CTRL_CMPMODE1_SHIFT)
 277:.\Generated_Source\PSoC4/PWM2.c ****                     uint8 comparemode1masked = ((uint8)((uint8)comparemode << PWM2_CTRL_CMPMODE1_SH
 278:.\Generated_Source\PSoC4/PWM2.c ****     		                                    PWM2_CTRL_CMPMODE1_MASK;
 279:.\Generated_Source\PSoC4/PWM2.c ****                 #else
 280:.\Generated_Source\PSoC4/PWM2.c ****                     uint8 comparemode1masked = comparemode & PWM2_CTRL_CMPMODE1_MASK;              
 281:.\Generated_Source\PSoC4/PWM2.c ****                 #endif /* (0 != PWM2_CTRL_CMPMODE1_SHIFT) */
 282:.\Generated_Source\PSoC4/PWM2.c ****                 
 283:.\Generated_Source\PSoC4/PWM2.c ****                 #if(0 != PWM2_CTRL_CMPMODE2_SHIFT)                            
 284:.\Generated_Source\PSoC4/PWM2.c ****     		        uint8 comparemode2masked = ((uint8)((uint8)comparemode << PWM2_CTRL_CMPMODE2_SHIFT)) 
 285:.\Generated_Source\PSoC4/PWM2.c ****     		                                   PWM2_CTRL_CMPMODE2_MASK;
 286:.\Generated_Source\PSoC4/PWM2.c ****                 #else
 287:.\Generated_Source\PSoC4/PWM2.c ****     		        uint8 comparemode2masked = comparemode & PWM2_CTRL_CMPMODE2_MASK;                
 288:.\Generated_Source\PSoC4/PWM2.c ****                 #endif /* (0 != PWM2_CTRL_CMPMODE2_SHIFT) */
 289:.\Generated_Source\PSoC4/PWM2.c ****                 
 290:.\Generated_Source\PSoC4/PWM2.c **** 		        /*Clear existing mode */
 291:.\Generated_Source\PSoC4/PWM2.c **** 		        PWM2_CONTROL &= ((uint8)(~(PWM2_CTRL_CMPMODE1_MASK | PWM2_CTRL_CMPMODE2_MASK))); 
 292:.\Generated_Source\PSoC4/PWM2.c **** 		        PWM2_CONTROL |= (comparemode1masked | comparemode2masked);
 293:.\Generated_Source\PSoC4/PWM2.c **** 		        
 294:.\Generated_Source\PSoC4/PWM2.c **** 		    #else
 295:.\Generated_Source\PSoC4/PWM2.c **** 		        uint8 temp = comparemode;
 296:.\Generated_Source\PSoC4/PWM2.c **** 		    #endif /* (PWM2_UsingFixedFunction) */
 297:.\Generated_Source\PSoC4/PWM2.c **** 		}
 298:.\Generated_Source\PSoC4/PWM2.c **** 	#endif /* PWM2_CompareMode1SW */
 299:.\Generated_Source\PSoC4/PWM2.c **** 
 300:.\Generated_Source\PSoC4/PWM2.c **** #else /* UseOneCompareMode */
 301:.\Generated_Source\PSoC4/PWM2.c **** 
 302:.\Generated_Source\PSoC4/PWM2.c **** 	#if (PWM2_CompareMode1SW)
 303:.\Generated_Source\PSoC4/PWM2.c **** 
 304:.\Generated_Source\PSoC4/PWM2.c **** 
 305:.\Generated_Source\PSoC4/PWM2.c **** 		/*******************************************************************************
 306:.\Generated_Source\PSoC4/PWM2.c **** 		* Function Name: PWM2_SetCompareMode1
 307:.\Generated_Source\PSoC4/PWM2.c **** 		********************************************************************************
 308:.\Generated_Source\PSoC4/PWM2.c **** 		* 
 309:.\Generated_Source\PSoC4/PWM2.c **** 		* Summary:
 310:.\Generated_Source\PSoC4/PWM2.c **** 		*  This function writes the Compare Mode for the pwm or pwm1 output
 311:.\Generated_Source\PSoC4/PWM2.c **** 		*
 312:.\Generated_Source\PSoC4/PWM2.c **** 		* Parameters:  
 313:.\Generated_Source\PSoC4/PWM2.c **** 		*  comparemode:  The new compare mode for the PWM output. Use the compare types
 314:.\Generated_Source\PSoC4/PWM2.c **** 		*                defined in the H file as input arguments.
 315:.\Generated_Source\PSoC4/PWM2.c **** 		*
 316:.\Generated_Source\PSoC4/PWM2.c **** 		* Return: 
 317:.\Generated_Source\PSoC4/PWM2.c **** 		*  None
 318:.\Generated_Source\PSoC4/PWM2.c **** 		*
 319:.\Generated_Source\PSoC4/PWM2.c **** 		*******************************************************************************/
 320:.\Generated_Source\PSoC4/PWM2.c **** 		void PWM2_SetCompareMode1(uint8 comparemode) 
 321:.\Generated_Source\PSoC4/PWM2.c **** 		{
 322:.\Generated_Source\PSoC4/PWM2.c **** 		    #if(0 != PWM2_CTRL_CMPMODE1_SHIFT)
 323:.\Generated_Source\PSoC4/PWM2.c ****                 uint8 comparemodemasked = ((uint8)((uint8)comparemode << PWM2_CTRL_CMPMODE1_SHIFT))
 324:.\Generated_Source\PSoC4/PWM2.c ****     		                               PWM2_CTRL_CMPMODE1_MASK;
 325:.\Generated_Source\PSoC4/PWM2.c **** 		    #else
 326:.\Generated_Source\PSoC4/PWM2.c ****                 uint8 comparemodemasked = comparemode & PWM2_CTRL_CMPMODE1_MASK;                
ARM GAS  C:\Users\GLENNL~1\AppData\Local\Temp\cc9CBuac.s 			page 11


 327:.\Generated_Source\PSoC4/PWM2.c ****             #endif /* (0 != PWM2_CTRL_CMPMODE1_SHIFT) */
 328:.\Generated_Source\PSoC4/PWM2.c ****                    
 329:.\Generated_Source\PSoC4/PWM2.c **** 		    #if (PWM2_UseControl)
 330:.\Generated_Source\PSoC4/PWM2.c **** 		        PWM2_CONTROL &= ((uint8)(~PWM2_CTRL_CMPMODE1_MASK)); /*Clear existing mode */
 331:.\Generated_Source\PSoC4/PWM2.c **** 		        PWM2_CONTROL |= comparemodemasked;
 332:.\Generated_Source\PSoC4/PWM2.c **** 		    #endif /* (PWM2_UseControl) */
 333:.\Generated_Source\PSoC4/PWM2.c **** 		}
 334:.\Generated_Source\PSoC4/PWM2.c **** 	#endif /* PWM2_CompareMode1SW */
 335:.\Generated_Source\PSoC4/PWM2.c **** 
 336:.\Generated_Source\PSoC4/PWM2.c **** #if (PWM2_CompareMode2SW)
 337:.\Generated_Source\PSoC4/PWM2.c **** 
 338:.\Generated_Source\PSoC4/PWM2.c **** 
 339:.\Generated_Source\PSoC4/PWM2.c ****     /*******************************************************************************
 340:.\Generated_Source\PSoC4/PWM2.c ****     * Function Name: PWM2_SetCompareMode2
 341:.\Generated_Source\PSoC4/PWM2.c ****     ********************************************************************************
 342:.\Generated_Source\PSoC4/PWM2.c ****     * 
 343:.\Generated_Source\PSoC4/PWM2.c ****     * Summary:
 344:.\Generated_Source\PSoC4/PWM2.c ****     *  This function writes the Compare Mode for the pwm or pwm2 output
 345:.\Generated_Source\PSoC4/PWM2.c ****     *
 346:.\Generated_Source\PSoC4/PWM2.c ****     * Parameters:  
 347:.\Generated_Source\PSoC4/PWM2.c ****     *  comparemode:  The new compare mode for the PWM output. Use the compare types
 348:.\Generated_Source\PSoC4/PWM2.c ****     *                defined in the H file as input arguments.
 349:.\Generated_Source\PSoC4/PWM2.c ****     *
 350:.\Generated_Source\PSoC4/PWM2.c ****     * Return: 
 351:.\Generated_Source\PSoC4/PWM2.c ****     *  None
 352:.\Generated_Source\PSoC4/PWM2.c ****     *
 353:.\Generated_Source\PSoC4/PWM2.c ****     *******************************************************************************/
 354:.\Generated_Source\PSoC4/PWM2.c ****     void PWM2_SetCompareMode2(uint8 comparemode) 
 355:.\Generated_Source\PSoC4/PWM2.c ****     {
 356:.\Generated_Source\PSoC4/PWM2.c **** 
 357:.\Generated_Source\PSoC4/PWM2.c ****         #if(0 != PWM2_CTRL_CMPMODE2_SHIFT)
 358:.\Generated_Source\PSoC4/PWM2.c ****             uint8 comparemodemasked = ((uint8)((uint8)comparemode << PWM2_CTRL_CMPMODE2_SHIFT)) & 
 359:.\Generated_Source\PSoC4/PWM2.c ****                                                  PWM2_CTRL_CMPMODE2_MASK;
 360:.\Generated_Source\PSoC4/PWM2.c ****         #else
 361:.\Generated_Source\PSoC4/PWM2.c ****             uint8 comparemodemasked = comparemode & PWM2_CTRL_CMPMODE2_MASK;            
 362:.\Generated_Source\PSoC4/PWM2.c ****         #endif /* (0 != PWM2_CTRL_CMPMODE2_SHIFT) */
 363:.\Generated_Source\PSoC4/PWM2.c ****         
 364:.\Generated_Source\PSoC4/PWM2.c ****         #if (PWM2_UseControl)
 365:.\Generated_Source\PSoC4/PWM2.c ****             PWM2_CONTROL &= ((uint8)(~PWM2_CTRL_CMPMODE2_MASK)); /*Clear existing mode */
 366:.\Generated_Source\PSoC4/PWM2.c ****             PWM2_CONTROL |= comparemodemasked;
 367:.\Generated_Source\PSoC4/PWM2.c ****         #endif /* (PWM2_UseControl) */
 368:.\Generated_Source\PSoC4/PWM2.c ****     }
 369:.\Generated_Source\PSoC4/PWM2.c ****     #endif /*PWM2_CompareMode2SW */
 370:.\Generated_Source\PSoC4/PWM2.c **** 
 371:.\Generated_Source\PSoC4/PWM2.c **** #endif /* UseOneCompareMode */
 372:.\Generated_Source\PSoC4/PWM2.c **** 
 373:.\Generated_Source\PSoC4/PWM2.c **** 
 374:.\Generated_Source\PSoC4/PWM2.c **** #if (!PWM2_UsingFixedFunction)
 375:.\Generated_Source\PSoC4/PWM2.c **** 
 376:.\Generated_Source\PSoC4/PWM2.c **** 
 377:.\Generated_Source\PSoC4/PWM2.c ****     /*******************************************************************************
 378:.\Generated_Source\PSoC4/PWM2.c ****     * Function Name: PWM2_WriteCounter
 379:.\Generated_Source\PSoC4/PWM2.c ****     ********************************************************************************
 380:.\Generated_Source\PSoC4/PWM2.c ****     * 
 381:.\Generated_Source\PSoC4/PWM2.c ****     * Summary:
 382:.\Generated_Source\PSoC4/PWM2.c ****     *  Writes a new counter value directly to the counter register. This will be 
 383:.\Generated_Source\PSoC4/PWM2.c ****     *  implemented for that currently running period and only that period. This API 
ARM GAS  C:\Users\GLENNL~1\AppData\Local\Temp\cc9CBuac.s 			page 12


 384:.\Generated_Source\PSoC4/PWM2.c ****     *  is valid only for UDB implementation and not available for fixed function 
 385:.\Generated_Source\PSoC4/PWM2.c ****     *  PWM implementation.    
 386:.\Generated_Source\PSoC4/PWM2.c ****     *
 387:.\Generated_Source\PSoC4/PWM2.c ****     * Parameters:  
 388:.\Generated_Source\PSoC4/PWM2.c ****     *  counter:  The period new period counter value.
 389:.\Generated_Source\PSoC4/PWM2.c ****     *
 390:.\Generated_Source\PSoC4/PWM2.c ****     * Return: 
 391:.\Generated_Source\PSoC4/PWM2.c ****     *  None
 392:.\Generated_Source\PSoC4/PWM2.c ****     *
 393:.\Generated_Source\PSoC4/PWM2.c ****     * Side Effects: 
 394:.\Generated_Source\PSoC4/PWM2.c ****     *  The PWM Period will be reloaded when a counter value will be a zero
 395:.\Generated_Source\PSoC4/PWM2.c ****     *
 396:.\Generated_Source\PSoC4/PWM2.c ****     *******************************************************************************/
 397:.\Generated_Source\PSoC4/PWM2.c ****     void PWM2_WriteCounter(uint8 counter) \
 398:.\Generated_Source\PSoC4/PWM2.c ****                                        
 399:.\Generated_Source\PSoC4/PWM2.c ****     {
 245              		.loc 1 399 0
 246              		.cfi_startproc
 247 0000 80B5     		push	{r7, lr}
 248              	.LCFI9:
 249              		.cfi_def_cfa_offset 8
 250              		.cfi_offset 7, -8
 251              		.cfi_offset 14, -4
 252 0002 82B0     		sub	sp, sp, #8
 253              	.LCFI10:
 254              		.cfi_def_cfa_offset 16
 255 0004 00AF     		add	r7, sp, #0
 256              	.LCFI11:
 257              		.cfi_def_cfa_register 7
 258 0006 021C     		mov	r2, r0
 259 0008 FB1D     		add	r3, r7, #7
 260 000a 1A70     		strb	r2, [r3]
 400:.\Generated_Source\PSoC4/PWM2.c ****         CY_SET_REG8(PWM2_COUNTER_LSB_PTR, counter);
 261              		.loc 1 400 0
 262 000c 034B     		ldr	r3, .L15
 263 000e FA1D     		add	r2, r7, #7
 264 0010 1278     		ldrb	r2, [r2]
 265 0012 1A70     		strb	r2, [r3]
 401:.\Generated_Source\PSoC4/PWM2.c ****     }
 266              		.loc 1 401 0
 267 0014 BD46     		mov	sp, r7
 268 0016 02B0     		add	sp, sp, #8
 269              		@ sp needed for prologue
 270 0018 80BD     		pop	{r7, pc}
 271              	.L16:
 272 001a C046     		.align	2
 273              	.L15:
 274 001c 02000F40 		.word	1074724866
 275              		.cfi_endproc
 276              	.LFE4:
 277              		.size	PWM2_WriteCounter, .-PWM2_WriteCounter
 278              		.section	.text.PWM2_ReadCounter,"ax",%progbits
 279              		.align	2
 280              		.global	PWM2_ReadCounter
 281              		.code	16
 282              		.thumb_func
 283              		.type	PWM2_ReadCounter, %function
ARM GAS  C:\Users\GLENNL~1\AppData\Local\Temp\cc9CBuac.s 			page 13


 284              	PWM2_ReadCounter:
 285              	.LFB5:
 402:.\Generated_Source\PSoC4/PWM2.c **** 
 403:.\Generated_Source\PSoC4/PWM2.c **** 
 404:.\Generated_Source\PSoC4/PWM2.c ****     /*******************************************************************************
 405:.\Generated_Source\PSoC4/PWM2.c ****     * Function Name: PWM2_ReadCounter
 406:.\Generated_Source\PSoC4/PWM2.c ****     ********************************************************************************
 407:.\Generated_Source\PSoC4/PWM2.c ****     * 
 408:.\Generated_Source\PSoC4/PWM2.c ****     * Summary:
 409:.\Generated_Source\PSoC4/PWM2.c ****     *  This function returns the current value of the counter.  It doesn't matter
 410:.\Generated_Source\PSoC4/PWM2.c ****     *  if the counter is enabled or running.
 411:.\Generated_Source\PSoC4/PWM2.c ****     *
 412:.\Generated_Source\PSoC4/PWM2.c ****     * Parameters:  
 413:.\Generated_Source\PSoC4/PWM2.c ****     *  None  
 414:.\Generated_Source\PSoC4/PWM2.c ****     *
 415:.\Generated_Source\PSoC4/PWM2.c ****     * Return: 
 416:.\Generated_Source\PSoC4/PWM2.c ****     *  The current value of the counter.
 417:.\Generated_Source\PSoC4/PWM2.c ****     *
 418:.\Generated_Source\PSoC4/PWM2.c ****     *******************************************************************************/
 419:.\Generated_Source\PSoC4/PWM2.c ****     uint8 PWM2_ReadCounter(void) 
 420:.\Generated_Source\PSoC4/PWM2.c ****     {
 286              		.loc 1 420 0
 287              		.cfi_startproc
 288 0000 80B5     		push	{r7, lr}
 289              	.LCFI12:
 290              		.cfi_def_cfa_offset 8
 291              		.cfi_offset 7, -8
 292              		.cfi_offset 14, -4
 293 0002 00AF     		add	r7, sp, #0
 294              	.LCFI13:
 295              		.cfi_def_cfa_register 7
 421:.\Generated_Source\PSoC4/PWM2.c ****         /* Force capture by reading Accumulator */
 422:.\Generated_Source\PSoC4/PWM2.c ****         /* Must first do a software capture to be able to read the counter */
 423:.\Generated_Source\PSoC4/PWM2.c ****         /* It is up to the user code to make sure there isn't already captured data in the FIFO */
 424:.\Generated_Source\PSoC4/PWM2.c ****         (void)PWM2_COUNTERCAP_LSB;
 296              		.loc 1 424 0
 297 0004 034B     		ldr	r3, .L19
 298 0006 1B78     		ldrb	r3, [r3]
 425:.\Generated_Source\PSoC4/PWM2.c ****         
 426:.\Generated_Source\PSoC4/PWM2.c ****         /* Read the data from the FIFO (or capture register for Fixed Function)*/
 427:.\Generated_Source\PSoC4/PWM2.c ****         return (CY_GET_REG8(PWM2_CAPTURE_LSB_PTR));
 299              		.loc 1 427 0
 300 0008 034B     		ldr	r3, .L19+4
 301 000a 1B78     		ldrb	r3, [r3]
 302 000c DBB2     		uxtb	r3, r3
 428:.\Generated_Source\PSoC4/PWM2.c ****     }
 303              		.loc 1 428 0
 304 000e 181C     		mov	r0, r3
 305 0010 BD46     		mov	sp, r7
 306              		@ sp needed for prologue
 307 0012 80BD     		pop	{r7, pc}
 308              	.L20:
 309              		.align	2
 310              	.L19:
 311 0014 12000F40 		.word	1074724882
 312 0018 52000F40 		.word	1074724946
 313              		.cfi_endproc
ARM GAS  C:\Users\GLENNL~1\AppData\Local\Temp\cc9CBuac.s 			page 14


 314              	.LFE5:
 315              		.size	PWM2_ReadCounter, .-PWM2_ReadCounter
 316              		.section	.text.PWM2_ClearFIFO,"ax",%progbits
 317              		.align	2
 318              		.global	PWM2_ClearFIFO
 319              		.code	16
 320              		.thumb_func
 321              		.type	PWM2_ClearFIFO, %function
 322              	PWM2_ClearFIFO:
 323              	.LFB6:
 429:.\Generated_Source\PSoC4/PWM2.c **** 
 430:.\Generated_Source\PSoC4/PWM2.c ****         #if (PWM2_UseStatus)
 431:.\Generated_Source\PSoC4/PWM2.c **** 
 432:.\Generated_Source\PSoC4/PWM2.c **** 
 433:.\Generated_Source\PSoC4/PWM2.c ****             /*******************************************************************************
 434:.\Generated_Source\PSoC4/PWM2.c ****             * Function Name: PWM2_ClearFIFO
 435:.\Generated_Source\PSoC4/PWM2.c ****             ********************************************************************************
 436:.\Generated_Source\PSoC4/PWM2.c ****             * 
 437:.\Generated_Source\PSoC4/PWM2.c ****             * Summary:
 438:.\Generated_Source\PSoC4/PWM2.c ****             *  This function clears all capture data from the capture FIFO
 439:.\Generated_Source\PSoC4/PWM2.c ****             *
 440:.\Generated_Source\PSoC4/PWM2.c ****             * Parameters:  
 441:.\Generated_Source\PSoC4/PWM2.c ****             *  None
 442:.\Generated_Source\PSoC4/PWM2.c ****             *
 443:.\Generated_Source\PSoC4/PWM2.c ****             * Return: 
 444:.\Generated_Source\PSoC4/PWM2.c ****             *  None
 445:.\Generated_Source\PSoC4/PWM2.c ****             *
 446:.\Generated_Source\PSoC4/PWM2.c ****             *******************************************************************************/
 447:.\Generated_Source\PSoC4/PWM2.c ****             void PWM2_ClearFIFO(void) 
 448:.\Generated_Source\PSoC4/PWM2.c ****             {
 324              		.loc 1 448 0
 325              		.cfi_startproc
 326 0000 80B5     		push	{r7, lr}
 327              	.LCFI14:
 328              		.cfi_def_cfa_offset 8
 329              		.cfi_offset 7, -8
 330              		.cfi_offset 14, -4
 331 0002 00AF     		add	r7, sp, #0
 332              	.LCFI15:
 333              		.cfi_def_cfa_register 7
 449:.\Generated_Source\PSoC4/PWM2.c ****                 while(0u != (PWM2_ReadStatusRegister() & PWM2_STATUS_FIFONEMPTY))
 334              		.loc 1 449 0
 335 0004 01E0     		b	.L22
 336              	.L23:
 450:.\Generated_Source\PSoC4/PWM2.c ****                 {
 451:.\Generated_Source\PSoC4/PWM2.c ****                     (void)PWM2_ReadCapture();
 337              		.loc 1 451 0
 338 0006 FFF7FEFF 		bl	PWM2_ReadCapture
 339              	.L22:
 449:.\Generated_Source\PSoC4/PWM2.c ****                 while(0u != (PWM2_ReadStatusRegister() & PWM2_STATUS_FIFONEMPTY))
 340              		.loc 1 449 0 discriminator 1
 341 000a FFF7FEFF 		bl	PWM2_ReadStatusRegister
 342 000e 031C     		mov	r3, r0
 343 0010 1A1C     		mov	r2, r3
 344 0012 1023     		mov	r3, #16
 345 0014 1340     		and	r3, r2
 346 0016 F6D1     		bne	.L23
ARM GAS  C:\Users\GLENNL~1\AppData\Local\Temp\cc9CBuac.s 			page 15


 452:.\Generated_Source\PSoC4/PWM2.c ****                 }
 453:.\Generated_Source\PSoC4/PWM2.c ****             }
 347              		.loc 1 453 0
 348 0018 BD46     		mov	sp, r7
 349              		@ sp needed for prologue
 350 001a 80BD     		pop	{r7, pc}
 351              		.cfi_endproc
 352              	.LFE6:
 353              		.size	PWM2_ClearFIFO, .-PWM2_ClearFIFO
 354              		.section	.text.PWM2_WritePeriod,"ax",%progbits
 355              		.align	2
 356              		.global	PWM2_WritePeriod
 357              		.code	16
 358              		.thumb_func
 359              		.type	PWM2_WritePeriod, %function
 360              	PWM2_WritePeriod:
 361              	.LFB7:
 454:.\Generated_Source\PSoC4/PWM2.c **** 
 455:.\Generated_Source\PSoC4/PWM2.c ****         #endif /* PWM2_UseStatus */
 456:.\Generated_Source\PSoC4/PWM2.c **** 
 457:.\Generated_Source\PSoC4/PWM2.c **** #endif /* !PWM2_UsingFixedFunction */
 458:.\Generated_Source\PSoC4/PWM2.c **** 
 459:.\Generated_Source\PSoC4/PWM2.c **** 
 460:.\Generated_Source\PSoC4/PWM2.c **** /*******************************************************************************
 461:.\Generated_Source\PSoC4/PWM2.c **** * Function Name: PWM2_WritePeriod
 462:.\Generated_Source\PSoC4/PWM2.c **** ********************************************************************************
 463:.\Generated_Source\PSoC4/PWM2.c **** * 
 464:.\Generated_Source\PSoC4/PWM2.c **** * Summary:
 465:.\Generated_Source\PSoC4/PWM2.c **** *  This function is used to change the period of the counter.  The new period 
 466:.\Generated_Source\PSoC4/PWM2.c **** *  will be loaded the next time terminal count is detected.
 467:.\Generated_Source\PSoC4/PWM2.c **** *
 468:.\Generated_Source\PSoC4/PWM2.c **** * Parameters:  
 469:.\Generated_Source\PSoC4/PWM2.c **** *  period:  Period value. May be between 1 and (2^Resolution)-1.  A value of 0 
 470:.\Generated_Source\PSoC4/PWM2.c **** *           will result in the counter remaining at zero.
 471:.\Generated_Source\PSoC4/PWM2.c **** *
 472:.\Generated_Source\PSoC4/PWM2.c **** * Return: 
 473:.\Generated_Source\PSoC4/PWM2.c **** *  None
 474:.\Generated_Source\PSoC4/PWM2.c **** *
 475:.\Generated_Source\PSoC4/PWM2.c **** *******************************************************************************/
 476:.\Generated_Source\PSoC4/PWM2.c **** void PWM2_WritePeriod(uint8 period) 
 477:.\Generated_Source\PSoC4/PWM2.c **** {
 362              		.loc 1 477 0
 363              		.cfi_startproc
 364 0000 80B5     		push	{r7, lr}
 365              	.LCFI16:
 366              		.cfi_def_cfa_offset 8
 367              		.cfi_offset 7, -8
 368              		.cfi_offset 14, -4
 369 0002 82B0     		sub	sp, sp, #8
 370              	.LCFI17:
 371              		.cfi_def_cfa_offset 16
 372 0004 00AF     		add	r7, sp, #0
 373              	.LCFI18:
 374              		.cfi_def_cfa_register 7
 375 0006 021C     		mov	r2, r0
 376 0008 FB1D     		add	r3, r7, #7
 377 000a 1A70     		strb	r2, [r3]
ARM GAS  C:\Users\GLENNL~1\AppData\Local\Temp\cc9CBuac.s 			page 16


 478:.\Generated_Source\PSoC4/PWM2.c ****     #if(PWM2_UsingFixedFunction)
 479:.\Generated_Source\PSoC4/PWM2.c ****         CY_SET_REG16(PWM2_PERIOD_LSB_PTR, (uint16)period);
 480:.\Generated_Source\PSoC4/PWM2.c ****     #else
 481:.\Generated_Source\PSoC4/PWM2.c ****         CY_SET_REG8(PWM2_PERIOD_LSB_PTR, period);
 378              		.loc 1 481 0
 379 000c 034B     		ldr	r3, .L25
 380 000e FA1D     		add	r2, r7, #7
 381 0010 1278     		ldrb	r2, [r2]
 382 0012 1A70     		strb	r2, [r3]
 482:.\Generated_Source\PSoC4/PWM2.c ****     #endif /* (PWM2_UsingFixedFunction) */
 483:.\Generated_Source\PSoC4/PWM2.c **** }
 383              		.loc 1 483 0
 384 0014 BD46     		mov	sp, r7
 385 0016 02B0     		add	sp, sp, #8
 386              		@ sp needed for prologue
 387 0018 80BD     		pop	{r7, pc}
 388              	.L26:
 389 001a C046     		.align	2
 390              	.L25:
 391 001c 42000F40 		.word	1074724930
 392              		.cfi_endproc
 393              	.LFE7:
 394              		.size	PWM2_WritePeriod, .-PWM2_WritePeriod
 395              		.section	.text.PWM2_WriteCompare,"ax",%progbits
 396              		.align	2
 397              		.global	PWM2_WriteCompare
 398              		.code	16
 399              		.thumb_func
 400              		.type	PWM2_WriteCompare, %function
 401              	PWM2_WriteCompare:
 402              	.LFB8:
 484:.\Generated_Source\PSoC4/PWM2.c **** 
 485:.\Generated_Source\PSoC4/PWM2.c **** #if (PWM2_UseOneCompareMode)
 486:.\Generated_Source\PSoC4/PWM2.c **** 
 487:.\Generated_Source\PSoC4/PWM2.c **** 
 488:.\Generated_Source\PSoC4/PWM2.c ****     /*******************************************************************************
 489:.\Generated_Source\PSoC4/PWM2.c ****     * Function Name: PWM2_WriteCompare
 490:.\Generated_Source\PSoC4/PWM2.c ****     ********************************************************************************
 491:.\Generated_Source\PSoC4/PWM2.c ****     * 
 492:.\Generated_Source\PSoC4/PWM2.c ****     * Summary:
 493:.\Generated_Source\PSoC4/PWM2.c ****     *  This funtion is used to change the compare1 value when the PWM is in Dither
 494:.\Generated_Source\PSoC4/PWM2.c ****     *  mode. The compare output will reflect the new value on the next UDB clock. 
 495:.\Generated_Source\PSoC4/PWM2.c ****     *  The compare output will be driven high when the present counter value is 
 496:.\Generated_Source\PSoC4/PWM2.c ****     *  compared to the compare value based on the compare mode defined in 
 497:.\Generated_Source\PSoC4/PWM2.c ****     *  Dither Mode.
 498:.\Generated_Source\PSoC4/PWM2.c ****     *
 499:.\Generated_Source\PSoC4/PWM2.c ****     * Parameters:  
 500:.\Generated_Source\PSoC4/PWM2.c ****     *  compare:  New compare value.  
 501:.\Generated_Source\PSoC4/PWM2.c ****     *
 502:.\Generated_Source\PSoC4/PWM2.c ****     * Return: 
 503:.\Generated_Source\PSoC4/PWM2.c ****     *  None
 504:.\Generated_Source\PSoC4/PWM2.c ****     *
 505:.\Generated_Source\PSoC4/PWM2.c ****     * Side Effects:
 506:.\Generated_Source\PSoC4/PWM2.c ****     *  This function is only available if the PWM mode parameter is set to
 507:.\Generated_Source\PSoC4/PWM2.c ****     *  Dither Mode, Center Aligned Mode or One Output Mode
 508:.\Generated_Source\PSoC4/PWM2.c ****     *
 509:.\Generated_Source\PSoC4/PWM2.c ****     *******************************************************************************/
ARM GAS  C:\Users\GLENNL~1\AppData\Local\Temp\cc9CBuac.s 			page 17


 510:.\Generated_Source\PSoC4/PWM2.c ****     void PWM2_WriteCompare(uint8 compare) \
 511:.\Generated_Source\PSoC4/PWM2.c ****                                        
 512:.\Generated_Source\PSoC4/PWM2.c ****     {	
 403              		.loc 1 512 0
 404              		.cfi_startproc
 405 0000 80B5     		push	{r7, lr}
 406              	.LCFI19:
 407              		.cfi_def_cfa_offset 8
 408              		.cfi_offset 7, -8
 409              		.cfi_offset 14, -4
 410 0002 82B0     		sub	sp, sp, #8
 411              	.LCFI20:
 412              		.cfi_def_cfa_offset 16
 413 0004 00AF     		add	r7, sp, #0
 414              	.LCFI21:
 415              		.cfi_def_cfa_register 7
 416 0006 021C     		mov	r2, r0
 417 0008 FB1D     		add	r3, r7, #7
 418 000a 1A70     		strb	r2, [r3]
 513:.\Generated_Source\PSoC4/PWM2.c **** 		#if(PWM2_UsingFixedFunction)
 514:.\Generated_Source\PSoC4/PWM2.c **** 			CY_SET_REG16(PWM2_COMPARE1_LSB_PTR, (uint16)compare);
 515:.\Generated_Source\PSoC4/PWM2.c **** 		#else
 516:.\Generated_Source\PSoC4/PWM2.c **** 	        CY_SET_REG8(PWM2_COMPARE1_LSB_PTR, compare);	
 419              		.loc 1 516 0
 420 000c 034B     		ldr	r3, .L28
 421 000e FA1D     		add	r2, r7, #7
 422 0010 1278     		ldrb	r2, [r2]
 423 0012 1A70     		strb	r2, [r3]
 517:.\Generated_Source\PSoC4/PWM2.c **** 		#endif /* (PWM2_UsingFixedFunction) */
 518:.\Generated_Source\PSoC4/PWM2.c ****         
 519:.\Generated_Source\PSoC4/PWM2.c ****         #if (PWM2_PWMMode == PWM2__B_PWM__DITHER)
 520:.\Generated_Source\PSoC4/PWM2.c ****             #if(PWM2_UsingFixedFunction)
 521:.\Generated_Source\PSoC4/PWM2.c ****     			CY_SET_REG16(PWM2_COMPARE2_LSB_PTR, (uint16)(compare + 1u));
 522:.\Generated_Source\PSoC4/PWM2.c ****     		#else
 523:.\Generated_Source\PSoC4/PWM2.c ****     	        CY_SET_REG8(PWM2_COMPARE2_LSB_PTR, (compare + 1u));	
 524:.\Generated_Source\PSoC4/PWM2.c ****     		#endif /* (PWM2_UsingFixedFunction) */
 525:.\Generated_Source\PSoC4/PWM2.c ****         #endif /* (PWM2_PWMMode == PWM2__B_PWM__DITHER) */
 526:.\Generated_Source\PSoC4/PWM2.c ****     }
 424              		.loc 1 526 0
 425 0014 BD46     		mov	sp, r7
 426 0016 02B0     		add	sp, sp, #8
 427              		@ sp needed for prologue
 428 0018 80BD     		pop	{r7, pc}
 429              	.L29:
 430 001a C046     		.align	2
 431              	.L28:
 432 001c 22000F40 		.word	1074724898
 433              		.cfi_endproc
 434              	.LFE8:
 435              		.size	PWM2_WriteCompare, .-PWM2_WriteCompare
 436              		.section	.text.PWM2_SetInterruptMode,"ax",%progbits
 437              		.align	2
 438              		.global	PWM2_SetInterruptMode
 439              		.code	16
 440              		.thumb_func
 441              		.type	PWM2_SetInterruptMode, %function
 442              	PWM2_SetInterruptMode:
ARM GAS  C:\Users\GLENNL~1\AppData\Local\Temp\cc9CBuac.s 			page 18


 443              	.LFB9:
 527:.\Generated_Source\PSoC4/PWM2.c **** 
 528:.\Generated_Source\PSoC4/PWM2.c **** 
 529:.\Generated_Source\PSoC4/PWM2.c **** #else
 530:.\Generated_Source\PSoC4/PWM2.c **** 
 531:.\Generated_Source\PSoC4/PWM2.c **** 
 532:.\Generated_Source\PSoC4/PWM2.c ****     /*******************************************************************************
 533:.\Generated_Source\PSoC4/PWM2.c ****     * Function Name: PWM2_WriteCompare1
 534:.\Generated_Source\PSoC4/PWM2.c ****     ********************************************************************************
 535:.\Generated_Source\PSoC4/PWM2.c ****     * 
 536:.\Generated_Source\PSoC4/PWM2.c ****     * Summary:
 537:.\Generated_Source\PSoC4/PWM2.c ****     *  This funtion is used to change the compare1 value.  The compare output will 
 538:.\Generated_Source\PSoC4/PWM2.c ****     *  reflect the new value on the next UDB clock.  The compare output will be 
 539:.\Generated_Source\PSoC4/PWM2.c ****     *  driven high when the present counter value is less than or less than or 
 540:.\Generated_Source\PSoC4/PWM2.c ****     *  equal to the compare register, depending on the mode.
 541:.\Generated_Source\PSoC4/PWM2.c ****     *
 542:.\Generated_Source\PSoC4/PWM2.c ****     * Parameters:  
 543:.\Generated_Source\PSoC4/PWM2.c ****     *  compare:  New compare value.  
 544:.\Generated_Source\PSoC4/PWM2.c ****     *
 545:.\Generated_Source\PSoC4/PWM2.c ****     * Return: 
 546:.\Generated_Source\PSoC4/PWM2.c ****     *  None
 547:.\Generated_Source\PSoC4/PWM2.c ****     *
 548:.\Generated_Source\PSoC4/PWM2.c ****     *******************************************************************************/
 549:.\Generated_Source\PSoC4/PWM2.c ****     void PWM2_WriteCompare1(uint8 compare) \
 550:.\Generated_Source\PSoC4/PWM2.c ****                                         
 551:.\Generated_Source\PSoC4/PWM2.c ****     {
 552:.\Generated_Source\PSoC4/PWM2.c ****         #if(PWM2_UsingFixedFunction)
 553:.\Generated_Source\PSoC4/PWM2.c ****             CY_SET_REG16(PWM2_COMPARE1_LSB_PTR, (uint16)compare);
 554:.\Generated_Source\PSoC4/PWM2.c ****         #else
 555:.\Generated_Source\PSoC4/PWM2.c ****             CY_SET_REG8(PWM2_COMPARE1_LSB_PTR, compare);
 556:.\Generated_Source\PSoC4/PWM2.c ****         #endif /* (PWM2_UsingFixedFunction) */
 557:.\Generated_Source\PSoC4/PWM2.c ****     }
 558:.\Generated_Source\PSoC4/PWM2.c **** 
 559:.\Generated_Source\PSoC4/PWM2.c **** 
 560:.\Generated_Source\PSoC4/PWM2.c ****     /*******************************************************************************
 561:.\Generated_Source\PSoC4/PWM2.c ****     * Function Name: PWM2_WriteCompare2
 562:.\Generated_Source\PSoC4/PWM2.c ****     ********************************************************************************
 563:.\Generated_Source\PSoC4/PWM2.c ****     * 
 564:.\Generated_Source\PSoC4/PWM2.c ****     * Summary:
 565:.\Generated_Source\PSoC4/PWM2.c ****     *  This funtion is used to change the compare value, for compare1 output.  
 566:.\Generated_Source\PSoC4/PWM2.c ****     *  The compare output will reflect the new value on the next UDB clock.  
 567:.\Generated_Source\PSoC4/PWM2.c ****     *  The compare output will be driven high when the present counter value is 
 568:.\Generated_Source\PSoC4/PWM2.c ****     *  less than or less than or equal to the compare register, depending on the 
 569:.\Generated_Source\PSoC4/PWM2.c ****     *  mode.
 570:.\Generated_Source\PSoC4/PWM2.c ****     *
 571:.\Generated_Source\PSoC4/PWM2.c ****     * Parameters:  
 572:.\Generated_Source\PSoC4/PWM2.c ****     *  compare:  New compare value.  
 573:.\Generated_Source\PSoC4/PWM2.c ****     *
 574:.\Generated_Source\PSoC4/PWM2.c ****     * Return: 
 575:.\Generated_Source\PSoC4/PWM2.c ****     *  None
 576:.\Generated_Source\PSoC4/PWM2.c ****     *
 577:.\Generated_Source\PSoC4/PWM2.c ****     *******************************************************************************/
 578:.\Generated_Source\PSoC4/PWM2.c ****     void PWM2_WriteCompare2(uint8 compare) \
 579:.\Generated_Source\PSoC4/PWM2.c ****                                         
 580:.\Generated_Source\PSoC4/PWM2.c ****     {
 581:.\Generated_Source\PSoC4/PWM2.c ****         #if(PWM2_UsingFixedFunction)
 582:.\Generated_Source\PSoC4/PWM2.c ****             CY_SET_REG16(PWM2_COMPARE2_LSB_PTR, compare);
ARM GAS  C:\Users\GLENNL~1\AppData\Local\Temp\cc9CBuac.s 			page 19


 583:.\Generated_Source\PSoC4/PWM2.c ****         #else
 584:.\Generated_Source\PSoC4/PWM2.c ****             CY_SET_REG8(PWM2_COMPARE2_LSB_PTR, compare);
 585:.\Generated_Source\PSoC4/PWM2.c ****         #endif /* (PWM2_UsingFixedFunction) */
 586:.\Generated_Source\PSoC4/PWM2.c ****     }
 587:.\Generated_Source\PSoC4/PWM2.c **** #endif /* UseOneCompareMode */
 588:.\Generated_Source\PSoC4/PWM2.c **** 
 589:.\Generated_Source\PSoC4/PWM2.c **** #if (PWM2_DeadBandUsed)
 590:.\Generated_Source\PSoC4/PWM2.c **** 
 591:.\Generated_Source\PSoC4/PWM2.c **** 
 592:.\Generated_Source\PSoC4/PWM2.c ****     /*******************************************************************************
 593:.\Generated_Source\PSoC4/PWM2.c ****     * Function Name: PWM2_WriteDeadTime
 594:.\Generated_Source\PSoC4/PWM2.c ****     ********************************************************************************
 595:.\Generated_Source\PSoC4/PWM2.c ****     * 
 596:.\Generated_Source\PSoC4/PWM2.c ****     * Summary:
 597:.\Generated_Source\PSoC4/PWM2.c ****     *  This function writes the dead-band counts to the corresponding register
 598:.\Generated_Source\PSoC4/PWM2.c ****     *
 599:.\Generated_Source\PSoC4/PWM2.c ****     * Parameters:  
 600:.\Generated_Source\PSoC4/PWM2.c ****     *  deadtime:  Number of counts for dead time 
 601:.\Generated_Source\PSoC4/PWM2.c ****     *
 602:.\Generated_Source\PSoC4/PWM2.c ****     * Return: 
 603:.\Generated_Source\PSoC4/PWM2.c ****     *  None
 604:.\Generated_Source\PSoC4/PWM2.c ****     *
 605:.\Generated_Source\PSoC4/PWM2.c ****     *******************************************************************************/
 606:.\Generated_Source\PSoC4/PWM2.c ****     void PWM2_WriteDeadTime(uint8 deadtime) 
 607:.\Generated_Source\PSoC4/PWM2.c ****     {
 608:.\Generated_Source\PSoC4/PWM2.c ****         /* If using the Dead Band 1-255 mode then just write the register */
 609:.\Generated_Source\PSoC4/PWM2.c ****         #if(!PWM2_DeadBand2_4)
 610:.\Generated_Source\PSoC4/PWM2.c ****             CY_SET_REG8(PWM2_DEADBAND_COUNT_PTR, deadtime);
 611:.\Generated_Source\PSoC4/PWM2.c ****         #else
 612:.\Generated_Source\PSoC4/PWM2.c ****             /* Otherwise the data has to be masked and offset */        
 613:.\Generated_Source\PSoC4/PWM2.c ****             /* Clear existing data */
 614:.\Generated_Source\PSoC4/PWM2.c ****             PWM2_DEADBAND_COUNT &= ((uint8)(~PWM2_DEADBAND_COUNT_MASK));
 615:.\Generated_Source\PSoC4/PWM2.c ****             
 616:.\Generated_Source\PSoC4/PWM2.c ****             /* Set new dead time */
 617:.\Generated_Source\PSoC4/PWM2.c ****             #if(PWM2_DEADBAND_COUNT_SHIFT)        
 618:.\Generated_Source\PSoC4/PWM2.c ****                 PWM2_DEADBAND_COUNT |= ((uint8)((uint8)deadtime << PWM2_DEADBAND_COUNT_SHIFT)) & 
 619:.\Generated_Source\PSoC4/PWM2.c ****                                                     PWM2_DEADBAND_COUNT_MASK;
 620:.\Generated_Source\PSoC4/PWM2.c ****             #else
 621:.\Generated_Source\PSoC4/PWM2.c ****                 PWM2_DEADBAND_COUNT |= deadtime & PWM2_DEADBAND_COUNT_MASK;        
 622:.\Generated_Source\PSoC4/PWM2.c ****             #endif /* (PWM2_DEADBAND_COUNT_SHIFT) */
 623:.\Generated_Source\PSoC4/PWM2.c ****         
 624:.\Generated_Source\PSoC4/PWM2.c ****         #endif /* (!PWM2_DeadBand2_4) */
 625:.\Generated_Source\PSoC4/PWM2.c ****     }
 626:.\Generated_Source\PSoC4/PWM2.c **** 
 627:.\Generated_Source\PSoC4/PWM2.c **** 
 628:.\Generated_Source\PSoC4/PWM2.c ****     /*******************************************************************************
 629:.\Generated_Source\PSoC4/PWM2.c ****     * Function Name: PWM2_ReadDeadTime
 630:.\Generated_Source\PSoC4/PWM2.c ****     ********************************************************************************
 631:.\Generated_Source\PSoC4/PWM2.c ****     * 
 632:.\Generated_Source\PSoC4/PWM2.c ****     * Summary:
 633:.\Generated_Source\PSoC4/PWM2.c ****     *  This function reads the dead-band counts from the corresponding register
 634:.\Generated_Source\PSoC4/PWM2.c ****     *
 635:.\Generated_Source\PSoC4/PWM2.c ****     * Parameters:  
 636:.\Generated_Source\PSoC4/PWM2.c ****     *  None
 637:.\Generated_Source\PSoC4/PWM2.c ****     *
 638:.\Generated_Source\PSoC4/PWM2.c ****     * Return: 
 639:.\Generated_Source\PSoC4/PWM2.c ****     *  Dead Band Counts
ARM GAS  C:\Users\GLENNL~1\AppData\Local\Temp\cc9CBuac.s 			page 20


 640:.\Generated_Source\PSoC4/PWM2.c ****     *
 641:.\Generated_Source\PSoC4/PWM2.c ****     *******************************************************************************/
 642:.\Generated_Source\PSoC4/PWM2.c ****     uint8 PWM2_ReadDeadTime(void) 
 643:.\Generated_Source\PSoC4/PWM2.c ****     {
 644:.\Generated_Source\PSoC4/PWM2.c ****         /* If using the Dead Band 1-255 mode then just read the register */
 645:.\Generated_Source\PSoC4/PWM2.c ****         #if(!PWM2_DeadBand2_4)
 646:.\Generated_Source\PSoC4/PWM2.c ****             return (CY_GET_REG8(PWM2_DEADBAND_COUNT_PTR));
 647:.\Generated_Source\PSoC4/PWM2.c ****         #else
 648:.\Generated_Source\PSoC4/PWM2.c ****         
 649:.\Generated_Source\PSoC4/PWM2.c ****             /* Otherwise the data has to be masked and offset */
 650:.\Generated_Source\PSoC4/PWM2.c ****             #if(PWM2_DEADBAND_COUNT_SHIFT)      
 651:.\Generated_Source\PSoC4/PWM2.c ****                 return ((uint8)(((uint8)(PWM2_DEADBAND_COUNT & PWM2_DEADBAND_COUNT_MASK)) >> 
 652:.\Generated_Source\PSoC4/PWM2.c ****                                                                            PWM2_DEADBAND_COUNT_SHIF
 653:.\Generated_Source\PSoC4/PWM2.c ****             #else
 654:.\Generated_Source\PSoC4/PWM2.c ****                 return (PWM2_DEADBAND_COUNT & PWM2_DEADBAND_COUNT_MASK);
 655:.\Generated_Source\PSoC4/PWM2.c ****             #endif /* (PWM2_DEADBAND_COUNT_SHIFT) */
 656:.\Generated_Source\PSoC4/PWM2.c ****         #endif /* (!PWM2_DeadBand2_4) */
 657:.\Generated_Source\PSoC4/PWM2.c ****     }
 658:.\Generated_Source\PSoC4/PWM2.c **** #endif /* DeadBandUsed */
 659:.\Generated_Source\PSoC4/PWM2.c **** 
 660:.\Generated_Source\PSoC4/PWM2.c **** #if (PWM2_UseStatus || PWM2_UsingFixedFunction)
 661:.\Generated_Source\PSoC4/PWM2.c **** 
 662:.\Generated_Source\PSoC4/PWM2.c **** 
 663:.\Generated_Source\PSoC4/PWM2.c ****     /*******************************************************************************
 664:.\Generated_Source\PSoC4/PWM2.c ****     * Function Name: PWM2_SetInterruptMode
 665:.\Generated_Source\PSoC4/PWM2.c ****     ********************************************************************************
 666:.\Generated_Source\PSoC4/PWM2.c ****     * 
 667:.\Generated_Source\PSoC4/PWM2.c ****     * Summary:
 668:.\Generated_Source\PSoC4/PWM2.c ****     *  This function configures the interrupts mask control of theinterrupt 
 669:.\Generated_Source\PSoC4/PWM2.c ****     *  source status register.
 670:.\Generated_Source\PSoC4/PWM2.c ****     *
 671:.\Generated_Source\PSoC4/PWM2.c ****     * Parameters:  
 672:.\Generated_Source\PSoC4/PWM2.c ****     *  uint8 interruptMode: Bit field containing the interrupt sources enabled 
 673:.\Generated_Source\PSoC4/PWM2.c ****     *
 674:.\Generated_Source\PSoC4/PWM2.c ****     * Return: 
 675:.\Generated_Source\PSoC4/PWM2.c ****     *  None
 676:.\Generated_Source\PSoC4/PWM2.c ****     *
 677:.\Generated_Source\PSoC4/PWM2.c ****     *******************************************************************************/
 678:.\Generated_Source\PSoC4/PWM2.c ****     void PWM2_SetInterruptMode(uint8 interruptMode)  
 679:.\Generated_Source\PSoC4/PWM2.c ****     {
 444              		.loc 1 679 0
 445              		.cfi_startproc
 446 0000 80B5     		push	{r7, lr}
 447              	.LCFI22:
 448              		.cfi_def_cfa_offset 8
 449              		.cfi_offset 7, -8
 450              		.cfi_offset 14, -4
 451 0002 82B0     		sub	sp, sp, #8
 452              	.LCFI23:
 453              		.cfi_def_cfa_offset 16
 454 0004 00AF     		add	r7, sp, #0
 455              	.LCFI24:
 456              		.cfi_def_cfa_register 7
 457 0006 021C     		mov	r2, r0
 458 0008 FB1D     		add	r3, r7, #7
 459 000a 1A70     		strb	r2, [r3]
 680:.\Generated_Source\PSoC4/PWM2.c ****     	CY_SET_REG8(PWM2_STATUS_MASK_PTR, interruptMode);
ARM GAS  C:\Users\GLENNL~1\AppData\Local\Temp\cc9CBuac.s 			page 21


 460              		.loc 1 680 0
 461 000c 034B     		ldr	r3, .L31
 462 000e FA1D     		add	r2, r7, #7
 463 0010 1278     		ldrb	r2, [r2]
 464 0012 1A70     		strb	r2, [r3]
 681:.\Generated_Source\PSoC4/PWM2.c ****     }
 465              		.loc 1 681 0
 466 0014 BD46     		mov	sp, r7
 467 0016 02B0     		add	sp, sp, #8
 468              		@ sp needed for prologue
 469 0018 80BD     		pop	{r7, pc}
 470              	.L32:
 471 001a C046     		.align	2
 472              	.L31:
 473 001c 82000F40 		.word	1074724994
 474              		.cfi_endproc
 475              	.LFE9:
 476              		.size	PWM2_SetInterruptMode, .-PWM2_SetInterruptMode
 477              		.section	.text.PWM2_ReadStatusRegister,"ax",%progbits
 478              		.align	2
 479              		.global	PWM2_ReadStatusRegister
 480              		.code	16
 481              		.thumb_func
 482              		.type	PWM2_ReadStatusRegister, %function
 483              	PWM2_ReadStatusRegister:
 484              	.LFB10:
 682:.\Generated_Source\PSoC4/PWM2.c **** 
 683:.\Generated_Source\PSoC4/PWM2.c **** 
 684:.\Generated_Source\PSoC4/PWM2.c ****     /*******************************************************************************
 685:.\Generated_Source\PSoC4/PWM2.c ****     * Function Name: PWM2_ReadStatusRegister
 686:.\Generated_Source\PSoC4/PWM2.c ****     ********************************************************************************
 687:.\Generated_Source\PSoC4/PWM2.c ****     * 
 688:.\Generated_Source\PSoC4/PWM2.c ****     * Summary:
 689:.\Generated_Source\PSoC4/PWM2.c ****     *  This function returns the current state of the status register. 
 690:.\Generated_Source\PSoC4/PWM2.c ****     *
 691:.\Generated_Source\PSoC4/PWM2.c ****     * Parameters:  
 692:.\Generated_Source\PSoC4/PWM2.c ****     *  None
 693:.\Generated_Source\PSoC4/PWM2.c ****     *
 694:.\Generated_Source\PSoC4/PWM2.c ****     * Return: 
 695:.\Generated_Source\PSoC4/PWM2.c ****     *  uint8 : Current status register value. The status register bits are:
 696:.\Generated_Source\PSoC4/PWM2.c ****     *  [7:6] : Unused(0)
 697:.\Generated_Source\PSoC4/PWM2.c ****     *  [5]   : Kill event output
 698:.\Generated_Source\PSoC4/PWM2.c ****     *  [4]   : FIFO not empty
 699:.\Generated_Source\PSoC4/PWM2.c ****     *  [3]   : FIFO full
 700:.\Generated_Source\PSoC4/PWM2.c ****     *  [2]   : Terminal count
 701:.\Generated_Source\PSoC4/PWM2.c ****     *  [1]   : Compare output 2
 702:.\Generated_Source\PSoC4/PWM2.c ****     *  [0]   : Compare output 1
 703:.\Generated_Source\PSoC4/PWM2.c ****     *
 704:.\Generated_Source\PSoC4/PWM2.c ****     *******************************************************************************/
 705:.\Generated_Source\PSoC4/PWM2.c ****     uint8 PWM2_ReadStatusRegister(void)   
 706:.\Generated_Source\PSoC4/PWM2.c ****     {
 485              		.loc 1 706 0
 486              		.cfi_startproc
 487 0000 80B5     		push	{r7, lr}
 488              	.LCFI25:
 489              		.cfi_def_cfa_offset 8
 490              		.cfi_offset 7, -8
ARM GAS  C:\Users\GLENNL~1\AppData\Local\Temp\cc9CBuac.s 			page 22


 491              		.cfi_offset 14, -4
 492 0002 82B0     		sub	sp, sp, #8
 493              	.LCFI26:
 494              		.cfi_def_cfa_offset 16
 495 0004 00AF     		add	r7, sp, #0
 496              	.LCFI27:
 497              		.cfi_def_cfa_register 7
 707:.\Generated_Source\PSoC4/PWM2.c ****     	uint8 result;
 708:.\Generated_Source\PSoC4/PWM2.c ****     	
 709:.\Generated_Source\PSoC4/PWM2.c ****     	result = CY_GET_REG8(PWM2_STATUS_PTR);
 498              		.loc 1 709 0
 499 0006 054A     		ldr	r2, .L35
 500 0008 FB1D     		add	r3, r7, #7
 501 000a 1278     		ldrb	r2, [r2]
 502 000c 1A70     		strb	r2, [r3]
 710:.\Generated_Source\PSoC4/PWM2.c ****     	return (result);
 503              		.loc 1 710 0
 504 000e FB1D     		add	r3, r7, #7
 505 0010 1B78     		ldrb	r3, [r3]
 711:.\Generated_Source\PSoC4/PWM2.c ****     }
 506              		.loc 1 711 0
 507 0012 181C     		mov	r0, r3
 508 0014 BD46     		mov	sp, r7
 509 0016 02B0     		add	sp, sp, #8
 510              		@ sp needed for prologue
 511 0018 80BD     		pop	{r7, pc}
 512              	.L36:
 513 001a C046     		.align	2
 514              	.L35:
 515 001c 62000F40 		.word	1074724962
 516              		.cfi_endproc
 517              	.LFE10:
 518              		.size	PWM2_ReadStatusRegister, .-PWM2_ReadStatusRegister
 519              		.section	.text.PWM2_ReadControlRegister,"ax",%progbits
 520              		.align	2
 521              		.global	PWM2_ReadControlRegister
 522              		.code	16
 523              		.thumb_func
 524              		.type	PWM2_ReadControlRegister, %function
 525              	PWM2_ReadControlRegister:
 526              	.LFB11:
 712:.\Generated_Source\PSoC4/PWM2.c **** 
 713:.\Generated_Source\PSoC4/PWM2.c **** #endif /* (PWM2_UseStatus || PWM2_UsingFixedFunction) */
 714:.\Generated_Source\PSoC4/PWM2.c **** 
 715:.\Generated_Source\PSoC4/PWM2.c **** 
 716:.\Generated_Source\PSoC4/PWM2.c **** #if (PWM2_UseControl)
 717:.\Generated_Source\PSoC4/PWM2.c **** 
 718:.\Generated_Source\PSoC4/PWM2.c **** 
 719:.\Generated_Source\PSoC4/PWM2.c ****     /*******************************************************************************
 720:.\Generated_Source\PSoC4/PWM2.c ****     * Function Name: PWM2_ReadControlRegister
 721:.\Generated_Source\PSoC4/PWM2.c ****     ********************************************************************************
 722:.\Generated_Source\PSoC4/PWM2.c ****     * 
 723:.\Generated_Source\PSoC4/PWM2.c ****     * Summary:
 724:.\Generated_Source\PSoC4/PWM2.c ****     *  Returns the current state of the control register. This API is available 
 725:.\Generated_Source\PSoC4/PWM2.c ****     *  only if the control register is not removed.
 726:.\Generated_Source\PSoC4/PWM2.c ****     *
 727:.\Generated_Source\PSoC4/PWM2.c ****     * Parameters:  
ARM GAS  C:\Users\GLENNL~1\AppData\Local\Temp\cc9CBuac.s 			page 23


 728:.\Generated_Source\PSoC4/PWM2.c ****     *  None 
 729:.\Generated_Source\PSoC4/PWM2.c ****     *
 730:.\Generated_Source\PSoC4/PWM2.c ****     * Return: 
 731:.\Generated_Source\PSoC4/PWM2.c ****     *  uint8 : Current control register value
 732:.\Generated_Source\PSoC4/PWM2.c ****     *
 733:.\Generated_Source\PSoC4/PWM2.c ****     *******************************************************************************/    
 734:.\Generated_Source\PSoC4/PWM2.c ****     uint8 PWM2_ReadControlRegister(void) 
 735:.\Generated_Source\PSoC4/PWM2.c ****     {
 527              		.loc 1 735 0
 528              		.cfi_startproc
 529 0000 80B5     		push	{r7, lr}
 530              	.LCFI28:
 531              		.cfi_def_cfa_offset 8
 532              		.cfi_offset 7, -8
 533              		.cfi_offset 14, -4
 534 0002 82B0     		sub	sp, sp, #8
 535              	.LCFI29:
 536              		.cfi_def_cfa_offset 16
 537 0004 00AF     		add	r7, sp, #0
 538              	.LCFI30:
 539              		.cfi_def_cfa_register 7
 736:.\Generated_Source\PSoC4/PWM2.c ****     	uint8 result;
 737:.\Generated_Source\PSoC4/PWM2.c ****     	
 738:.\Generated_Source\PSoC4/PWM2.c ****     	result = CY_GET_REG8(PWM2_CONTROL_PTR);
 540              		.loc 1 738 0
 541 0006 054A     		ldr	r2, .L39
 542 0008 FB1D     		add	r3, r7, #7
 543 000a 1278     		ldrb	r2, [r2]
 544 000c 1A70     		strb	r2, [r3]
 739:.\Generated_Source\PSoC4/PWM2.c ****     	return (result);
 545              		.loc 1 739 0
 546 000e FB1D     		add	r3, r7, #7
 547 0010 1B78     		ldrb	r3, [r3]
 740:.\Generated_Source\PSoC4/PWM2.c ****     }
 548              		.loc 1 740 0
 549 0012 181C     		mov	r0, r3
 550 0014 BD46     		mov	sp, r7
 551 0016 02B0     		add	sp, sp, #8
 552              		@ sp needed for prologue
 553 0018 80BD     		pop	{r7, pc}
 554              	.L40:
 555 001a C046     		.align	2
 556              	.L39:
 557 001c 72000F40 		.word	1074724978
 558              		.cfi_endproc
 559              	.LFE11:
 560              		.size	PWM2_ReadControlRegister, .-PWM2_ReadControlRegister
 561              		.section	.text.PWM2_WriteControlRegister,"ax",%progbits
 562              		.align	2
 563              		.global	PWM2_WriteControlRegister
 564              		.code	16
 565              		.thumb_func
 566              		.type	PWM2_WriteControlRegister, %function
 567              	PWM2_WriteControlRegister:
 568              	.LFB12:
 741:.\Generated_Source\PSoC4/PWM2.c **** 
 742:.\Generated_Source\PSoC4/PWM2.c **** 
ARM GAS  C:\Users\GLENNL~1\AppData\Local\Temp\cc9CBuac.s 			page 24


 743:.\Generated_Source\PSoC4/PWM2.c ****     /*******************************************************************************
 744:.\Generated_Source\PSoC4/PWM2.c ****     * Function Name: PWM2_WriteControlRegister
 745:.\Generated_Source\PSoC4/PWM2.c ****     ********************************************************************************
 746:.\Generated_Source\PSoC4/PWM2.c ****     * 
 747:.\Generated_Source\PSoC4/PWM2.c ****     * Summary:
 748:.\Generated_Source\PSoC4/PWM2.c ****     *  Sets the bit field of the control register. This API is available only if 
 749:.\Generated_Source\PSoC4/PWM2.c ****     *  the control register is not removed.
 750:.\Generated_Source\PSoC4/PWM2.c ****     *
 751:.\Generated_Source\PSoC4/PWM2.c ****     * Parameters:  
 752:.\Generated_Source\PSoC4/PWM2.c ****     *  uint8 control: Control register bit field, The status register bits are:
 753:.\Generated_Source\PSoC4/PWM2.c ****     *  [7]   : PWM Enable
 754:.\Generated_Source\PSoC4/PWM2.c ****     *  [6]   : Reset
 755:.\Generated_Source\PSoC4/PWM2.c ****     *  [5:3] : Compare Mode2
 756:.\Generated_Source\PSoC4/PWM2.c ****     *  [2:0] : Compare Mode2
 757:.\Generated_Source\PSoC4/PWM2.c ****     *
 758:.\Generated_Source\PSoC4/PWM2.c ****     * Return: 
 759:.\Generated_Source\PSoC4/PWM2.c ****     *  None
 760:.\Generated_Source\PSoC4/PWM2.c ****     *
 761:.\Generated_Source\PSoC4/PWM2.c ****     *******************************************************************************/  
 762:.\Generated_Source\PSoC4/PWM2.c ****     void PWM2_WriteControlRegister(uint8 control) 
 763:.\Generated_Source\PSoC4/PWM2.c ****     {
 569              		.loc 1 763 0
 570              		.cfi_startproc
 571 0000 80B5     		push	{r7, lr}
 572              	.LCFI31:
 573              		.cfi_def_cfa_offset 8
 574              		.cfi_offset 7, -8
 575              		.cfi_offset 14, -4
 576 0002 82B0     		sub	sp, sp, #8
 577              	.LCFI32:
 578              		.cfi_def_cfa_offset 16
 579 0004 00AF     		add	r7, sp, #0
 580              	.LCFI33:
 581              		.cfi_def_cfa_register 7
 582 0006 021C     		mov	r2, r0
 583 0008 FB1D     		add	r3, r7, #7
 584 000a 1A70     		strb	r2, [r3]
 764:.\Generated_Source\PSoC4/PWM2.c ****     	CY_SET_REG8(PWM2_CONTROL_PTR, control);
 585              		.loc 1 764 0
 586 000c 034B     		ldr	r3, .L42
 587 000e FA1D     		add	r2, r7, #7
 588 0010 1278     		ldrb	r2, [r2]
 589 0012 1A70     		strb	r2, [r3]
 765:.\Generated_Source\PSoC4/PWM2.c ****     }
 590              		.loc 1 765 0
 591 0014 BD46     		mov	sp, r7
 592 0016 02B0     		add	sp, sp, #8
 593              		@ sp needed for prologue
 594 0018 80BD     		pop	{r7, pc}
 595              	.L43:
 596 001a C046     		.align	2
 597              	.L42:
 598 001c 72000F40 		.word	1074724978
 599              		.cfi_endproc
 600              	.LFE12:
 601              		.size	PWM2_WriteControlRegister, .-PWM2_WriteControlRegister
 602              		.section	.text.PWM2_ReadCapture,"ax",%progbits
ARM GAS  C:\Users\GLENNL~1\AppData\Local\Temp\cc9CBuac.s 			page 25


 603              		.align	2
 604              		.global	PWM2_ReadCapture
 605              		.code	16
 606              		.thumb_func
 607              		.type	PWM2_ReadCapture, %function
 608              	PWM2_ReadCapture:
 609              	.LFB13:
 766:.\Generated_Source\PSoC4/PWM2.c **** 	
 767:.\Generated_Source\PSoC4/PWM2.c **** #endif /* (PWM2_UseControl) */
 768:.\Generated_Source\PSoC4/PWM2.c **** 
 769:.\Generated_Source\PSoC4/PWM2.c **** 
 770:.\Generated_Source\PSoC4/PWM2.c **** #if (!PWM2_UsingFixedFunction)
 771:.\Generated_Source\PSoC4/PWM2.c **** 
 772:.\Generated_Source\PSoC4/PWM2.c **** 
 773:.\Generated_Source\PSoC4/PWM2.c ****     /*******************************************************************************
 774:.\Generated_Source\PSoC4/PWM2.c ****     * Function Name: PWM2_ReadCapture
 775:.\Generated_Source\PSoC4/PWM2.c ****     ********************************************************************************
 776:.\Generated_Source\PSoC4/PWM2.c ****     * 
 777:.\Generated_Source\PSoC4/PWM2.c ****     * Summary:
 778:.\Generated_Source\PSoC4/PWM2.c ****     *  Reads the capture value from the capture FIFO.
 779:.\Generated_Source\PSoC4/PWM2.c ****     *
 780:.\Generated_Source\PSoC4/PWM2.c ****     * Parameters:  
 781:.\Generated_Source\PSoC4/PWM2.c ****     *  None
 782:.\Generated_Source\PSoC4/PWM2.c ****     *
 783:.\Generated_Source\PSoC4/PWM2.c ****     * Return: 
 784:.\Generated_Source\PSoC4/PWM2.c ****     *  uint8/uint16: The current capture value
 785:.\Generated_Source\PSoC4/PWM2.c ****     *
 786:.\Generated_Source\PSoC4/PWM2.c ****     *******************************************************************************/  
 787:.\Generated_Source\PSoC4/PWM2.c ****     uint8 PWM2_ReadCapture(void)  
 788:.\Generated_Source\PSoC4/PWM2.c ****     {
 610              		.loc 1 788 0
 611              		.cfi_startproc
 612 0000 80B5     		push	{r7, lr}
 613              	.LCFI34:
 614              		.cfi_def_cfa_offset 8
 615              		.cfi_offset 7, -8
 616              		.cfi_offset 14, -4
 617 0002 00AF     		add	r7, sp, #0
 618              	.LCFI35:
 619              		.cfi_def_cfa_register 7
 789:.\Generated_Source\PSoC4/PWM2.c ****     	return (CY_GET_REG8(PWM2_CAPTURE_LSB_PTR));
 620              		.loc 1 789 0
 621 0004 024B     		ldr	r3, .L46
 622 0006 1B78     		ldrb	r3, [r3]
 623 0008 DBB2     		uxtb	r3, r3
 790:.\Generated_Source\PSoC4/PWM2.c ****     }
 624              		.loc 1 790 0
 625 000a 181C     		mov	r0, r3
 626 000c BD46     		mov	sp, r7
 627              		@ sp needed for prologue
 628 000e 80BD     		pop	{r7, pc}
 629              	.L47:
 630              		.align	2
 631              	.L46:
 632 0010 52000F40 		.word	1074724946
 633              		.cfi_endproc
 634              	.LFE13:
ARM GAS  C:\Users\GLENNL~1\AppData\Local\Temp\cc9CBuac.s 			page 26


 635              		.size	PWM2_ReadCapture, .-PWM2_ReadCapture
 636              		.section	.text.PWM2_ReadCompare,"ax",%progbits
 637              		.align	2
 638              		.global	PWM2_ReadCompare
 639              		.code	16
 640              		.thumb_func
 641              		.type	PWM2_ReadCompare, %function
 642              	PWM2_ReadCompare:
 643              	.LFB14:
 791:.\Generated_Source\PSoC4/PWM2.c **** 	
 792:.\Generated_Source\PSoC4/PWM2.c **** #endif /* (!PWM2_UsingFixedFunction) */
 793:.\Generated_Source\PSoC4/PWM2.c **** 
 794:.\Generated_Source\PSoC4/PWM2.c **** 
 795:.\Generated_Source\PSoC4/PWM2.c **** #if (PWM2_UseOneCompareMode)
 796:.\Generated_Source\PSoC4/PWM2.c **** 
 797:.\Generated_Source\PSoC4/PWM2.c **** 
 798:.\Generated_Source\PSoC4/PWM2.c ****     /*******************************************************************************
 799:.\Generated_Source\PSoC4/PWM2.c ****     * Function Name: PWM2_ReadCompare
 800:.\Generated_Source\PSoC4/PWM2.c ****     ********************************************************************************
 801:.\Generated_Source\PSoC4/PWM2.c ****     * 
 802:.\Generated_Source\PSoC4/PWM2.c ****     * Summary:
 803:.\Generated_Source\PSoC4/PWM2.c ****     *  Reads the compare value for the compare output when the PWM Mode parameter is 
 804:.\Generated_Source\PSoC4/PWM2.c ****     *  set to Dither mode, Center Aligned mode, or One Output mode.
 805:.\Generated_Source\PSoC4/PWM2.c ****     *
 806:.\Generated_Source\PSoC4/PWM2.c ****     * Parameters:  
 807:.\Generated_Source\PSoC4/PWM2.c ****     *  None
 808:.\Generated_Source\PSoC4/PWM2.c ****     *
 809:.\Generated_Source\PSoC4/PWM2.c ****     * Return: 
 810:.\Generated_Source\PSoC4/PWM2.c ****     *  uint8/uint16: Current compare value
 811:.\Generated_Source\PSoC4/PWM2.c ****     *
 812:.\Generated_Source\PSoC4/PWM2.c ****     *******************************************************************************/  
 813:.\Generated_Source\PSoC4/PWM2.c ****     uint8 PWM2_ReadCompare(void)  
 814:.\Generated_Source\PSoC4/PWM2.c ****     {
 644              		.loc 1 814 0
 645              		.cfi_startproc
 646 0000 80B5     		push	{r7, lr}
 647              	.LCFI36:
 648              		.cfi_def_cfa_offset 8
 649              		.cfi_offset 7, -8
 650              		.cfi_offset 14, -4
 651 0002 00AF     		add	r7, sp, #0
 652              	.LCFI37:
 653              		.cfi_def_cfa_register 7
 815:.\Generated_Source\PSoC4/PWM2.c **** 		#if(PWM2_UsingFixedFunction)
 816:.\Generated_Source\PSoC4/PWM2.c ****             return ((uint8)CY_GET_REG16(PWM2_COMPARE1_LSB_PTR));
 817:.\Generated_Source\PSoC4/PWM2.c ****         #else
 818:.\Generated_Source\PSoC4/PWM2.c ****             return (CY_GET_REG8(PWM2_COMPARE1_LSB_PTR));
 654              		.loc 1 818 0
 655 0004 024B     		ldr	r3, .L50
 656 0006 1B78     		ldrb	r3, [r3]
 657 0008 DBB2     		uxtb	r3, r3
 819:.\Generated_Source\PSoC4/PWM2.c ****         #endif /* (PWM2_UsingFixedFunction) */
 820:.\Generated_Source\PSoC4/PWM2.c ****     }
 658              		.loc 1 820 0
 659 000a 181C     		mov	r0, r3
 660 000c BD46     		mov	sp, r7
 661              		@ sp needed for prologue
ARM GAS  C:\Users\GLENNL~1\AppData\Local\Temp\cc9CBuac.s 			page 27


 662 000e 80BD     		pop	{r7, pc}
 663              	.L51:
 664              		.align	2
 665              	.L50:
 666 0010 22000F40 		.word	1074724898
 667              		.cfi_endproc
 668              	.LFE14:
 669              		.size	PWM2_ReadCompare, .-PWM2_ReadCompare
 670              		.section	.text.PWM2_ReadPeriod,"ax",%progbits
 671              		.align	2
 672              		.global	PWM2_ReadPeriod
 673              		.code	16
 674              		.thumb_func
 675              		.type	PWM2_ReadPeriod, %function
 676              	PWM2_ReadPeriod:
 677              	.LFB15:
 821:.\Generated_Source\PSoC4/PWM2.c **** 
 822:.\Generated_Source\PSoC4/PWM2.c **** #else
 823:.\Generated_Source\PSoC4/PWM2.c **** 
 824:.\Generated_Source\PSoC4/PWM2.c **** 
 825:.\Generated_Source\PSoC4/PWM2.c ****     /*******************************************************************************
 826:.\Generated_Source\PSoC4/PWM2.c ****     * Function Name: PWM2_ReadCompare1
 827:.\Generated_Source\PSoC4/PWM2.c ****     ********************************************************************************
 828:.\Generated_Source\PSoC4/PWM2.c ****     * 
 829:.\Generated_Source\PSoC4/PWM2.c ****     * Summary:
 830:.\Generated_Source\PSoC4/PWM2.c ****     *  Reads the compare value for the compare1 output.
 831:.\Generated_Source\PSoC4/PWM2.c ****     *
 832:.\Generated_Source\PSoC4/PWM2.c ****     * Parameters:  
 833:.\Generated_Source\PSoC4/PWM2.c ****     *  None
 834:.\Generated_Source\PSoC4/PWM2.c ****     *
 835:.\Generated_Source\PSoC4/PWM2.c ****     * Return: 
 836:.\Generated_Source\PSoC4/PWM2.c ****     *  uint8/uint16: Current compare value.
 837:.\Generated_Source\PSoC4/PWM2.c ****     *
 838:.\Generated_Source\PSoC4/PWM2.c ****     *******************************************************************************/  
 839:.\Generated_Source\PSoC4/PWM2.c ****     uint8 PWM2_ReadCompare1(void) 
 840:.\Generated_Source\PSoC4/PWM2.c ****     {
 841:.\Generated_Source\PSoC4/PWM2.c **** 		return (CY_GET_REG8(PWM2_COMPARE1_LSB_PTR));
 842:.\Generated_Source\PSoC4/PWM2.c ****     }
 843:.\Generated_Source\PSoC4/PWM2.c **** 
 844:.\Generated_Source\PSoC4/PWM2.c **** 
 845:.\Generated_Source\PSoC4/PWM2.c ****     /*******************************************************************************
 846:.\Generated_Source\PSoC4/PWM2.c ****     * Function Name: PWM2_ReadCompare2
 847:.\Generated_Source\PSoC4/PWM2.c ****     ********************************************************************************
 848:.\Generated_Source\PSoC4/PWM2.c ****     * 
 849:.\Generated_Source\PSoC4/PWM2.c ****     * Summary:
 850:.\Generated_Source\PSoC4/PWM2.c ****     *  Reads the compare value for the compare2 output.
 851:.\Generated_Source\PSoC4/PWM2.c ****     *
 852:.\Generated_Source\PSoC4/PWM2.c ****     * Parameters:  
 853:.\Generated_Source\PSoC4/PWM2.c ****     *  None
 854:.\Generated_Source\PSoC4/PWM2.c ****     *
 855:.\Generated_Source\PSoC4/PWM2.c ****     * Return: 
 856:.\Generated_Source\PSoC4/PWM2.c ****     *  uint8/uint16: Current compare value.
 857:.\Generated_Source\PSoC4/PWM2.c ****     *
 858:.\Generated_Source\PSoC4/PWM2.c ****     *******************************************************************************/  
 859:.\Generated_Source\PSoC4/PWM2.c ****     uint8 PWM2_ReadCompare2(void)  
 860:.\Generated_Source\PSoC4/PWM2.c ****     {
 861:.\Generated_Source\PSoC4/PWM2.c **** 		return (CY_GET_REG8(PWM2_COMPARE2_LSB_PTR));
ARM GAS  C:\Users\GLENNL~1\AppData\Local\Temp\cc9CBuac.s 			page 28


 862:.\Generated_Source\PSoC4/PWM2.c ****     }
 863:.\Generated_Source\PSoC4/PWM2.c **** 
 864:.\Generated_Source\PSoC4/PWM2.c **** #endif /* (PWM2_UseOneCompareMode) */
 865:.\Generated_Source\PSoC4/PWM2.c **** 
 866:.\Generated_Source\PSoC4/PWM2.c **** 
 867:.\Generated_Source\PSoC4/PWM2.c **** /*******************************************************************************
 868:.\Generated_Source\PSoC4/PWM2.c **** * Function Name: PWM2_ReadPeriod
 869:.\Generated_Source\PSoC4/PWM2.c **** ********************************************************************************
 870:.\Generated_Source\PSoC4/PWM2.c **** * 
 871:.\Generated_Source\PSoC4/PWM2.c **** * Summary:
 872:.\Generated_Source\PSoC4/PWM2.c **** *  Reads the period value used by the PWM hardware.
 873:.\Generated_Source\PSoC4/PWM2.c **** *
 874:.\Generated_Source\PSoC4/PWM2.c **** * Parameters:  
 875:.\Generated_Source\PSoC4/PWM2.c **** *  None
 876:.\Generated_Source\PSoC4/PWM2.c **** *
 877:.\Generated_Source\PSoC4/PWM2.c **** * Return: 
 878:.\Generated_Source\PSoC4/PWM2.c **** *  uint8/16: Period value
 879:.\Generated_Source\PSoC4/PWM2.c **** *
 880:.\Generated_Source\PSoC4/PWM2.c **** *******************************************************************************/ 
 881:.\Generated_Source\PSoC4/PWM2.c **** uint8 PWM2_ReadPeriod(void) 
 882:.\Generated_Source\PSoC4/PWM2.c **** {
 678              		.loc 1 882 0
 679              		.cfi_startproc
 680 0000 80B5     		push	{r7, lr}
 681              	.LCFI38:
 682              		.cfi_def_cfa_offset 8
 683              		.cfi_offset 7, -8
 684              		.cfi_offset 14, -4
 685 0002 00AF     		add	r7, sp, #0
 686              	.LCFI39:
 687              		.cfi_def_cfa_register 7
 883:.\Generated_Source\PSoC4/PWM2.c **** 	#if(PWM2_UsingFixedFunction)
 884:.\Generated_Source\PSoC4/PWM2.c ****         return ((uint8)CY_GET_REG16(PWM2_PERIOD_LSB_PTR));
 885:.\Generated_Source\PSoC4/PWM2.c ****     #else
 886:.\Generated_Source\PSoC4/PWM2.c ****         return (CY_GET_REG8(PWM2_PERIOD_LSB_PTR));
 688              		.loc 1 886 0
 689 0004 024B     		ldr	r3, .L54
 690 0006 1B78     		ldrb	r3, [r3]
 691 0008 DBB2     		uxtb	r3, r3
 887:.\Generated_Source\PSoC4/PWM2.c ****     #endif /* (PWM2_UsingFixedFunction) */
 888:.\Generated_Source\PSoC4/PWM2.c **** }
 692              		.loc 1 888 0
 693 000a 181C     		mov	r0, r3
 694 000c BD46     		mov	sp, r7
 695              		@ sp needed for prologue
 696 000e 80BD     		pop	{r7, pc}
 697              	.L55:
 698              		.align	2
 699              	.L54:
 700 0010 42000F40 		.word	1074724930
 701              		.cfi_endproc
 702              	.LFE15:
 703              		.size	PWM2_ReadPeriod, .-PWM2_ReadPeriod
 704              		.text
 705              	.Letext0:
 706              		.file 2 ".\\Generated_Source\\PSoC4\\cytypes.h"