ARM GAS  C:\Users\GLENNL~1\AppData\Local\Temp\cccQ8SQ9.s 			page 1


   1              		.cpu cortex-m0
   2              		.fpu softvfp
   3              		.eabi_attribute 20, 1
   4              		.eabi_attribute 21, 1
   5              		.eabi_attribute 23, 3
   6              		.eabi_attribute 24, 1
   7              		.eabi_attribute 25, 1
   8              		.eabi_attribute 26, 1
   9              		.eabi_attribute 30, 6
  10              		.eabi_attribute 34, 0
  11              		.eabi_attribute 18, 4
  12              		.code	16
  13              		.file	"cyfitter_cfg.c"
  14              		.text
  15              	.Ltext0:
  16              		.cfi_sections	.debug_frame
  17              		.section	.text.CYMEMZERO,"ax",%progbits
  18              		.align	2
  19              		.code	16
  20              		.thumb_func
  21              		.type	CYMEMZERO, %function
  22              	CYMEMZERO:
  23              	.LFB2:
  24              		.file 1 ".\\Generated_Source\\PSoC4\\cyfitter_cfg.c"
   1:.\Generated_Source\PSoC4/cyfitter_cfg.c **** /*******************************************************************************
   2:.\Generated_Source\PSoC4/cyfitter_cfg.c **** * FILENAME: cyfitter_cfg.c
   3:.\Generated_Source\PSoC4/cyfitter_cfg.c **** * PSoC Creator  3.1
   4:.\Generated_Source\PSoC4/cyfitter_cfg.c **** *
   5:.\Generated_Source\PSoC4/cyfitter_cfg.c **** * Description:
   6:.\Generated_Source\PSoC4/cyfitter_cfg.c **** * This file is automatically generated by PSoC Creator with device 
   7:.\Generated_Source\PSoC4/cyfitter_cfg.c **** * initialization code.  Except for the user defined sections in
   8:.\Generated_Source\PSoC4/cyfitter_cfg.c **** * CyClockStartupError(), this file should not be modified.
   9:.\Generated_Source\PSoC4/cyfitter_cfg.c **** *
  10:.\Generated_Source\PSoC4/cyfitter_cfg.c **** ********************************************************************************
  11:.\Generated_Source\PSoC4/cyfitter_cfg.c **** * Copyright 2013, Cypress Semiconductor Corporation.  All rights reserved.
  12:.\Generated_Source\PSoC4/cyfitter_cfg.c **** * You may use this file only in accordance with the license, terms, conditions, 
  13:.\Generated_Source\PSoC4/cyfitter_cfg.c **** * disclaimers, and limitations in the end user license agreement accompanying 
  14:.\Generated_Source\PSoC4/cyfitter_cfg.c **** * the software package with which this file was provided.
  15:.\Generated_Source\PSoC4/cyfitter_cfg.c **** ********************************************************************************/
  16:.\Generated_Source\PSoC4/cyfitter_cfg.c **** 
  17:.\Generated_Source\PSoC4/cyfitter_cfg.c **** #include <string.h>
  18:.\Generated_Source\PSoC4/cyfitter_cfg.c **** #include <cytypes.h>
  19:.\Generated_Source\PSoC4/cyfitter_cfg.c **** #include <cydevice_trm.h>
  20:.\Generated_Source\PSoC4/cyfitter_cfg.c **** #include <cyfitter.h>
  21:.\Generated_Source\PSoC4/cyfitter_cfg.c **** #include <CyLib.h>
  22:.\Generated_Source\PSoC4/cyfitter_cfg.c **** #include <cyfitter_cfg.h>
  23:.\Generated_Source\PSoC4/cyfitter_cfg.c **** 
  24:.\Generated_Source\PSoC4/cyfitter_cfg.c **** 
  25:.\Generated_Source\PSoC4/cyfitter_cfg.c **** #if defined(__GNUC__) || defined(__ARMCC_VERSION)
  26:.\Generated_Source\PSoC4/cyfitter_cfg.c ****     #define CYPACKED 
  27:.\Generated_Source\PSoC4/cyfitter_cfg.c ****     #define CYPACKED_ATTR __attribute__ ((packed))
  28:.\Generated_Source\PSoC4/cyfitter_cfg.c ****     #define CYALIGNED __attribute__ ((aligned))
  29:.\Generated_Source\PSoC4/cyfitter_cfg.c ****     #define CY_CFG_UNUSED __attribute__ ((unused))
  30:.\Generated_Source\PSoC4/cyfitter_cfg.c ****     #define CY_CFG_SECTION __attribute__ ((section(".psocinit")))
  31:.\Generated_Source\PSoC4/cyfitter_cfg.c ****     
  32:.\Generated_Source\PSoC4/cyfitter_cfg.c ****     #if defined(__ARMCC_VERSION)
  33:.\Generated_Source\PSoC4/cyfitter_cfg.c ****         #define CY_CFG_MEMORY_BARRIER() __memory_changed()
ARM GAS  C:\Users\GLENNL~1\AppData\Local\Temp\cccQ8SQ9.s 			page 2


  34:.\Generated_Source\PSoC4/cyfitter_cfg.c ****     #else
  35:.\Generated_Source\PSoC4/cyfitter_cfg.c ****         #define CY_CFG_MEMORY_BARRIER() __sync_synchronize()
  36:.\Generated_Source\PSoC4/cyfitter_cfg.c ****     #endif
  37:.\Generated_Source\PSoC4/cyfitter_cfg.c ****     
  38:.\Generated_Source\PSoC4/cyfitter_cfg.c **** #elif defined(__ICCARM__)
  39:.\Generated_Source\PSoC4/cyfitter_cfg.c ****     #include <intrinsics.h>
  40:.\Generated_Source\PSoC4/cyfitter_cfg.c **** 
  41:.\Generated_Source\PSoC4/cyfitter_cfg.c ****     #define CYPACKED __packed
  42:.\Generated_Source\PSoC4/cyfitter_cfg.c ****     #define CYPACKED_ATTR 
  43:.\Generated_Source\PSoC4/cyfitter_cfg.c ****     #define CYALIGNED _Pragma("data_alignment=4")
  44:.\Generated_Source\PSoC4/cyfitter_cfg.c ****     #define CY_CFG_UNUSED _Pragma("diag_suppress=Pe177")
  45:.\Generated_Source\PSoC4/cyfitter_cfg.c ****     #define CY_CFG_SECTION _Pragma("location=\".psocinit\"")
  46:.\Generated_Source\PSoC4/cyfitter_cfg.c ****     
  47:.\Generated_Source\PSoC4/cyfitter_cfg.c ****     #define CY_CFG_MEMORY_BARRIER() __DMB()
  48:.\Generated_Source\PSoC4/cyfitter_cfg.c ****     
  49:.\Generated_Source\PSoC4/cyfitter_cfg.c **** #else
  50:.\Generated_Source\PSoC4/cyfitter_cfg.c ****     #error Unsupported toolchain
  51:.\Generated_Source\PSoC4/cyfitter_cfg.c **** #endif
  52:.\Generated_Source\PSoC4/cyfitter_cfg.c **** 
  53:.\Generated_Source\PSoC4/cyfitter_cfg.c **** 
  54:.\Generated_Source\PSoC4/cyfitter_cfg.c **** CY_CFG_UNUSED
  55:.\Generated_Source\PSoC4/cyfitter_cfg.c **** static void CYMEMZERO(void *s, size_t n);
  56:.\Generated_Source\PSoC4/cyfitter_cfg.c **** CY_CFG_UNUSED
  57:.\Generated_Source\PSoC4/cyfitter_cfg.c **** static void CYMEMZERO(void *s, size_t n)
  58:.\Generated_Source\PSoC4/cyfitter_cfg.c **** {
  25              		.loc 1 58 0
  26              		.cfi_startproc
  27 0000 80B5     		push	{r7, lr}
  28              		.cfi_def_cfa_offset 8
  29              		.cfi_offset 7, -8
  30              		.cfi_offset 14, -4
  31 0002 82B0     		sub	sp, sp, #8
  32              		.cfi_def_cfa_offset 16
  33 0004 00AF     		add	r7, sp, #0
  34              		.cfi_def_cfa_register 7
  35 0006 7860     		str	r0, [r7, #4]
  36 0008 3960     		str	r1, [r7]
  59:.\Generated_Source\PSoC4/cyfitter_cfg.c **** 	(void)memset(s, 0, n);
  37              		.loc 1 59 0
  38 000a 7A68     		ldr	r2, [r7, #4]
  39 000c 3B68     		ldr	r3, [r7]
  40 000e 101C     		mov	r0, r2
  41 0010 0021     		mov	r1, #0
  42 0012 1A1C     		mov	r2, r3
  43 0014 FFF7FEFF 		bl	memset
  60:.\Generated_Source\PSoC4/cyfitter_cfg.c **** }
  44              		.loc 1 60 0
  45 0018 BD46     		mov	sp, r7
  46 001a 02B0     		add	sp, sp, #8
  47              		@ sp needed
  48 001c 80BD     		pop	{r7, pc}
  49              		.cfi_endproc
  50              	.LFE2:
  51              		.size	CYMEMZERO, .-CYMEMZERO
  52 001e C046     		.section	.text.CYCONFIGCPY,"ax",%progbits
  53              		.align	2
  54              		.code	16
ARM GAS  C:\Users\GLENNL~1\AppData\Local\Temp\cccQ8SQ9.s 			page 3


  55              		.thumb_func
  56              		.type	CYCONFIGCPY, %function
  57              	CYCONFIGCPY:
  58              	.LFB3:
  61:.\Generated_Source\PSoC4/cyfitter_cfg.c **** CY_CFG_UNUSED
  62:.\Generated_Source\PSoC4/cyfitter_cfg.c **** static void CYCONFIGCPY(void *dest, const void *src, size_t n);
  63:.\Generated_Source\PSoC4/cyfitter_cfg.c **** CY_CFG_UNUSED
  64:.\Generated_Source\PSoC4/cyfitter_cfg.c **** static void CYCONFIGCPY(void *dest, const void *src, size_t n)
  65:.\Generated_Source\PSoC4/cyfitter_cfg.c **** {
  59              		.loc 1 65 0
  60              		.cfi_startproc
  61 0000 80B5     		push	{r7, lr}
  62              		.cfi_def_cfa_offset 8
  63              		.cfi_offset 7, -8
  64              		.cfi_offset 14, -4
  65 0002 84B0     		sub	sp, sp, #16
  66              		.cfi_def_cfa_offset 24
  67 0004 00AF     		add	r7, sp, #0
  68              		.cfi_def_cfa_register 7
  69 0006 F860     		str	r0, [r7, #12]
  70 0008 B960     		str	r1, [r7, #8]
  71 000a 7A60     		str	r2, [r7, #4]
  66:.\Generated_Source\PSoC4/cyfitter_cfg.c **** 	(void)memcpy(dest, src, n);
  72              		.loc 1 66 0
  73 000c F968     		ldr	r1, [r7, #12]
  74 000e BA68     		ldr	r2, [r7, #8]
  75 0010 7B68     		ldr	r3, [r7, #4]
  76 0012 081C     		mov	r0, r1
  77 0014 111C     		mov	r1, r2
  78 0016 1A1C     		mov	r2, r3
  79 0018 FFF7FEFF 		bl	memcpy
  67:.\Generated_Source\PSoC4/cyfitter_cfg.c **** }
  80              		.loc 1 67 0
  81 001c BD46     		mov	sp, r7
  82 001e 04B0     		add	sp, sp, #16
  83              		@ sp needed
  84 0020 80BD     		pop	{r7, pc}
  85              		.cfi_endproc
  86              	.LFE3:
  87              		.size	CYCONFIGCPY, .-CYCONFIGCPY
  88 0022 C046     		.section	.text.CYCONFIGCPYCODE,"ax",%progbits
  89              		.align	2
  90              		.code	16
  91              		.thumb_func
  92              		.type	CYCONFIGCPYCODE, %function
  93              	CYCONFIGCPYCODE:
  94              	.LFB4:
  68:.\Generated_Source\PSoC4/cyfitter_cfg.c **** CY_CFG_UNUSED
  69:.\Generated_Source\PSoC4/cyfitter_cfg.c **** static void CYCONFIGCPYCODE(void *dest, const void *src, size_t n);
  70:.\Generated_Source\PSoC4/cyfitter_cfg.c **** CY_CFG_UNUSED
  71:.\Generated_Source\PSoC4/cyfitter_cfg.c **** static void CYCONFIGCPYCODE(void *dest, const void *src, size_t n)
  72:.\Generated_Source\PSoC4/cyfitter_cfg.c **** {
  95              		.loc 1 72 0
  96              		.cfi_startproc
  97 0000 80B5     		push	{r7, lr}
  98              		.cfi_def_cfa_offset 8
  99              		.cfi_offset 7, -8
ARM GAS  C:\Users\GLENNL~1\AppData\Local\Temp\cccQ8SQ9.s 			page 4


 100              		.cfi_offset 14, -4
 101 0002 84B0     		sub	sp, sp, #16
 102              		.cfi_def_cfa_offset 24
 103 0004 00AF     		add	r7, sp, #0
 104              		.cfi_def_cfa_register 7
 105 0006 F860     		str	r0, [r7, #12]
 106 0008 B960     		str	r1, [r7, #8]
 107 000a 7A60     		str	r2, [r7, #4]
  73:.\Generated_Source\PSoC4/cyfitter_cfg.c **** 	(void)memcpy(dest, src, n);
 108              		.loc 1 73 0
 109 000c F968     		ldr	r1, [r7, #12]
 110 000e BA68     		ldr	r2, [r7, #8]
 111 0010 7B68     		ldr	r3, [r7, #4]
 112 0012 081C     		mov	r0, r1
 113 0014 111C     		mov	r1, r2
 114 0016 1A1C     		mov	r2, r3
 115 0018 FFF7FEFF 		bl	memcpy
  74:.\Generated_Source\PSoC4/cyfitter_cfg.c **** }
 116              		.loc 1 74 0
 117 001c BD46     		mov	sp, r7
 118 001e 04B0     		add	sp, sp, #16
 119              		@ sp needed
 120 0020 80BD     		pop	{r7, pc}
 121              		.cfi_endproc
 122              	.LFE4:
 123              		.size	CYCONFIGCPYCODE, .-CYCONFIGCPYCODE
 124 0022 C046     		.section	.text.cfg_write_bytes32,"ax",%progbits
 125              		.align	2
 126              		.code	16
 127              		.thumb_func
 128              		.type	cfg_write_bytes32, %function
 129              	cfg_write_bytes32:
 130              	.LFB5:
  75:.\Generated_Source\PSoC4/cyfitter_cfg.c **** 
  76:.\Generated_Source\PSoC4/cyfitter_cfg.c **** 
  77:.\Generated_Source\PSoC4/cyfitter_cfg.c **** 
  78:.\Generated_Source\PSoC4/cyfitter_cfg.c **** /* Clock startup error codes                                                   */
  79:.\Generated_Source\PSoC4/cyfitter_cfg.c **** #define CYCLOCKSTART_NO_ERROR    0u
  80:.\Generated_Source\PSoC4/cyfitter_cfg.c **** #define CYCLOCKSTART_XTAL_ERROR  1u
  81:.\Generated_Source\PSoC4/cyfitter_cfg.c **** #define CYCLOCKSTART_32KHZ_ERROR 2u
  82:.\Generated_Source\PSoC4/cyfitter_cfg.c **** #define CYCLOCKSTART_PLL_ERROR   3u
  83:.\Generated_Source\PSoC4/cyfitter_cfg.c **** 
  84:.\Generated_Source\PSoC4/cyfitter_cfg.c **** #ifdef CY_NEED_CYCLOCKSTARTUPERROR
  85:.\Generated_Source\PSoC4/cyfitter_cfg.c **** /*******************************************************************************
  86:.\Generated_Source\PSoC4/cyfitter_cfg.c **** * Function Name: CyClockStartupError
  87:.\Generated_Source\PSoC4/cyfitter_cfg.c **** ********************************************************************************
  88:.\Generated_Source\PSoC4/cyfitter_cfg.c **** * Summary:
  89:.\Generated_Source\PSoC4/cyfitter_cfg.c **** *  If an error is encountered during clock configuration (crystal startup error,
  90:.\Generated_Source\PSoC4/cyfitter_cfg.c **** *  PLL lock error, etc.), the system will end up here.  Unless reimplemented by
  91:.\Generated_Source\PSoC4/cyfitter_cfg.c **** *  the customer, this function will stop in an infinite loop.
  92:.\Generated_Source\PSoC4/cyfitter_cfg.c **** *
  93:.\Generated_Source\PSoC4/cyfitter_cfg.c **** * Parameters:
  94:.\Generated_Source\PSoC4/cyfitter_cfg.c **** *   void
  95:.\Generated_Source\PSoC4/cyfitter_cfg.c **** *
  96:.\Generated_Source\PSoC4/cyfitter_cfg.c **** * Return:
  97:.\Generated_Source\PSoC4/cyfitter_cfg.c **** *   void
  98:.\Generated_Source\PSoC4/cyfitter_cfg.c **** *
ARM GAS  C:\Users\GLENNL~1\AppData\Local\Temp\cccQ8SQ9.s 			page 5


  99:.\Generated_Source\PSoC4/cyfitter_cfg.c **** *******************************************************************************/
 100:.\Generated_Source\PSoC4/cyfitter_cfg.c **** CY_CFG_UNUSED
 101:.\Generated_Source\PSoC4/cyfitter_cfg.c **** static void CyClockStartupError(uint8 errorCode);
 102:.\Generated_Source\PSoC4/cyfitter_cfg.c **** CY_CFG_UNUSED
 103:.\Generated_Source\PSoC4/cyfitter_cfg.c **** static void CyClockStartupError(uint8 errorCode)
 104:.\Generated_Source\PSoC4/cyfitter_cfg.c **** {
 105:.\Generated_Source\PSoC4/cyfitter_cfg.c ****     /* To remove the compiler warning if errorCode not used.                */
 106:.\Generated_Source\PSoC4/cyfitter_cfg.c ****     errorCode = errorCode;
 107:.\Generated_Source\PSoC4/cyfitter_cfg.c **** 
 108:.\Generated_Source\PSoC4/cyfitter_cfg.c ****     /* `#START CyClockStartupError` */
 109:.\Generated_Source\PSoC4/cyfitter_cfg.c **** 
 110:.\Generated_Source\PSoC4/cyfitter_cfg.c ****     /* If we have a clock startup error (bad MHz crystal, PLL lock, etc.),  */
 111:.\Generated_Source\PSoC4/cyfitter_cfg.c ****     /* we will end up here to allow the customer to implement something to  */
 112:.\Generated_Source\PSoC4/cyfitter_cfg.c ****     /* deal with the clock condition.                                       */
 113:.\Generated_Source\PSoC4/cyfitter_cfg.c **** 
 114:.\Generated_Source\PSoC4/cyfitter_cfg.c ****     /* `#END` */
 115:.\Generated_Source\PSoC4/cyfitter_cfg.c **** 
 116:.\Generated_Source\PSoC4/cyfitter_cfg.c ****     /* If nothing else, stop here since the clocks have not started         */
 117:.\Generated_Source\PSoC4/cyfitter_cfg.c ****     /* correctly.                                                           */
 118:.\Generated_Source\PSoC4/cyfitter_cfg.c ****     while(1) {}
 119:.\Generated_Source\PSoC4/cyfitter_cfg.c **** }
 120:.\Generated_Source\PSoC4/cyfitter_cfg.c **** #endif
 121:.\Generated_Source\PSoC4/cyfitter_cfg.c **** 
 122:.\Generated_Source\PSoC4/cyfitter_cfg.c **** #define CY_CFG_BASE_ADDR_COUNT 7u
 123:.\Generated_Source\PSoC4/cyfitter_cfg.c **** CYPACKED typedef struct
 124:.\Generated_Source\PSoC4/cyfitter_cfg.c **** {
 125:.\Generated_Source\PSoC4/cyfitter_cfg.c **** 	uint8 offset;
 126:.\Generated_Source\PSoC4/cyfitter_cfg.c **** 	uint8 value;
 127:.\Generated_Source\PSoC4/cyfitter_cfg.c **** } CYPACKED_ATTR cy_cfg_addrvalue_t;
 128:.\Generated_Source\PSoC4/cyfitter_cfg.c **** 
 129:.\Generated_Source\PSoC4/cyfitter_cfg.c **** 
 130:.\Generated_Source\PSoC4/cyfitter_cfg.c **** 
 131:.\Generated_Source\PSoC4/cyfitter_cfg.c **** /*******************************************************************************
 132:.\Generated_Source\PSoC4/cyfitter_cfg.c **** * Function Name: cfg_write_bytes32
 133:.\Generated_Source\PSoC4/cyfitter_cfg.c **** ********************************************************************************
 134:.\Generated_Source\PSoC4/cyfitter_cfg.c **** * Summary:
 135:.\Generated_Source\PSoC4/cyfitter_cfg.c **** *  This function is used for setting up the chip configuration areas that
 136:.\Generated_Source\PSoC4/cyfitter_cfg.c **** *  contain relatively sparse data.
 137:.\Generated_Source\PSoC4/cyfitter_cfg.c **** *
 138:.\Generated_Source\PSoC4/cyfitter_cfg.c **** * Parameters:
 139:.\Generated_Source\PSoC4/cyfitter_cfg.c **** *   void
 140:.\Generated_Source\PSoC4/cyfitter_cfg.c **** *
 141:.\Generated_Source\PSoC4/cyfitter_cfg.c **** * Return:
 142:.\Generated_Source\PSoC4/cyfitter_cfg.c **** *   void
 143:.\Generated_Source\PSoC4/cyfitter_cfg.c **** *
 144:.\Generated_Source\PSoC4/cyfitter_cfg.c **** *******************************************************************************/
 145:.\Generated_Source\PSoC4/cyfitter_cfg.c **** static void cfg_write_bytes32(const uint32 addr_table[], const cy_cfg_addrvalue_t data_table[]);
 146:.\Generated_Source\PSoC4/cyfitter_cfg.c **** static void cfg_write_bytes32(const uint32 addr_table[], const cy_cfg_addrvalue_t data_table[])
 147:.\Generated_Source\PSoC4/cyfitter_cfg.c **** {
 131              		.loc 1 147 0
 132              		.cfi_startproc
 133 0000 80B5     		push	{r7, lr}
 134              		.cfi_def_cfa_offset 8
 135              		.cfi_offset 7, -8
 136              		.cfi_offset 14, -4
 137 0002 86B0     		sub	sp, sp, #24
 138              		.cfi_def_cfa_offset 32
ARM GAS  C:\Users\GLENNL~1\AppData\Local\Temp\cccQ8SQ9.s 			page 6


 139 0004 00AF     		add	r7, sp, #0
 140              		.cfi_def_cfa_register 7
 141 0006 7860     		str	r0, [r7, #4]
 142 0008 3960     		str	r1, [r7]
 148:.\Generated_Source\PSoC4/cyfitter_cfg.c **** 	/* For 32-bit little-endian architectures */
 149:.\Generated_Source\PSoC4/cyfitter_cfg.c **** 	uint32 i, j = 0u;
 143              		.loc 1 149 0
 144 000a 0023     		mov	r3, #0
 145 000c 3B61     		str	r3, [r7, #16]
 150:.\Generated_Source\PSoC4/cyfitter_cfg.c **** 	for (i = 0u; i < CY_CFG_BASE_ADDR_COUNT; i++)
 146              		.loc 1 150 0
 147 000e 0023     		mov	r3, #0
 148 0010 7B61     		str	r3, [r7, #20]
 149 0012 2EE0     		b	.L5
 150              	.L8:
 151              	.LBB2:
 151:.\Generated_Source\PSoC4/cyfitter_cfg.c **** 	{
 152:.\Generated_Source\PSoC4/cyfitter_cfg.c **** 		uint32 baseAddr = addr_table[i];
 152              		.loc 1 152 0
 153 0014 7B69     		ldr	r3, [r7, #20]
 154 0016 9B00     		lsl	r3, r3, #2
 155 0018 7A68     		ldr	r2, [r7, #4]
 156 001a D318     		add	r3, r2, r3
 157 001c 1B68     		ldr	r3, [r3]
 158 001e BB60     		str	r3, [r7, #8]
 153:.\Generated_Source\PSoC4/cyfitter_cfg.c **** 		uint8 count = (uint8)baseAddr;
 159              		.loc 1 153 0
 160 0020 3B1C     		mov	r3, r7
 161 0022 0F33     		add	r3, r3, #15
 162 0024 BA68     		ldr	r2, [r7, #8]
 163 0026 1A70     		strb	r2, [r3]
 154:.\Generated_Source\PSoC4/cyfitter_cfg.c **** 		baseAddr &= 0xFFFFFF00u;
 164              		.loc 1 154 0
 165 0028 BB68     		ldr	r3, [r7, #8]
 166 002a FF22     		mov	r2, #255
 167 002c 9343     		bic	r3, r2
 168 002e BB60     		str	r3, [r7, #8]
 155:.\Generated_Source\PSoC4/cyfitter_cfg.c **** 		while (count != 0u)
 169              		.loc 1 155 0
 170 0030 17E0     		b	.L6
 171              	.L7:
 156:.\Generated_Source\PSoC4/cyfitter_cfg.c **** 		{
 157:.\Generated_Source\PSoC4/cyfitter_cfg.c **** 			CY_SET_XTND_REG8((void CYFAR *)(baseAddr + data_table[j].offset), data_table[j].value);
 172              		.loc 1 157 0
 173 0032 3B69     		ldr	r3, [r7, #16]
 174 0034 5B00     		lsl	r3, r3, #1
 175 0036 3A68     		ldr	r2, [r7]
 176 0038 D318     		add	r3, r2, r3
 177 003a 1B78     		ldrb	r3, [r3]
 178 003c 1A1C     		mov	r2, r3
 179 003e BB68     		ldr	r3, [r7, #8]
 180 0040 D318     		add	r3, r2, r3
 181 0042 3A69     		ldr	r2, [r7, #16]
 182 0044 5200     		lsl	r2, r2, #1
 183 0046 3968     		ldr	r1, [r7]
 184 0048 8A18     		add	r2, r1, r2
 185 004a 5278     		ldrb	r2, [r2, #1]
ARM GAS  C:\Users\GLENNL~1\AppData\Local\Temp\cccQ8SQ9.s 			page 7


 186 004c 1A70     		strb	r2, [r3]
 158:.\Generated_Source\PSoC4/cyfitter_cfg.c **** 			j++;
 187              		.loc 1 158 0
 188 004e 3B69     		ldr	r3, [r7, #16]
 189 0050 0133     		add	r3, r3, #1
 190 0052 3B61     		str	r3, [r7, #16]
 159:.\Generated_Source\PSoC4/cyfitter_cfg.c **** 			count--;
 191              		.loc 1 159 0
 192 0054 3B1C     		mov	r3, r7
 193 0056 0F33     		add	r3, r3, #15
 194 0058 1A78     		ldrb	r2, [r3]
 195 005a 3B1C     		mov	r3, r7
 196 005c 0F33     		add	r3, r3, #15
 197 005e 013A     		sub	r2, r2, #1
 198 0060 1A70     		strb	r2, [r3]
 199              	.L6:
 155:.\Generated_Source\PSoC4/cyfitter_cfg.c **** 		while (count != 0u)
 200              		.loc 1 155 0 discriminator 1
 201 0062 3B1C     		mov	r3, r7
 202 0064 0F33     		add	r3, r3, #15
 203 0066 1B78     		ldrb	r3, [r3]
 204 0068 002B     		cmp	r3, #0
 205 006a E2D1     		bne	.L7
 206              	.LBE2:
 150:.\Generated_Source\PSoC4/cyfitter_cfg.c **** 	for (i = 0u; i < CY_CFG_BASE_ADDR_COUNT; i++)
 207              		.loc 1 150 0
 208 006c 7B69     		ldr	r3, [r7, #20]
 209 006e 0133     		add	r3, r3, #1
 210 0070 7B61     		str	r3, [r7, #20]
 211              	.L5:
 150:.\Generated_Source\PSoC4/cyfitter_cfg.c **** 	for (i = 0u; i < CY_CFG_BASE_ADDR_COUNT; i++)
 212              		.loc 1 150 0 is_stmt 0 discriminator 1
 213 0072 7B69     		ldr	r3, [r7, #20]
 214 0074 062B     		cmp	r3, #6
 215 0076 CDD9     		bls	.L8
 160:.\Generated_Source\PSoC4/cyfitter_cfg.c **** 		}
 161:.\Generated_Source\PSoC4/cyfitter_cfg.c **** 	}
 162:.\Generated_Source\PSoC4/cyfitter_cfg.c **** }
 216              		.loc 1 162 0 is_stmt 1
 217 0078 BD46     		mov	sp, r7
 218 007a 06B0     		add	sp, sp, #24
 219              		@ sp needed
 220 007c 80BD     		pop	{r7, pc}
 221              		.cfi_endproc
 222              	.LFE5:
 223              		.size	cfg_write_bytes32, .-cfg_write_bytes32
 224 007e C046     		.section	.psocinit,"ax",%progbits
 225              		.align	2
 226              		.code	16
 227              		.thumb_func
 228              		.type	SetIMOBGTrims, %function
 229              	SetIMOBGTrims:
 230              	.LFB6:
 163:.\Generated_Source\PSoC4/cyfitter_cfg.c **** 
 164:.\Generated_Source\PSoC4/cyfitter_cfg.c **** /*******************************************************************************
 165:.\Generated_Source\PSoC4/cyfitter_cfg.c **** * Function Name: SetIMOBGTrims
 166:.\Generated_Source\PSoC4/cyfitter_cfg.c **** ********************************************************************************
ARM GAS  C:\Users\GLENNL~1\AppData\Local\Temp\cccQ8SQ9.s 			page 8


 167:.\Generated_Source\PSoC4/cyfitter_cfg.c **** *
 168:.\Generated_Source\PSoC4/cyfitter_cfg.c **** * Summary:
 169:.\Generated_Source\PSoC4/cyfitter_cfg.c **** *   Performs the configuration of the bandgap trim for the IMO based on the given
 170:.\Generated_Source\PSoC4/cyfitter_cfg.c **** *   expected frequency of the IMO. 
 171:.\Generated_Source\PSoC4/cyfitter_cfg.c **** *
 172:.\Generated_Source\PSoC4/cyfitter_cfg.c **** * Parameters:
 173:.\Generated_Source\PSoC4/cyfitter_cfg.c **** *   imoFreq: Frequency for operation of the IMO.
 174:.\Generated_Source\PSoC4/cyfitter_cfg.c **** *
 175:.\Generated_Source\PSoC4/cyfitter_cfg.c **** * Return:
 176:.\Generated_Source\PSoC4/cyfitter_cfg.c **** *   void
 177:.\Generated_Source\PSoC4/cyfitter_cfg.c **** *
 178:.\Generated_Source\PSoC4/cyfitter_cfg.c **** *******************************************************************************/
 179:.\Generated_Source\PSoC4/cyfitter_cfg.c **** static void SetIMOBGTrims(uint8 imoFreq);
 180:.\Generated_Source\PSoC4/cyfitter_cfg.c **** CY_CFG_SECTION
 181:.\Generated_Source\PSoC4/cyfitter_cfg.c **** static void SetIMOBGTrims(uint8 imoFreq)
 182:.\Generated_Source\PSoC4/cyfitter_cfg.c **** {
 231              		.loc 1 182 0
 232              		.cfi_startproc
 233 0000 80B5     		push	{r7, lr}
 234              		.cfi_def_cfa_offset 8
 235              		.cfi_offset 7, -8
 236              		.cfi_offset 14, -4
 237 0002 84B0     		sub	sp, sp, #16
 238              		.cfi_def_cfa_offset 24
 239 0004 00AF     		add	r7, sp, #0
 240              		.cfi_def_cfa_register 7
 241 0006 021C     		mov	r2, r0
 242 0008 FB1D     		add	r3, r7, #7
 243 000a 1A70     		strb	r2, [r3]
 183:.\Generated_Source\PSoC4/cyfitter_cfg.c **** 	CYPACKED typedef struct {
 184:.\Generated_Source\PSoC4/cyfitter_cfg.c **** 		uint8 freq;
 185:.\Generated_Source\PSoC4/cyfitter_cfg.c **** 		uint8 absolute;
 186:.\Generated_Source\PSoC4/cyfitter_cfg.c **** 		uint8 tmpco;
 187:.\Generated_Source\PSoC4/cyfitter_cfg.c **** 	} CYPACKED_ATTR imo_trim_entry_t;
 188:.\Generated_Source\PSoC4/cyfitter_cfg.c **** 
 189:.\Generated_Source\PSoC4/cyfitter_cfg.c **** 	CYPACKED typedef struct {
 190:.\Generated_Source\PSoC4/cyfitter_cfg.c **** 		imo_trim_entry_t entries[4];
 191:.\Generated_Source\PSoC4/cyfitter_cfg.c **** 	} CYPACKED_ATTR imo_trim_table_t;
 192:.\Generated_Source\PSoC4/cyfitter_cfg.c **** 
 193:.\Generated_Source\PSoC4/cyfitter_cfg.c **** 	static const imo_trim_table_t *imo_trim_table = (const imo_trim_table_t *)CYREG_SFLASH_IMO_MAXF0;
 194:.\Generated_Source\PSoC4/cyfitter_cfg.c **** 	static const uint32 IMO_TRIM_FREQ_TABLE_ENTRIES = sizeof(imo_trim_table->entries)/sizeof(imo_trim_
 195:.\Generated_Source\PSoC4/cyfitter_cfg.c **** 
 196:.\Generated_Source\PSoC4/cyfitter_cfg.c **** 	int32 imoTrimIndex;
 197:.\Generated_Source\PSoC4/cyfitter_cfg.c **** 	uint8 setAbs;
 198:.\Generated_Source\PSoC4/cyfitter_cfg.c **** 	uint8 setTmpCo;
 199:.\Generated_Source\PSoC4/cyfitter_cfg.c **** 
 200:.\Generated_Source\PSoC4/cyfitter_cfg.c **** 	/* Traverse the SFLASH IMO frequency-dependent bandgap trim table to
 201:.\Generated_Source\PSoC4/cyfitter_cfg.c **** 	 * locate the appropriate value to trim the IMO bandgap based on freq. */
 202:.\Generated_Source\PSoC4/cyfitter_cfg.c **** 	setAbs = CY_GET_REG8((const void *)CYREG_SFLASH_IMO_ABS4);
 244              		.loc 1 202 0
 245 000c 204A     		ldr	r2, .L13
 246 000e 3B1C     		mov	r3, r7
 247 0010 0B33     		add	r3, r3, #11
 248 0012 1278     		ldrb	r2, [r2]
 249 0014 1A70     		strb	r2, [r3]
 203:.\Generated_Source\PSoC4/cyfitter_cfg.c **** 	setTmpCo = CY_GET_REG8((const void *)CYREG_SFLASH_IMO_TMPCO4);
 250              		.loc 1 203 0
ARM GAS  C:\Users\GLENNL~1\AppData\Local\Temp\cccQ8SQ9.s 			page 9


 251 0016 1F4A     		ldr	r2, .L13+4
 252 0018 3B1C     		mov	r3, r7
 253 001a 0A33     		add	r3, r3, #10
 254 001c 1278     		ldrb	r2, [r2]
 255 001e 1A70     		strb	r2, [r3]
 204:.\Generated_Source\PSoC4/cyfitter_cfg.c **** 	for (imoTrimIndex = ((int32)IMO_TRIM_FREQ_TABLE_ENTRIES)-1;
 256              		.loc 1 204 0
 257 0020 0423     		mov	r3, #4
 258 0022 013B     		sub	r3, r3, #1
 259 0024 FB60     		str	r3, [r7, #12]
 260 0026 18E0     		b	.L10
 261              	.L12:
 205:.\Generated_Source\PSoC4/cyfitter_cfg.c **** 	     (imoTrimIndex >= 0) && (imoFreq <= imo_trim_table->entries[imoTrimIndex].freq);
 206:.\Generated_Source\PSoC4/cyfitter_cfg.c **** 	     imoTrimIndex--)
 207:.\Generated_Source\PSoC4/cyfitter_cfg.c **** 	{
 208:.\Generated_Source\PSoC4/cyfitter_cfg.c **** 		setAbs = imo_trim_table->entries[imoTrimIndex].absolute;
 262              		.loc 1 208 0
 263 0028 1B4B     		ldr	r3, .L13+8
 264 002a 1868     		ldr	r0, [r3]
 265 002c 391C     		mov	r1, r7
 266 002e 0B31     		add	r1, r1, #11
 267 0030 FA68     		ldr	r2, [r7, #12]
 268 0032 131C     		mov	r3, r2
 269 0034 5B00     		lsl	r3, r3, #1
 270 0036 9B18     		add	r3, r3, r2
 271 0038 C318     		add	r3, r0, r3
 272 003a 5B78     		ldrb	r3, [r3, #1]
 273 003c 0B70     		strb	r3, [r1]
 209:.\Generated_Source\PSoC4/cyfitter_cfg.c **** 		setTmpCo = imo_trim_table->entries[imoTrimIndex].tmpco;
 274              		.loc 1 209 0
 275 003e 164B     		ldr	r3, .L13+8
 276 0040 1868     		ldr	r0, [r3]
 277 0042 391C     		mov	r1, r7
 278 0044 0A31     		add	r1, r1, #10
 279 0046 FA68     		ldr	r2, [r7, #12]
 280 0048 131C     		mov	r3, r2
 281 004a 5B00     		lsl	r3, r3, #1
 282 004c 9B18     		add	r3, r3, r2
 283 004e C318     		add	r3, r0, r3
 284 0050 9B78     		ldrb	r3, [r3, #2]
 285 0052 0B70     		strb	r3, [r1]
 206:.\Generated_Source\PSoC4/cyfitter_cfg.c **** 	     imoTrimIndex--)
 286              		.loc 1 206 0
 287 0054 FB68     		ldr	r3, [r7, #12]
 288 0056 013B     		sub	r3, r3, #1
 289 0058 FB60     		str	r3, [r7, #12]
 290              	.L10:
 204:.\Generated_Source\PSoC4/cyfitter_cfg.c **** 	for (imoTrimIndex = ((int32)IMO_TRIM_FREQ_TABLE_ENTRIES)-1;
 291              		.loc 1 204 0 discriminator 1
 292 005a FB68     		ldr	r3, [r7, #12]
 293 005c 002B     		cmp	r3, #0
 294 005e 0ADB     		blt	.L11
 205:.\Generated_Source\PSoC4/cyfitter_cfg.c **** 	     (imoTrimIndex >= 0) && (imoFreq <= imo_trim_table->entries[imoTrimIndex].freq);
 295              		.loc 1 205 0
 296 0060 0D4B     		ldr	r3, .L13+8
 297 0062 1968     		ldr	r1, [r3]
 298 0064 FA68     		ldr	r2, [r7, #12]
ARM GAS  C:\Users\GLENNL~1\AppData\Local\Temp\cccQ8SQ9.s 			page 10


 299 0066 131C     		mov	r3, r2
 300 0068 5B00     		lsl	r3, r3, #1
 301 006a 9B18     		add	r3, r3, r2
 302 006c 5B5C     		ldrb	r3, [r3, r1]
 303 006e FA1D     		add	r2, r7, #7
 304 0070 1278     		ldrb	r2, [r2]
 305 0072 9A42     		cmp	r2, r3
 306 0074 D8D9     		bls	.L12
 307              	.L11:
 210:.\Generated_Source\PSoC4/cyfitter_cfg.c **** 	}
 211:.\Generated_Source\PSoC4/cyfitter_cfg.c **** 
 212:.\Generated_Source\PSoC4/cyfitter_cfg.c **** 	CY_SET_REG32((void *)CYREG_PWR_BG_TRIM4, setAbs);
 308              		.loc 1 212 0
 309 0076 094B     		ldr	r3, .L13+12
 310 0078 3A1C     		mov	r2, r7
 311 007a 0B32     		add	r2, r2, #11
 312 007c 1278     		ldrb	r2, [r2]
 313 007e 1A60     		str	r2, [r3]
 213:.\Generated_Source\PSoC4/cyfitter_cfg.c **** 	CY_SET_REG32((void *)CYREG_PWR_BG_TRIM5, setTmpCo);
 314              		.loc 1 213 0
 315 0080 074B     		ldr	r3, .L13+16
 316 0082 3A1C     		mov	r2, r7
 317 0084 0A32     		add	r2, r2, #10
 318 0086 1278     		ldrb	r2, [r2]
 319 0088 1A60     		str	r2, [r3]
 214:.\Generated_Source\PSoC4/cyfitter_cfg.c **** }
 320              		.loc 1 214 0
 321 008a BD46     		mov	sp, r7
 322 008c 04B0     		add	sp, sp, #16
 323              		@ sp needed
 324 008e 80BD     		pop	{r7, pc}
 325              	.L14:
 326              		.align	2
 327              	.L13:
 328 0090 CCF1FF0F 		.word	268431820
 329 0094 CDF1FF0F 		.word	268431821
 330 0098 00000000 		.word	imo_trim_table.4738
 331 009c 1CFF0B40 		.word	1074528028
 332 00a0 20FF0B40 		.word	1074528032
 333              		.cfi_endproc
 334              	.LFE6:
 335              		.size	SetIMOBGTrims, .-SetIMOBGTrims
 336              		.align	2
 337              		.code	16
 338              		.thumb_func
 339              		.type	ClockSetup, %function
 340              	ClockSetup:
 341              	.LFB7:
 215:.\Generated_Source\PSoC4/cyfitter_cfg.c **** 
 216:.\Generated_Source\PSoC4/cyfitter_cfg.c **** 
 217:.\Generated_Source\PSoC4/cyfitter_cfg.c **** 
 218:.\Generated_Source\PSoC4/cyfitter_cfg.c **** /*******************************************************************************
 219:.\Generated_Source\PSoC4/cyfitter_cfg.c **** * Function Name: ClockSetup
 220:.\Generated_Source\PSoC4/cyfitter_cfg.c **** ********************************************************************************
 221:.\Generated_Source\PSoC4/cyfitter_cfg.c **** *
 222:.\Generated_Source\PSoC4/cyfitter_cfg.c **** * Summary:
 223:.\Generated_Source\PSoC4/cyfitter_cfg.c **** *   Performs the initialization of all of the clocks in the device based on the
ARM GAS  C:\Users\GLENNL~1\AppData\Local\Temp\cccQ8SQ9.s 			page 11


 224:.\Generated_Source\PSoC4/cyfitter_cfg.c **** *   settings in the Clock tab of the DWR.  This includes enabling the requested
 225:.\Generated_Source\PSoC4/cyfitter_cfg.c **** *   clocks and setting the necessary dividers to produce the desired frequency. 
 226:.\Generated_Source\PSoC4/cyfitter_cfg.c **** *
 227:.\Generated_Source\PSoC4/cyfitter_cfg.c **** * Parameters:
 228:.\Generated_Source\PSoC4/cyfitter_cfg.c **** *   void
 229:.\Generated_Source\PSoC4/cyfitter_cfg.c **** *
 230:.\Generated_Source\PSoC4/cyfitter_cfg.c **** * Return:
 231:.\Generated_Source\PSoC4/cyfitter_cfg.c **** *   void
 232:.\Generated_Source\PSoC4/cyfitter_cfg.c **** *
 233:.\Generated_Source\PSoC4/cyfitter_cfg.c **** *******************************************************************************/
 234:.\Generated_Source\PSoC4/cyfitter_cfg.c **** static void ClockSetup(void);
 235:.\Generated_Source\PSoC4/cyfitter_cfg.c **** CY_CFG_SECTION
 236:.\Generated_Source\PSoC4/cyfitter_cfg.c **** static void ClockSetup(void)
 237:.\Generated_Source\PSoC4/cyfitter_cfg.c **** {
 342              		.loc 1 237 0
 343              		.cfi_startproc
 344 00a4 80B5     		push	{r7, lr}
 345              		.cfi_def_cfa_offset 8
 346              		.cfi_offset 7, -8
 347              		.cfi_offset 14, -4
 348 00a6 00AF     		add	r7, sp, #0
 349              		.cfi_def_cfa_register 7
 238:.\Generated_Source\PSoC4/cyfitter_cfg.c **** 
 239:.\Generated_Source\PSoC4/cyfitter_cfg.c **** 	/* Set Flash Cycles based on max possible frequency in case a glitch occurs during ClockSetup(). *
 240:.\Generated_Source\PSoC4/cyfitter_cfg.c **** 	CY_SET_REG32((void CYXDATA *)(CYREG_CPUSS_FLASH_CTL), (0x0012u));
 350              		.loc 1 240 0
 351 00a8 244B     		ldr	r3, .L16
 352 00aa 1222     		mov	r2, #18
 353 00ac 1A60     		str	r2, [r3]
 241:.\Generated_Source\PSoC4/cyfitter_cfg.c **** 	/* Trim IMO BG based on desired frequency. */
 242:.\Generated_Source\PSoC4/cyfitter_cfg.c **** 	SetIMOBGTrims(24u);
 354              		.loc 1 242 0
 355 00ae 1820     		mov	r0, #24
 356 00b0 FFF7A6FF 		bl	SetIMOBGTrims
 243:.\Generated_Source\PSoC4/cyfitter_cfg.c **** 
 244:.\Generated_Source\PSoC4/cyfitter_cfg.c **** 	/* Going less than or equal to 24MHz, so update the clock speed then adjust trim value. */
 245:.\Generated_Source\PSoC4/cyfitter_cfg.c **** 	CY_SET_REG32((void CYXDATA *)(CYREG_CLK_IMO_TRIM2), (25u));
 357              		.loc 1 245 0
 358 00b4 224B     		ldr	r3, .L16+4
 359 00b6 1922     		mov	r2, #25
 360 00b8 1A60     		str	r2, [r3]
 246:.\Generated_Source\PSoC4/cyfitter_cfg.c **** 	CyDelayCycles(5u);
 361              		.loc 1 246 0
 362 00ba 0520     		mov	r0, #5
 363 00bc FFF7FEFF 		bl	CyDelayCycles
 247:.\Generated_Source\PSoC4/cyfitter_cfg.c **** 	CY_SET_REG32((void CYXDATA *)(CYREG_CLK_IMO_TRIM1), (CY_GET_REG8((void *)CYREG_SFLASH_IMO_TRIM21))
 364              		.loc 1 247 0
 365 00c0 204B     		ldr	r3, .L16+8
 366 00c2 214A     		ldr	r2, .L16+12
 367 00c4 1278     		ldrb	r2, [r2]
 368 00c6 D2B2     		uxtb	r2, r2
 369 00c8 1A60     		str	r2, [r3]
 248:.\Generated_Source\PSoC4/cyfitter_cfg.c **** 	CyDelayUs(5u);
 370              		.loc 1 248 0
 371 00ca 0520     		mov	r0, #5
 372 00cc FFF7FEFF 		bl	CyDelayUs
 249:.\Generated_Source\PSoC4/cyfitter_cfg.c **** 
ARM GAS  C:\Users\GLENNL~1\AppData\Local\Temp\cccQ8SQ9.s 			page 12


 250:.\Generated_Source\PSoC4/cyfitter_cfg.c **** 	/* Start the WCO */
 251:.\Generated_Source\PSoC4/cyfitter_cfg.c **** 	CySysClkWcoStart();
 373              		.loc 1 251 0
 374 00d0 FFF7FEFF 		bl	CySysClkWcoStart
 252:.\Generated_Source\PSoC4/cyfitter_cfg.c **** 	(void)CySysClkWcoSetPowerMode(CY_SYS_CLK_WCO_LPM);    /* Switch to the low power mode */
 375              		.loc 1 252 0
 376 00d4 0120     		mov	r0, #1
 377 00d6 FFF7FEFF 		bl	CySysClkWcoSetPowerMode
 253:.\Generated_Source\PSoC4/cyfitter_cfg.c **** 	/* CYDEV_CLK_ILO_CONFIG Starting address: CYDEV_CLK_ILO_CONFIG */
 254:.\Generated_Source\PSoC4/cyfitter_cfg.c **** 	CY_SET_XTND_REG32((void CYFAR *)(CYREG_CLK_ILO_CONFIG), 0x80000006u);
 378              		.loc 1 254 0
 379 00da 1C4B     		ldr	r3, .L16+16
 380 00dc 1C4A     		ldr	r2, .L16+20
 381 00de 1A60     		str	r2, [r3]
 255:.\Generated_Source\PSoC4/cyfitter_cfg.c **** 
 256:.\Generated_Source\PSoC4/cyfitter_cfg.c **** 
 257:.\Generated_Source\PSoC4/cyfitter_cfg.c **** 	CY_SET_XTND_REG32((void CYFAR *)(CYREG_BLE_BLERD_BB_XO_CAPTRIM), 0x00003E2Du);
 382              		.loc 1 257 0
 383 00e0 1C4B     		ldr	r3, .L16+24
 384 00e2 1D4A     		ldr	r2, .L16+28
 385 00e4 1A60     		str	r2, [r3]
 258:.\Generated_Source\PSoC4/cyfitter_cfg.c **** 	/* Disable Crystal Stable Interrupt before enabling ECO */
 259:.\Generated_Source\PSoC4/cyfitter_cfg.c **** 	CY_SET_REG32((void*)CYREG_BLE_BLESS_LL_DSM_CTRL, CY_GET_REG32((void*)CYREG_BLE_BLESS_LL_DSM_CTRL) 
 386              		.loc 1 259 0
 387 00e6 1D4B     		ldr	r3, .L16+32
 388 00e8 1C4A     		ldr	r2, .L16+32
 389 00ea 1268     		ldr	r2, [r2]
 390 00ec 0821     		mov	r1, #8
 391 00ee 8A43     		bic	r2, r1
 392 00f0 1A60     		str	r2, [r3]
 260:.\Generated_Source\PSoC4/cyfitter_cfg.c **** 	/* Start the ECO and do not check status since it is not needed for HFCLK */
 261:.\Generated_Source\PSoC4/cyfitter_cfg.c **** 	(void)CySysClkEcoStart(2000u);
 393              		.loc 1 261 0
 394 00f2 FA23     		mov	r3, #250
 395 00f4 DB00     		lsl	r3, r3, #3
 396 00f6 181C     		mov	r0, r3
 397 00f8 FFF7FEFF 		bl	CySysClkEcoStart
 262:.\Generated_Source\PSoC4/cyfitter_cfg.c **** 	CyDelayUs(1500u); /* Wait to stabalize */
 398              		.loc 1 262 0
 399 00fc 184B     		ldr	r3, .L16+36
 400 00fe 181C     		mov	r0, r3
 401 0100 FFF7FEFF 		bl	CyDelayUs
 263:.\Generated_Source\PSoC4/cyfitter_cfg.c **** 
 264:.\Generated_Source\PSoC4/cyfitter_cfg.c **** 	/* Setup phase aligned clocks */
 265:.\Generated_Source\PSoC4/cyfitter_cfg.c **** 	CY_SET_REG32((void *)CYREG_PERI_DIV_16_CTL01, 0x009C3F00u);
 402              		.loc 1 265 0
 403 0104 174B     		ldr	r3, .L16+40
 404 0106 184A     		ldr	r2, .L16+44
 405 0108 1A60     		str	r2, [r3]
 266:.\Generated_Source\PSoC4/cyfitter_cfg.c **** 	CY_SET_REG32((void *)CYREG_PERI_DIV_CMD, 0x8000FF41u);
 406              		.loc 1 266 0
 407 010a 184B     		ldr	r3, .L16+48
 408 010c 184A     		ldr	r2, .L16+52
 409 010e 1A60     		str	r2, [r3]
 267:.\Generated_Source\PSoC4/cyfitter_cfg.c **** 	CY_SET_REG32((void *)CYREG_PERI_DIV_16_CTL00, 0x00000100u);
 410              		.loc 1 267 0
 411 0110 184B     		ldr	r3, .L16+56
ARM GAS  C:\Users\GLENNL~1\AppData\Local\Temp\cccQ8SQ9.s 			page 13


 412 0112 8022     		mov	r2, #128
 413 0114 5200     		lsl	r2, r2, #1
 414 0116 1A60     		str	r2, [r3]
 268:.\Generated_Source\PSoC4/cyfitter_cfg.c **** 	CY_SET_REG32((void *)CYREG_PERI_DIV_CMD, 0x8000FF40u);
 415              		.loc 1 268 0
 416 0118 144B     		ldr	r3, .L16+48
 417 011a 174A     		ldr	r2, .L16+60
 418 011c 1A60     		str	r2, [r3]
 269:.\Generated_Source\PSoC4/cyfitter_cfg.c **** 
 270:.\Generated_Source\PSoC4/cyfitter_cfg.c **** 	/* CYDEV_CLK_IMO_CONFIG Starting address: CYDEV_CLK_IMO_CONFIG */
 271:.\Generated_Source\PSoC4/cyfitter_cfg.c **** 	CY_SET_XTND_REG32((void CYFAR *)(CYREG_CLK_IMO_CONFIG), 0x80000000u);
 419              		.loc 1 271 0
 420 011e 174B     		ldr	r3, .L16+64
 421 0120 8022     		mov	r2, #128
 422 0122 1206     		lsl	r2, r2, #24
 423 0124 1A60     		str	r2, [r3]
 272:.\Generated_Source\PSoC4/cyfitter_cfg.c **** 
 273:.\Generated_Source\PSoC4/cyfitter_cfg.c **** 	/* CYDEV_PERI_PCLK_CTL14 Starting address: CYDEV_PERI_PCLK_CTL14 */
 274:.\Generated_Source\PSoC4/cyfitter_cfg.c **** 	CY_SET_XTND_REG32((void CYFAR *)(CYREG_PERI_PCLK_CTL14), 0x00000041u);
 424              		.loc 1 274 0
 425 0126 164B     		ldr	r3, .L16+68
 426 0128 4122     		mov	r2, #65
 427 012a 1A60     		str	r2, [r3]
 275:.\Generated_Source\PSoC4/cyfitter_cfg.c **** 
 276:.\Generated_Source\PSoC4/cyfitter_cfg.c **** 	/* CYDEV_PERI_PCLK_CTL12 Starting address: CYDEV_PERI_PCLK_CTL12 */
 277:.\Generated_Source\PSoC4/cyfitter_cfg.c **** 	CY_SET_XTND_REG32((void CYFAR *)(CYREG_PERI_PCLK_CTL12), 0x00000040u);
 428              		.loc 1 277 0
 429 012c 154B     		ldr	r3, .L16+72
 430 012e 4022     		mov	r2, #64
 431 0130 1A60     		str	r2, [r3]
 278:.\Generated_Source\PSoC4/cyfitter_cfg.c **** 
 279:.\Generated_Source\PSoC4/cyfitter_cfg.c **** 	/* Set Flash Cycles based on newly configured 24.00MHz HFCLK. */
 280:.\Generated_Source\PSoC4/cyfitter_cfg.c **** 	CY_SET_REG32((void CYXDATA *)(CYREG_CPUSS_FLASH_CTL), (0x0011u));
 432              		.loc 1 280 0
 433 0132 024B     		ldr	r3, .L16
 434 0134 1122     		mov	r2, #17
 435 0136 1A60     		str	r2, [r3]
 281:.\Generated_Source\PSoC4/cyfitter_cfg.c **** }
 436              		.loc 1 281 0
 437 0138 BD46     		mov	sp, r7
 438              		@ sp needed
 439 013a 80BD     		pop	{r7, pc}
 440              	.L17:
 441              		.align	2
 442              	.L16:
 443 013c 30001040 		.word	1074790448
 444 0140 2CFF0B40 		.word	1074528044
 445 0144 28FF0B40 		.word	1074528040
 446 0148 E5F1FF0F 		.word	268431845
 447 014c 04010B40 		.word	1074462980
 448 0150 06000080 		.word	-2147483642
 449 0154 7C002E40 		.word	1076756604
 450 0158 2D3E0000 		.word	15917
 451 015c 6CF02E40 		.word	1076818028
 452 0160 DC050000 		.word	1500
 453 0164 04030140 		.word	1073808132
 454 0168 003F9C00 		.word	10239744
ARM GAS  C:\Users\GLENNL~1\AppData\Local\Temp\cccQ8SQ9.s 			page 14


 455 016c 00000140 		.word	1073807360
 456 0170 41FF0080 		.word	-2147418303
 457 0174 00030140 		.word	1073808128
 458 0178 40FF0080 		.word	-2147418304
 459 017c 08010B40 		.word	1074462984
 460 0180 38010140 		.word	1073807672
 461 0184 30010140 		.word	1073807664
 462              		.cfi_endproc
 463              	.LFE7:
 464              		.size	ClockSetup, .-ClockSetup
 465              		.section	.text.AnalogSetDefault,"ax",%progbits
 466              		.align	2
 467              		.code	16
 468              		.thumb_func
 469              		.type	AnalogSetDefault, %function
 470              	AnalogSetDefault:
 471              	.LFB8:
 282:.\Generated_Source\PSoC4/cyfitter_cfg.c **** 
 283:.\Generated_Source\PSoC4/cyfitter_cfg.c **** 
 284:.\Generated_Source\PSoC4/cyfitter_cfg.c **** /* Analog API Functions */
 285:.\Generated_Source\PSoC4/cyfitter_cfg.c **** 
 286:.\Generated_Source\PSoC4/cyfitter_cfg.c **** 
 287:.\Generated_Source\PSoC4/cyfitter_cfg.c **** /*******************************************************************************
 288:.\Generated_Source\PSoC4/cyfitter_cfg.c **** * Function Name: AnalogSetDefault
 289:.\Generated_Source\PSoC4/cyfitter_cfg.c **** ********************************************************************************
 290:.\Generated_Source\PSoC4/cyfitter_cfg.c **** *
 291:.\Generated_Source\PSoC4/cyfitter_cfg.c **** * Summary:
 292:.\Generated_Source\PSoC4/cyfitter_cfg.c **** *  Sets up the analog portions of the chip to default values based on chip
 293:.\Generated_Source\PSoC4/cyfitter_cfg.c **** *  configuration options from the project.
 294:.\Generated_Source\PSoC4/cyfitter_cfg.c **** *
 295:.\Generated_Source\PSoC4/cyfitter_cfg.c **** * Parameters:
 296:.\Generated_Source\PSoC4/cyfitter_cfg.c **** *  void
 297:.\Generated_Source\PSoC4/cyfitter_cfg.c **** *
 298:.\Generated_Source\PSoC4/cyfitter_cfg.c **** * Return:
 299:.\Generated_Source\PSoC4/cyfitter_cfg.c **** *  void
 300:.\Generated_Source\PSoC4/cyfitter_cfg.c **** *
 301:.\Generated_Source\PSoC4/cyfitter_cfg.c **** *******************************************************************************/
 302:.\Generated_Source\PSoC4/cyfitter_cfg.c **** static void AnalogSetDefault(void);
 303:.\Generated_Source\PSoC4/cyfitter_cfg.c **** static void AnalogSetDefault(void)
 304:.\Generated_Source\PSoC4/cyfitter_cfg.c **** {
 472              		.loc 1 304 0
 473              		.cfi_startproc
 474 0000 80B5     		push	{r7, lr}
 475              		.cfi_def_cfa_offset 8
 476              		.cfi_offset 7, -8
 477              		.cfi_offset 14, -4
 478 0002 00AF     		add	r7, sp, #0
 479              		.cfi_def_cfa_register 7
 305:.\Generated_Source\PSoC4/cyfitter_cfg.c **** 	CY_SET_XTND_REG32((void CYFAR *)CYREG_CTBM0_DFT_CTRL, 0x00000003u);
 480              		.loc 1 305 0
 481 0004 054B     		ldr	r3, .L19
 482 0006 0322     		mov	r2, #3
 483 0008 1A60     		str	r2, [r3]
 306:.\Generated_Source\PSoC4/cyfitter_cfg.c **** 	CY_SET_XTND_REG32((void CYFAR *)CYREG_CTBM1_DFT_CTRL, 0x00000003u);
 484              		.loc 1 306 0
 485 000a 054B     		ldr	r3, .L19+4
 486 000c 0322     		mov	r2, #3
ARM GAS  C:\Users\GLENNL~1\AppData\Local\Temp\cccQ8SQ9.s 			page 15


 487 000e 1A60     		str	r2, [r3]
 307:.\Generated_Source\PSoC4/cyfitter_cfg.c **** 	CY_SET_XTND_REG32((void CYFAR *)CYREG_PASS_DSAB_DSAB_CTRL, 0x00000000u);
 488              		.loc 1 307 0
 489 0010 044B     		ldr	r3, .L19+8
 490 0012 0022     		mov	r2, #0
 491 0014 1A60     		str	r2, [r3]
 308:.\Generated_Source\PSoC4/cyfitter_cfg.c **** }
 492              		.loc 1 308 0
 493 0016 BD46     		mov	sp, r7
 494              		@ sp needed
 495 0018 80BD     		pop	{r7, pc}
 496              	.L20:
 497 001a C046     		.align	2
 498              	.L19:
 499 001c 30003040 		.word	1076887600
 500 0020 30003140 		.word	1076953136
 501 0024 000E3F40 		.word	1077874176
 502              		.cfi_endproc
 503              	.LFE8:
 504              		.size	AnalogSetDefault, .-AnalogSetDefault
 505              		.section	.psocinit
 506              		.align	2
 507              		.global	cyfitter_cfg
 508              		.code	16
 509              		.thumb_func
 510              		.type	cyfitter_cfg, %function
 511              	cyfitter_cfg:
 512              	.LFB9:
 309:.\Generated_Source\PSoC4/cyfitter_cfg.c **** 
 310:.\Generated_Source\PSoC4/cyfitter_cfg.c **** #define CY_AMUX_UNUSED CYREG_CM0_ROM_DWT
 311:.\Generated_Source\PSoC4/cyfitter_cfg.c **** 
 312:.\Generated_Source\PSoC4/cyfitter_cfg.c **** 
 313:.\Generated_Source\PSoC4/cyfitter_cfg.c **** /*******************************************************************************
 314:.\Generated_Source\PSoC4/cyfitter_cfg.c **** * Function Name: cyfitter_cfg
 315:.\Generated_Source\PSoC4/cyfitter_cfg.c **** ********************************************************************************
 316:.\Generated_Source\PSoC4/cyfitter_cfg.c **** * Summary:
 317:.\Generated_Source\PSoC4/cyfitter_cfg.c **** *  This function is called by the start-up code for the selected device. It
 318:.\Generated_Source\PSoC4/cyfitter_cfg.c **** *  performs all of the necessary device configuration based on the design
 319:.\Generated_Source\PSoC4/cyfitter_cfg.c **** *  settings.  This includes settings from the Design Wide Resources (DWR) such
 320:.\Generated_Source\PSoC4/cyfitter_cfg.c **** *  as Clocks and Pins as well as any component configuration that is necessary.
 321:.\Generated_Source\PSoC4/cyfitter_cfg.c **** *
 322:.\Generated_Source\PSoC4/cyfitter_cfg.c **** * Parameters:  
 323:.\Generated_Source\PSoC4/cyfitter_cfg.c **** *   void
 324:.\Generated_Source\PSoC4/cyfitter_cfg.c **** *
 325:.\Generated_Source\PSoC4/cyfitter_cfg.c **** * Return:
 326:.\Generated_Source\PSoC4/cyfitter_cfg.c **** *   void
 327:.\Generated_Source\PSoC4/cyfitter_cfg.c **** *
 328:.\Generated_Source\PSoC4/cyfitter_cfg.c **** *******************************************************************************/
 329:.\Generated_Source\PSoC4/cyfitter_cfg.c **** CY_CFG_SECTION
 330:.\Generated_Source\PSoC4/cyfitter_cfg.c **** void cyfitter_cfg(void)
 331:.\Generated_Source\PSoC4/cyfitter_cfg.c **** {
 513              		.loc 1 331 0
 514              		.cfi_startproc
 515 0188 80B5     		push	{r7, lr}
 516              		.cfi_def_cfa_offset 8
 517              		.cfi_offset 7, -8
 518              		.cfi_offset 14, -4
ARM GAS  C:\Users\GLENNL~1\AppData\Local\Temp\cccQ8SQ9.s 			page 16


 519 018a 82B0     		sub	sp, sp, #8
 520              		.cfi_def_cfa_offset 16
 521 018c 00AF     		add	r7, sp, #0
 522              		.cfi_def_cfa_register 7
 332:.\Generated_Source\PSoC4/cyfitter_cfg.c **** 	/* Disable interrupts by default. Let user enable if/when they want. */
 333:.\Generated_Source\PSoC4/cyfitter_cfg.c **** 	CyGlobalIntDisable;
 523              		.loc 1 333 0
 524              	@ 333 ".\Generated_Source\PSoC4\cyfitter_cfg.c" 1
 525 018e 72B6     		CPSID   i
 526              	@ 0 "" 2
 334:.\Generated_Source\PSoC4/cyfitter_cfg.c **** 
 335:.\Generated_Source\PSoC4/cyfitter_cfg.c **** 	CY_SET_XTND_REG32((void CYFAR *)(CYREG_BLE_BLESS_LL_DSM_CTRL), 0x00000000u);
 527              		.loc 1 335 0
 528              		.code	16
 529 0190 474B     		ldr	r3, .L24
 530 0192 0022     		mov	r2, #0
 531 0194 1A60     		str	r2, [r3]
 532              	.LBB3:
 336:.\Generated_Source\PSoC4/cyfitter_cfg.c **** 
 337:.\Generated_Source\PSoC4/cyfitter_cfg.c **** 	{
 338:.\Generated_Source\PSoC4/cyfitter_cfg.c **** 		static const uint32 CYCODE cy_cfg_addr_table[] = {
 339:.\Generated_Source\PSoC4/cyfitter_cfg.c **** 			0x400F0002u, /* Base address: 0x400F0000 Count: 2 */
 340:.\Generated_Source\PSoC4/cyfitter_cfg.c **** 			0x400F3101u, /* Base address: 0x400F3100 Count: 1 */
 341:.\Generated_Source\PSoC4/cyfitter_cfg.c **** 			0x400F325Eu, /* Base address: 0x400F3200 Count: 94 */
 342:.\Generated_Source\PSoC4/cyfitter_cfg.c **** 			0x400F3339u, /* Base address: 0x400F3300 Count: 57 */
 343:.\Generated_Source\PSoC4/cyfitter_cfg.c **** 			0x400F4206u, /* Base address: 0x400F4200 Count: 6 */
 344:.\Generated_Source\PSoC4/cyfitter_cfg.c **** 			0x400F4305u, /* Base address: 0x400F4300 Count: 5 */
 345:.\Generated_Source\PSoC4/cyfitter_cfg.c **** 			0x400F6002u, /* Base address: 0x400F6000 Count: 2 */
 346:.\Generated_Source\PSoC4/cyfitter_cfg.c **** 		};
 347:.\Generated_Source\PSoC4/cyfitter_cfg.c **** 
 348:.\Generated_Source\PSoC4/cyfitter_cfg.c **** 		static const cy_cfg_addrvalue_t CYCODE cy_cfg_data_table[] = {
 349:.\Generated_Source\PSoC4/cyfitter_cfg.c **** 			{0x82u, 0x0Du},
 350:.\Generated_Source\PSoC4/cyfitter_cfg.c **** 			{0x83u, 0x0Du},
 351:.\Generated_Source\PSoC4/cyfitter_cfg.c **** 			{0x8Du, 0x01u},
 352:.\Generated_Source\PSoC4/cyfitter_cfg.c **** 			{0x09u, 0x02u},
 353:.\Generated_Source\PSoC4/cyfitter_cfg.c **** 			{0x0Eu, 0x05u},
 354:.\Generated_Source\PSoC4/cyfitter_cfg.c **** 			{0x0Fu, 0x01u},
 355:.\Generated_Source\PSoC4/cyfitter_cfg.c **** 			{0x11u, 0x02u},
 356:.\Generated_Source\PSoC4/cyfitter_cfg.c **** 			{0x13u, 0x04u},
 357:.\Generated_Source\PSoC4/cyfitter_cfg.c **** 			{0x20u, 0x03u},
 358:.\Generated_Source\PSoC4/cyfitter_cfg.c **** 			{0x27u, 0x01u},
 359:.\Generated_Source\PSoC4/cyfitter_cfg.c **** 			{0x29u, 0x04u},
 360:.\Generated_Source\PSoC4/cyfitter_cfg.c **** 			{0x2Au, 0x0Au},
 361:.\Generated_Source\PSoC4/cyfitter_cfg.c **** 			{0x2Eu, 0x1Cu},
 362:.\Generated_Source\PSoC4/cyfitter_cfg.c **** 			{0x30u, 0x03u},
 363:.\Generated_Source\PSoC4/cyfitter_cfg.c **** 			{0x31u, 0x02u},
 364:.\Generated_Source\PSoC4/cyfitter_cfg.c **** 			{0x32u, 0x0Cu},
 365:.\Generated_Source\PSoC4/cyfitter_cfg.c **** 			{0x33u, 0x01u},
 366:.\Generated_Source\PSoC4/cyfitter_cfg.c **** 			{0x34u, 0x10u},
 367:.\Generated_Source\PSoC4/cyfitter_cfg.c **** 			{0x35u, 0x04u},
 368:.\Generated_Source\PSoC4/cyfitter_cfg.c **** 			{0x39u, 0x22u},
 369:.\Generated_Source\PSoC4/cyfitter_cfg.c **** 			{0x3Bu, 0xC0u},
 370:.\Generated_Source\PSoC4/cyfitter_cfg.c **** 			{0x3Fu, 0x15u},
 371:.\Generated_Source\PSoC4/cyfitter_cfg.c **** 			{0x40u, 0x20u},
 372:.\Generated_Source\PSoC4/cyfitter_cfg.c **** 			{0x41u, 0x05u},
 373:.\Generated_Source\PSoC4/cyfitter_cfg.c **** 			{0x45u, 0xD0u},
 374:.\Generated_Source\PSoC4/cyfitter_cfg.c **** 			{0x46u, 0x02u},
ARM GAS  C:\Users\GLENNL~1\AppData\Local\Temp\cccQ8SQ9.s 			page 17


 375:.\Generated_Source\PSoC4/cyfitter_cfg.c **** 			{0x47u, 0x01u},
 376:.\Generated_Source\PSoC4/cyfitter_cfg.c **** 			{0x48u, 0x36u},
 377:.\Generated_Source\PSoC4/cyfitter_cfg.c **** 			{0x49u, 0xFFu},
 378:.\Generated_Source\PSoC4/cyfitter_cfg.c **** 			{0x4Au, 0xFFu},
 379:.\Generated_Source\PSoC4/cyfitter_cfg.c **** 			{0x4Bu, 0xFFu},
 380:.\Generated_Source\PSoC4/cyfitter_cfg.c **** 			{0x4Du, 0xA0u},
 381:.\Generated_Source\PSoC4/cyfitter_cfg.c **** 			{0x4Fu, 0x04u},
 382:.\Generated_Source\PSoC4/cyfitter_cfg.c **** 			{0x50u, 0x18u},
 383:.\Generated_Source\PSoC4/cyfitter_cfg.c **** 			{0x52u, 0x80u},
 384:.\Generated_Source\PSoC4/cyfitter_cfg.c **** 			{0x54u, 0x05u},
 385:.\Generated_Source\PSoC4/cyfitter_cfg.c **** 			{0x58u, 0x04u},
 386:.\Generated_Source\PSoC4/cyfitter_cfg.c **** 			{0x59u, 0x08u},
 387:.\Generated_Source\PSoC4/cyfitter_cfg.c **** 			{0x5Au, 0x04u},
 388:.\Generated_Source\PSoC4/cyfitter_cfg.c **** 			{0x5Bu, 0x04u},
 389:.\Generated_Source\PSoC4/cyfitter_cfg.c **** 			{0x5Cu, 0x91u},
 390:.\Generated_Source\PSoC4/cyfitter_cfg.c **** 			{0x5Du, 0x11u},
 391:.\Generated_Source\PSoC4/cyfitter_cfg.c **** 			{0x5Fu, 0x01u},
 392:.\Generated_Source\PSoC4/cyfitter_cfg.c **** 			{0x60u, 0x40u},
 393:.\Generated_Source\PSoC4/cyfitter_cfg.c **** 			{0x62u, 0xC0u},
 394:.\Generated_Source\PSoC4/cyfitter_cfg.c **** 			{0x64u, 0x40u},
 395:.\Generated_Source\PSoC4/cyfitter_cfg.c **** 			{0x65u, 0x40u},
 396:.\Generated_Source\PSoC4/cyfitter_cfg.c **** 			{0x66u, 0xC0u},
 397:.\Generated_Source\PSoC4/cyfitter_cfg.c **** 			{0x68u, 0xC0u},
 398:.\Generated_Source\PSoC4/cyfitter_cfg.c **** 			{0x6Au, 0xC0u},
 399:.\Generated_Source\PSoC4/cyfitter_cfg.c **** 			{0x6Cu, 0xC0u},
 400:.\Generated_Source\PSoC4/cyfitter_cfg.c **** 			{0x6Eu, 0xC0u},
 401:.\Generated_Source\PSoC4/cyfitter_cfg.c **** 			{0x85u, 0x02u},
 402:.\Generated_Source\PSoC4/cyfitter_cfg.c **** 			{0x8Bu, 0x01u},
 403:.\Generated_Source\PSoC4/cyfitter_cfg.c **** 			{0x92u, 0x0Cu},
 404:.\Generated_Source\PSoC4/cyfitter_cfg.c **** 			{0x98u, 0x01u},
 405:.\Generated_Source\PSoC4/cyfitter_cfg.c **** 			{0xA1u, 0x02u},
 406:.\Generated_Source\PSoC4/cyfitter_cfg.c **** 			{0xAAu, 0x07u},
 407:.\Generated_Source\PSoC4/cyfitter_cfg.c **** 			{0xAFu, 0x01u},
 408:.\Generated_Source\PSoC4/cyfitter_cfg.c **** 			{0xB0u, 0x01u},
 409:.\Generated_Source\PSoC4/cyfitter_cfg.c **** 			{0xB2u, 0x04u},
 410:.\Generated_Source\PSoC4/cyfitter_cfg.c **** 			{0xB3u, 0x01u},
 411:.\Generated_Source\PSoC4/cyfitter_cfg.c **** 			{0xB4u, 0x02u},
 412:.\Generated_Source\PSoC4/cyfitter_cfg.c **** 			{0xB6u, 0x08u},
 413:.\Generated_Source\PSoC4/cyfitter_cfg.c **** 			{0xB7u, 0x02u},
 414:.\Generated_Source\PSoC4/cyfitter_cfg.c **** 			{0xB9u, 0x80u},
 415:.\Generated_Source\PSoC4/cyfitter_cfg.c **** 			{0xBFu, 0x04u},
 416:.\Generated_Source\PSoC4/cyfitter_cfg.c **** 			{0xC0u, 0x50u},
 417:.\Generated_Source\PSoC4/cyfitter_cfg.c **** 			{0xC1u, 0x06u},
 418:.\Generated_Source\PSoC4/cyfitter_cfg.c **** 			{0xC5u, 0xD0u},
 419:.\Generated_Source\PSoC4/cyfitter_cfg.c **** 			{0xC6u, 0x20u},
 420:.\Generated_Source\PSoC4/cyfitter_cfg.c **** 			{0xC7u, 0x01u},
 421:.\Generated_Source\PSoC4/cyfitter_cfg.c **** 			{0xC8u, 0x1Au},
 422:.\Generated_Source\PSoC4/cyfitter_cfg.c **** 			{0xC9u, 0xFFu},
 423:.\Generated_Source\PSoC4/cyfitter_cfg.c **** 			{0xCAu, 0xFFu},
 424:.\Generated_Source\PSoC4/cyfitter_cfg.c **** 			{0xCBu, 0xFFu},
 425:.\Generated_Source\PSoC4/cyfitter_cfg.c **** 			{0xCDu, 0xA0u},
 426:.\Generated_Source\PSoC4/cyfitter_cfg.c **** 			{0xCFu, 0x04u},
 427:.\Generated_Source\PSoC4/cyfitter_cfg.c **** 			{0xD0u, 0x18u},
 428:.\Generated_Source\PSoC4/cyfitter_cfg.c **** 			{0xD2u, 0x80u},
 429:.\Generated_Source\PSoC4/cyfitter_cfg.c **** 			{0xD4u, 0x05u},
 430:.\Generated_Source\PSoC4/cyfitter_cfg.c **** 			{0xD8u, 0x04u},
 431:.\Generated_Source\PSoC4/cyfitter_cfg.c **** 			{0xD9u, 0x04u},
ARM GAS  C:\Users\GLENNL~1\AppData\Local\Temp\cccQ8SQ9.s 			page 18


 432:.\Generated_Source\PSoC4/cyfitter_cfg.c **** 			{0xDAu, 0x04u},
 433:.\Generated_Source\PSoC4/cyfitter_cfg.c **** 			{0xDBu, 0x04u},
 434:.\Generated_Source\PSoC4/cyfitter_cfg.c **** 			{0xDCu, 0x13u},
 435:.\Generated_Source\PSoC4/cyfitter_cfg.c **** 			{0xDDu, 0x33u},
 436:.\Generated_Source\PSoC4/cyfitter_cfg.c **** 			{0xDFu, 0x01u},
 437:.\Generated_Source\PSoC4/cyfitter_cfg.c **** 			{0xE0u, 0x40u},
 438:.\Generated_Source\PSoC4/cyfitter_cfg.c **** 			{0xE2u, 0xC0u},
 439:.\Generated_Source\PSoC4/cyfitter_cfg.c **** 			{0xE4u, 0x40u},
 440:.\Generated_Source\PSoC4/cyfitter_cfg.c **** 			{0xE5u, 0x40u},
 441:.\Generated_Source\PSoC4/cyfitter_cfg.c **** 			{0xE6u, 0xC0u},
 442:.\Generated_Source\PSoC4/cyfitter_cfg.c **** 			{0xE8u, 0xC0u},
 443:.\Generated_Source\PSoC4/cyfitter_cfg.c **** 			{0xEAu, 0xC0u},
 444:.\Generated_Source\PSoC4/cyfitter_cfg.c **** 			{0xECu, 0xC0u},
 445:.\Generated_Source\PSoC4/cyfitter_cfg.c **** 			{0xEEu, 0xC0u},
 446:.\Generated_Source\PSoC4/cyfitter_cfg.c **** 			{0x06u, 0x02u},
 447:.\Generated_Source\PSoC4/cyfitter_cfg.c **** 			{0x09u, 0x02u},
 448:.\Generated_Source\PSoC4/cyfitter_cfg.c **** 			{0x0Au, 0x04u},
 449:.\Generated_Source\PSoC4/cyfitter_cfg.c **** 			{0x10u, 0x08u},
 450:.\Generated_Source\PSoC4/cyfitter_cfg.c **** 			{0x16u, 0x08u},
 451:.\Generated_Source\PSoC4/cyfitter_cfg.c **** 			{0x17u, 0x42u},
 452:.\Generated_Source\PSoC4/cyfitter_cfg.c **** 			{0x19u, 0x40u},
 453:.\Generated_Source\PSoC4/cyfitter_cfg.c **** 			{0x1Au, 0x44u},
 454:.\Generated_Source\PSoC4/cyfitter_cfg.c **** 			{0x1Bu, 0x08u},
 455:.\Generated_Source\PSoC4/cyfitter_cfg.c **** 			{0x1Cu, 0x10u},
 456:.\Generated_Source\PSoC4/cyfitter_cfg.c **** 			{0x1Du, 0x20u},
 457:.\Generated_Source\PSoC4/cyfitter_cfg.c **** 			{0x1Eu, 0x80u},
 458:.\Generated_Source\PSoC4/cyfitter_cfg.c **** 			{0x1Fu, 0x20u},
 459:.\Generated_Source\PSoC4/cyfitter_cfg.c **** 			{0x22u, 0x04u},
 460:.\Generated_Source\PSoC4/cyfitter_cfg.c **** 			{0x23u, 0x02u},
 461:.\Generated_Source\PSoC4/cyfitter_cfg.c **** 			{0x25u, 0x01u},
 462:.\Generated_Source\PSoC4/cyfitter_cfg.c **** 			{0x26u, 0x14u},
 463:.\Generated_Source\PSoC4/cyfitter_cfg.c **** 			{0x27u, 0x01u},
 464:.\Generated_Source\PSoC4/cyfitter_cfg.c **** 			{0x29u, 0x40u},
 465:.\Generated_Source\PSoC4/cyfitter_cfg.c **** 			{0x2Au, 0x02u},
 466:.\Generated_Source\PSoC4/cyfitter_cfg.c **** 			{0x2Fu, 0x28u},
 467:.\Generated_Source\PSoC4/cyfitter_cfg.c **** 			{0x37u, 0x01u},
 468:.\Generated_Source\PSoC4/cyfitter_cfg.c **** 			{0x3Au, 0x08u},
 469:.\Generated_Source\PSoC4/cyfitter_cfg.c **** 			{0x3Bu, 0x20u},
 470:.\Generated_Source\PSoC4/cyfitter_cfg.c **** 			{0x3Cu, 0x10u},
 471:.\Generated_Source\PSoC4/cyfitter_cfg.c **** 			{0x3Fu, 0x80u},
 472:.\Generated_Source\PSoC4/cyfitter_cfg.c **** 			{0x45u, 0x20u},
 473:.\Generated_Source\PSoC4/cyfitter_cfg.c **** 			{0x49u, 0x41u},
 474:.\Generated_Source\PSoC4/cyfitter_cfg.c **** 			{0x4Bu, 0x20u},
 475:.\Generated_Source\PSoC4/cyfitter_cfg.c **** 			{0x4Du, 0x01u},
 476:.\Generated_Source\PSoC4/cyfitter_cfg.c **** 			{0x4Fu, 0x80u},
 477:.\Generated_Source\PSoC4/cyfitter_cfg.c **** 			{0x50u, 0x08u},
 478:.\Generated_Source\PSoC4/cyfitter_cfg.c **** 			{0x53u, 0x10u},
 479:.\Generated_Source\PSoC4/cyfitter_cfg.c **** 			{0x56u, 0x0Au},
 480:.\Generated_Source\PSoC4/cyfitter_cfg.c **** 			{0x57u, 0x40u},
 481:.\Generated_Source\PSoC4/cyfitter_cfg.c **** 			{0x59u, 0x01u},
 482:.\Generated_Source\PSoC4/cyfitter_cfg.c **** 			{0x5Au, 0x48u},
 483:.\Generated_Source\PSoC4/cyfitter_cfg.c **** 			{0x5Du, 0x01u},
 484:.\Generated_Source\PSoC4/cyfitter_cfg.c **** 			{0x5Eu, 0x88u},
 485:.\Generated_Source\PSoC4/cyfitter_cfg.c **** 			{0x71u, 0x02u},
 486:.\Generated_Source\PSoC4/cyfitter_cfg.c **** 			{0x77u, 0x40u},
 487:.\Generated_Source\PSoC4/cyfitter_cfg.c **** 			{0x7Eu, 0x02u},
 488:.\Generated_Source\PSoC4/cyfitter_cfg.c **** 			{0x86u, 0x10u},
ARM GAS  C:\Users\GLENNL~1\AppData\Local\Temp\cccQ8SQ9.s 			page 19


 489:.\Generated_Source\PSoC4/cyfitter_cfg.c **** 			{0xA2u, 0x02u},
 490:.\Generated_Source\PSoC4/cyfitter_cfg.c **** 			{0xA5u, 0x01u},
 491:.\Generated_Source\PSoC4/cyfitter_cfg.c **** 			{0xB2u, 0x02u},
 492:.\Generated_Source\PSoC4/cyfitter_cfg.c **** 			{0xC0u, 0x80u},
 493:.\Generated_Source\PSoC4/cyfitter_cfg.c **** 			{0xC2u, 0x0Au},
 494:.\Generated_Source\PSoC4/cyfitter_cfg.c **** 			{0xC4u, 0xD2u},
 495:.\Generated_Source\PSoC4/cyfitter_cfg.c **** 			{0xCAu, 0x69u},
 496:.\Generated_Source\PSoC4/cyfitter_cfg.c **** 			{0xCCu, 0x80u},
 497:.\Generated_Source\PSoC4/cyfitter_cfg.c **** 			{0xCEu, 0x36u},
 498:.\Generated_Source\PSoC4/cyfitter_cfg.c **** 			{0xD0u, 0x20u},
 499:.\Generated_Source\PSoC4/cyfitter_cfg.c **** 			{0xD2u, 0x1Cu},
 500:.\Generated_Source\PSoC4/cyfitter_cfg.c **** 			{0xD6u, 0xDBu},
 501:.\Generated_Source\PSoC4/cyfitter_cfg.c **** 			{0xDEu, 0x10u},
 502:.\Generated_Source\PSoC4/cyfitter_cfg.c **** 			{0xE4u, 0x08u},
 503:.\Generated_Source\PSoC4/cyfitter_cfg.c **** 			{0x0Du, 0x10u},
 504:.\Generated_Source\PSoC4/cyfitter_cfg.c **** 			{0x60u, 0x10u},
 505:.\Generated_Source\PSoC4/cyfitter_cfg.c **** 			{0x8Cu, 0x10u},
 506:.\Generated_Source\PSoC4/cyfitter_cfg.c **** 			{0xC2u, 0x01u},
 507:.\Generated_Source\PSoC4/cyfitter_cfg.c **** 			{0xD8u, 0x02u},
 508:.\Generated_Source\PSoC4/cyfitter_cfg.c **** 			{0xE0u, 0x08u},
 509:.\Generated_Source\PSoC4/cyfitter_cfg.c **** 			{0x63u, 0x02u},
 510:.\Generated_Source\PSoC4/cyfitter_cfg.c **** 			{0x87u, 0x01u},
 511:.\Generated_Source\PSoC4/cyfitter_cfg.c **** 			{0xB1u, 0x10u},
 512:.\Generated_Source\PSoC4/cyfitter_cfg.c **** 			{0xD6u, 0x02u},
 513:.\Generated_Source\PSoC4/cyfitter_cfg.c **** 			{0xEEu, 0x04u},
 514:.\Generated_Source\PSoC4/cyfitter_cfg.c **** 			{0x10u, 0x0Au},
 515:.\Generated_Source\PSoC4/cyfitter_cfg.c **** 			{0x11u, 0x01u},
 516:.\Generated_Source\PSoC4/cyfitter_cfg.c **** 		};
 517:.\Generated_Source\PSoC4/cyfitter_cfg.c **** 
 518:.\Generated_Source\PSoC4/cyfitter_cfg.c **** 
 519:.\Generated_Source\PSoC4/cyfitter_cfg.c **** 
 520:.\Generated_Source\PSoC4/cyfitter_cfg.c **** 		CYPACKED typedef struct {
 521:.\Generated_Source\PSoC4/cyfitter_cfg.c **** 			void CYFAR *address;
 522:.\Generated_Source\PSoC4/cyfitter_cfg.c **** 			uint16 size;
 523:.\Generated_Source\PSoC4/cyfitter_cfg.c **** 		} CYPACKED_ATTR cfg_memset_t;
 524:.\Generated_Source\PSoC4/cyfitter_cfg.c **** 
 525:.\Generated_Source\PSoC4/cyfitter_cfg.c **** 		static const cfg_memset_t CYCODE cfg_memset_list [] = {
 526:.\Generated_Source\PSoC4/cyfitter_cfg.c **** 			/* address, size */
 527:.\Generated_Source\PSoC4/cyfitter_cfg.c **** 			{(void CYFAR *)(CYDEV_UDB_P0_U0_BASE), 1024u},
 528:.\Generated_Source\PSoC4/cyfitter_cfg.c **** 			{(void CYFAR *)(CYDEV_UDB_DSI0_BASE), 1024u},
 529:.\Generated_Source\PSoC4/cyfitter_cfg.c **** 		};
 530:.\Generated_Source\PSoC4/cyfitter_cfg.c **** 
 531:.\Generated_Source\PSoC4/cyfitter_cfg.c **** 		uint8 CYDATA i;
 532:.\Generated_Source\PSoC4/cyfitter_cfg.c **** 
 533:.\Generated_Source\PSoC4/cyfitter_cfg.c **** 		/* Zero out critical memory blocks before beginning configuration */
 534:.\Generated_Source\PSoC4/cyfitter_cfg.c **** 		for (i = 0u; i < (sizeof(cfg_memset_list)/sizeof(cfg_memset_list[0])); i++)
 533              		.loc 1 534 0
 534 0196 FB1D     		add	r3, r7, #7
 535 0198 0022     		mov	r2, #0
 536 019a 1A70     		strb	r2, [r3]
 537 019c 23E0     		b	.L22
 538              	.L23:
 539              	.LBB4:
 535:.\Generated_Source\PSoC4/cyfitter_cfg.c **** 		{
 536:.\Generated_Source\PSoC4/cyfitter_cfg.c **** 			const cfg_memset_t CYCODE * CYDATA ms = &cfg_memset_list[i];
 540              		.loc 1 536 0 discriminator 2
 541 019e FB1D     		add	r3, r7, #7
ARM GAS  C:\Users\GLENNL~1\AppData\Local\Temp\cccQ8SQ9.s 			page 20


 542 01a0 1A78     		ldrb	r2, [r3]
 543 01a2 131C     		mov	r3, r2
 544 01a4 5B00     		lsl	r3, r3, #1
 545 01a6 9B18     		add	r3, r3, r2
 546 01a8 5B00     		lsl	r3, r3, #1
 547 01aa 424A     		ldr	r2, .L24+4
 548 01ac 9B18     		add	r3, r3, r2
 549 01ae 3B60     		str	r3, [r7]
 537:.\Generated_Source\PSoC4/cyfitter_cfg.c **** 			CYMEMZERO(ms->address, (size_t)(uint32)(ms->size));
 550              		.loc 1 537 0 discriminator 2
 551 01b0 3B68     		ldr	r3, [r7]
 552 01b2 1A78     		ldrb	r2, [r3]
 553 01b4 5978     		ldrb	r1, [r3, #1]
 554 01b6 0902     		lsl	r1, r1, #8
 555 01b8 0A43     		orr	r2, r1
 556 01ba 9978     		ldrb	r1, [r3, #2]
 557 01bc 0904     		lsl	r1, r1, #16
 558 01be 0A43     		orr	r2, r1
 559 01c0 DB78     		ldrb	r3, [r3, #3]
 560 01c2 1B06     		lsl	r3, r3, #24
 561 01c4 1343     		orr	r3, r2
 562 01c6 1A1C     		mov	r2, r3
 563 01c8 3B68     		ldr	r3, [r7]
 564 01ca 1979     		ldrb	r1, [r3, #4]
 565 01cc 5B79     		ldrb	r3, [r3, #5]
 566 01ce 1B02     		lsl	r3, r3, #8
 567 01d0 0B43     		orr	r3, r1
 568 01d2 9BB2     		uxth	r3, r3
 569 01d4 101C     		mov	r0, r2
 570 01d6 191C     		mov	r1, r3
 571 01d8 FFF7FEFF 		bl	CYMEMZERO
 572              	.LBE4:
 534:.\Generated_Source\PSoC4/cyfitter_cfg.c **** 		for (i = 0u; i < (sizeof(cfg_memset_list)/sizeof(cfg_memset_list[0])); i++)
 573              		.loc 1 534 0 discriminator 2
 574 01dc FB1D     		add	r3, r7, #7
 575 01de 1A78     		ldrb	r2, [r3]
 576 01e0 FB1D     		add	r3, r7, #7
 577 01e2 0132     		add	r2, r2, #1
 578 01e4 1A70     		strb	r2, [r3]
 579              	.L22:
 534:.\Generated_Source\PSoC4/cyfitter_cfg.c **** 		for (i = 0u; i < (sizeof(cfg_memset_list)/sizeof(cfg_memset_list[0])); i++)
 580              		.loc 1 534 0 is_stmt 0 discriminator 1
 581 01e6 FB1D     		add	r3, r7, #7
 582 01e8 1B78     		ldrb	r3, [r3]
 583 01ea 012B     		cmp	r3, #1
 584 01ec D7D9     		bls	.L23
 538:.\Generated_Source\PSoC4/cyfitter_cfg.c **** 		}
 539:.\Generated_Source\PSoC4/cyfitter_cfg.c **** 
 540:.\Generated_Source\PSoC4/cyfitter_cfg.c **** 		cfg_write_bytes32(cy_cfg_addr_table, cy_cfg_data_table);
 585              		.loc 1 540 0 is_stmt 1
 586 01ee 324A     		ldr	r2, .L24+8
 587 01f0 324B     		ldr	r3, .L24+12
 588 01f2 101C     		mov	r0, r2
 589 01f4 191C     		mov	r1, r3
 590 01f6 FFF7FEFF 		bl	cfg_write_bytes32
 541:.\Generated_Source\PSoC4/cyfitter_cfg.c **** 
 542:.\Generated_Source\PSoC4/cyfitter_cfg.c **** 		/* Perform normal device configuration. Order is not critical for these items. */
ARM GAS  C:\Users\GLENNL~1\AppData\Local\Temp\cccQ8SQ9.s 			page 21


 543:.\Generated_Source\PSoC4/cyfitter_cfg.c **** 		CY_SET_XTND_REG16((void CYFAR *)(CYREG_UDB_BCTL0_DRV), 0x0A00u);
 591              		.loc 1 543 0
 592 01fa 314B     		ldr	r3, .L24+16
 593 01fc A022     		mov	r2, #160
 594 01fe 1201     		lsl	r2, r2, #4
 595 0200 1A80     		strh	r2, [r3]
 544:.\Generated_Source\PSoC4/cyfitter_cfg.c **** 		CY_SET_XTND_REG8((void CYFAR *)(CYREG_UDB_BCTL0_DRV + 0x2u), 0x01u);
 596              		.loc 1 544 0
 597 0202 304B     		ldr	r3, .L24+20
 598 0204 0122     		mov	r2, #1
 599 0206 1A70     		strb	r2, [r3]
 545:.\Generated_Source\PSoC4/cyfitter_cfg.c **** 
 546:.\Generated_Source\PSoC4/cyfitter_cfg.c **** 		/* HSIOM Starting address: CYDEV_HSIOM_BASE */
 547:.\Generated_Source\PSoC4/cyfitter_cfg.c **** 		CY_SET_XTND_REG32((void CYFAR *)(CYDEV_HSIOM_BASE), 0xEE000000u);
 600              		.loc 1 547 0
 601 0208 2F4B     		ldr	r3, .L24+24
 602 020a EE22     		mov	r2, #238
 603 020c 1206     		lsl	r2, r2, #24
 604 020e 1A60     		str	r2, [r3]
 548:.\Generated_Source\PSoC4/cyfitter_cfg.c **** 		CY_SET_XTND_REG32((void CYFAR *)(CYREG_HSIOM_PORT_SEL2), 0x03000000u);
 605              		.loc 1 548 0
 606 0210 2E4B     		ldr	r3, .L24+28
 607 0212 C022     		mov	r2, #192
 608 0214 9204     		lsl	r2, r2, #18
 609 0216 1A60     		str	r2, [r3]
 549:.\Generated_Source\PSoC4/cyfitter_cfg.c **** 		CY_SET_XTND_REG32((void CYFAR *)(CYREG_HSIOM_PORT_SEL3), 0x30000000u);
 610              		.loc 1 549 0
 611 0218 2D4B     		ldr	r3, .L24+32
 612 021a C022     		mov	r2, #192
 613 021c 9205     		lsl	r2, r2, #22
 614 021e 1A60     		str	r2, [r3]
 550:.\Generated_Source\PSoC4/cyfitter_cfg.c **** 
 551:.\Generated_Source\PSoC4/cyfitter_cfg.c **** 		/* IOPINS0_0 Starting address: CYDEV_GPIO_PRT0_DR */
 552:.\Generated_Source\PSoC4/cyfitter_cfg.c **** 		CY_SET_XTND_REG32((void CYFAR *)(CYREG_GPIO_PRT0_PC), 0x00D80000u);
 615              		.loc 1 552 0
 616 0220 2C4B     		ldr	r3, .L24+36
 617 0222 D822     		mov	r2, #216
 618 0224 1204     		lsl	r2, r2, #16
 619 0226 1A60     		str	r2, [r3]
 553:.\Generated_Source\PSoC4/cyfitter_cfg.c **** 
 554:.\Generated_Source\PSoC4/cyfitter_cfg.c **** 		/* IOPINS0_2 Starting address: CYDEV_GPIO_PRT2_DR */
 555:.\Generated_Source\PSoC4/cyfitter_cfg.c **** 		CY_SET_XTND_REG32((void CYFAR *)(CYREG_GPIO_PRT2_DR), 0x000000C0u);
 620              		.loc 1 555 0
 621 0228 2B4B     		ldr	r3, .L24+40
 622 022a C022     		mov	r2, #192
 623 022c 1A60     		str	r2, [r3]
 556:.\Generated_Source\PSoC4/cyfitter_cfg.c **** 		CY_SET_XTND_REG32((void CYFAR *)(CYREG_GPIO_PRT2_PC), 0x00580000u);
 624              		.loc 1 556 0
 625 022e 2B4B     		ldr	r3, .L24+44
 626 0230 B022     		mov	r2, #176
 627 0232 D203     		lsl	r2, r2, #15
 628 0234 1A60     		str	r2, [r3]
 557:.\Generated_Source\PSoC4/cyfitter_cfg.c **** 
 558:.\Generated_Source\PSoC4/cyfitter_cfg.c **** 		/* IOPINS0_3 Starting address: CYDEV_GPIO_PRT3_DR */
 559:.\Generated_Source\PSoC4/cyfitter_cfg.c **** 		CY_SET_XTND_REG32((void CYFAR *)(CYREG_GPIO_PRT3_DR), 0x00000080u);
 629              		.loc 1 559 0
 630 0236 2A4B     		ldr	r3, .L24+48
ARM GAS  C:\Users\GLENNL~1\AppData\Local\Temp\cccQ8SQ9.s 			page 22


 631 0238 8022     		mov	r2, #128
 632 023a 1A60     		str	r2, [r3]
 560:.\Generated_Source\PSoC4/cyfitter_cfg.c **** 		CY_SET_XTND_REG32((void CYFAR *)(CYREG_GPIO_PRT3_PC), 0x00C00000u);
 633              		.loc 1 560 0
 634 023c 294B     		ldr	r3, .L24+52
 635 023e C022     		mov	r2, #192
 636 0240 1204     		lsl	r2, r2, #16
 637 0242 1A60     		str	r2, [r3]
 561:.\Generated_Source\PSoC4/cyfitter_cfg.c **** 
 562:.\Generated_Source\PSoC4/cyfitter_cfg.c **** 		/* UDB_PA_0 Starting address: CYDEV_UDB_PA0_BASE */
 563:.\Generated_Source\PSoC4/cyfitter_cfg.c **** 		CY_SET_XTND_REG32((void CYFAR *)(CYDEV_UDB_PA0_BASE), 0x00990000u);
 638              		.loc 1 563 0
 639 0244 284B     		ldr	r3, .L24+56
 640 0246 9922     		mov	r2, #153
 641 0248 1204     		lsl	r2, r2, #16
 642 024a 1A60     		str	r2, [r3]
 564:.\Generated_Source\PSoC4/cyfitter_cfg.c **** 
 565:.\Generated_Source\PSoC4/cyfitter_cfg.c **** 		/* UDB_PA_2 Starting address: CYDEV_UDB_PA2_BASE */
 566:.\Generated_Source\PSoC4/cyfitter_cfg.c **** 		CY_SET_XTND_REG32((void CYFAR *)(CYDEV_UDB_PA2_BASE), 0x00990004u);
 643              		.loc 1 566 0
 644 024c 274B     		ldr	r3, .L24+60
 645 024e 284A     		ldr	r2, .L24+64
 646 0250 1A60     		str	r2, [r3]
 567:.\Generated_Source\PSoC4/cyfitter_cfg.c **** 		CY_SET_XTND_REG32((void CYFAR *)(CYREG_UDB_PA2_CFG4), 0x80000000u);
 647              		.loc 1 567 0
 648 0252 284B     		ldr	r3, .L24+68
 649 0254 8022     		mov	r2, #128
 650 0256 1206     		lsl	r2, r2, #24
 651 0258 1A60     		str	r2, [r3]
 568:.\Generated_Source\PSoC4/cyfitter_cfg.c **** 		CY_SET_XTND_REG32((void CYFAR *)(CYREG_UDB_PA2_CFG8), 0x20000000u);
 652              		.loc 1 568 0
 653 025a 274B     		ldr	r3, .L24+72
 654 025c 8022     		mov	r2, #128
 655 025e 9205     		lsl	r2, r2, #22
 656 0260 1A60     		str	r2, [r3]
 569:.\Generated_Source\PSoC4/cyfitter_cfg.c **** 
 570:.\Generated_Source\PSoC4/cyfitter_cfg.c **** 		/* UDB_PA_3 Starting address: CYDEV_UDB_PA3_BASE */
 571:.\Generated_Source\PSoC4/cyfitter_cfg.c **** 		CY_SET_XTND_REG32((void CYFAR *)(CYDEV_UDB_PA3_BASE), 0x00990000u);
 657              		.loc 1 571 0
 658 0262 264B     		ldr	r3, .L24+76
 659 0264 9922     		mov	r2, #153
 660 0266 1204     		lsl	r2, r2, #16
 661 0268 1A60     		str	r2, [r3]
 572:.\Generated_Source\PSoC4/cyfitter_cfg.c **** 
 573:.\Generated_Source\PSoC4/cyfitter_cfg.c **** 		/* Enable digital routing */
 574:.\Generated_Source\PSoC4/cyfitter_cfg.c **** 		CY_SET_XTND_REG8((void *)CYREG_UDB_UDBIF_BANK_CTL, CY_GET_XTND_REG8((void *)CYREG_UDB_UDBIF_BANK_
 662              		.loc 1 574 0
 663 026a 254B     		ldr	r3, .L24+80
 664 026c 244A     		ldr	r2, .L24+80
 665 026e 1278     		ldrb	r2, [r2]
 666 0270 D2B2     		uxtb	r2, r2
 667 0272 0221     		mov	r1, #2
 668 0274 0A43     		orr	r2, r1
 669 0276 D2B2     		uxtb	r2, r2
 670 0278 1A70     		strb	r2, [r3]
 575:.\Generated_Source\PSoC4/cyfitter_cfg.c **** 
 576:.\Generated_Source\PSoC4/cyfitter_cfg.c **** 		/* Enable UDB array */
ARM GAS  C:\Users\GLENNL~1\AppData\Local\Temp\cccQ8SQ9.s 			page 23


 577:.\Generated_Source\PSoC4/cyfitter_cfg.c **** 		CY_SET_XTND_REG8((void *)CYREG_UDB_UDBIF_WAIT_CFG, (CY_GET_XTND_REG8((void *)CYREG_UDB_UDBIF_WAIT
 671              		.loc 1 577 0
 672 027a 224B     		ldr	r3, .L24+84
 673 027c 214A     		ldr	r2, .L24+84
 674 027e 1278     		ldrb	r2, [r2]
 675 0280 D2B2     		uxtb	r2, r2
 676 0282 0C21     		mov	r1, #12
 677 0284 8A43     		bic	r2, r1
 678 0286 D2B2     		uxtb	r2, r2
 679 0288 0421     		mov	r1, #4
 680 028a 0A43     		orr	r2, r1
 681 028c D2B2     		uxtb	r2, r2
 682 028e 1A70     		strb	r2, [r3]
 578:.\Generated_Source\PSoC4/cyfitter_cfg.c **** 		CY_SET_XTND_REG8((void *)CYREG_UDB_UDBIF_BANK_CTL, CY_GET_XTND_REG8((void *)CYREG_UDB_UDBIF_BANK_
 683              		.loc 1 578 0
 684 0290 1B4B     		ldr	r3, .L24+80
 685 0292 1B4A     		ldr	r2, .L24+80
 686 0294 1278     		ldrb	r2, [r2]
 687 0296 D2B2     		uxtb	r2, r2
 688 0298 1621     		mov	r1, #22
 689 029a 0A43     		orr	r2, r1
 690 029c D2B2     		uxtb	r2, r2
 691 029e 1A70     		strb	r2, [r3]
 692              	.LBE3:
 579:.\Generated_Source\PSoC4/cyfitter_cfg.c **** 	}
 580:.\Generated_Source\PSoC4/cyfitter_cfg.c **** 
 581:.\Generated_Source\PSoC4/cyfitter_cfg.c **** 	/* Setup clocks based on selections from Clock DWR */
 582:.\Generated_Source\PSoC4/cyfitter_cfg.c **** 	ClockSetup();
 693              		.loc 1 582 0
 694 02a0 FFF700FF 		bl	ClockSetup
 583:.\Generated_Source\PSoC4/cyfitter_cfg.c **** 
 584:.\Generated_Source\PSoC4/cyfitter_cfg.c **** 	/* Perform basic analog initialization to defaults */
 585:.\Generated_Source\PSoC4/cyfitter_cfg.c **** 	AnalogSetDefault();
 695              		.loc 1 585 0
 696 02a4 FFF7FEFF 		bl	AnalogSetDefault
 586:.\Generated_Source\PSoC4/cyfitter_cfg.c **** 
 587:.\Generated_Source\PSoC4/cyfitter_cfg.c **** }
 697              		.loc 1 587 0
 698 02a8 BD46     		mov	sp, r7
 699 02aa 02B0     		add	sp, sp, #8
 700              		@ sp needed
 701 02ac 80BD     		pop	{r7, pc}
 702              	.L25:
 703 02ae C046     		.align	2
 704              	.L24:
 705 02b0 6CF02E40 		.word	1076818028
 706 02b4 04000000 		.word	cfg_memset_list.4765
 707 02b8 10000000 		.word	cy_cfg_addr_table.4759
 708 02bc 2C000000 		.word	cy_cfg_data_table.4760
 709 02c0 00600F40 		.word	1074749440
 710 02c4 02600F40 		.word	1074749442
 711 02c8 00000240 		.word	1073872896
 712 02cc 00020240 		.word	1073873408
 713 02d0 00030240 		.word	1073873664
 714 02d4 08000440 		.word	1074003976
 715 02d8 00020440 		.word	1074004480
 716 02dc 08020440 		.word	1074004488
ARM GAS  C:\Users\GLENNL~1\AppData\Local\Temp\cccQ8SQ9.s 			page 24


 717 02e0 00030440 		.word	1074004736
 718 02e4 08030440 		.word	1074004744
 719 02e8 00500F40 		.word	1074745344
 720 02ec 20500F40 		.word	1074745376
 721 02f0 04009900 		.word	10027012
 722 02f4 24500F40 		.word	1074745380
 723 02f8 28500F40 		.word	1074745384
 724 02fc 30500F40 		.word	1074745392
 725 0300 00700F40 		.word	1074753536
 726 0304 01700F40 		.word	1074753537
 727              		.cfi_endproc
 728              	.LFE9:
 729              		.size	cyfitter_cfg, .-cyfitter_cfg
 730              		.data
 731              		.align	2
 732              		.type	imo_trim_table.4738, %object
 733              		.size	imo_trim_table.4738, 4
 734              	imo_trim_table.4738:
 735 0000 C0F1FF0F 		.word	268431808
 736              		.section	.rodata
 737              		.align	2
 738              		.type	IMO_TRIM_FREQ_TABLE_ENTRIES.4739, %object
 739              		.size	IMO_TRIM_FREQ_TABLE_ENTRIES.4739, 4
 740              	IMO_TRIM_FREQ_TABLE_ENTRIES.4739:
 741 0000 04000000 		.word	4
 742              		.align	2
 743              		.type	cfg_memset_list.4765, %object
 744              		.size	cfg_memset_list.4765, 12
 745              	cfg_memset_list.4765:
 746 0004 00300F40 		.word	1074737152
 747 0008 0004     		.short	1024
 748 000a 00400F40 		.4byte	1074741248
 749 000e 0004     		.short	1024
 750              		.align	2
 751              		.type	cy_cfg_addr_table.4759, %object
 752              		.size	cy_cfg_addr_table.4759, 28
 753              	cy_cfg_addr_table.4759:
 754 0010 02000F40 		.word	1074724866
 755 0014 01310F40 		.word	1074737409
 756 0018 5E320F40 		.word	1074737758
 757 001c 39330F40 		.word	1074737977
 758 0020 06420F40 		.word	1074741766
 759 0024 05430F40 		.word	1074742021
 760 0028 02600F40 		.word	1074749442
 761              		.align	2
 762              		.type	cy_cfg_data_table.4760, %object
 763              		.size	cy_cfg_data_table.4760, 334
 764              	cy_cfg_data_table.4760:
 765 002c 82       		.byte	-126
 766 002d 0D       		.byte	13
 767 002e 83       		.byte	-125
 768 002f 0D       		.byte	13
 769 0030 8D       		.byte	-115
 770 0031 01       		.byte	1
 771 0032 09       		.byte	9
 772 0033 02       		.byte	2
 773 0034 0E       		.byte	14
ARM GAS  C:\Users\GLENNL~1\AppData\Local\Temp\cccQ8SQ9.s 			page 25


 774 0035 05       		.byte	5
 775 0036 0F       		.byte	15
 776 0037 01       		.byte	1
 777 0038 11       		.byte	17
 778 0039 02       		.byte	2
 779 003a 13       		.byte	19
 780 003b 04       		.byte	4
 781 003c 20       		.byte	32
 782 003d 03       		.byte	3
 783 003e 27       		.byte	39
 784 003f 01       		.byte	1
 785 0040 29       		.byte	41
 786 0041 04       		.byte	4
 787 0042 2A       		.byte	42
 788 0043 0A       		.byte	10
 789 0044 2E       		.byte	46
 790 0045 1C       		.byte	28
 791 0046 30       		.byte	48
 792 0047 03       		.byte	3
 793 0048 31       		.byte	49
 794 0049 02       		.byte	2
 795 004a 32       		.byte	50
 796 004b 0C       		.byte	12
 797 004c 33       		.byte	51
 798 004d 01       		.byte	1
 799 004e 34       		.byte	52
 800 004f 10       		.byte	16
 801 0050 35       		.byte	53
 802 0051 04       		.byte	4
 803 0052 39       		.byte	57
 804 0053 22       		.byte	34
 805 0054 3B       		.byte	59
 806 0055 C0       		.byte	-64
 807 0056 3F       		.byte	63
 808 0057 15       		.byte	21
 809 0058 40       		.byte	64
 810 0059 20       		.byte	32
 811 005a 41       		.byte	65
 812 005b 05       		.byte	5
 813 005c 45       		.byte	69
 814 005d D0       		.byte	-48
 815 005e 46       		.byte	70
 816 005f 02       		.byte	2
 817 0060 47       		.byte	71
 818 0061 01       		.byte	1
 819 0062 48       		.byte	72
 820 0063 36       		.byte	54
 821 0064 49       		.byte	73
 822 0065 FF       		.byte	-1
 823 0066 4A       		.byte	74
 824 0067 FF       		.byte	-1
 825 0068 4B       		.byte	75
 826 0069 FF       		.byte	-1
 827 006a 4D       		.byte	77
 828 006b A0       		.byte	-96
 829 006c 4F       		.byte	79
 830 006d 04       		.byte	4
ARM GAS  C:\Users\GLENNL~1\AppData\Local\Temp\cccQ8SQ9.s 			page 26


 831 006e 50       		.byte	80
 832 006f 18       		.byte	24
 833 0070 52       		.byte	82
 834 0071 80       		.byte	-128
 835 0072 54       		.byte	84
 836 0073 05       		.byte	5
 837 0074 58       		.byte	88
 838 0075 04       		.byte	4
 839 0076 59       		.byte	89
 840 0077 08       		.byte	8
 841 0078 5A       		.byte	90
 842 0079 04       		.byte	4
 843 007a 5B       		.byte	91
 844 007b 04       		.byte	4
 845 007c 5C       		.byte	92
 846 007d 91       		.byte	-111
 847 007e 5D       		.byte	93
 848 007f 11       		.byte	17
 849 0080 5F       		.byte	95
 850 0081 01       		.byte	1
 851 0082 60       		.byte	96
 852 0083 40       		.byte	64
 853 0084 62       		.byte	98
 854 0085 C0       		.byte	-64
 855 0086 64       		.byte	100
 856 0087 40       		.byte	64
 857 0088 65       		.byte	101
 858 0089 40       		.byte	64
 859 008a 66       		.byte	102
 860 008b C0       		.byte	-64
 861 008c 68       		.byte	104
 862 008d C0       		.byte	-64
 863 008e 6A       		.byte	106
 864 008f C0       		.byte	-64
 865 0090 6C       		.byte	108
 866 0091 C0       		.byte	-64
 867 0092 6E       		.byte	110
 868 0093 C0       		.byte	-64
 869 0094 85       		.byte	-123
 870 0095 02       		.byte	2
 871 0096 8B       		.byte	-117
 872 0097 01       		.byte	1
 873 0098 92       		.byte	-110
 874 0099 0C       		.byte	12
 875 009a 98       		.byte	-104
 876 009b 01       		.byte	1
 877 009c A1       		.byte	-95
 878 009d 02       		.byte	2
 879 009e AA       		.byte	-86
 880 009f 07       		.byte	7
 881 00a0 AF       		.byte	-81
 882 00a1 01       		.byte	1
 883 00a2 B0       		.byte	-80
 884 00a3 01       		.byte	1
 885 00a4 B2       		.byte	-78
 886 00a5 04       		.byte	4
 887 00a6 B3       		.byte	-77
ARM GAS  C:\Users\GLENNL~1\AppData\Local\Temp\cccQ8SQ9.s 			page 27


 888 00a7 01       		.byte	1
 889 00a8 B4       		.byte	-76
 890 00a9 02       		.byte	2
 891 00aa B6       		.byte	-74
 892 00ab 08       		.byte	8
 893 00ac B7       		.byte	-73
 894 00ad 02       		.byte	2
 895 00ae B9       		.byte	-71
 896 00af 80       		.byte	-128
 897 00b0 BF       		.byte	-65
 898 00b1 04       		.byte	4
 899 00b2 C0       		.byte	-64
 900 00b3 50       		.byte	80
 901 00b4 C1       		.byte	-63
 902 00b5 06       		.byte	6
 903 00b6 C5       		.byte	-59
 904 00b7 D0       		.byte	-48
 905 00b8 C6       		.byte	-58
 906 00b9 20       		.byte	32
 907 00ba C7       		.byte	-57
 908 00bb 01       		.byte	1
 909 00bc C8       		.byte	-56
 910 00bd 1A       		.byte	26
 911 00be C9       		.byte	-55
 912 00bf FF       		.byte	-1
 913 00c0 CA       		.byte	-54
 914 00c1 FF       		.byte	-1
 915 00c2 CB       		.byte	-53
 916 00c3 FF       		.byte	-1
 917 00c4 CD       		.byte	-51
 918 00c5 A0       		.byte	-96
 919 00c6 CF       		.byte	-49
 920 00c7 04       		.byte	4
 921 00c8 D0       		.byte	-48
 922 00c9 18       		.byte	24
 923 00ca D2       		.byte	-46
 924 00cb 80       		.byte	-128
 925 00cc D4       		.byte	-44
 926 00cd 05       		.byte	5
 927 00ce D8       		.byte	-40
 928 00cf 04       		.byte	4
 929 00d0 D9       		.byte	-39
 930 00d1 04       		.byte	4
 931 00d2 DA       		.byte	-38
 932 00d3 04       		.byte	4
 933 00d4 DB       		.byte	-37
 934 00d5 04       		.byte	4
 935 00d6 DC       		.byte	-36
 936 00d7 13       		.byte	19
 937 00d8 DD       		.byte	-35
 938 00d9 33       		.byte	51
 939 00da DF       		.byte	-33
 940 00db 01       		.byte	1
 941 00dc E0       		.byte	-32
 942 00dd 40       		.byte	64
 943 00de E2       		.byte	-30
 944 00df C0       		.byte	-64
ARM GAS  C:\Users\GLENNL~1\AppData\Local\Temp\cccQ8SQ9.s 			page 28


 945 00e0 E4       		.byte	-28
 946 00e1 40       		.byte	64
 947 00e2 E5       		.byte	-27
 948 00e3 40       		.byte	64
 949 00e4 E6       		.byte	-26
 950 00e5 C0       		.byte	-64
 951 00e6 E8       		.byte	-24
 952 00e7 C0       		.byte	-64
 953 00e8 EA       		.byte	-22
 954 00e9 C0       		.byte	-64
 955 00ea EC       		.byte	-20
 956 00eb C0       		.byte	-64
 957 00ec EE       		.byte	-18
 958 00ed C0       		.byte	-64
 959 00ee 06       		.byte	6
 960 00ef 02       		.byte	2
 961 00f0 09       		.byte	9
 962 00f1 02       		.byte	2
 963 00f2 0A       		.byte	10
 964 00f3 04       		.byte	4
 965 00f4 10       		.byte	16
 966 00f5 08       		.byte	8
 967 00f6 16       		.byte	22
 968 00f7 08       		.byte	8
 969 00f8 17       		.byte	23
 970 00f9 42       		.byte	66
 971 00fa 19       		.byte	25
 972 00fb 40       		.byte	64
 973 00fc 1A       		.byte	26
 974 00fd 44       		.byte	68
 975 00fe 1B       		.byte	27
 976 00ff 08       		.byte	8
 977 0100 1C       		.byte	28
 978 0101 10       		.byte	16
 979 0102 1D       		.byte	29
 980 0103 20       		.byte	32
 981 0104 1E       		.byte	30
 982 0105 80       		.byte	-128
 983 0106 1F       		.byte	31
 984 0107 20       		.byte	32
 985 0108 22       		.byte	34
 986 0109 04       		.byte	4
 987 010a 23       		.byte	35
 988 010b 02       		.byte	2
 989 010c 25       		.byte	37
 990 010d 01       		.byte	1
 991 010e 26       		.byte	38
 992 010f 14       		.byte	20
 993 0110 27       		.byte	39
 994 0111 01       		.byte	1
 995 0112 29       		.byte	41
 996 0113 40       		.byte	64
 997 0114 2A       		.byte	42
 998 0115 02       		.byte	2
 999 0116 2F       		.byte	47
 1000 0117 28       		.byte	40
 1001 0118 37       		.byte	55
ARM GAS  C:\Users\GLENNL~1\AppData\Local\Temp\cccQ8SQ9.s 			page 29


 1002 0119 01       		.byte	1
 1003 011a 3A       		.byte	58
 1004 011b 08       		.byte	8
 1005 011c 3B       		.byte	59
 1006 011d 20       		.byte	32
 1007 011e 3C       		.byte	60
 1008 011f 10       		.byte	16
 1009 0120 3F       		.byte	63
 1010 0121 80       		.byte	-128
 1011 0122 45       		.byte	69
 1012 0123 20       		.byte	32
 1013 0124 49       		.byte	73
 1014 0125 41       		.byte	65
 1015 0126 4B       		.byte	75
 1016 0127 20       		.byte	32
 1017 0128 4D       		.byte	77
 1018 0129 01       		.byte	1
 1019 012a 4F       		.byte	79
 1020 012b 80       		.byte	-128
 1021 012c 50       		.byte	80
 1022 012d 08       		.byte	8
 1023 012e 53       		.byte	83
 1024 012f 10       		.byte	16
 1025 0130 56       		.byte	86
 1026 0131 0A       		.byte	10
 1027 0132 57       		.byte	87
 1028 0133 40       		.byte	64
 1029 0134 59       		.byte	89
 1030 0135 01       		.byte	1
 1031 0136 5A       		.byte	90
 1032 0137 48       		.byte	72
 1033 0138 5D       		.byte	93
 1034 0139 01       		.byte	1
 1035 013a 5E       		.byte	94
 1036 013b 88       		.byte	-120
 1037 013c 71       		.byte	113
 1038 013d 02       		.byte	2
 1039 013e 77       		.byte	119
 1040 013f 40       		.byte	64
 1041 0140 7E       		.byte	126
 1042 0141 02       		.byte	2
 1043 0142 86       		.byte	-122
 1044 0143 10       		.byte	16
 1045 0144 A2       		.byte	-94
 1046 0145 02       		.byte	2
 1047 0146 A5       		.byte	-91
 1048 0147 01       		.byte	1
 1049 0148 B2       		.byte	-78
 1050 0149 02       		.byte	2
 1051 014a C0       		.byte	-64
 1052 014b 80       		.byte	-128
 1053 014c C2       		.byte	-62
 1054 014d 0A       		.byte	10
 1055 014e C4       		.byte	-60
 1056 014f D2       		.byte	-46
 1057 0150 CA       		.byte	-54
 1058 0151 69       		.byte	105
ARM GAS  C:\Users\GLENNL~1\AppData\Local\Temp\cccQ8SQ9.s 			page 30


 1059 0152 CC       		.byte	-52
 1060 0153 80       		.byte	-128
 1061 0154 CE       		.byte	-50
 1062 0155 36       		.byte	54
 1063 0156 D0       		.byte	-48
 1064 0157 20       		.byte	32
 1065 0158 D2       		.byte	-46
 1066 0159 1C       		.byte	28
 1067 015a D6       		.byte	-42
 1068 015b DB       		.byte	-37
 1069 015c DE       		.byte	-34
 1070 015d 10       		.byte	16
 1071 015e E4       		.byte	-28
 1072 015f 08       		.byte	8
 1073 0160 0D       		.byte	13
 1074 0161 10       		.byte	16
 1075 0162 60       		.byte	96
 1076 0163 10       		.byte	16
 1077 0164 8C       		.byte	-116
 1078 0165 10       		.byte	16
 1079 0166 C2       		.byte	-62
 1080 0167 01       		.byte	1
 1081 0168 D8       		.byte	-40
 1082 0169 02       		.byte	2
 1083 016a E0       		.byte	-32
 1084 016b 08       		.byte	8
 1085 016c 63       		.byte	99
 1086 016d 02       		.byte	2
 1087 016e 87       		.byte	-121
 1088 016f 01       		.byte	1
 1089 0170 B1       		.byte	-79
 1090 0171 10       		.byte	16
 1091 0172 D6       		.byte	-42
 1092 0173 02       		.byte	2
 1093 0174 EE       		.byte	-18
 1094 0175 04       		.byte	4
 1095 0176 10       		.byte	16
 1096 0177 0A       		.byte	10
 1097 0178 11       		.byte	17
 1098 0179 01       		.byte	1
 1099 017a 0000     		.text
 1100              	.Letext0:
 1101              		.file 2 "c:\\program files\\cypress\\psoc creator\\3.1\\psoc creator\\import\\gnu_cs\\arm\\4.8.4\\
 1102              		.file 3 ".\\Generated_Source\\PSoC4/cytypes.h"