ARM GAS  C:\Users\GLENNL~1\AppData\Local\Temp\ccBfd2Yn.s 			page 1


   1              		.cpu cortex-m0
   2              		.fpu softvfp
   3              		.eabi_attribute 20, 1
   4              		.eabi_attribute 21, 1
   5              		.eabi_attribute 23, 3
   6              		.eabi_attribute 24, 1
   7              		.eabi_attribute 25, 1
   8              		.eabi_attribute 26, 1
   9              		.eabi_attribute 30, 6
  10              		.eabi_attribute 34, 0
  11              		.eabi_attribute 18, 4
  12              		.code	16
  13              		.file	"SW1.c"
  14              		.text
  15              	.Ltext0:
  16              		.cfi_sections	.debug_frame
  17              		.section	.text.SW1_Write,"ax",%progbits
  18              		.align	2
  19              		.global	SW1_Write
  20              		.code	16
  21              		.thumb_func
  22              		.type	SW1_Write, %function
  23              	SW1_Write:
  24              	.LFB0:
  25              		.file 1 ".\\Generated_Source\\PSoC4\\SW1.c"
   1:.\Generated_Source\PSoC4/SW1.c **** /*******************************************************************************
   2:.\Generated_Source\PSoC4/SW1.c **** * File Name: SW1.c  
   3:.\Generated_Source\PSoC4/SW1.c **** * Version 2.10
   4:.\Generated_Source\PSoC4/SW1.c **** *
   5:.\Generated_Source\PSoC4/SW1.c **** * Description:
   6:.\Generated_Source\PSoC4/SW1.c **** *  This file contains API to enable firmware control of a Pins component.
   7:.\Generated_Source\PSoC4/SW1.c **** *
   8:.\Generated_Source\PSoC4/SW1.c **** * Note:
   9:.\Generated_Source\PSoC4/SW1.c **** *
  10:.\Generated_Source\PSoC4/SW1.c **** ********************************************************************************
  11:.\Generated_Source\PSoC4/SW1.c **** * Copyright 2008-2014, Cypress Semiconductor Corporation.  All rights reserved.
  12:.\Generated_Source\PSoC4/SW1.c **** * You may use this file only in accordance with the license, terms, conditions, 
  13:.\Generated_Source\PSoC4/SW1.c **** * disclaimers, and limitations in the end user license agreement accompanying 
  14:.\Generated_Source\PSoC4/SW1.c **** * the software package with which this file was provided.
  15:.\Generated_Source\PSoC4/SW1.c **** *******************************************************************************/
  16:.\Generated_Source\PSoC4/SW1.c **** 
  17:.\Generated_Source\PSoC4/SW1.c **** #include "cytypes.h"
  18:.\Generated_Source\PSoC4/SW1.c **** #include "SW1.h"
  19:.\Generated_Source\PSoC4/SW1.c **** 
  20:.\Generated_Source\PSoC4/SW1.c **** #define SetP4PinDriveMode(shift, mode)  \
  21:.\Generated_Source\PSoC4/SW1.c ****     do { \
  22:.\Generated_Source\PSoC4/SW1.c ****         SW1_PC =   (SW1_PC & \
  23:.\Generated_Source\PSoC4/SW1.c ****                                 (uint32)(~(uint32)(SW1_DRIVE_MODE_IND_MASK << (SW1_DRIVE_MODE_BITS 
  24:.\Generated_Source\PSoC4/SW1.c ****                                 (uint32)((uint32)(mode) << (SW1_DRIVE_MODE_BITS * (shift))); \
  25:.\Generated_Source\PSoC4/SW1.c ****     } while (0)
  26:.\Generated_Source\PSoC4/SW1.c **** 
  27:.\Generated_Source\PSoC4/SW1.c **** 
  28:.\Generated_Source\PSoC4/SW1.c **** /*******************************************************************************
  29:.\Generated_Source\PSoC4/SW1.c **** * Function Name: SW1_Write
  30:.\Generated_Source\PSoC4/SW1.c **** ********************************************************************************
  31:.\Generated_Source\PSoC4/SW1.c **** *
  32:.\Generated_Source\PSoC4/SW1.c **** * Summary:
ARM GAS  C:\Users\GLENNL~1\AppData\Local\Temp\ccBfd2Yn.s 			page 2


  33:.\Generated_Source\PSoC4/SW1.c **** *  Assign a new value to the digital port's data output register.  
  34:.\Generated_Source\PSoC4/SW1.c **** *
  35:.\Generated_Source\PSoC4/SW1.c **** * Parameters:  
  36:.\Generated_Source\PSoC4/SW1.c **** *  prtValue:  The value to be assigned to the Digital Port. 
  37:.\Generated_Source\PSoC4/SW1.c **** *
  38:.\Generated_Source\PSoC4/SW1.c **** * Return: 
  39:.\Generated_Source\PSoC4/SW1.c **** *  None 
  40:.\Generated_Source\PSoC4/SW1.c **** *  
  41:.\Generated_Source\PSoC4/SW1.c **** *******************************************************************************/
  42:.\Generated_Source\PSoC4/SW1.c **** void SW1_Write(uint8 value) 
  43:.\Generated_Source\PSoC4/SW1.c **** {
  26              		.loc 1 43 0
  27              		.cfi_startproc
  28 0000 80B5     		push	{r7, lr}
  29              		.cfi_def_cfa_offset 8
  30              		.cfi_offset 7, -8
  31              		.cfi_offset 14, -4
  32 0002 84B0     		sub	sp, sp, #16
  33              		.cfi_def_cfa_offset 24
  34 0004 00AF     		add	r7, sp, #0
  35              		.cfi_def_cfa_register 7
  36 0006 021C     		mov	r2, r0
  37 0008 FB1D     		add	r3, r7, #7
  38 000a 1A70     		strb	r2, [r3]
  44:.\Generated_Source\PSoC4/SW1.c ****     uint8 drVal = (uint8)(SW1_DR & (uint8)(~SW1_MASK));
  39              		.loc 1 44 0
  40 000c 0D4B     		ldr	r3, .L2
  41 000e 1B68     		ldr	r3, [r3]
  42 0010 D9B2     		uxtb	r1, r3
  43 0012 3B1C     		mov	r3, r7
  44 0014 0F33     		add	r3, r3, #15
  45 0016 7F22     		mov	r2, #127
  46 0018 0A40     		and	r2, r1
  47 001a 1A70     		strb	r2, [r3]
  45:.\Generated_Source\PSoC4/SW1.c ****     drVal = (drVal | ((uint8)(value << SW1_SHIFT) & SW1_MASK));
  48              		.loc 1 45 0
  49 001c FB1D     		add	r3, r7, #7
  50 001e 1B78     		ldrb	r3, [r3]
  51 0020 DB01     		lsl	r3, r3, #7
  52 0022 D9B2     		uxtb	r1, r3
  53 0024 3B1C     		mov	r3, r7
  54 0026 0F33     		add	r3, r3, #15
  55 0028 3A1C     		mov	r2, r7
  56 002a 0F32     		add	r2, r2, #15
  57 002c 1278     		ldrb	r2, [r2]
  58 002e 0A43     		orr	r2, r1
  59 0030 1A70     		strb	r2, [r3]
  46:.\Generated_Source\PSoC4/SW1.c ****     SW1_DR = (uint32)drVal;
  60              		.loc 1 46 0
  61 0032 044B     		ldr	r3, .L2
  62 0034 3A1C     		mov	r2, r7
  63 0036 0F32     		add	r2, r2, #15
  64 0038 1278     		ldrb	r2, [r2]
  65 003a 1A60     		str	r2, [r3]
  47:.\Generated_Source\PSoC4/SW1.c **** }
  66              		.loc 1 47 0
  67 003c BD46     		mov	sp, r7
ARM GAS  C:\Users\GLENNL~1\AppData\Local\Temp\ccBfd2Yn.s 			page 3


  68 003e 04B0     		add	sp, sp, #16
  69              		@ sp needed
  70 0040 80BD     		pop	{r7, pc}
  71              	.L3:
  72 0042 C046     		.align	2
  73              	.L2:
  74 0044 00020440 		.word	1074004480
  75              		.cfi_endproc
  76              	.LFE0:
  77              		.size	SW1_Write, .-SW1_Write
  78              		.section	.text.SW1_SetDriveMode,"ax",%progbits
  79              		.align	2
  80              		.global	SW1_SetDriveMode
  81              		.code	16
  82              		.thumb_func
  83              		.type	SW1_SetDriveMode, %function
  84              	SW1_SetDriveMode:
  85              	.LFB1:
  48:.\Generated_Source\PSoC4/SW1.c **** 
  49:.\Generated_Source\PSoC4/SW1.c **** 
  50:.\Generated_Source\PSoC4/SW1.c **** /*******************************************************************************
  51:.\Generated_Source\PSoC4/SW1.c **** * Function Name: SW1_SetDriveMode
  52:.\Generated_Source\PSoC4/SW1.c **** ********************************************************************************
  53:.\Generated_Source\PSoC4/SW1.c **** *
  54:.\Generated_Source\PSoC4/SW1.c **** * Summary:
  55:.\Generated_Source\PSoC4/SW1.c **** *  Change the drive mode on the pins of the port.
  56:.\Generated_Source\PSoC4/SW1.c **** * 
  57:.\Generated_Source\PSoC4/SW1.c **** * Parameters:  
  58:.\Generated_Source\PSoC4/SW1.c **** *  mode:  Change the pins to one of the following drive modes.
  59:.\Generated_Source\PSoC4/SW1.c **** *
  60:.\Generated_Source\PSoC4/SW1.c **** *  SW1_DM_STRONG     Strong Drive 
  61:.\Generated_Source\PSoC4/SW1.c **** *  SW1_DM_OD_HI      Open Drain, Drives High 
  62:.\Generated_Source\PSoC4/SW1.c **** *  SW1_DM_OD_LO      Open Drain, Drives Low 
  63:.\Generated_Source\PSoC4/SW1.c **** *  SW1_DM_RES_UP     Resistive Pull Up 
  64:.\Generated_Source\PSoC4/SW1.c **** *  SW1_DM_RES_DWN    Resistive Pull Down 
  65:.\Generated_Source\PSoC4/SW1.c **** *  SW1_DM_RES_UPDWN  Resistive Pull Up/Down 
  66:.\Generated_Source\PSoC4/SW1.c **** *  SW1_DM_DIG_HIZ    High Impedance Digital 
  67:.\Generated_Source\PSoC4/SW1.c **** *  SW1_DM_ALG_HIZ    High Impedance Analog 
  68:.\Generated_Source\PSoC4/SW1.c **** *
  69:.\Generated_Source\PSoC4/SW1.c **** * Return: 
  70:.\Generated_Source\PSoC4/SW1.c **** *  None
  71:.\Generated_Source\PSoC4/SW1.c **** *
  72:.\Generated_Source\PSoC4/SW1.c **** *******************************************************************************/
  73:.\Generated_Source\PSoC4/SW1.c **** void SW1_SetDriveMode(uint8 mode) 
  74:.\Generated_Source\PSoC4/SW1.c **** {
  86              		.loc 1 74 0
  87              		.cfi_startproc
  88 0000 80B5     		push	{r7, lr}
  89              		.cfi_def_cfa_offset 8
  90              		.cfi_offset 7, -8
  91              		.cfi_offset 14, -4
  92 0002 82B0     		sub	sp, sp, #8
  93              		.cfi_def_cfa_offset 16
  94 0004 00AF     		add	r7, sp, #0
  95              		.cfi_def_cfa_register 7
  96 0006 021C     		mov	r2, r0
  97 0008 FB1D     		add	r3, r7, #7
ARM GAS  C:\Users\GLENNL~1\AppData\Local\Temp\ccBfd2Yn.s 			page 4


  98 000a 1A70     		strb	r2, [r3]
  75:.\Generated_Source\PSoC4/SW1.c **** 	SetP4PinDriveMode(SW1__0__SHIFT, mode);
  99              		.loc 1 75 0
 100 000c 064B     		ldr	r3, .L5
 101 000e 064A     		ldr	r2, .L5
 102 0010 1168     		ldr	r1, [r2]
 103 0012 064A     		ldr	r2, .L5+4
 104 0014 1140     		and	r1, r2
 105 0016 FA1D     		add	r2, r7, #7
 106 0018 1278     		ldrb	r2, [r2]
 107 001a 5205     		lsl	r2, r2, #21
 108 001c 0A43     		orr	r2, r1
 109 001e 1A60     		str	r2, [r3]
  76:.\Generated_Source\PSoC4/SW1.c **** }
 110              		.loc 1 76 0
 111 0020 BD46     		mov	sp, r7
 112 0022 02B0     		add	sp, sp, #8
 113              		@ sp needed
 114 0024 80BD     		pop	{r7, pc}
 115              	.L6:
 116 0026 C046     		.align	2
 117              	.L5:
 118 0028 08020440 		.word	1074004488
 119 002c FFFF1FFF 		.word	-14680065
 120              		.cfi_endproc
 121              	.LFE1:
 122              		.size	SW1_SetDriveMode, .-SW1_SetDriveMode
 123              		.section	.text.SW1_Read,"ax",%progbits
 124              		.align	2
 125              		.global	SW1_Read
 126              		.code	16
 127              		.thumb_func
 128              		.type	SW1_Read, %function
 129              	SW1_Read:
 130              	.LFB2:
  77:.\Generated_Source\PSoC4/SW1.c **** 
  78:.\Generated_Source\PSoC4/SW1.c **** 
  79:.\Generated_Source\PSoC4/SW1.c **** /*******************************************************************************
  80:.\Generated_Source\PSoC4/SW1.c **** * Function Name: SW1_Read
  81:.\Generated_Source\PSoC4/SW1.c **** ********************************************************************************
  82:.\Generated_Source\PSoC4/SW1.c **** *
  83:.\Generated_Source\PSoC4/SW1.c **** * Summary:
  84:.\Generated_Source\PSoC4/SW1.c **** *  Read the current value on the pins of the Digital Port in right justified 
  85:.\Generated_Source\PSoC4/SW1.c **** *  form.
  86:.\Generated_Source\PSoC4/SW1.c **** *
  87:.\Generated_Source\PSoC4/SW1.c **** * Parameters:  
  88:.\Generated_Source\PSoC4/SW1.c **** *  None 
  89:.\Generated_Source\PSoC4/SW1.c **** *
  90:.\Generated_Source\PSoC4/SW1.c **** * Return: 
  91:.\Generated_Source\PSoC4/SW1.c **** *  Returns the current value of the Digital Port as a right justified number
  92:.\Generated_Source\PSoC4/SW1.c **** *  
  93:.\Generated_Source\PSoC4/SW1.c **** * Note:
  94:.\Generated_Source\PSoC4/SW1.c **** *  Macro SW1_ReadPS calls this function. 
  95:.\Generated_Source\PSoC4/SW1.c **** *  
  96:.\Generated_Source\PSoC4/SW1.c **** *******************************************************************************/
  97:.\Generated_Source\PSoC4/SW1.c **** uint8 SW1_Read(void) 
  98:.\Generated_Source\PSoC4/SW1.c **** {
ARM GAS  C:\Users\GLENNL~1\AppData\Local\Temp\ccBfd2Yn.s 			page 5


 131              		.loc 1 98 0
 132              		.cfi_startproc
 133 0000 80B5     		push	{r7, lr}
 134              		.cfi_def_cfa_offset 8
 135              		.cfi_offset 7, -8
 136              		.cfi_offset 14, -4
 137 0002 00AF     		add	r7, sp, #0
 138              		.cfi_def_cfa_register 7
  99:.\Generated_Source\PSoC4/SW1.c ****     return (uint8)((SW1_PS & SW1_MASK) >> SW1_SHIFT);
 139              		.loc 1 99 0
 140 0004 044B     		ldr	r3, .L9
 141 0006 1A68     		ldr	r2, [r3]
 142 0008 8023     		mov	r3, #128
 143 000a 1340     		and	r3, r2
 144 000c DB09     		lsr	r3, r3, #7
 145 000e DBB2     		uxtb	r3, r3
 100:.\Generated_Source\PSoC4/SW1.c **** }
 146              		.loc 1 100 0
 147 0010 181C     		mov	r0, r3
 148 0012 BD46     		mov	sp, r7
 149              		@ sp needed
 150 0014 80BD     		pop	{r7, pc}
 151              	.L10:
 152 0016 C046     		.align	2
 153              	.L9:
 154 0018 04020440 		.word	1074004484
 155              		.cfi_endproc
 156              	.LFE2:
 157              		.size	SW1_Read, .-SW1_Read
 158              		.section	.text.SW1_ReadDataReg,"ax",%progbits
 159              		.align	2
 160              		.global	SW1_ReadDataReg
 161              		.code	16
 162              		.thumb_func
 163              		.type	SW1_ReadDataReg, %function
 164              	SW1_ReadDataReg:
 165              	.LFB3:
 101:.\Generated_Source\PSoC4/SW1.c **** 
 102:.\Generated_Source\PSoC4/SW1.c **** 
 103:.\Generated_Source\PSoC4/SW1.c **** /*******************************************************************************
 104:.\Generated_Source\PSoC4/SW1.c **** * Function Name: SW1_ReadDataReg
 105:.\Generated_Source\PSoC4/SW1.c **** ********************************************************************************
 106:.\Generated_Source\PSoC4/SW1.c **** *
 107:.\Generated_Source\PSoC4/SW1.c **** * Summary:
 108:.\Generated_Source\PSoC4/SW1.c **** *  Read the current value assigned to a Digital Port's data output register
 109:.\Generated_Source\PSoC4/SW1.c **** *
 110:.\Generated_Source\PSoC4/SW1.c **** * Parameters:  
 111:.\Generated_Source\PSoC4/SW1.c **** *  None 
 112:.\Generated_Source\PSoC4/SW1.c **** *
 113:.\Generated_Source\PSoC4/SW1.c **** * Return: 
 114:.\Generated_Source\PSoC4/SW1.c **** *  Returns the current value assigned to the Digital Port's data output register
 115:.\Generated_Source\PSoC4/SW1.c **** *  
 116:.\Generated_Source\PSoC4/SW1.c **** *******************************************************************************/
 117:.\Generated_Source\PSoC4/SW1.c **** uint8 SW1_ReadDataReg(void) 
 118:.\Generated_Source\PSoC4/SW1.c **** {
 166              		.loc 1 118 0
 167              		.cfi_startproc
ARM GAS  C:\Users\GLENNL~1\AppData\Local\Temp\ccBfd2Yn.s 			page 6


 168 0000 80B5     		push	{r7, lr}
 169              		.cfi_def_cfa_offset 8
 170              		.cfi_offset 7, -8
 171              		.cfi_offset 14, -4
 172 0002 00AF     		add	r7, sp, #0
 173              		.cfi_def_cfa_register 7
 119:.\Generated_Source\PSoC4/SW1.c ****     return (uint8)((SW1_DR & SW1_MASK) >> SW1_SHIFT);
 174              		.loc 1 119 0
 175 0004 044B     		ldr	r3, .L13
 176 0006 1A68     		ldr	r2, [r3]
 177 0008 8023     		mov	r3, #128
 178 000a 1340     		and	r3, r2
 179 000c DB09     		lsr	r3, r3, #7
 180 000e DBB2     		uxtb	r3, r3
 120:.\Generated_Source\PSoC4/SW1.c **** }
 181              		.loc 1 120 0
 182 0010 181C     		mov	r0, r3
 183 0012 BD46     		mov	sp, r7
 184              		@ sp needed
 185 0014 80BD     		pop	{r7, pc}
 186              	.L14:
 187 0016 C046     		.align	2
 188              	.L13:
 189 0018 00020440 		.word	1074004480
 190              		.cfi_endproc
 191              	.LFE3:
 192              		.size	SW1_ReadDataReg, .-SW1_ReadDataReg
 193              		.section	.text.SW1_ClearInterrupt,"ax",%progbits
 194              		.align	2
 195              		.global	SW1_ClearInterrupt
 196              		.code	16
 197              		.thumb_func
 198              		.type	SW1_ClearInterrupt, %function
 199              	SW1_ClearInterrupt:
 200              	.LFB4:
 121:.\Generated_Source\PSoC4/SW1.c **** 
 122:.\Generated_Source\PSoC4/SW1.c **** 
 123:.\Generated_Source\PSoC4/SW1.c **** /* If Interrupts Are Enabled for this Pins component */ 
 124:.\Generated_Source\PSoC4/SW1.c **** #if defined(SW1_INTSTAT) 
 125:.\Generated_Source\PSoC4/SW1.c **** 
 126:.\Generated_Source\PSoC4/SW1.c ****     /*******************************************************************************
 127:.\Generated_Source\PSoC4/SW1.c ****     * Function Name: SW1_ClearInterrupt
 128:.\Generated_Source\PSoC4/SW1.c ****     ********************************************************************************
 129:.\Generated_Source\PSoC4/SW1.c ****     *
 130:.\Generated_Source\PSoC4/SW1.c ****     * Summary:
 131:.\Generated_Source\PSoC4/SW1.c ****     *  Clears any active interrupts attached to port and returns the value of the 
 132:.\Generated_Source\PSoC4/SW1.c ****     *  interrupt status register.
 133:.\Generated_Source\PSoC4/SW1.c ****     *
 134:.\Generated_Source\PSoC4/SW1.c ****     * Parameters:  
 135:.\Generated_Source\PSoC4/SW1.c ****     *  None 
 136:.\Generated_Source\PSoC4/SW1.c ****     *
 137:.\Generated_Source\PSoC4/SW1.c ****     * Return: 
 138:.\Generated_Source\PSoC4/SW1.c ****     *  Returns the value of the interrupt status register
 139:.\Generated_Source\PSoC4/SW1.c ****     *  
 140:.\Generated_Source\PSoC4/SW1.c ****     *******************************************************************************/
 141:.\Generated_Source\PSoC4/SW1.c ****     uint8 SW1_ClearInterrupt(void) 
 142:.\Generated_Source\PSoC4/SW1.c ****     {
ARM GAS  C:\Users\GLENNL~1\AppData\Local\Temp\ccBfd2Yn.s 			page 7


 201              		.loc 1 142 0
 202              		.cfi_startproc
 203 0000 80B5     		push	{r7, lr}
 204              		.cfi_def_cfa_offset 8
 205              		.cfi_offset 7, -8
 206              		.cfi_offset 14, -4
 207 0002 82B0     		sub	sp, sp, #8
 208              		.cfi_def_cfa_offset 16
 209 0004 00AF     		add	r7, sp, #0
 210              		.cfi_def_cfa_register 7
 143:.\Generated_Source\PSoC4/SW1.c **** 		uint8 maskedStatus = (uint8)(SW1_INTSTAT & SW1_MASK);
 211              		.loc 1 143 0
 212 0006 094B     		ldr	r3, .L17
 213 0008 1B68     		ldr	r3, [r3]
 214 000a DAB2     		uxtb	r2, r3
 215 000c FB1D     		add	r3, r7, #7
 216 000e 7F21     		mov	r1, #127
 217 0010 8A43     		bic	r2, r1
 218 0012 1A70     		strb	r2, [r3]
 144:.\Generated_Source\PSoC4/SW1.c **** 		SW1_INTSTAT = maskedStatus;
 219              		.loc 1 144 0
 220 0014 054B     		ldr	r3, .L17
 221 0016 FA1D     		add	r2, r7, #7
 222 0018 1278     		ldrb	r2, [r2]
 223 001a 1A60     		str	r2, [r3]
 145:.\Generated_Source\PSoC4/SW1.c ****         return maskedStatus >> SW1_SHIFT;
 224              		.loc 1 145 0
 225 001c FB1D     		add	r3, r7, #7
 226 001e 1B78     		ldrb	r3, [r3]
 227 0020 DB09     		lsr	r3, r3, #7
 228 0022 DBB2     		uxtb	r3, r3
 146:.\Generated_Source\PSoC4/SW1.c ****     }
 229              		.loc 1 146 0
 230 0024 181C     		mov	r0, r3
 231 0026 BD46     		mov	sp, r7
 232 0028 02B0     		add	sp, sp, #8
 233              		@ sp needed
 234 002a 80BD     		pop	{r7, pc}
 235              	.L18:
 236              		.align	2
 237              	.L17:
 238 002c 10020440 		.word	1074004496
 239              		.cfi_endproc
 240              	.LFE4:
 241              		.size	SW1_ClearInterrupt, .-SW1_ClearInterrupt
 242              		.text
 243              	.Letext0:
 244              		.file 2 ".\\Generated_Source\\PSoC4\\cytypes.h"