ARM GAS  C:\Users\maxk\AppData\Local\Temp\ccdyFgNe.s 			page 1


   1              		.cpu cortex-m0
   2              		.fpu softvfp
   3              		.eabi_attribute 20, 1
   4              		.eabi_attribute 21, 1
   5              		.eabi_attribute 23, 3
   6              		.eabi_attribute 24, 1
   7              		.eabi_attribute 25, 1
   8              		.eabi_attribute 26, 1
   9              		.eabi_attribute 30, 6
  10              		.eabi_attribute 18, 4
  11              		.code	16
  12              		.file	"core_cm0.c"
  19 0000 BE010000 		.text
  19      0200E000 
  19      00000201 
  19      FB0E0D00 
  19      01010101 
  20              	.Ltext0:
  21              		.cfi_sections	.debug_frame
  22              		.section	.text.__get_PSP,"ax",%progbits
  23              		.align	2
  24              		.global	__get_PSP
  25              		.code	16
  26              		.thumb_func
  27              		.type	__get_PSP, %function
  28              	__get_PSP:
  29              	.LFB0:
  30              		.file 1 ".\\Generated_Source\\PSoC4\\core_cm0.c"
   1:.\Generated_Source\PSoC4/core_cm0.c **** /******************************************************************************
   2:.\Generated_Source\PSoC4/core_cm0.c ****  * @file     core_cm0.c
   3:.\Generated_Source\PSoC4/core_cm0.c ****  * @brief    CMSIS Cortex-M0 Core Peripheral Access Layer Source File
   4:.\Generated_Source\PSoC4/core_cm0.c ****  * @version  V1.30
   5:.\Generated_Source\PSoC4/core_cm0.c ****  * @date     30. October 2009
   6:.\Generated_Source\PSoC4/core_cm0.c ****  *
   7:.\Generated_Source\PSoC4/core_cm0.c ****  * @note
   8:.\Generated_Source\PSoC4/core_cm0.c ****  * Copyright (C) 2009 ARM Limited. All rights reserved.
   9:.\Generated_Source\PSoC4/core_cm0.c ****  *
  10:.\Generated_Source\PSoC4/core_cm0.c ****  * @par
  11:.\Generated_Source\PSoC4/core_cm0.c ****  * ARM Limited (ARM) is supplying this software for use with Cortex-M
  12:.\Generated_Source\PSoC4/core_cm0.c ****  * processor based microcontrollers.  This file can be freely distributed
  13:.\Generated_Source\PSoC4/core_cm0.c ****  * within development tools that are supporting such ARM based processors.
  14:.\Generated_Source\PSoC4/core_cm0.c ****  *
  15:.\Generated_Source\PSoC4/core_cm0.c ****  * @par
  16:.\Generated_Source\PSoC4/core_cm0.c ****  * THIS SOFTWARE IS PROVIDED "AS IS".  NO WARRANTIES, WHETHER EXPRESS, IMPLIED
  17:.\Generated_Source\PSoC4/core_cm0.c ****  * OR STATUTORY, INCLUDING, BUT NOT LIMITED TO, IMPLIED WARRANTIES OF
  18:.\Generated_Source\PSoC4/core_cm0.c ****  * MERCHANTABILITY AND FITNESS FOR A PARTICULAR PURPOSE APPLY TO THIS SOFTWARE.
  19:.\Generated_Source\PSoC4/core_cm0.c ****  * ARM SHALL NOT, IN ANY CIRCUMSTANCES, BE LIABLE FOR SPECIAL, INCIDENTAL, OR
  20:.\Generated_Source\PSoC4/core_cm0.c ****  * CONSEQUENTIAL DAMAGES, FOR ANY REASON WHATSOEVER.
  21:.\Generated_Source\PSoC4/core_cm0.c ****  *
  22:.\Generated_Source\PSoC4/core_cm0.c ****  ******************************************************************************/
  23:.\Generated_Source\PSoC4/core_cm0.c **** 
ARM GAS  C:\Users\maxk\AppData\Local\Temp\ccdyFgNe.s 			page 2


  24:.\Generated_Source\PSoC4/core_cm0.c **** #include <stdint.h>
  25:.\Generated_Source\PSoC4/core_cm0.c **** 
  26:.\Generated_Source\PSoC4/core_cm0.c **** /* define compiler specific symbols */
  27:.\Generated_Source\PSoC4/core_cm0.c **** #if defined ( __CC_ARM   )
  28:.\Generated_Source\PSoC4/core_cm0.c ****   #define __ASM            __asm                                      /*!< asm keyword for ARM Comp
  29:.\Generated_Source\PSoC4/core_cm0.c ****   #define __INLINE         __inline                                   /*!< inline keyword for ARM C
  30:.\Generated_Source\PSoC4/core_cm0.c **** 
  31:.\Generated_Source\PSoC4/core_cm0.c **** #elif defined ( __ICCARM__ )
  32:.\Generated_Source\PSoC4/core_cm0.c ****   #define __ASM           __asm                                       /*!< asm keyword for IAR Comp
  33:.\Generated_Source\PSoC4/core_cm0.c ****   #define __INLINE        inline                                      /*!< inline keyword for IAR C
  34:.\Generated_Source\PSoC4/core_cm0.c **** 
  35:.\Generated_Source\PSoC4/core_cm0.c **** #elif defined   (  __GNUC__  )
  36:.\Generated_Source\PSoC4/core_cm0.c ****   #define __ASM            __asm                                      /*!< asm keyword for GNU Comp
  37:.\Generated_Source\PSoC4/core_cm0.c ****   #define __INLINE         inline                                     /*!< inline keyword for GNU C
  38:.\Generated_Source\PSoC4/core_cm0.c **** 
  39:.\Generated_Source\PSoC4/core_cm0.c **** #elif defined   (  __TASKING__  )
  40:.\Generated_Source\PSoC4/core_cm0.c ****   #define __ASM            __asm                                      /*!< asm keyword for TASKING 
  41:.\Generated_Source\PSoC4/core_cm0.c ****   #define __INLINE         inline                                     /*!< inline keyword for TASKI
  42:.\Generated_Source\PSoC4/core_cm0.c **** 
  43:.\Generated_Source\PSoC4/core_cm0.c **** #endif
  44:.\Generated_Source\PSoC4/core_cm0.c **** 
  45:.\Generated_Source\PSoC4/core_cm0.c **** 
  46:.\Generated_Source\PSoC4/core_cm0.c **** /* ###################  Compiler specific Intrinsics  ########################### */
  47:.\Generated_Source\PSoC4/core_cm0.c **** 
  48:.\Generated_Source\PSoC4/core_cm0.c **** #if defined ( __CC_ARM   ) /*------------------RealView Compiler -----------------*/
  49:.\Generated_Source\PSoC4/core_cm0.c **** /* ARM armcc specific functions */
  50:.\Generated_Source\PSoC4/core_cm0.c **** 
  51:.\Generated_Source\PSoC4/core_cm0.c **** /**
  52:.\Generated_Source\PSoC4/core_cm0.c ****  * @brief  Return the Process Stack Pointer
  53:.\Generated_Source\PSoC4/core_cm0.c ****  *
  54:.\Generated_Source\PSoC4/core_cm0.c ****  * @return ProcessStackPointer
  55:.\Generated_Source\PSoC4/core_cm0.c ****  *
  56:.\Generated_Source\PSoC4/core_cm0.c ****  * Return the actual process stack pointer
  57:.\Generated_Source\PSoC4/core_cm0.c ****  */
  58:.\Generated_Source\PSoC4/core_cm0.c **** __ASM uint32_t __get_PSP(void)
  59:.\Generated_Source\PSoC4/core_cm0.c **** {
  60:.\Generated_Source\PSoC4/core_cm0.c ****   mrs r0, psp
  61:.\Generated_Source\PSoC4/core_cm0.c ****   bx lr
  62:.\Generated_Source\PSoC4/core_cm0.c **** }
  63:.\Generated_Source\PSoC4/core_cm0.c **** 
  64:.\Generated_Source\PSoC4/core_cm0.c **** /**
  65:.\Generated_Source\PSoC4/core_cm0.c ****  * @brief  Set the Process Stack Pointer
  66:.\Generated_Source\PSoC4/core_cm0.c ****  *
  67:.\Generated_Source\PSoC4/core_cm0.c ****  * @param  topOfProcStack  Process Stack Pointer
  68:.\Generated_Source\PSoC4/core_cm0.c ****  *
  69:.\Generated_Source\PSoC4/core_cm0.c ****  * Assign the value ProcessStackPointer to the MSP
  70:.\Generated_Source\PSoC4/core_cm0.c ****  * (process stack pointer) Cortex processor register
  71:.\Generated_Source\PSoC4/core_cm0.c ****  */
  72:.\Generated_Source\PSoC4/core_cm0.c **** __ASM void __set_PSP(uint32_t topOfProcStack)
  73:.\Generated_Source\PSoC4/core_cm0.c **** {
  74:.\Generated_Source\PSoC4/core_cm0.c ****   msr psp, r0
  75:.\Generated_Source\PSoC4/core_cm0.c ****   bx lr
  76:.\Generated_Source\PSoC4/core_cm0.c **** }
  77:.\Generated_Source\PSoC4/core_cm0.c **** 
  78:.\Generated_Source\PSoC4/core_cm0.c **** /**
  79:.\Generated_Source\PSoC4/core_cm0.c ****  * @brief  Return the Main Stack Pointer
  80:.\Generated_Source\PSoC4/core_cm0.c ****  *
ARM GAS  C:\Users\maxk\AppData\Local\Temp\ccdyFgNe.s 			page 3


  81:.\Generated_Source\PSoC4/core_cm0.c ****  * @return Main Stack Pointer
  82:.\Generated_Source\PSoC4/core_cm0.c ****  *
  83:.\Generated_Source\PSoC4/core_cm0.c ****  * Return the current value of the MSP (main stack pointer)
  84:.\Generated_Source\PSoC4/core_cm0.c ****  * Cortex processor register
  85:.\Generated_Source\PSoC4/core_cm0.c ****  */
  86:.\Generated_Source\PSoC4/core_cm0.c **** __ASM uint32_t __get_MSP(void)
  87:.\Generated_Source\PSoC4/core_cm0.c **** {
  88:.\Generated_Source\PSoC4/core_cm0.c ****   mrs r0, msp
  89:.\Generated_Source\PSoC4/core_cm0.c ****   bx lr
  90:.\Generated_Source\PSoC4/core_cm0.c **** }
  91:.\Generated_Source\PSoC4/core_cm0.c **** 
  92:.\Generated_Source\PSoC4/core_cm0.c **** /**
  93:.\Generated_Source\PSoC4/core_cm0.c ****  * @brief  Set the Main Stack Pointer
  94:.\Generated_Source\PSoC4/core_cm0.c ****  *
  95:.\Generated_Source\PSoC4/core_cm0.c ****  * @param  topOfMainStack  Main Stack Pointer
  96:.\Generated_Source\PSoC4/core_cm0.c ****  *
  97:.\Generated_Source\PSoC4/core_cm0.c ****  * Assign the value mainStackPointer to the MSP
  98:.\Generated_Source\PSoC4/core_cm0.c ****  * (main stack pointer) Cortex processor register
  99:.\Generated_Source\PSoC4/core_cm0.c ****  */
 100:.\Generated_Source\PSoC4/core_cm0.c **** __ASM void __set_MSP(uint32_t mainStackPointer)
 101:.\Generated_Source\PSoC4/core_cm0.c **** {
 102:.\Generated_Source\PSoC4/core_cm0.c ****   msr msp, r0
 103:.\Generated_Source\PSoC4/core_cm0.c ****   bx lr
 104:.\Generated_Source\PSoC4/core_cm0.c **** }
 105:.\Generated_Source\PSoC4/core_cm0.c **** 
 106:.\Generated_Source\PSoC4/core_cm0.c **** /**
 107:.\Generated_Source\PSoC4/core_cm0.c ****  * @brief  Reverse byte order in unsigned short value
 108:.\Generated_Source\PSoC4/core_cm0.c ****  *
 109:.\Generated_Source\PSoC4/core_cm0.c ****  * @param   value  value to reverse
 110:.\Generated_Source\PSoC4/core_cm0.c ****  * @return         reversed value
 111:.\Generated_Source\PSoC4/core_cm0.c ****  *
 112:.\Generated_Source\PSoC4/core_cm0.c ****  * Reverse byte order in unsigned short value
 113:.\Generated_Source\PSoC4/core_cm0.c ****  */
 114:.\Generated_Source\PSoC4/core_cm0.c **** __ASM uint32_t __REV16(uint16_t value)
 115:.\Generated_Source\PSoC4/core_cm0.c **** {
 116:.\Generated_Source\PSoC4/core_cm0.c ****   rev16 r0, r0
 117:.\Generated_Source\PSoC4/core_cm0.c ****   bx lr
 118:.\Generated_Source\PSoC4/core_cm0.c **** }
 119:.\Generated_Source\PSoC4/core_cm0.c **** 
 120:.\Generated_Source\PSoC4/core_cm0.c **** /**
 121:.\Generated_Source\PSoC4/core_cm0.c ****  * @brief  Reverse byte order in signed short value with sign extension to integer
 122:.\Generated_Source\PSoC4/core_cm0.c ****  *
 123:.\Generated_Source\PSoC4/core_cm0.c ****  * @param   value  value to reverse
 124:.\Generated_Source\PSoC4/core_cm0.c ****  * @return         reversed value
 125:.\Generated_Source\PSoC4/core_cm0.c ****  *
 126:.\Generated_Source\PSoC4/core_cm0.c ****  * Reverse byte order in signed short value with sign extension to integer
 127:.\Generated_Source\PSoC4/core_cm0.c ****  */
 128:.\Generated_Source\PSoC4/core_cm0.c **** __ASM int32_t __REVSH(int16_t value)
 129:.\Generated_Source\PSoC4/core_cm0.c **** {
 130:.\Generated_Source\PSoC4/core_cm0.c ****   revsh r0, r0
 131:.\Generated_Source\PSoC4/core_cm0.c ****   bx lr
 132:.\Generated_Source\PSoC4/core_cm0.c **** }
 133:.\Generated_Source\PSoC4/core_cm0.c **** 
 134:.\Generated_Source\PSoC4/core_cm0.c **** 
 135:.\Generated_Source\PSoC4/core_cm0.c **** #if (__ARMCC_VERSION < 400000)
 136:.\Generated_Source\PSoC4/core_cm0.c **** 
 137:.\Generated_Source\PSoC4/core_cm0.c **** 
ARM GAS  C:\Users\maxk\AppData\Local\Temp\ccdyFgNe.s 			page 4


 138:.\Generated_Source\PSoC4/core_cm0.c **** /**
 139:.\Generated_Source\PSoC4/core_cm0.c ****  * @brief  Return the Priority Mask value
 140:.\Generated_Source\PSoC4/core_cm0.c ****  *
 141:.\Generated_Source\PSoC4/core_cm0.c ****  * @return PriMask
 142:.\Generated_Source\PSoC4/core_cm0.c ****  *
 143:.\Generated_Source\PSoC4/core_cm0.c ****  * Return state of the priority mask bit from the priority mask register
 144:.\Generated_Source\PSoC4/core_cm0.c ****  */
 145:.\Generated_Source\PSoC4/core_cm0.c **** __ASM uint32_t __get_PRIMASK(void)
 146:.\Generated_Source\PSoC4/core_cm0.c **** {
 147:.\Generated_Source\PSoC4/core_cm0.c ****   mrs r0, primask
 148:.\Generated_Source\PSoC4/core_cm0.c ****   bx lr
 149:.\Generated_Source\PSoC4/core_cm0.c **** }
 150:.\Generated_Source\PSoC4/core_cm0.c **** 
 151:.\Generated_Source\PSoC4/core_cm0.c **** /**
 152:.\Generated_Source\PSoC4/core_cm0.c ****  * @brief  Set the Priority Mask value
 153:.\Generated_Source\PSoC4/core_cm0.c ****  *
 154:.\Generated_Source\PSoC4/core_cm0.c ****  * @param  priMask  PriMask
 155:.\Generated_Source\PSoC4/core_cm0.c ****  *
 156:.\Generated_Source\PSoC4/core_cm0.c ****  * Set the priority mask bit in the priority mask register
 157:.\Generated_Source\PSoC4/core_cm0.c ****  */
 158:.\Generated_Source\PSoC4/core_cm0.c **** __ASM void __set_PRIMASK(uint32_t priMask)
 159:.\Generated_Source\PSoC4/core_cm0.c **** {
 160:.\Generated_Source\PSoC4/core_cm0.c ****   msr primask, r0
 161:.\Generated_Source\PSoC4/core_cm0.c ****   bx lr
 162:.\Generated_Source\PSoC4/core_cm0.c **** }
 163:.\Generated_Source\PSoC4/core_cm0.c **** 
 164:.\Generated_Source\PSoC4/core_cm0.c **** /**
 165:.\Generated_Source\PSoC4/core_cm0.c ****  * @brief  Return the Control Register value
 166:.\Generated_Source\PSoC4/core_cm0.c ****  *
 167:.\Generated_Source\PSoC4/core_cm0.c ****  * @return Control value
 168:.\Generated_Source\PSoC4/core_cm0.c ****  *
 169:.\Generated_Source\PSoC4/core_cm0.c ****  * Return the content of the control register
 170:.\Generated_Source\PSoC4/core_cm0.c ****  */
 171:.\Generated_Source\PSoC4/core_cm0.c **** __ASM uint32_t __get_CONTROL(void)
 172:.\Generated_Source\PSoC4/core_cm0.c **** {
 173:.\Generated_Source\PSoC4/core_cm0.c ****   mrs r0, control
 174:.\Generated_Source\PSoC4/core_cm0.c ****   bx lr
 175:.\Generated_Source\PSoC4/core_cm0.c **** }
 176:.\Generated_Source\PSoC4/core_cm0.c **** 
 177:.\Generated_Source\PSoC4/core_cm0.c **** /**
 178:.\Generated_Source\PSoC4/core_cm0.c ****  * @brief  Set the Control Register value
 179:.\Generated_Source\PSoC4/core_cm0.c ****  *
 180:.\Generated_Source\PSoC4/core_cm0.c ****  * @param  control  Control value
 181:.\Generated_Source\PSoC4/core_cm0.c ****  *
 182:.\Generated_Source\PSoC4/core_cm0.c ****  * Set the control register
 183:.\Generated_Source\PSoC4/core_cm0.c ****  */
 184:.\Generated_Source\PSoC4/core_cm0.c **** __ASM void __set_CONTROL(uint32_t control)
 185:.\Generated_Source\PSoC4/core_cm0.c **** {
 186:.\Generated_Source\PSoC4/core_cm0.c ****   msr control, r0
 187:.\Generated_Source\PSoC4/core_cm0.c ****   bx lr
 188:.\Generated_Source\PSoC4/core_cm0.c **** }
 189:.\Generated_Source\PSoC4/core_cm0.c **** 
 190:.\Generated_Source\PSoC4/core_cm0.c **** #endif /* __ARMCC_VERSION  */
 191:.\Generated_Source\PSoC4/core_cm0.c **** 
 192:.\Generated_Source\PSoC4/core_cm0.c **** 
 193:.\Generated_Source\PSoC4/core_cm0.c **** 
 194:.\Generated_Source\PSoC4/core_cm0.c **** #elif (defined (__ICCARM__)) /*------------------ ICC Compiler -------------------*/
ARM GAS  C:\Users\maxk\AppData\Local\Temp\ccdyFgNe.s 			page 5


 195:.\Generated_Source\PSoC4/core_cm0.c **** /* IAR iccarm specific functions */
 196:.\Generated_Source\PSoC4/core_cm0.c **** #pragma diag_suppress=Pe940
 197:.\Generated_Source\PSoC4/core_cm0.c **** 
 198:.\Generated_Source\PSoC4/core_cm0.c **** /**
 199:.\Generated_Source\PSoC4/core_cm0.c ****  * @brief  Return the Process Stack Pointer
 200:.\Generated_Source\PSoC4/core_cm0.c ****  *
 201:.\Generated_Source\PSoC4/core_cm0.c ****  * @return ProcessStackPointer
 202:.\Generated_Source\PSoC4/core_cm0.c ****  *
 203:.\Generated_Source\PSoC4/core_cm0.c ****  * Return the actual process stack pointer
 204:.\Generated_Source\PSoC4/core_cm0.c ****  */
 205:.\Generated_Source\PSoC4/core_cm0.c **** uint32_t __get_PSP(void)
 206:.\Generated_Source\PSoC4/core_cm0.c **** {
 207:.\Generated_Source\PSoC4/core_cm0.c ****   __ASM("mrs r0, psp");
 208:.\Generated_Source\PSoC4/core_cm0.c ****   __ASM("bx lr");
 209:.\Generated_Source\PSoC4/core_cm0.c **** }
 210:.\Generated_Source\PSoC4/core_cm0.c **** 
 211:.\Generated_Source\PSoC4/core_cm0.c **** /**
 212:.\Generated_Source\PSoC4/core_cm0.c ****  * @brief  Set the Process Stack Pointer
 213:.\Generated_Source\PSoC4/core_cm0.c ****  *
 214:.\Generated_Source\PSoC4/core_cm0.c ****  * @param  topOfProcStack  Process Stack Pointer
 215:.\Generated_Source\PSoC4/core_cm0.c ****  *
 216:.\Generated_Source\PSoC4/core_cm0.c ****  * Assign the value ProcessStackPointer to the MSP
 217:.\Generated_Source\PSoC4/core_cm0.c ****  * (process stack pointer) Cortex processor register
 218:.\Generated_Source\PSoC4/core_cm0.c ****  */
 219:.\Generated_Source\PSoC4/core_cm0.c **** void __set_PSP(uint32_t topOfProcStack)
 220:.\Generated_Source\PSoC4/core_cm0.c **** {
 221:.\Generated_Source\PSoC4/core_cm0.c ****   __ASM("msr psp, r0");
 222:.\Generated_Source\PSoC4/core_cm0.c ****   __ASM("bx lr");
 223:.\Generated_Source\PSoC4/core_cm0.c **** }
 224:.\Generated_Source\PSoC4/core_cm0.c **** 
 225:.\Generated_Source\PSoC4/core_cm0.c **** /**
 226:.\Generated_Source\PSoC4/core_cm0.c ****  * @brief  Return the Main Stack Pointer
 227:.\Generated_Source\PSoC4/core_cm0.c ****  *
 228:.\Generated_Source\PSoC4/core_cm0.c ****  * @return Main Stack Pointer
 229:.\Generated_Source\PSoC4/core_cm0.c ****  *
 230:.\Generated_Source\PSoC4/core_cm0.c ****  * Return the current value of the MSP (main stack pointer)
 231:.\Generated_Source\PSoC4/core_cm0.c ****  * Cortex processor register
 232:.\Generated_Source\PSoC4/core_cm0.c ****  */
 233:.\Generated_Source\PSoC4/core_cm0.c **** uint32_t __get_MSP(void)
 234:.\Generated_Source\PSoC4/core_cm0.c **** {
 235:.\Generated_Source\PSoC4/core_cm0.c ****   __ASM("mrs r0, msp");
 236:.\Generated_Source\PSoC4/core_cm0.c ****   __ASM("bx lr");
 237:.\Generated_Source\PSoC4/core_cm0.c **** }
 238:.\Generated_Source\PSoC4/core_cm0.c **** 
 239:.\Generated_Source\PSoC4/core_cm0.c **** /**
 240:.\Generated_Source\PSoC4/core_cm0.c ****  * @brief  Set the Main Stack Pointer
 241:.\Generated_Source\PSoC4/core_cm0.c ****  *
 242:.\Generated_Source\PSoC4/core_cm0.c ****  * @param  topOfMainStack  Main Stack Pointer
 243:.\Generated_Source\PSoC4/core_cm0.c ****  *
 244:.\Generated_Source\PSoC4/core_cm0.c ****  * Assign the value mainStackPointer to the MSP
 245:.\Generated_Source\PSoC4/core_cm0.c ****  * (main stack pointer) Cortex processor register
 246:.\Generated_Source\PSoC4/core_cm0.c ****  */
 247:.\Generated_Source\PSoC4/core_cm0.c **** void __set_MSP(uint32_t topOfMainStack)
 248:.\Generated_Source\PSoC4/core_cm0.c **** {
 249:.\Generated_Source\PSoC4/core_cm0.c ****   __ASM("msr msp, r0");
 250:.\Generated_Source\PSoC4/core_cm0.c ****   __ASM("bx lr");
 251:.\Generated_Source\PSoC4/core_cm0.c **** }
ARM GAS  C:\Users\maxk\AppData\Local\Temp\ccdyFgNe.s 			page 6


 252:.\Generated_Source\PSoC4/core_cm0.c **** 
 253:.\Generated_Source\PSoC4/core_cm0.c **** /**
 254:.\Generated_Source\PSoC4/core_cm0.c ****  * @brief  Reverse byte order in unsigned short value
 255:.\Generated_Source\PSoC4/core_cm0.c ****  *
 256:.\Generated_Source\PSoC4/core_cm0.c ****  * @param  value  value to reverse
 257:.\Generated_Source\PSoC4/core_cm0.c ****  * @return        reversed value
 258:.\Generated_Source\PSoC4/core_cm0.c ****  *
 259:.\Generated_Source\PSoC4/core_cm0.c ****  * Reverse byte order in unsigned short value
 260:.\Generated_Source\PSoC4/core_cm0.c ****  */
 261:.\Generated_Source\PSoC4/core_cm0.c **** uint32_t __REV16(uint16_t value)
 262:.\Generated_Source\PSoC4/core_cm0.c **** {
 263:.\Generated_Source\PSoC4/core_cm0.c ****   __ASM("rev16 r0, r0");
 264:.\Generated_Source\PSoC4/core_cm0.c ****   __ASM("bx lr");
 265:.\Generated_Source\PSoC4/core_cm0.c **** }
 266:.\Generated_Source\PSoC4/core_cm0.c **** 
 267:.\Generated_Source\PSoC4/core_cm0.c **** 
 268:.\Generated_Source\PSoC4/core_cm0.c **** #pragma diag_default=Pe940
 269:.\Generated_Source\PSoC4/core_cm0.c **** 
 270:.\Generated_Source\PSoC4/core_cm0.c **** 
 271:.\Generated_Source\PSoC4/core_cm0.c **** #elif (defined (__GNUC__)) /*------------------ GNU Compiler ---------------------*/
 272:.\Generated_Source\PSoC4/core_cm0.c **** /* GNU gcc specific functions */
 273:.\Generated_Source\PSoC4/core_cm0.c **** 
 274:.\Generated_Source\PSoC4/core_cm0.c **** /**
 275:.\Generated_Source\PSoC4/core_cm0.c ****  * @brief  Return the Process Stack Pointer
 276:.\Generated_Source\PSoC4/core_cm0.c ****  *
 277:.\Generated_Source\PSoC4/core_cm0.c ****  * @return ProcessStackPointer
 278:.\Generated_Source\PSoC4/core_cm0.c ****  *
 279:.\Generated_Source\PSoC4/core_cm0.c ****  * Return the actual process stack pointer
 280:.\Generated_Source\PSoC4/core_cm0.c ****  */
 281:.\Generated_Source\PSoC4/core_cm0.c **** uint32_t __get_PSP(void) __attribute__( ( naked ) );
 282:.\Generated_Source\PSoC4/core_cm0.c **** uint32_t __get_PSP(void)
 283:.\Generated_Source\PSoC4/core_cm0.c **** {
  31              		.loc 1 283 0
  32              		.cfi_startproc
 284:.\Generated_Source\PSoC4/core_cm0.c ****   uint32_t result=0;
  33              		.loc 1 284 0
  34 0000 0024     		mov	r4, #0
 285:.\Generated_Source\PSoC4/core_cm0.c **** 
 286:.\Generated_Source\PSoC4/core_cm0.c ****   __ASM volatile ("MRS %0, psp\n\t"
  35              		.loc 1 286 0
  36              	@ 286 ".\Generated_Source\PSoC4\core_cm0.c" 1
  37 0002 EFF30984 		MRS r4, psp
  38 0006 201C     		MOV r0, r4 
  39 0008 7047     		BX  lr     
  40              		
  41              	@ 0 "" 2
 287:.\Generated_Source\PSoC4/core_cm0.c ****                   "MOV r0, %0 \n\t"
 288:.\Generated_Source\PSoC4/core_cm0.c ****                   "BX  lr     \n\t"  : "=r" (result) );
 289:.\Generated_Source\PSoC4/core_cm0.c ****   return(result);
  42              		.loc 1 289 0
  43              		.code	16
  44 000a 231C     		mov	r3, r4
 290:.\Generated_Source\PSoC4/core_cm0.c **** }
  45              		.loc 1 290 0
  46 000c 181C     		mov	r0, r3
  47              		.cfi_endproc
  48              	.LFE0:
ARM GAS  C:\Users\maxk\AppData\Local\Temp\ccdyFgNe.s 			page 7


  49              		.size	__get_PSP, .-__get_PSP
  50 000e C046     		.section	.text.__set_PSP,"ax",%progbits
  51              		.align	2
  52              		.global	__set_PSP
  53              		.code	16
  54              		.thumb_func
  55              		.type	__set_PSP, %function
  56              	__set_PSP:
  57              	.LFB1:
 291:.\Generated_Source\PSoC4/core_cm0.c **** 
 292:.\Generated_Source\PSoC4/core_cm0.c **** /**
 293:.\Generated_Source\PSoC4/core_cm0.c ****  * @brief  Set the Process Stack Pointer
 294:.\Generated_Source\PSoC4/core_cm0.c ****  *
 295:.\Generated_Source\PSoC4/core_cm0.c ****  * @param  topOfProcStack  Process Stack Pointer
 296:.\Generated_Source\PSoC4/core_cm0.c ****  *
 297:.\Generated_Source\PSoC4/core_cm0.c ****  * Assign the value ProcessStackPointer to the MSP
 298:.\Generated_Source\PSoC4/core_cm0.c ****  * (process stack pointer) Cortex processor register
 299:.\Generated_Source\PSoC4/core_cm0.c ****  */
 300:.\Generated_Source\PSoC4/core_cm0.c **** void __set_PSP(uint32_t topOfProcStack) __attribute__( ( naked ) );
 301:.\Generated_Source\PSoC4/core_cm0.c **** void __set_PSP(uint32_t topOfProcStack)
 302:.\Generated_Source\PSoC4/core_cm0.c **** {
  58              		.loc 1 302 0
  59              		.cfi_startproc
  60 0000 031C     		mov	r3, r0
 303:.\Generated_Source\PSoC4/core_cm0.c ****   __ASM volatile ("MSR psp, %0\n\t"
  61              		.loc 1 303 0
  62              	@ 303 ".\Generated_Source\PSoC4\core_cm0.c" 1
  63 0002 83F30988 		MSR psp, r3
  64 0006 7047     		BX  lr     
  65              		
  66              	@ 0 "" 2
 304:.\Generated_Source\PSoC4/core_cm0.c ****                   "BX  lr     \n\t" : : "r" (topOfProcStack) );
 305:.\Generated_Source\PSoC4/core_cm0.c **** }
  67              		.loc 1 305 0
  68              		.code	16
  69              		.cfi_endproc
  70              	.LFE1:
  71              		.size	__set_PSP, .-__set_PSP
  72              		.section	.text.__get_MSP,"ax",%progbits
  73              		.align	2
  74              		.global	__get_MSP
  75              		.code	16
  76              		.thumb_func
  77              		.type	__get_MSP, %function
  78              	__get_MSP:
  79              	.LFB2:
 306:.\Generated_Source\PSoC4/core_cm0.c **** 
 307:.\Generated_Source\PSoC4/core_cm0.c **** /**
 308:.\Generated_Source\PSoC4/core_cm0.c ****  * @brief  Return the Main Stack Pointer
 309:.\Generated_Source\PSoC4/core_cm0.c ****  *
 310:.\Generated_Source\PSoC4/core_cm0.c ****  * @return Main Stack Pointer
 311:.\Generated_Source\PSoC4/core_cm0.c ****  *
 312:.\Generated_Source\PSoC4/core_cm0.c ****  * Return the current value of the MSP (main stack pointer)
 313:.\Generated_Source\PSoC4/core_cm0.c ****  * Cortex processor register
 314:.\Generated_Source\PSoC4/core_cm0.c ****  */
 315:.\Generated_Source\PSoC4/core_cm0.c **** uint32_t __get_MSP(void) __attribute__( ( naked ) );
 316:.\Generated_Source\PSoC4/core_cm0.c **** uint32_t __get_MSP(void)
ARM GAS  C:\Users\maxk\AppData\Local\Temp\ccdyFgNe.s 			page 8


 317:.\Generated_Source\PSoC4/core_cm0.c **** {
  80              		.loc 1 317 0
  81              		.cfi_startproc
 318:.\Generated_Source\PSoC4/core_cm0.c ****   uint32_t result=0;
  82              		.loc 1 318 0
  83 0000 0024     		mov	r4, #0
 319:.\Generated_Source\PSoC4/core_cm0.c **** 
 320:.\Generated_Source\PSoC4/core_cm0.c ****   __ASM volatile ("MRS %0, msp\n\t"
  84              		.loc 1 320 0
  85              	@ 320 ".\Generated_Source\PSoC4\core_cm0.c" 1
  86 0002 EFF30884 		MRS r4, msp
  87 0006 201C     		MOV r0, r4 
  88 0008 7047     		BX  lr     
  89              		
  90              	@ 0 "" 2
 321:.\Generated_Source\PSoC4/core_cm0.c ****                   "MOV r0, %0 \n\t"
 322:.\Generated_Source\PSoC4/core_cm0.c ****                   "BX  lr     \n\t"  : "=r" (result) );
 323:.\Generated_Source\PSoC4/core_cm0.c ****   return(result);
  91              		.loc 1 323 0
  92              		.code	16
  93 000a 231C     		mov	r3, r4
 324:.\Generated_Source\PSoC4/core_cm0.c **** }
  94              		.loc 1 324 0
  95 000c 181C     		mov	r0, r3
  96              		.cfi_endproc
  97              	.LFE2:
  98              		.size	__get_MSP, .-__get_MSP
  99 000e C046     		.section	.text.__set_MSP,"ax",%progbits
 100              		.align	2
 101              		.global	__set_MSP
 102              		.code	16
 103              		.thumb_func
 104              		.type	__set_MSP, %function
 105              	__set_MSP:
 106              	.LFB3:
 325:.\Generated_Source\PSoC4/core_cm0.c **** 
 326:.\Generated_Source\PSoC4/core_cm0.c **** /**
 327:.\Generated_Source\PSoC4/core_cm0.c ****  * @brief  Set the Main Stack Pointer
 328:.\Generated_Source\PSoC4/core_cm0.c ****  *
 329:.\Generated_Source\PSoC4/core_cm0.c ****  * @param  topOfMainStack  Main Stack Pointer
 330:.\Generated_Source\PSoC4/core_cm0.c ****  *
 331:.\Generated_Source\PSoC4/core_cm0.c ****  * Assign the value mainStackPointer to the MSP
 332:.\Generated_Source\PSoC4/core_cm0.c ****  * (main stack pointer) Cortex processor register
 333:.\Generated_Source\PSoC4/core_cm0.c ****  */
 334:.\Generated_Source\PSoC4/core_cm0.c **** void __set_MSP(uint32_t topOfMainStack) __attribute__( ( naked ) );
 335:.\Generated_Source\PSoC4/core_cm0.c **** void __set_MSP(uint32_t topOfMainStack)
 336:.\Generated_Source\PSoC4/core_cm0.c **** {
 107              		.loc 1 336 0
 108              		.cfi_startproc
 109 0000 031C     		mov	r3, r0
 337:.\Generated_Source\PSoC4/core_cm0.c ****   __ASM volatile ("MSR msp, %0\n\t"
 110              		.loc 1 337 0
 111              	@ 337 ".\Generated_Source\PSoC4\core_cm0.c" 1
 112 0002 83F30888 		MSR msp, r3
 113 0006 7047     		BX  lr     
 114              		
 115              	@ 0 "" 2
ARM GAS  C:\Users\maxk\AppData\Local\Temp\ccdyFgNe.s 			page 9


 338:.\Generated_Source\PSoC4/core_cm0.c ****                   "BX  lr     \n\t" : : "r" (topOfMainStack) );
 339:.\Generated_Source\PSoC4/core_cm0.c **** }
 116              		.loc 1 339 0
 117              		.code	16
 118              		.cfi_endproc
 119              	.LFE3:
 120              		.size	__set_MSP, .-__set_MSP
 121              		.section	.text.__get_PRIMASK,"ax",%progbits
 122              		.align	2
 123              		.global	__get_PRIMASK
 124              		.code	16
 125              		.thumb_func
 126              		.type	__get_PRIMASK, %function
 127              	__get_PRIMASK:
 128              	.LFB4:
 340:.\Generated_Source\PSoC4/core_cm0.c **** 
 341:.\Generated_Source\PSoC4/core_cm0.c **** 
 342:.\Generated_Source\PSoC4/core_cm0.c **** /**
 343:.\Generated_Source\PSoC4/core_cm0.c ****  * @brief  Return the Priority Mask value
 344:.\Generated_Source\PSoC4/core_cm0.c ****  *
 345:.\Generated_Source\PSoC4/core_cm0.c ****  * @return PriMask
 346:.\Generated_Source\PSoC4/core_cm0.c ****  *
 347:.\Generated_Source\PSoC4/core_cm0.c ****  * Return state of the priority mask bit from the priority mask register
 348:.\Generated_Source\PSoC4/core_cm0.c ****  */
 349:.\Generated_Source\PSoC4/core_cm0.c **** uint32_t __get_PRIMASK(void)
 350:.\Generated_Source\PSoC4/core_cm0.c **** {
 129              		.loc 1 350 0
 130              		.cfi_startproc
 131 0000 80B5     		push	{r7, lr}
 132              	.LCFI0:
 133              		.cfi_def_cfa_offset 8
 134              		.cfi_offset 7, -8
 135              		.cfi_offset 14, -4
 136 0002 82B0     		sub	sp, sp, #8
 137              	.LCFI1:
 138              		.cfi_def_cfa_offset 16
 139 0004 00AF     		add	r7, sp, #0
 140              	.LCFI2:
 141              		.cfi_def_cfa_register 7
 351:.\Generated_Source\PSoC4/core_cm0.c ****   uint32_t result=0;
 142              		.loc 1 351 0
 143 0006 0023     		mov	r3, #0
 144 0008 7B60     		str	r3, [r7, #4]
 352:.\Generated_Source\PSoC4/core_cm0.c **** 
 353:.\Generated_Source\PSoC4/core_cm0.c ****   __ASM volatile ("MRS %0, primask" : "=r" (result) );
 145              		.loc 1 353 0
 146              	@ 353 ".\Generated_Source\PSoC4\core_cm0.c" 1
 147 000a EFF31083 		MRS r3, primask
 148              	@ 0 "" 2
 149              		.code	16
 150 000e 7B60     		str	r3, [r7, #4]
 354:.\Generated_Source\PSoC4/core_cm0.c ****   return(result);
 151              		.loc 1 354 0
 152 0010 7B68     		ldr	r3, [r7, #4]
 355:.\Generated_Source\PSoC4/core_cm0.c **** }
 153              		.loc 1 355 0
 154 0012 181C     		mov	r0, r3
ARM GAS  C:\Users\maxk\AppData\Local\Temp\ccdyFgNe.s 			page 10


 155 0014 BD46     		mov	sp, r7
 156 0016 02B0     		add	sp, sp, #8
 157              		@ sp needed for prologue
 158 0018 80BD     		pop	{r7, pc}
 159              		.cfi_endproc
 160              	.LFE4:
 161              		.size	__get_PRIMASK, .-__get_PRIMASK
 162 001a C046     		.section	.text.__set_PRIMASK,"ax",%progbits
 163              		.align	2
 164              		.global	__set_PRIMASK
 165              		.code	16
 166              		.thumb_func
 167              		.type	__set_PRIMASK, %function
 168              	__set_PRIMASK:
 169              	.LFB5:
 356:.\Generated_Source\PSoC4/core_cm0.c **** 
 357:.\Generated_Source\PSoC4/core_cm0.c **** /**
 358:.\Generated_Source\PSoC4/core_cm0.c ****  * @brief  Set the Priority Mask value
 359:.\Generated_Source\PSoC4/core_cm0.c ****  *
 360:.\Generated_Source\PSoC4/core_cm0.c ****  * @param  priMask  PriMask
 361:.\Generated_Source\PSoC4/core_cm0.c ****  *
 362:.\Generated_Source\PSoC4/core_cm0.c ****  * Set the priority mask bit in the priority mask register
 363:.\Generated_Source\PSoC4/core_cm0.c ****  */
 364:.\Generated_Source\PSoC4/core_cm0.c **** void __set_PRIMASK(uint32_t priMask)
 365:.\Generated_Source\PSoC4/core_cm0.c **** {
 170              		.loc 1 365 0
 171              		.cfi_startproc
 172 0000 80B5     		push	{r7, lr}
 173              	.LCFI3:
 174              		.cfi_def_cfa_offset 8
 175              		.cfi_offset 7, -8
 176              		.cfi_offset 14, -4
 177 0002 82B0     		sub	sp, sp, #8
 178              	.LCFI4:
 179              		.cfi_def_cfa_offset 16
 180 0004 00AF     		add	r7, sp, #0
 181              	.LCFI5:
 182              		.cfi_def_cfa_register 7
 183 0006 7860     		str	r0, [r7, #4]
 366:.\Generated_Source\PSoC4/core_cm0.c ****   __ASM volatile ("MSR primask, %0" : : "r" (priMask) );
 184              		.loc 1 366 0
 185 0008 7B68     		ldr	r3, [r7, #4]
 186              	@ 366 ".\Generated_Source\PSoC4\core_cm0.c" 1
 187 000a 83F31088 		MSR primask, r3
 188              	@ 0 "" 2
 367:.\Generated_Source\PSoC4/core_cm0.c **** }
 189              		.loc 1 367 0
 190              		.code	16
 191 000e BD46     		mov	sp, r7
 192 0010 02B0     		add	sp, sp, #8
 193              		@ sp needed for prologue
 194 0012 80BD     		pop	{r7, pc}
 195              		.cfi_endproc
 196              	.LFE5:
 197              		.size	__set_PRIMASK, .-__set_PRIMASK
 198              		.section	.text.__get_CONTROL,"ax",%progbits
 199              		.align	2
ARM GAS  C:\Users\maxk\AppData\Local\Temp\ccdyFgNe.s 			page 11


 200              		.global	__get_CONTROL
 201              		.code	16
 202              		.thumb_func
 203              		.type	__get_CONTROL, %function
 204              	__get_CONTROL:
 205              	.LFB6:
 368:.\Generated_Source\PSoC4/core_cm0.c **** 
 369:.\Generated_Source\PSoC4/core_cm0.c **** /**
 370:.\Generated_Source\PSoC4/core_cm0.c ****  * @brief  Return the Control Register value
 371:.\Generated_Source\PSoC4/core_cm0.c **** *
 372:.\Generated_Source\PSoC4/core_cm0.c **** *  @return Control value
 373:.\Generated_Source\PSoC4/core_cm0.c ****  *
 374:.\Generated_Source\PSoC4/core_cm0.c ****  * Return the content of the control register
 375:.\Generated_Source\PSoC4/core_cm0.c ****  */
 376:.\Generated_Source\PSoC4/core_cm0.c **** uint32_t __get_CONTROL(void)
 377:.\Generated_Source\PSoC4/core_cm0.c **** {
 206              		.loc 1 377 0
 207              		.cfi_startproc
 208 0000 80B5     		push	{r7, lr}
 209              	.LCFI6:
 210              		.cfi_def_cfa_offset 8
 211              		.cfi_offset 7, -8
 212              		.cfi_offset 14, -4
 213 0002 82B0     		sub	sp, sp, #8
 214              	.LCFI7:
 215              		.cfi_def_cfa_offset 16
 216 0004 00AF     		add	r7, sp, #0
 217              	.LCFI8:
 218              		.cfi_def_cfa_register 7
 378:.\Generated_Source\PSoC4/core_cm0.c ****   uint32_t result=0;
 219              		.loc 1 378 0
 220 0006 0023     		mov	r3, #0
 221 0008 7B60     		str	r3, [r7, #4]
 379:.\Generated_Source\PSoC4/core_cm0.c **** 
 380:.\Generated_Source\PSoC4/core_cm0.c ****   __ASM volatile ("MRS %0, control" : "=r" (result) );
 222              		.loc 1 380 0
 223              	@ 380 ".\Generated_Source\PSoC4\core_cm0.c" 1
 224 000a EFF31483 		MRS r3, control
 225              	@ 0 "" 2
 226              		.code	16
 227 000e 7B60     		str	r3, [r7, #4]
 381:.\Generated_Source\PSoC4/core_cm0.c ****   return(result);
 228              		.loc 1 381 0
 229 0010 7B68     		ldr	r3, [r7, #4]
 382:.\Generated_Source\PSoC4/core_cm0.c **** }
 230              		.loc 1 382 0
 231 0012 181C     		mov	r0, r3
 232 0014 BD46     		mov	sp, r7
 233 0016 02B0     		add	sp, sp, #8
 234              		@ sp needed for prologue
 235 0018 80BD     		pop	{r7, pc}
 236              		.cfi_endproc
 237              	.LFE6:
 238              		.size	__get_CONTROL, .-__get_CONTROL
 239 001a C046     		.section	.text.__set_CONTROL,"ax",%progbits
 240              		.align	2
 241              		.global	__set_CONTROL
ARM GAS  C:\Users\maxk\AppData\Local\Temp\ccdyFgNe.s 			page 12


 242              		.code	16
 243              		.thumb_func
 244              		.type	__set_CONTROL, %function
 245              	__set_CONTROL:
 246              	.LFB7:
 383:.\Generated_Source\PSoC4/core_cm0.c **** 
 384:.\Generated_Source\PSoC4/core_cm0.c **** /**
 385:.\Generated_Source\PSoC4/core_cm0.c ****  * @brief  Set the Control Register value
 386:.\Generated_Source\PSoC4/core_cm0.c ****  *
 387:.\Generated_Source\PSoC4/core_cm0.c ****  * @param  control  Control value
 388:.\Generated_Source\PSoC4/core_cm0.c ****  *
 389:.\Generated_Source\PSoC4/core_cm0.c ****  * Set the control register
 390:.\Generated_Source\PSoC4/core_cm0.c ****  */
 391:.\Generated_Source\PSoC4/core_cm0.c **** void __set_CONTROL(uint32_t control)
 392:.\Generated_Source\PSoC4/core_cm0.c **** {
 247              		.loc 1 392 0
 248              		.cfi_startproc
 249 0000 80B5     		push	{r7, lr}
 250              	.LCFI9:
 251              		.cfi_def_cfa_offset 8
 252              		.cfi_offset 7, -8
 253              		.cfi_offset 14, -4
 254 0002 82B0     		sub	sp, sp, #8
 255              	.LCFI10:
 256              		.cfi_def_cfa_offset 16
 257 0004 00AF     		add	r7, sp, #0
 258              	.LCFI11:
 259              		.cfi_def_cfa_register 7
 260 0006 7860     		str	r0, [r7, #4]
 393:.\Generated_Source\PSoC4/core_cm0.c ****   __ASM volatile ("MSR control, %0" : : "r" (control) );
 261              		.loc 1 393 0
 262 0008 7B68     		ldr	r3, [r7, #4]
 263              	@ 393 ".\Generated_Source\PSoC4\core_cm0.c" 1
 264 000a 83F31488 		MSR control, r3
 265              	@ 0 "" 2
 394:.\Generated_Source\PSoC4/core_cm0.c **** }
 266              		.loc 1 394 0
 267              		.code	16
 268 000e BD46     		mov	sp, r7
 269 0010 02B0     		add	sp, sp, #8
 270              		@ sp needed for prologue
 271 0012 80BD     		pop	{r7, pc}
 272              		.cfi_endproc
 273              	.LFE7:
 274              		.size	__set_CONTROL, .-__set_CONTROL
 275              		.section	.text.__REV,"ax",%progbits
 276              		.align	2
 277              		.global	__REV
 278              		.code	16
 279              		.thumb_func
 280              		.type	__REV, %function
 281              	__REV:
 282              	.LFB8:
 395:.\Generated_Source\PSoC4/core_cm0.c **** 
 396:.\Generated_Source\PSoC4/core_cm0.c **** 
 397:.\Generated_Source\PSoC4/core_cm0.c **** /**
 398:.\Generated_Source\PSoC4/core_cm0.c ****  * @brief  Reverse byte order in integer value
ARM GAS  C:\Users\maxk\AppData\Local\Temp\ccdyFgNe.s 			page 13


 399:.\Generated_Source\PSoC4/core_cm0.c ****  *
 400:.\Generated_Source\PSoC4/core_cm0.c ****  * @param  value  value to reverse
 401:.\Generated_Source\PSoC4/core_cm0.c ****  * @return        reversed value
 402:.\Generated_Source\PSoC4/core_cm0.c ****  *
 403:.\Generated_Source\PSoC4/core_cm0.c ****  * Reverse byte order in integer value
 404:.\Generated_Source\PSoC4/core_cm0.c ****  */
 405:.\Generated_Source\PSoC4/core_cm0.c **** uint32_t __REV(uint32_t value)
 406:.\Generated_Source\PSoC4/core_cm0.c **** {
 283              		.loc 1 406 0
 284              		.cfi_startproc
 285 0000 80B5     		push	{r7, lr}
 286              	.LCFI12:
 287              		.cfi_def_cfa_offset 8
 288              		.cfi_offset 7, -8
 289              		.cfi_offset 14, -4
 290 0002 84B0     		sub	sp, sp, #16
 291              	.LCFI13:
 292              		.cfi_def_cfa_offset 24
 293 0004 00AF     		add	r7, sp, #0
 294              	.LCFI14:
 295              		.cfi_def_cfa_register 7
 296 0006 7860     		str	r0, [r7, #4]
 407:.\Generated_Source\PSoC4/core_cm0.c ****   uint32_t result=0;
 297              		.loc 1 407 0
 298 0008 0023     		mov	r3, #0
 299 000a FB60     		str	r3, [r7, #12]
 408:.\Generated_Source\PSoC4/core_cm0.c **** 
 409:.\Generated_Source\PSoC4/core_cm0.c ****   __ASM volatile ("rev %0, %1" : "=r" (result) : "r" (value) );
 300              		.loc 1 409 0
 301 000c 7B68     		ldr	r3, [r7, #4]
 302              	@ 409 ".\Generated_Source\PSoC4\core_cm0.c" 1
 303 000e 1BBA     		rev r3, r3
 304              	@ 0 "" 2
 305              		.code	16
 306 0010 FB60     		str	r3, [r7, #12]
 410:.\Generated_Source\PSoC4/core_cm0.c ****   return(result);
 307              		.loc 1 410 0
 308 0012 FB68     		ldr	r3, [r7, #12]
 411:.\Generated_Source\PSoC4/core_cm0.c **** }
 309              		.loc 1 411 0
 310 0014 181C     		mov	r0, r3
 311 0016 BD46     		mov	sp, r7
 312 0018 04B0     		add	sp, sp, #16
 313              		@ sp needed for prologue
 314 001a 80BD     		pop	{r7, pc}
 315              		.cfi_endproc
 316              	.LFE8:
 317              		.size	__REV, .-__REV
 318              		.section	.text.__REV16,"ax",%progbits
 319              		.align	2
 320              		.global	__REV16
 321              		.code	16
 322              		.thumb_func
 323              		.type	__REV16, %function
 324              	__REV16:
 325              	.LFB9:
 412:.\Generated_Source\PSoC4/core_cm0.c **** 
ARM GAS  C:\Users\maxk\AppData\Local\Temp\ccdyFgNe.s 			page 14


 413:.\Generated_Source\PSoC4/core_cm0.c **** /**
 414:.\Generated_Source\PSoC4/core_cm0.c ****  * @brief  Reverse byte order in unsigned short value
 415:.\Generated_Source\PSoC4/core_cm0.c ****  *
 416:.\Generated_Source\PSoC4/core_cm0.c ****  * @param  value  value to reverse
 417:.\Generated_Source\PSoC4/core_cm0.c ****  * @return        reversed value
 418:.\Generated_Source\PSoC4/core_cm0.c ****  *
 419:.\Generated_Source\PSoC4/core_cm0.c ****  * Reverse byte order in unsigned short value
 420:.\Generated_Source\PSoC4/core_cm0.c ****  */
 421:.\Generated_Source\PSoC4/core_cm0.c **** uint32_t __REV16(uint16_t value)
 422:.\Generated_Source\PSoC4/core_cm0.c **** {
 326              		.loc 1 422 0
 327              		.cfi_startproc
 328 0000 80B5     		push	{r7, lr}
 329              	.LCFI15:
 330              		.cfi_def_cfa_offset 8
 331              		.cfi_offset 7, -8
 332              		.cfi_offset 14, -4
 333 0002 84B0     		sub	sp, sp, #16
 334              	.LCFI16:
 335              		.cfi_def_cfa_offset 24
 336 0004 00AF     		add	r7, sp, #0
 337              	.LCFI17:
 338              		.cfi_def_cfa_register 7
 339 0006 021C     		mov	r2, r0
 340 0008 BB1D     		add	r3, r7, #6
 341 000a 1A80     		strh	r2, [r3]
 423:.\Generated_Source\PSoC4/core_cm0.c ****   uint32_t result=0;
 342              		.loc 1 423 0
 343 000c 0023     		mov	r3, #0
 344 000e FB60     		str	r3, [r7, #12]
 424:.\Generated_Source\PSoC4/core_cm0.c **** 
 425:.\Generated_Source\PSoC4/core_cm0.c ****   __ASM volatile ("rev16 %0, %1" : "=r" (result) : "r" (value) );
 345              		.loc 1 425 0
 346 0010 BB1D     		add	r3, r7, #6
 347 0012 1B88     		ldrh	r3, [r3]
 348              	@ 425 ".\Generated_Source\PSoC4\core_cm0.c" 1
 349 0014 5BBA     		rev16 r3, r3
 350              	@ 0 "" 2
 351              		.code	16
 352 0016 FB60     		str	r3, [r7, #12]
 426:.\Generated_Source\PSoC4/core_cm0.c ****   return(result);
 353              		.loc 1 426 0
 354 0018 FB68     		ldr	r3, [r7, #12]
 427:.\Generated_Source\PSoC4/core_cm0.c **** }
 355              		.loc 1 427 0
 356 001a 181C     		mov	r0, r3
 357 001c BD46     		mov	sp, r7
 358 001e 04B0     		add	sp, sp, #16
 359              		@ sp needed for prologue
 360 0020 80BD     		pop	{r7, pc}
 361              		.cfi_endproc
 362              	.LFE9:
 363              		.size	__REV16, .-__REV16
 364 0022 C046     		.section	.text.__REVSH,"ax",%progbits
 365              		.align	2
 366              		.global	__REVSH
 367              		.code	16
ARM GAS  C:\Users\maxk\AppData\Local\Temp\ccdyFgNe.s 			page 15


 368              		.thumb_func
 369              		.type	__REVSH, %function
 370              	__REVSH:
 371              	.LFB10:
 428:.\Generated_Source\PSoC4/core_cm0.c **** 
 429:.\Generated_Source\PSoC4/core_cm0.c **** /**
 430:.\Generated_Source\PSoC4/core_cm0.c ****  * @brief  Reverse byte order in signed short value with sign extension to integer
 431:.\Generated_Source\PSoC4/core_cm0.c ****  *
 432:.\Generated_Source\PSoC4/core_cm0.c ****  * @param  value  value to reverse
 433:.\Generated_Source\PSoC4/core_cm0.c ****  * @return        reversed value
 434:.\Generated_Source\PSoC4/core_cm0.c ****  *
 435:.\Generated_Source\PSoC4/core_cm0.c ****  * Reverse byte order in signed short value with sign extension to integer
 436:.\Generated_Source\PSoC4/core_cm0.c ****  */
 437:.\Generated_Source\PSoC4/core_cm0.c **** int32_t __REVSH(int16_t value)
 438:.\Generated_Source\PSoC4/core_cm0.c **** {
 372              		.loc 1 438 0
 373              		.cfi_startproc
 374 0000 80B5     		push	{r7, lr}
 375              	.LCFI18:
 376              		.cfi_def_cfa_offset 8
 377              		.cfi_offset 7, -8
 378              		.cfi_offset 14, -4
 379 0002 84B0     		sub	sp, sp, #16
 380              	.LCFI19:
 381              		.cfi_def_cfa_offset 24
 382 0004 00AF     		add	r7, sp, #0
 383              	.LCFI20:
 384              		.cfi_def_cfa_register 7
 385 0006 021C     		mov	r2, r0
 386 0008 BB1D     		add	r3, r7, #6
 387 000a 1A80     		strh	r2, [r3]
 439:.\Generated_Source\PSoC4/core_cm0.c ****   uint32_t result=0;
 388              		.loc 1 439 0
 389 000c 0023     		mov	r3, #0
 390 000e FB60     		str	r3, [r7, #12]
 440:.\Generated_Source\PSoC4/core_cm0.c **** 
 441:.\Generated_Source\PSoC4/core_cm0.c ****   __ASM volatile ("revsh %0, %1" : "=r" (result) : "r" (value) );
 391              		.loc 1 441 0
 392 0010 BB1D     		add	r3, r7, #6
 393 0012 1B88     		ldrh	r3, [r3]
 394              	@ 441 ".\Generated_Source\PSoC4\core_cm0.c" 1
 395 0014 DBBA     		revsh r3, r3
 396              	@ 0 "" 2
 397              		.code	16
 398 0016 FB60     		str	r3, [r7, #12]
 442:.\Generated_Source\PSoC4/core_cm0.c ****   return(result);
 399              		.loc 1 442 0
 400 0018 FB68     		ldr	r3, [r7, #12]
 443:.\Generated_Source\PSoC4/core_cm0.c **** }
 401              		.loc 1 443 0
 402 001a 181C     		mov	r0, r3
 403 001c BD46     		mov	sp, r7
 404 001e 04B0     		add	sp, sp, #16
 405              		@ sp needed for prologue
 406 0020 80BD     		pop	{r7, pc}
 407              		.cfi_endproc
 408              	.LFE10:
ARM GAS  C:\Users\maxk\AppData\Local\Temp\ccdyFgNe.s 			page 16


 409              		.size	__REVSH, .-__REVSH
 410 0022 C046     		.text
 411              	.Letext0: