ARM GAS  C:\Users\maxk\AppData\Local\Temp\cc4ACgdP.s 			page 1


   1              		.cpu cortex-m0
   2              		.fpu softvfp
   3              		.eabi_attribute 20, 1
   4              		.eabi_attribute 21, 1
   5              		.eabi_attribute 23, 3
   6              		.eabi_attribute 24, 1
   7              		.eabi_attribute 25, 1
   8              		.eabi_attribute 26, 1
   9              		.eabi_attribute 30, 6
  10              		.eabi_attribute 18, 4
  11              		.code	16
  12              		.file	"cyfitter_cfg.c"
  19 0000 7C010000 		.text
  19      0200F000 
  19      00000201 
  19      FB0E0D00 
  19      01010101 
  20              	.Ltext0:
  21              		.cfi_sections	.debug_frame
  22              		.section	.text.CYMEMZERO,"ax",%progbits
  23              		.align	2
  24              		.code	16
  25              		.thumb_func
  26              		.type	CYMEMZERO, %function
  27              	CYMEMZERO:
  28              	.LFB0:
  29              		.file 1 ".\\Generated_Source\\PSoC4\\cyfitter_cfg.c"
   1:.\Generated_Source\PSoC4/cyfitter_cfg.c **** /*******************************************************************************
   2:.\Generated_Source\PSoC4/cyfitter_cfg.c **** * FILENAME: cyfitter_cfg.c
   3:.\Generated_Source\PSoC4/cyfitter_cfg.c **** * PSoC Creator 2.2 Service Pack 1
   4:.\Generated_Source\PSoC4/cyfitter_cfg.c **** *
   5:.\Generated_Source\PSoC4/cyfitter_cfg.c **** * Description:
   6:.\Generated_Source\PSoC4/cyfitter_cfg.c **** * This file is automatically generated by PSoC Creator with device 
   7:.\Generated_Source\PSoC4/cyfitter_cfg.c **** * initialization code.  Except for the user defined sections in
   8:.\Generated_Source\PSoC4/cyfitter_cfg.c **** * CyClockStartupError(), this file should not be modified.
   9:.\Generated_Source\PSoC4/cyfitter_cfg.c **** *
  10:.\Generated_Source\PSoC4/cyfitter_cfg.c **** ********************************************************************************
  11:.\Generated_Source\PSoC4/cyfitter_cfg.c **** * Copyright 2013, Cypress Semiconductor Corporation.  All rights reserved.
  12:.\Generated_Source\PSoC4/cyfitter_cfg.c **** * You may use this file only in accordance with the license, terms, conditions, 
  13:.\Generated_Source\PSoC4/cyfitter_cfg.c **** * disclaimers, and limitations in the end user license agreement accompanying 
  14:.\Generated_Source\PSoC4/cyfitter_cfg.c **** * the software package with which this file was provided.
  15:.\Generated_Source\PSoC4/cyfitter_cfg.c **** ********************************************************************************/
  16:.\Generated_Source\PSoC4/cyfitter_cfg.c **** 
  17:.\Generated_Source\PSoC4/cyfitter_cfg.c **** #include <string.h>
  18:.\Generated_Source\PSoC4/cyfitter_cfg.c **** #include <cytypes.h>
  19:.\Generated_Source\PSoC4/cyfitter_cfg.c **** #include <cydevice_trm.h>
  20:.\Generated_Source\PSoC4/cyfitter_cfg.c **** #include <cyfitter.h>
  21:.\Generated_Source\PSoC4/cyfitter_cfg.c **** #include <CyLib.h>
  22:.\Generated_Source\PSoC4/cyfitter_cfg.c **** #include <cyfitter_cfg.h>
  23:.\Generated_Source\PSoC4/cyfitter_cfg.c **** 
  24:.\Generated_Source\PSoC4/cyfitter_cfg.c **** /* Clock startup error codes                                                   */
ARM GAS  C:\Users\maxk\AppData\Local\Temp\cc4ACgdP.s 			page 2


  25:.\Generated_Source\PSoC4/cyfitter_cfg.c **** #define CYCLOCKSTART_NO_ERROR    0u
  26:.\Generated_Source\PSoC4/cyfitter_cfg.c **** #define CYCLOCKSTART_XTAL_ERROR  1u
  27:.\Generated_Source\PSoC4/cyfitter_cfg.c **** #define CYCLOCKSTART_32KHZ_ERROR 2u
  28:.\Generated_Source\PSoC4/cyfitter_cfg.c **** #define CYCLOCKSTART_PLL_ERROR   3u
  29:.\Generated_Source\PSoC4/cyfitter_cfg.c **** 
  30:.\Generated_Source\PSoC4/cyfitter_cfg.c **** #ifdef CY_NEED_CYCLOCKSTARTUPERROR
  31:.\Generated_Source\PSoC4/cyfitter_cfg.c **** /*******************************************************************************
  32:.\Generated_Source\PSoC4/cyfitter_cfg.c **** * Function Name: CyClockStartupError
  33:.\Generated_Source\PSoC4/cyfitter_cfg.c **** ********************************************************************************
  34:.\Generated_Source\PSoC4/cyfitter_cfg.c **** * Summary:
  35:.\Generated_Source\PSoC4/cyfitter_cfg.c **** *  If an error is encountered during clock configuration (crystal startup error,
  36:.\Generated_Source\PSoC4/cyfitter_cfg.c **** *  PLL lock error, etc.), the system will end up here.  Unless reimplemented by
  37:.\Generated_Source\PSoC4/cyfitter_cfg.c **** *  the customer, this function will stop in an infinite loop.
  38:.\Generated_Source\PSoC4/cyfitter_cfg.c **** *
  39:.\Generated_Source\PSoC4/cyfitter_cfg.c **** * Parameters:
  40:.\Generated_Source\PSoC4/cyfitter_cfg.c **** *   void
  41:.\Generated_Source\PSoC4/cyfitter_cfg.c **** *
  42:.\Generated_Source\PSoC4/cyfitter_cfg.c **** * Return:
  43:.\Generated_Source\PSoC4/cyfitter_cfg.c **** *   void
  44:.\Generated_Source\PSoC4/cyfitter_cfg.c **** *
  45:.\Generated_Source\PSoC4/cyfitter_cfg.c **** *******************************************************************************/
  46:.\Generated_Source\PSoC4/cyfitter_cfg.c **** #if defined(__GNUC__) || defined(__ARMCC_VERSION)
  47:.\Generated_Source\PSoC4/cyfitter_cfg.c **** __attribute__ ((unused))
  48:.\Generated_Source\PSoC4/cyfitter_cfg.c **** #endif
  49:.\Generated_Source\PSoC4/cyfitter_cfg.c **** static void CyClockStartupError(uint8 errorCode);
  50:.\Generated_Source\PSoC4/cyfitter_cfg.c **** #if defined(__GNUC__) || defined(__ARMCC_VERSION)
  51:.\Generated_Source\PSoC4/cyfitter_cfg.c **** __attribute__ ((unused))
  52:.\Generated_Source\PSoC4/cyfitter_cfg.c **** #endif
  53:.\Generated_Source\PSoC4/cyfitter_cfg.c **** static void CyClockStartupError(uint8 errorCode)
  54:.\Generated_Source\PSoC4/cyfitter_cfg.c **** {
  55:.\Generated_Source\PSoC4/cyfitter_cfg.c ****     /* To remove the compiler warning if errorCode not used.                */
  56:.\Generated_Source\PSoC4/cyfitter_cfg.c ****     errorCode = errorCode;
  57:.\Generated_Source\PSoC4/cyfitter_cfg.c **** 
  58:.\Generated_Source\PSoC4/cyfitter_cfg.c ****     /* `#START CyClockStartupError` */
  59:.\Generated_Source\PSoC4/cyfitter_cfg.c **** 
  60:.\Generated_Source\PSoC4/cyfitter_cfg.c ****     /* If we have a clock startup error (bad MHz crystal, PLL lock, etc.),  */
  61:.\Generated_Source\PSoC4/cyfitter_cfg.c ****     /* we will end up here to allow the customer to implement something to  */
  62:.\Generated_Source\PSoC4/cyfitter_cfg.c ****     /* deal with the clock condition.                                       */
  63:.\Generated_Source\PSoC4/cyfitter_cfg.c **** 
  64:.\Generated_Source\PSoC4/cyfitter_cfg.c ****     /* `#END` */
  65:.\Generated_Source\PSoC4/cyfitter_cfg.c **** 
  66:.\Generated_Source\PSoC4/cyfitter_cfg.c ****     /* If nothing else, stop here since the clocks have not started         */
  67:.\Generated_Source\PSoC4/cyfitter_cfg.c ****     /* correctly.                                                           */
  68:.\Generated_Source\PSoC4/cyfitter_cfg.c ****     while(1) {}
  69:.\Generated_Source\PSoC4/cyfitter_cfg.c **** }
  70:.\Generated_Source\PSoC4/cyfitter_cfg.c **** #endif
  71:.\Generated_Source\PSoC4/cyfitter_cfg.c **** 
  72:.\Generated_Source\PSoC4/cyfitter_cfg.c **** 
  73:.\Generated_Source\PSoC4/cyfitter_cfg.c **** #if defined(__GNUC__) || defined(__ARMCC_VERSION)
  74:.\Generated_Source\PSoC4/cyfitter_cfg.c **** 	#define CYPACKED __attribute__ ((packed))
  75:.\Generated_Source\PSoC4/cyfitter_cfg.c **** 	#define CYALIGNED __attribute__ ((aligned))
  76:.\Generated_Source\PSoC4/cyfitter_cfg.c **** 	
  77:.\Generated_Source\PSoC4/cyfitter_cfg.c **** 	#if defined(__ARMCC_VERSION)
  78:.\Generated_Source\PSoC4/cyfitter_cfg.c **** 		#define CY_CFG_MEMORY_BARRIER() __memory_changed()
  79:.\Generated_Source\PSoC4/cyfitter_cfg.c **** 	#else
  80:.\Generated_Source\PSoC4/cyfitter_cfg.c **** 		#define CY_CFG_MEMORY_BARRIER() __sync_synchronize()
  81:.\Generated_Source\PSoC4/cyfitter_cfg.c **** 	#endif
ARM GAS  C:\Users\maxk\AppData\Local\Temp\cc4ACgdP.s 			page 3


  82:.\Generated_Source\PSoC4/cyfitter_cfg.c **** 	
  83:.\Generated_Source\PSoC4/cyfitter_cfg.c **** 
  84:.\Generated_Source\PSoC4/cyfitter_cfg.c **** 	__attribute__ ((unused))
  85:.\Generated_Source\PSoC4/cyfitter_cfg.c **** 	static void CYMEMZERO(void *s, size_t n);
  86:.\Generated_Source\PSoC4/cyfitter_cfg.c **** 	__attribute__ ((unused))
  87:.\Generated_Source\PSoC4/cyfitter_cfg.c **** 	static void CYMEMZERO(void *s, size_t n)
  88:.\Generated_Source\PSoC4/cyfitter_cfg.c **** 	{
  30              		.loc 1 88 0
  31              		.cfi_startproc
  32 0000 80B5     		push	{r7, lr}
  33              	.LCFI0:
  34              		.cfi_def_cfa_offset 8
  35              		.cfi_offset 7, -8
  36              		.cfi_offset 14, -4
  37 0002 82B0     		sub	sp, sp, #8
  38              	.LCFI1:
  39              		.cfi_def_cfa_offset 16
  40 0004 00AF     		add	r7, sp, #0
  41              	.LCFI2:
  42              		.cfi_def_cfa_register 7
  43 0006 7860     		str	r0, [r7, #4]
  44 0008 3960     		str	r1, [r7]
  89:.\Generated_Source\PSoC4/cyfitter_cfg.c **** 		(void)memset(s, 0, n);
  45              		.loc 1 89 0
  46 000a 7A68     		ldr	r2, [r7, #4]
  47 000c 3B68     		ldr	r3, [r7]
  48 000e 101C     		mov	r0, r2
  49 0010 0021     		mov	r1, #0
  50 0012 1A1C     		mov	r2, r3
  51 0014 FFF7FEFF 		bl	memset
  90:.\Generated_Source\PSoC4/cyfitter_cfg.c **** 	}
  52              		.loc 1 90 0
  53 0018 BD46     		mov	sp, r7
  54 001a 02B0     		add	sp, sp, #8
  55              		@ sp needed for prologue
  56 001c 80BD     		pop	{r7, pc}
  57              		.cfi_endproc
  58              	.LFE0:
  59              		.size	CYMEMZERO, .-CYMEMZERO
  60 001e C046     		.section	.text.CYCONFIGCPY,"ax",%progbits
  61              		.align	2
  62              		.code	16
  63              		.thumb_func
  64              		.type	CYCONFIGCPY, %function
  65              	CYCONFIGCPY:
  66              	.LFB1:
  91:.\Generated_Source\PSoC4/cyfitter_cfg.c **** 	__attribute__ ((unused))
  92:.\Generated_Source\PSoC4/cyfitter_cfg.c **** 	static void CYCONFIGCPY(void *dest, const void *src, size_t n);
  93:.\Generated_Source\PSoC4/cyfitter_cfg.c **** 	__attribute__ ((unused))
  94:.\Generated_Source\PSoC4/cyfitter_cfg.c **** 	static void CYCONFIGCPY(void *dest, const void *src, size_t n)
  95:.\Generated_Source\PSoC4/cyfitter_cfg.c **** 	{
  67              		.loc 1 95 0
  68              		.cfi_startproc
  69 0000 80B5     		push	{r7, lr}
  70              	.LCFI3:
  71              		.cfi_def_cfa_offset 8
  72              		.cfi_offset 7, -8
ARM GAS  C:\Users\maxk\AppData\Local\Temp\cc4ACgdP.s 			page 4


  73              		.cfi_offset 14, -4
  74 0002 84B0     		sub	sp, sp, #16
  75              	.LCFI4:
  76              		.cfi_def_cfa_offset 24
  77 0004 00AF     		add	r7, sp, #0
  78              	.LCFI5:
  79              		.cfi_def_cfa_register 7
  80 0006 F860     		str	r0, [r7, #12]
  81 0008 B960     		str	r1, [r7, #8]
  82 000a 7A60     		str	r2, [r7, #4]
  96:.\Generated_Source\PSoC4/cyfitter_cfg.c **** 		(void)memcpy(dest, src, n);
  83              		.loc 1 96 0
  84 000c F968     		ldr	r1, [r7, #12]
  85 000e BA68     		ldr	r2, [r7, #8]
  86 0010 7B68     		ldr	r3, [r7, #4]
  87 0012 081C     		mov	r0, r1
  88 0014 111C     		mov	r1, r2
  89 0016 1A1C     		mov	r2, r3
  90 0018 FFF7FEFF 		bl	memcpy
  97:.\Generated_Source\PSoC4/cyfitter_cfg.c **** 	}
  91              		.loc 1 97 0
  92 001c BD46     		mov	sp, r7
  93 001e 04B0     		add	sp, sp, #16
  94              		@ sp needed for prologue
  95 0020 80BD     		pop	{r7, pc}
  96              		.cfi_endproc
  97              	.LFE1:
  98              		.size	CYCONFIGCPY, .-CYCONFIGCPY
  99 0022 C046     		.section	.text.CYCONFIGCPYCODE,"ax",%progbits
 100              		.align	2
 101              		.code	16
 102              		.thumb_func
 103              		.type	CYCONFIGCPYCODE, %function
 104              	CYCONFIGCPYCODE:
 105              	.LFB2:
  98:.\Generated_Source\PSoC4/cyfitter_cfg.c **** 	__attribute__ ((unused))
  99:.\Generated_Source\PSoC4/cyfitter_cfg.c **** 	static void CYCONFIGCPYCODE(void *dest, const void *src, size_t n);
 100:.\Generated_Source\PSoC4/cyfitter_cfg.c **** 	__attribute__ ((unused))
 101:.\Generated_Source\PSoC4/cyfitter_cfg.c **** 	static void CYCONFIGCPYCODE(void *dest, const void *src, size_t n)
 102:.\Generated_Source\PSoC4/cyfitter_cfg.c **** 	{
 106              		.loc 1 102 0
 107              		.cfi_startproc
 108 0000 80B5     		push	{r7, lr}
 109              	.LCFI6:
 110              		.cfi_def_cfa_offset 8
 111              		.cfi_offset 7, -8
 112              		.cfi_offset 14, -4
 113 0002 84B0     		sub	sp, sp, #16
 114              	.LCFI7:
 115              		.cfi_def_cfa_offset 24
 116 0004 00AF     		add	r7, sp, #0
 117              	.LCFI8:
 118              		.cfi_def_cfa_register 7
 119 0006 F860     		str	r0, [r7, #12]
 120 0008 B960     		str	r1, [r7, #8]
 121 000a 7A60     		str	r2, [r7, #4]
 103:.\Generated_Source\PSoC4/cyfitter_cfg.c **** 		(void)memcpy(dest, src, n);
ARM GAS  C:\Users\maxk\AppData\Local\Temp\cc4ACgdP.s 			page 5


 122              		.loc 1 103 0
 123 000c F968     		ldr	r1, [r7, #12]
 124 000e BA68     		ldr	r2, [r7, #8]
 125 0010 7B68     		ldr	r3, [r7, #4]
 126 0012 081C     		mov	r0, r1
 127 0014 111C     		mov	r1, r2
 128 0016 1A1C     		mov	r2, r3
 129 0018 FFF7FEFF 		bl	memcpy
 104:.\Generated_Source\PSoC4/cyfitter_cfg.c **** 	}
 130              		.loc 1 104 0
 131 001c BD46     		mov	sp, r7
 132 001e 04B0     		add	sp, sp, #16
 133              		@ sp needed for prologue
 134 0020 80BD     		pop	{r7, pc}
 135              		.cfi_endproc
 136              	.LFE2:
 137              		.size	CYCONFIGCPYCODE, .-CYCONFIGCPYCODE
 138 0022 C046     		.section	.psocinit,"ax",%progbits
 139              		.align	2
 140              		.code	16
 141              		.thumb_func
 142              		.type	SetIMOBGTrims, %function
 143              	SetIMOBGTrims:
 144              	.LFB3:
 105:.\Generated_Source\PSoC4/cyfitter_cfg.c **** #else
 106:.\Generated_Source\PSoC4/cyfitter_cfg.c **** 	#error Unsupported toolchain
 107:.\Generated_Source\PSoC4/cyfitter_cfg.c **** #endif
 108:.\Generated_Source\PSoC4/cyfitter_cfg.c **** 
 109:.\Generated_Source\PSoC4/cyfitter_cfg.c **** 
 110:.\Generated_Source\PSoC4/cyfitter_cfg.c **** /*******************************************************************************
 111:.\Generated_Source\PSoC4/cyfitter_cfg.c **** * Function Name: SetIMOBGTrims
 112:.\Generated_Source\PSoC4/cyfitter_cfg.c **** ********************************************************************************
 113:.\Generated_Source\PSoC4/cyfitter_cfg.c **** *
 114:.\Generated_Source\PSoC4/cyfitter_cfg.c **** * Summary:
 115:.\Generated_Source\PSoC4/cyfitter_cfg.c **** *   Performs the configuration of the bandgap trim for the IMO based on the given
 116:.\Generated_Source\PSoC4/cyfitter_cfg.c **** *   expected frequency of the IMO. 
 117:.\Generated_Source\PSoC4/cyfitter_cfg.c **** *
 118:.\Generated_Source\PSoC4/cyfitter_cfg.c **** * Parameters:
 119:.\Generated_Source\PSoC4/cyfitter_cfg.c **** *   imoFreq: Frequency for operation of the IMO.
 120:.\Generated_Source\PSoC4/cyfitter_cfg.c **** *
 121:.\Generated_Source\PSoC4/cyfitter_cfg.c **** * Return:
 122:.\Generated_Source\PSoC4/cyfitter_cfg.c **** *   void
 123:.\Generated_Source\PSoC4/cyfitter_cfg.c **** *
 124:.\Generated_Source\PSoC4/cyfitter_cfg.c **** *******************************************************************************/
 125:.\Generated_Source\PSoC4/cyfitter_cfg.c **** static void SetIMOBGTrims(uint8 imoFreq);
 126:.\Generated_Source\PSoC4/cyfitter_cfg.c **** __attribute__ ((section(".psocinit")))
 127:.\Generated_Source\PSoC4/cyfitter_cfg.c **** static void SetIMOBGTrims(uint8 imoFreq)
 128:.\Generated_Source\PSoC4/cyfitter_cfg.c **** {
 145              		.loc 1 128 0
 146              		.cfi_startproc
 147 0000 80B5     		push	{r7, lr}
 148              	.LCFI9:
 149              		.cfi_def_cfa_offset 8
 150              		.cfi_offset 7, -8
 151              		.cfi_offset 14, -4
 152 0002 84B0     		sub	sp, sp, #16
 153              	.LCFI10:
ARM GAS  C:\Users\maxk\AppData\Local\Temp\cc4ACgdP.s 			page 6


 154              		.cfi_def_cfa_offset 24
 155 0004 00AF     		add	r7, sp, #0
 156              	.LCFI11:
 157              		.cfi_def_cfa_register 7
 158 0006 021C     		mov	r2, r0
 159 0008 FB1D     		add	r3, r7, #7
 160 000a 1A70     		strb	r2, [r3]
 129:.\Generated_Source\PSoC4/cyfitter_cfg.c **** 	typedef struct {
 130:.\Generated_Source\PSoC4/cyfitter_cfg.c **** 		uint8 freq;
 131:.\Generated_Source\PSoC4/cyfitter_cfg.c **** 		uint8 absolute;
 132:.\Generated_Source\PSoC4/cyfitter_cfg.c **** 		uint8 tmpco;
 133:.\Generated_Source\PSoC4/cyfitter_cfg.c **** 	} CYPACKED imo_trim_entry_t;
 134:.\Generated_Source\PSoC4/cyfitter_cfg.c **** 
 135:.\Generated_Source\PSoC4/cyfitter_cfg.c **** 	typedef struct {
 136:.\Generated_Source\PSoC4/cyfitter_cfg.c **** 		imo_trim_entry_t entries[4];
 137:.\Generated_Source\PSoC4/cyfitter_cfg.c **** 	} CYPACKED imo_trim_table_t;
 138:.\Generated_Source\PSoC4/cyfitter_cfg.c **** 
 139:.\Generated_Source\PSoC4/cyfitter_cfg.c **** 	static const imo_trim_table_t *imo_trim_table = (const imo_trim_table_t *)CYREG_SFLASH_IMO_MAXF0;
 140:.\Generated_Source\PSoC4/cyfitter_cfg.c **** 	static const uint32 IMO_TRIM_FREQ_TABLE_ENTRIES = sizeof(imo_trim_table->entries)/sizeof(imo_trim_
 141:.\Generated_Source\PSoC4/cyfitter_cfg.c **** 
 142:.\Generated_Source\PSoC4/cyfitter_cfg.c **** 	int32 imoTrimIndex;
 143:.\Generated_Source\PSoC4/cyfitter_cfg.c **** 	uint8 setAbs;
 144:.\Generated_Source\PSoC4/cyfitter_cfg.c **** 	uint8 setTmpCo;
 145:.\Generated_Source\PSoC4/cyfitter_cfg.c **** 
 146:.\Generated_Source\PSoC4/cyfitter_cfg.c **** 	/* Traverse the SFLASH IMO frequency-dependent bandgap trim table to
 147:.\Generated_Source\PSoC4/cyfitter_cfg.c **** 	 * locate the appropriate value to trim the IMO bandgap based on freq. */
 148:.\Generated_Source\PSoC4/cyfitter_cfg.c **** 	setAbs = CY_GET_REG8((const void *)CYREG_SFLASH_IMO_ABS4);
 161              		.loc 1 148 0
 162 000c 224A     		ldr	r2, .L12
 163 000e 3B1C     		mov	r3, r7
 164 0010 0E33     		add	r3, r3, #14
 165 0012 1278     		ldrb	r2, [r2]
 166 0014 1A70     		strb	r2, [r3]
 149:.\Generated_Source\PSoC4/cyfitter_cfg.c **** 	setTmpCo = CY_GET_REG8((const void *)CYREG_SFLASH_IMO_TMPCO4);
 167              		.loc 1 149 0
 168 0016 214A     		ldr	r2, .L12+4
 169 0018 3B1C     		mov	r3, r7
 170 001a 0F33     		add	r3, r3, #15
 171 001c 1278     		ldrb	r2, [r2]
 172 001e 1A70     		strb	r2, [r3]
 150:.\Generated_Source\PSoC4/cyfitter_cfg.c **** 	for (imoTrimIndex = ((int32)IMO_TRIM_FREQ_TABLE_ENTRIES)-1;
 173              		.loc 1 150 0
 174 0020 1F4B     		ldr	r3, .L12+8
 175 0022 1B68     		ldr	r3, [r3]
 176 0024 013B     		sub	r3, r3, #1
 177 0026 BB60     		str	r3, [r7, #8]
 178 0028 1AE0     		b	.L8
 179              	.L10:
 151:.\Generated_Source\PSoC4/cyfitter_cfg.c **** 	     (imoTrimIndex >= 0) && (imoFreq <= imo_trim_table->entries[imoTrimIndex].freq);
 152:.\Generated_Source\PSoC4/cyfitter_cfg.c **** 	     imoTrimIndex--)
 153:.\Generated_Source\PSoC4/cyfitter_cfg.c **** 	{
 154:.\Generated_Source\PSoC4/cyfitter_cfg.c **** 		setAbs = imo_trim_table->entries[imoTrimIndex].absolute;
 180              		.loc 1 154 0
 181 002a 1E4B     		ldr	r3, .L12+12
 182 002c 1868     		ldr	r0, [r3]
 183 002e BA68     		ldr	r2, [r7, #8]
 184 0030 391C     		mov	r1, r7
ARM GAS  C:\Users\maxk\AppData\Local\Temp\cc4ACgdP.s 			page 7


 185 0032 0E31     		add	r1, r1, #14
 186 0034 131C     		mov	r3, r2
 187 0036 5B00     		lsl	r3, r3, #1
 188 0038 9B18     		add	r3, r3, r2
 189 003a 1B18     		add	r3, r3, r0
 190 003c 0133     		add	r3, r3, #1
 191 003e 1B78     		ldrb	r3, [r3]
 192 0040 0B70     		strb	r3, [r1]
 155:.\Generated_Source\PSoC4/cyfitter_cfg.c **** 		setTmpCo = imo_trim_table->entries[imoTrimIndex].tmpco;
 193              		.loc 1 155 0
 194 0042 184B     		ldr	r3, .L12+12
 195 0044 1868     		ldr	r0, [r3]
 196 0046 BA68     		ldr	r2, [r7, #8]
 197 0048 391C     		mov	r1, r7
 198 004a 0F31     		add	r1, r1, #15
 199 004c 131C     		mov	r3, r2
 200 004e 5B00     		lsl	r3, r3, #1
 201 0050 9B18     		add	r3, r3, r2
 202 0052 1B18     		add	r3, r3, r0
 203 0054 0233     		add	r3, r3, #2
 204 0056 1B78     		ldrb	r3, [r3]
 205 0058 0B70     		strb	r3, [r1]
 206              		.loc 1 152 0
 207 005a BB68     		ldr	r3, [r7, #8]
 208 005c 013B     		sub	r3, r3, #1
 209 005e BB60     		str	r3, [r7, #8]
 210              	.L8:
 211              		.loc 1 150 0
 212 0060 BB68     		ldr	r3, [r7, #8]
 213 0062 002B     		cmp	r3, #0
 214 0064 0ADB     		blt	.L9
 215              		.loc 1 151 0
 216 0066 0F4B     		ldr	r3, .L12+12
 217 0068 1968     		ldr	r1, [r3]
 218 006a BA68     		ldr	r2, [r7, #8]
 219 006c 131C     		mov	r3, r2
 220 006e 5B00     		lsl	r3, r3, #1
 221 0070 9B18     		add	r3, r3, r2
 222 0072 5B5C     		ldrb	r3, [r3, r1]
 223              		.loc 1 150 0
 224 0074 FA1D     		add	r2, r7, #7
 225 0076 1278     		ldrb	r2, [r2]
 226 0078 9A42     		cmp	r2, r3
 227 007a D6D9     		bls	.L10
 228              	.L9:
 156:.\Generated_Source\PSoC4/cyfitter_cfg.c **** 	}
 157:.\Generated_Source\PSoC4/cyfitter_cfg.c **** 
 158:.\Generated_Source\PSoC4/cyfitter_cfg.c **** 	CY_SET_REG32((void *)CYREG_PWR_BG_TRIM4, setAbs);
 229              		.loc 1 158 0
 230 007c 0A4B     		ldr	r3, .L12+16
 231 007e 3A1C     		mov	r2, r7
 232 0080 0E32     		add	r2, r2, #14
 233 0082 1278     		ldrb	r2, [r2]
 234 0084 1A60     		str	r2, [r3]
 159:.\Generated_Source\PSoC4/cyfitter_cfg.c **** 	CY_SET_REG32((void *)CYREG_PWR_BG_TRIM5, setTmpCo);
 235              		.loc 1 159 0
 236 0086 094B     		ldr	r3, .L12+20
ARM GAS  C:\Users\maxk\AppData\Local\Temp\cc4ACgdP.s 			page 8


 237 0088 3A1C     		mov	r2, r7
 238 008a 0F32     		add	r2, r2, #15
 239 008c 1278     		ldrb	r2, [r2]
 240 008e 1A60     		str	r2, [r3]
 160:.\Generated_Source\PSoC4/cyfitter_cfg.c **** }
 241              		.loc 1 160 0
 242 0090 BD46     		mov	sp, r7
 243 0092 04B0     		add	sp, sp, #16
 244              		@ sp needed for prologue
 245 0094 80BD     		pop	{r7, pc}
 246              	.L13:
 247 0096 C046     		.align	2
 248              	.L12:
 249 0098 CCF1FF0F 		.word	268431820
 250 009c CDF1FF0F 		.word	268431821
 251 00a0 0C000000 		.word	IMO_TRIM_FREQ_TABLE_ENTRIES.1827
 252 00a4 00000000 		.word	imo_trim_table.1826
 253 00a8 1CFF0B40 		.word	1074528028
 254 00ac 20FF0B40 		.word	1074528032
 255              		.cfi_endproc
 256              	.LFE3:
 257              		.size	SetIMOBGTrims, .-SetIMOBGTrims
 258              		.align	2
 259              		.code	16
 260              		.thumb_func
 261              		.type	ClockSetup, %function
 262              	ClockSetup:
 263              	.LFB4:
 161:.\Generated_Source\PSoC4/cyfitter_cfg.c **** 
 162:.\Generated_Source\PSoC4/cyfitter_cfg.c **** 
 163:.\Generated_Source\PSoC4/cyfitter_cfg.c **** 
 164:.\Generated_Source\PSoC4/cyfitter_cfg.c **** /*******************************************************************************
 165:.\Generated_Source\PSoC4/cyfitter_cfg.c **** * Function Name: ClockSetup
 166:.\Generated_Source\PSoC4/cyfitter_cfg.c **** ********************************************************************************
 167:.\Generated_Source\PSoC4/cyfitter_cfg.c **** *
 168:.\Generated_Source\PSoC4/cyfitter_cfg.c **** * Summary:
 169:.\Generated_Source\PSoC4/cyfitter_cfg.c **** *   Performs the initialization of all of the clocks in the device based on the
 170:.\Generated_Source\PSoC4/cyfitter_cfg.c **** *   settings in the Clock tab of the DWR.  This includes enabling the requested
 171:.\Generated_Source\PSoC4/cyfitter_cfg.c **** *   clocks and setting the necessary dividers to produce the desired frequency. 
 172:.\Generated_Source\PSoC4/cyfitter_cfg.c **** *
 173:.\Generated_Source\PSoC4/cyfitter_cfg.c **** * Parameters:
 174:.\Generated_Source\PSoC4/cyfitter_cfg.c **** *   void
 175:.\Generated_Source\PSoC4/cyfitter_cfg.c **** *
 176:.\Generated_Source\PSoC4/cyfitter_cfg.c **** * Return:
 177:.\Generated_Source\PSoC4/cyfitter_cfg.c **** *   void
 178:.\Generated_Source\PSoC4/cyfitter_cfg.c **** *
 179:.\Generated_Source\PSoC4/cyfitter_cfg.c **** *******************************************************************************/
 180:.\Generated_Source\PSoC4/cyfitter_cfg.c **** static void ClockSetup(void);
 181:.\Generated_Source\PSoC4/cyfitter_cfg.c **** __attribute__ ((section(".psocinit")))
 182:.\Generated_Source\PSoC4/cyfitter_cfg.c **** static void ClockSetup(void)
 183:.\Generated_Source\PSoC4/cyfitter_cfg.c **** {
 264              		.loc 1 183 0
 265              		.cfi_startproc
 266 00b0 80B5     		push	{r7, lr}
 267              	.LCFI12:
 268              		.cfi_def_cfa_offset 8
 269              		.cfi_offset 7, -8
ARM GAS  C:\Users\maxk\AppData\Local\Temp\cc4ACgdP.s 			page 9


 270              		.cfi_offset 14, -4
 271 00b2 00AF     		add	r7, sp, #0
 272              	.LCFI13:
 273              		.cfi_def_cfa_register 7
 184:.\Generated_Source\PSoC4/cyfitter_cfg.c **** 	/* Enable HALF_EN before trimming for the flash accelerator. */
 185:.\Generated_Source\PSoC4/cyfitter_cfg.c **** 	CY_SET_REG32((void CYXDATA *)(CYREG_CLK_SELECT), (CY_GET_REG32((void *)CYREG_CLK_SELECT) | 0x00040
 274              		.loc 1 185 0
 275 00b4 134A     		ldr	r2, .L16
 276 00b6 134B     		ldr	r3, .L16
 277 00b8 1968     		ldr	r1, [r3]
 278 00ba 8023     		mov	r3, #128
 279 00bc DB02     		lsl	r3, r3, #11
 280 00be 0B43     		orr	r3, r3, r1
 281 00c0 1360     		str	r3, [r2]
 186:.\Generated_Source\PSoC4/cyfitter_cfg.c **** 
 187:.\Generated_Source\PSoC4/cyfitter_cfg.c **** 	/* Trim IMO BG based on desired frequency. */
 188:.\Generated_Source\PSoC4/cyfitter_cfg.c **** 	SetIMOBGTrims(24u);
 282              		.loc 1 188 0
 283 00c2 1820     		mov	r0, #24
 284 00c4 FFF79CFF 		bl	SetIMOBGTrims
 189:.\Generated_Source\PSoC4/cyfitter_cfg.c **** 
 190:.\Generated_Source\PSoC4/cyfitter_cfg.c **** 	/* Going less than or equal to 24MHz, so update the clock speed then adjust trim value. */
 191:.\Generated_Source\PSoC4/cyfitter_cfg.c **** 	CY_SET_REG32((void CYXDATA *)(CYREG_CLK_IMO_TRIM2), (25u));
 285              		.loc 1 191 0
 286 00c8 0F4B     		ldr	r3, .L16+4
 287 00ca 1922     		mov	r2, #25
 288 00cc 1A60     		str	r2, [r3]
 192:.\Generated_Source\PSoC4/cyfitter_cfg.c **** 	CyDelayCycles(5u);
 289              		.loc 1 192 0
 290 00ce 0520     		mov	r0, #5
 291 00d0 FFF7FEFF 		bl	CyDelayCycles
 193:.\Generated_Source\PSoC4/cyfitter_cfg.c **** 	CY_SET_REG32((void CYXDATA *)(CYREG_CLK_IMO_TRIM1), (CY_GET_REG8((void *)CYREG_SFLASH_IMO_TRIM21))
 292              		.loc 1 193 0
 293 00d4 0D4B     		ldr	r3, .L16+8
 294 00d6 0E4A     		ldr	r2, .L16+12
 295 00d8 1278     		ldrb	r2, [r2]
 296 00da D2B2     		uxtb	r2, r2
 297 00dc 1A60     		str	r2, [r3]
 194:.\Generated_Source\PSoC4/cyfitter_cfg.c **** 	CyDelayUs(5u);
 298              		.loc 1 194 0
 299 00de 0520     		mov	r0, #5
 300 00e0 FFF7FEFF 		bl	CyDelayUs
 195:.\Generated_Source\PSoC4/cyfitter_cfg.c **** 
 196:.\Generated_Source\PSoC4/cyfitter_cfg.c **** 	/* Disable HALF_EN since it is not required at this IMO frequency. */
 197:.\Generated_Source\PSoC4/cyfitter_cfg.c **** 	CY_SET_REG32((void CYXDATA *)(CYREG_CLK_SELECT), (CY_GET_REG32((void *)CYREG_CLK_SELECT) & 0xFFFBF
 301              		.loc 1 197 0
 302 00e4 074B     		ldr	r3, .L16
 303 00e6 074A     		ldr	r2, .L16
 304 00e8 1168     		ldr	r1, [r2]
 305 00ea 0A4A     		ldr	r2, .L16+16
 306 00ec 0A40     		and	r2, r2, r1
 307 00ee 1A60     		str	r2, [r3]
 198:.\Generated_Source\PSoC4/cyfitter_cfg.c **** 
 199:.\Generated_Source\PSoC4/cyfitter_cfg.c **** 	/* CYDEV_CLK_IMO_CONFIG Starting address: CYDEV_CLK_IMO_CONFIG */
 200:.\Generated_Source\PSoC4/cyfitter_cfg.c **** 	CY_SET_XTND_REG32((void CYFAR *)(CYREG_CLK_IMO_CONFIG), 0x80000000u);
 308              		.loc 1 200 0
 309 00f0 094A     		ldr	r2, .L16+20
ARM GAS  C:\Users\maxk\AppData\Local\Temp\cc4ACgdP.s 			page 10


 310 00f2 8023     		mov	r3, #128
 311 00f4 1B06     		lsl	r3, r3, #24
 312 00f6 1360     		str	r3, [r2]
 201:.\Generated_Source\PSoC4/cyfitter_cfg.c **** 
 202:.\Generated_Source\PSoC4/cyfitter_cfg.c **** 	/* CYDEV_CLK_ILO_CONFIG Starting address: CYDEV_CLK_ILO_CONFIG */
 203:.\Generated_Source\PSoC4/cyfitter_cfg.c **** 	CY_SET_XTND_REG32((void CYFAR *)(CYREG_CLK_ILO_CONFIG), 0x80000000u);
 313              		.loc 1 203 0
 314 00f8 084A     		ldr	r2, .L16+24
 315 00fa 8023     		mov	r3, #128
 316 00fc 1B06     		lsl	r3, r3, #24
 317 00fe 1360     		str	r3, [r2]
 204:.\Generated_Source\PSoC4/cyfitter_cfg.c **** 
 205:.\Generated_Source\PSoC4/cyfitter_cfg.c **** }
 318              		.loc 1 205 0
 319 0100 BD46     		mov	sp, r7
 320              		@ sp needed for prologue
 321 0102 80BD     		pop	{r7, pc}
 322              	.L17:
 323              		.align	2
 324              	.L16:
 325 0104 00010B40 		.word	1074462976
 326 0108 2CFF0B40 		.word	1074528044
 327 010c 28FF0B40 		.word	1074528040
 328 0110 E5F1FF0F 		.word	268431845
 329 0114 FFFFFBFF 		.word	-262145
 330 0118 08010B40 		.word	1074462984
 331 011c 04010B40 		.word	1074462980
 332              		.cfi_endproc
 333              	.LFE4:
 334              		.size	ClockSetup, .-ClockSetup
 335              		.section	.text.AnalogSetDefault,"ax",%progbits
 336              		.align	2
 337              		.code	16
 338              		.thumb_func
 339              		.type	AnalogSetDefault, %function
 340              	AnalogSetDefault:
 341              	.LFB5:
 206:.\Generated_Source\PSoC4/cyfitter_cfg.c **** 
 207:.\Generated_Source\PSoC4/cyfitter_cfg.c **** 
 208:.\Generated_Source\PSoC4/cyfitter_cfg.c **** /* Analog API Functions */
 209:.\Generated_Source\PSoC4/cyfitter_cfg.c **** 
 210:.\Generated_Source\PSoC4/cyfitter_cfg.c **** 
 211:.\Generated_Source\PSoC4/cyfitter_cfg.c **** /*******************************************************************************
 212:.\Generated_Source\PSoC4/cyfitter_cfg.c **** * Function Name: AnalogSetDefault
 213:.\Generated_Source\PSoC4/cyfitter_cfg.c **** ********************************************************************************
 214:.\Generated_Source\PSoC4/cyfitter_cfg.c **** *
 215:.\Generated_Source\PSoC4/cyfitter_cfg.c **** * Summary:
 216:.\Generated_Source\PSoC4/cyfitter_cfg.c **** *  Sets up the analog portions of the chip to default values based on chip
 217:.\Generated_Source\PSoC4/cyfitter_cfg.c **** *  configuration options from the project.
 218:.\Generated_Source\PSoC4/cyfitter_cfg.c **** *
 219:.\Generated_Source\PSoC4/cyfitter_cfg.c **** * Parameters:
 220:.\Generated_Source\PSoC4/cyfitter_cfg.c **** *  void
 221:.\Generated_Source\PSoC4/cyfitter_cfg.c **** *
 222:.\Generated_Source\PSoC4/cyfitter_cfg.c **** * Return:
 223:.\Generated_Source\PSoC4/cyfitter_cfg.c **** *  void
 224:.\Generated_Source\PSoC4/cyfitter_cfg.c **** *
 225:.\Generated_Source\PSoC4/cyfitter_cfg.c **** *******************************************************************************/
ARM GAS  C:\Users\maxk\AppData\Local\Temp\cc4ACgdP.s 			page 11


 226:.\Generated_Source\PSoC4/cyfitter_cfg.c **** static void AnalogSetDefault(void);
 227:.\Generated_Source\PSoC4/cyfitter_cfg.c **** static void AnalogSetDefault(void)
 228:.\Generated_Source\PSoC4/cyfitter_cfg.c **** {
 342              		.loc 1 228 0
 343              		.cfi_startproc
 344 0000 80B5     		push	{r7, lr}
 345              	.LCFI14:
 346              		.cfi_def_cfa_offset 8
 347              		.cfi_offset 7, -8
 348              		.cfi_offset 14, -4
 349 0002 00AF     		add	r7, sp, #0
 350              	.LCFI15:
 351              		.cfi_def_cfa_register 7
 229:.\Generated_Source\PSoC4/cyfitter_cfg.c **** }
 352              		.loc 1 229 0
 353 0004 BD46     		mov	sp, r7
 354              		@ sp needed for prologue
 355 0006 80BD     		pop	{r7, pc}
 356              		.cfi_endproc
 357              	.LFE5:
 358              		.size	AnalogSetDefault, .-AnalogSetDefault
 359              		.section	.psocinit
 360              		.align	2
 361              		.global	cyfitter_cfg
 362              		.code	16
 363              		.thumb_func
 364              		.type	cyfitter_cfg, %function
 365              	cyfitter_cfg:
 366              	.LFB6:
 230:.\Generated_Source\PSoC4/cyfitter_cfg.c **** 
 231:.\Generated_Source\PSoC4/cyfitter_cfg.c **** #define CY_AMUX_UNUSED CYREG_SAR_MUX_SWITCH_STATUS
 232:.\Generated_Source\PSoC4/cyfitter_cfg.c **** 
 233:.\Generated_Source\PSoC4/cyfitter_cfg.c **** 
 234:.\Generated_Source\PSoC4/cyfitter_cfg.c **** /*******************************************************************************
 235:.\Generated_Source\PSoC4/cyfitter_cfg.c **** * Function Name: cyfitter_cfg
 236:.\Generated_Source\PSoC4/cyfitter_cfg.c **** ********************************************************************************
 237:.\Generated_Source\PSoC4/cyfitter_cfg.c **** * Summary:
 238:.\Generated_Source\PSoC4/cyfitter_cfg.c **** *  This function is called by the start-up code for the selected device. It
 239:.\Generated_Source\PSoC4/cyfitter_cfg.c **** *  performs all of the necessary device configuration based on the design
 240:.\Generated_Source\PSoC4/cyfitter_cfg.c **** *  settings.  This includes settings from the Design Wide Resources (DWR) such
 241:.\Generated_Source\PSoC4/cyfitter_cfg.c **** *  as Clocks and Pins as well as any component configuration that is necessary.
 242:.\Generated_Source\PSoC4/cyfitter_cfg.c **** *
 243:.\Generated_Source\PSoC4/cyfitter_cfg.c **** * Parameters:  
 244:.\Generated_Source\PSoC4/cyfitter_cfg.c **** *   void
 245:.\Generated_Source\PSoC4/cyfitter_cfg.c **** *
 246:.\Generated_Source\PSoC4/cyfitter_cfg.c **** * Return:
 247:.\Generated_Source\PSoC4/cyfitter_cfg.c **** *   void
 248:.\Generated_Source\PSoC4/cyfitter_cfg.c **** *
 249:.\Generated_Source\PSoC4/cyfitter_cfg.c **** *******************************************************************************/
 250:.\Generated_Source\PSoC4/cyfitter_cfg.c **** __attribute__ ((section(".psocinit")))
 251:.\Generated_Source\PSoC4/cyfitter_cfg.c **** void cyfitter_cfg(void)
 252:.\Generated_Source\PSoC4/cyfitter_cfg.c **** {
 367              		.loc 1 252 0
 368              		.cfi_startproc
 369 0120 80B5     		push	{r7, lr}
 370              	.LCFI16:
 371              		.cfi_def_cfa_offset 8
ARM GAS  C:\Users\maxk\AppData\Local\Temp\cc4ACgdP.s 			page 12


 372              		.cfi_offset 7, -8
 373              		.cfi_offset 14, -4
 374 0122 82B0     		sub	sp, sp, #8
 375              	.LCFI17:
 376              		.cfi_def_cfa_offset 16
 377 0124 00AF     		add	r7, sp, #0
 378              	.LCFI18:
 379              		.cfi_def_cfa_register 7
 253:.\Generated_Source\PSoC4/cyfitter_cfg.c **** 	/* Disable interrupts by default. Let user enable if/when they want. */
 254:.\Generated_Source\PSoC4/cyfitter_cfg.c **** 	CyGlobalIntDisable;
 380              		.loc 1 254 0
 381              	@ 254 ".\Generated_Source\PSoC4\cyfitter_cfg.c" 1
 382 0126 72B6     		CPSID   i
 383              	@ 0 "" 2
 384              		.code	16
 385              	.LBB2:
 255:.\Generated_Source\PSoC4/cyfitter_cfg.c **** 
 256:.\Generated_Source\PSoC4/cyfitter_cfg.c **** 	{
 257:.\Generated_Source\PSoC4/cyfitter_cfg.c **** 
 258:.\Generated_Source\PSoC4/cyfitter_cfg.c **** 		typedef struct {
 259:.\Generated_Source\PSoC4/cyfitter_cfg.c **** 			void CYFAR *address;
 260:.\Generated_Source\PSoC4/cyfitter_cfg.c **** 			uint16 size;
 261:.\Generated_Source\PSoC4/cyfitter_cfg.c **** 		} CYPACKED cfg_memset_t;
 262:.\Generated_Source\PSoC4/cyfitter_cfg.c **** 
 263:.\Generated_Source\PSoC4/cyfitter_cfg.c **** 		static const cfg_memset_t CYCODE cfg_memset_list [] = {
 264:.\Generated_Source\PSoC4/cyfitter_cfg.c **** 			/* address, size */
 265:.\Generated_Source\PSoC4/cyfitter_cfg.c **** 			{(void CYFAR *)(CYDEV_UDB_P0_U0_BASE), 1024u},
 266:.\Generated_Source\PSoC4/cyfitter_cfg.c **** 			{(void CYFAR *)(CYDEV_UDB_DSI0_BASE), 1024u},
 267:.\Generated_Source\PSoC4/cyfitter_cfg.c **** 		};
 268:.\Generated_Source\PSoC4/cyfitter_cfg.c **** 
 269:.\Generated_Source\PSoC4/cyfitter_cfg.c **** 		uint8 CYDATA i;
 270:.\Generated_Source\PSoC4/cyfitter_cfg.c **** 
 271:.\Generated_Source\PSoC4/cyfitter_cfg.c **** 		/* Zero out critical memory blocks before beginning configuration */
 272:.\Generated_Source\PSoC4/cyfitter_cfg.c **** 		for (i = 0u; i < (sizeof(cfg_memset_list)/sizeof(cfg_memset_list[0])); i++)
 386              		.loc 1 272 0
 387 0128 FB1C     		add	r3, r7, #3
 388 012a 0022     		mov	r2, #0
 389 012c 1A70     		strb	r2, [r3]
 390 012e 24E0     		b	.L21
 391              	.L22:
 392              	.LBB3:
 273:.\Generated_Source\PSoC4/cyfitter_cfg.c **** 		{
 274:.\Generated_Source\PSoC4/cyfitter_cfg.c **** 			const cfg_memset_t CYCODE * CYDATA ms = &cfg_memset_list[i];
 393              		.loc 1 274 0
 394 0130 FB1C     		add	r3, r7, #3
 395 0132 1A78     		ldrb	r2, [r3]
 396 0134 131C     		mov	r3, r2
 397 0136 5B00     		lsl	r3, r3, #1
 398 0138 9B18     		add	r3, r3, r2
 399 013a 5B00     		lsl	r3, r3, #1
 400 013c 1A1C     		mov	r2, r3
 401 013e 264B     		ldr	r3, .L24
 402 0140 D318     		add	r3, r2, r3
 403 0142 7B60     		str	r3, [r7, #4]
 275:.\Generated_Source\PSoC4/cyfitter_cfg.c **** 			CYMEMZERO(ms->address, (uint32)(ms->size));
 404              		.loc 1 275 0
 405 0144 7B68     		ldr	r3, [r7, #4]
ARM GAS  C:\Users\maxk\AppData\Local\Temp\cc4ACgdP.s 			page 13


 406 0146 1A78     		ldrb	r2, [r3]
 407 0148 5978     		ldrb	r1, [r3, #1]
 408 014a 0902     		lsl	r1, r1, #8
 409 014c 0A43     		orr	r2, r2, r1
 410 014e 9978     		ldrb	r1, [r3, #2]
 411 0150 0904     		lsl	r1, r1, #16
 412 0152 0A43     		orr	r2, r2, r1
 413 0154 DB78     		ldrb	r3, [r3, #3]
 414 0156 1B06     		lsl	r3, r3, #24
 415 0158 1343     		orr	r3, r3, r2
 416 015a 1A1C     		mov	r2, r3
 417 015c 7B68     		ldr	r3, [r7, #4]
 418 015e 1979     		ldrb	r1, [r3, #4]
 419 0160 5B79     		ldrb	r3, [r3, #5]
 420 0162 1B02     		lsl	r3, r3, #8
 421 0164 0B43     		orr	r3, r3, r1
 422 0166 9BB2     		uxth	r3, r3
 423 0168 101C     		mov	r0, r2
 424 016a 191C     		mov	r1, r3
 425 016c FFF7FEFF 		bl	CYMEMZERO
 426              	.LBE3:
 427              		.loc 1 272 0
 428 0170 FB1C     		add	r3, r7, #3
 429 0172 FA1C     		add	r2, r7, #3
 430 0174 1278     		ldrb	r2, [r2]
 431 0176 0132     		add	r2, r2, #1
 432 0178 1A70     		strb	r2, [r3]
 433              	.L21:
 434 017a FB1C     		add	r3, r7, #3
 435 017c 1B78     		ldrb	r3, [r3]
 436 017e 012B     		cmp	r3, #1
 437 0180 D6D9     		bls	.L22
 276:.\Generated_Source\PSoC4/cyfitter_cfg.c **** 		}
 277:.\Generated_Source\PSoC4/cyfitter_cfg.c **** 
 278:.\Generated_Source\PSoC4/cyfitter_cfg.c **** 		/* HSIOM Starting address: CYDEV_HSIOM_BASE */
 279:.\Generated_Source\PSoC4/cyfitter_cfg.c **** 		CY_SET_XTND_REG32((void CYFAR *)(CYREG_HSIOM_PORT_SEL3), 0x0000EE00u);
 438              		.loc 1 279 0
 439 0182 164A     		ldr	r2, .L24+4
 440 0184 EE23     		mov	r3, #238
 441 0186 1B02     		lsl	r3, r3, #8
 442 0188 1360     		str	r3, [r2]
 280:.\Generated_Source\PSoC4/cyfitter_cfg.c **** 
 281:.\Generated_Source\PSoC4/cyfitter_cfg.c **** 		/* IOPINS0_1 Starting address: CYDEV_PRT1_DR */
 282:.\Generated_Source\PSoC4/cyfitter_cfg.c **** 		CY_SET_XTND_REG32((void CYFAR *)(CYREG_PRT1_PC), 0x00180000u);
 443              		.loc 1 282 0
 444 018a 154A     		ldr	r2, .L24+8
 445 018c C023     		mov	r3, #192
 446 018e 5B03     		lsl	r3, r3, #13
 447 0190 1360     		str	r3, [r2]
 283:.\Generated_Source\PSoC4/cyfitter_cfg.c **** 
 284:.\Generated_Source\PSoC4/cyfitter_cfg.c **** 		/* IOPINS0_3 Starting address: CYDEV_PRT3_DR */
 285:.\Generated_Source\PSoC4/cyfitter_cfg.c **** 		CY_SET_XTND_REG32((void CYFAR *)(CYREG_PRT3_PC), 0x00000D80u);
 448              		.loc 1 285 0
 449 0192 144A     		ldr	r2, .L24+12
 450 0194 D823     		mov	r3, #216
 451 0196 1B01     		lsl	r3, r3, #4
 452 0198 1360     		str	r3, [r2]
ARM GAS  C:\Users\maxk\AppData\Local\Temp\cc4ACgdP.s 			page 14


 286:.\Generated_Source\PSoC4/cyfitter_cfg.c **** 
 287:.\Generated_Source\PSoC4/cyfitter_cfg.c **** 		/* UDB_PA_1 Starting address: CYDEV_UDB_PA1_BASE */
 288:.\Generated_Source\PSoC4/cyfitter_cfg.c **** 		CY_SET_XTND_REG32((void CYFAR *)(CYDEV_UDB_PA1_BASE), 0x00990000u);
 453              		.loc 1 288 0
 454 019a 134A     		ldr	r2, .L24+16
 455 019c 9923     		mov	r3, #153
 456 019e 1B04     		lsl	r3, r3, #16
 457 01a0 1360     		str	r3, [r2]
 289:.\Generated_Source\PSoC4/cyfitter_cfg.c **** 
 290:.\Generated_Source\PSoC4/cyfitter_cfg.c **** 		/* UDB_PA_3 Starting address: CYDEV_UDB_PA3_BASE */
 291:.\Generated_Source\PSoC4/cyfitter_cfg.c **** 		CY_SET_XTND_REG32((void CYFAR *)(CYDEV_UDB_PA3_BASE), 0x00990000u);
 458              		.loc 1 291 0
 459 01a2 124A     		ldr	r2, .L24+20
 460 01a4 9923     		mov	r3, #153
 461 01a6 1B04     		lsl	r3, r3, #16
 462 01a8 1360     		str	r3, [r2]
 292:.\Generated_Source\PSoC4/cyfitter_cfg.c **** 
 293:.\Generated_Source\PSoC4/cyfitter_cfg.c **** 		/* Enable digital routing */
 294:.\Generated_Source\PSoC4/cyfitter_cfg.c **** 		CY_SET_XTND_REG8((void *)CYREG_UDB_UDBIF_BANK_CTL, CY_GET_XTND_REG8((void *)CYREG_UDB_UDBIF_BANK_
 463              		.loc 1 294 0
 464 01aa 114B     		ldr	r3, .L24+24
 465 01ac 104A     		ldr	r2, .L24+24
 466 01ae 1278     		ldrb	r2, [r2]
 467 01b0 D1B2     		uxtb	r1, r2
 468 01b2 0222     		mov	r2, #2
 469 01b4 0A43     		orr	r2, r2, r1
 470 01b6 D2B2     		uxtb	r2, r2
 471 01b8 1A70     		strb	r2, [r3]
 295:.\Generated_Source\PSoC4/cyfitter_cfg.c **** 
 296:.\Generated_Source\PSoC4/cyfitter_cfg.c **** 		/* Enable UDB array */
 297:.\Generated_Source\PSoC4/cyfitter_cfg.c **** 		CY_SET_XTND_REG8((void *)CYREG_UDB_UDBIF_BANK_CTL, CY_GET_XTND_REG8((void *)CYREG_UDB_UDBIF_BANK_
 472              		.loc 1 297 0
 473 01ba 0D4B     		ldr	r3, .L24+24
 474 01bc 0C4A     		ldr	r2, .L24+24
 475 01be 1278     		ldrb	r2, [r2]
 476 01c0 D1B2     		uxtb	r1, r2
 477 01c2 0622     		mov	r2, #6
 478 01c4 0A43     		orr	r2, r2, r1
 479 01c6 D2B2     		uxtb	r2, r2
 480 01c8 1A70     		strb	r2, [r3]
 481              	.LBE2:
 298:.\Generated_Source\PSoC4/cyfitter_cfg.c **** 	}
 299:.\Generated_Source\PSoC4/cyfitter_cfg.c **** 
 300:.\Generated_Source\PSoC4/cyfitter_cfg.c **** 	/* Setup clocks based on selections from Clock DWR */
 301:.\Generated_Source\PSoC4/cyfitter_cfg.c **** 	ClockSetup();
 482              		.loc 1 301 0
 483 01ca FFF771FF 		bl	ClockSetup
 302:.\Generated_Source\PSoC4/cyfitter_cfg.c **** 
 303:.\Generated_Source\PSoC4/cyfitter_cfg.c **** 	/* Perform basic analog initialization to defaults */
 304:.\Generated_Source\PSoC4/cyfitter_cfg.c **** 	AnalogSetDefault();
 484              		.loc 1 304 0
 485 01ce FFF7FEFF 		bl	AnalogSetDefault
 305:.\Generated_Source\PSoC4/cyfitter_cfg.c **** 
 306:.\Generated_Source\PSoC4/cyfitter_cfg.c **** }
 486              		.loc 1 306 0
 487 01d2 BD46     		mov	sp, r7
 488 01d4 02B0     		add	sp, sp, #8
ARM GAS  C:\Users\maxk\AppData\Local\Temp\cc4ACgdP.s 			page 15


 489              		@ sp needed for prologue
 490 01d6 80BD     		pop	{r7, pc}
 491              	.L25:
 492              		.align	2
 493              	.L24:
 494 01d8 00000000 		.word	cfg_memset_list.1882
 495 01dc 0C000140 		.word	1073807372
 496 01e0 08010440 		.word	1074004232
 497 01e4 08030440 		.word	1074004744
 498 01e8 10500F40 		.word	1074745360
 499 01ec 30500F40 		.word	1074745392
 500 01f0 00700F40 		.word	1074753536
 501              		.cfi_endproc
 502              	.LFE6:
 503              		.size	cyfitter_cfg, .-cyfitter_cfg
 504              		.section	.rodata
 505              		.align	2
 506              		.type	cfg_memset_list.1882, %object
 507              		.size	cfg_memset_list.1882, 12
 508              	cfg_memset_list.1882:
 509 0000 00300F40 		.word	1074737152
 510 0004 0004     		.short	1024
 511 0006 00400F40 		.4byte	1074741248
 512 000a 0004     		.short	1024
 513              		.align	2
 514              		.type	IMO_TRIM_FREQ_TABLE_ENTRIES.1827, %object
 515              		.size	IMO_TRIM_FREQ_TABLE_ENTRIES.1827, 4
 516              	IMO_TRIM_FREQ_TABLE_ENTRIES.1827:
 517 000c 04000000 		.word	4
 518              		.data
 519              		.align	2
 520              		.type	imo_trim_table.1826, %object
 521              		.size	imo_trim_table.1826, 4
 522              	imo_trim_table.1826:
 523 0000 C0F1FF0F 		.word	268431808
 524              		.text
 525              	.Letext0: