ARM GAS  C:\Users\maxk\AppData\Local\Temp\ccchLIRo.s 			page 1


   1              		.cpu cortex-m0
   2              		.fpu softvfp
   3              		.eabi_attribute 20, 1
   4              		.eabi_attribute 21, 1
   5              		.eabi_attribute 23, 3
   6              		.eabi_attribute 24, 1
   7              		.eabi_attribute 25, 1
   8              		.eabi_attribute 26, 1
   9              		.eabi_attribute 30, 6
  10              		.eabi_attribute 18, 4
  11              		.code	16
  12              		.file	"CyLib.c"
  19 0000 72040000 		.text
  19      02005E00 
  19      00000201 
  19      FB0E0D00 
  19      01010101 
  20              	.Ltext0:
  21              		.cfi_sections	.debug_frame
  22              		.global	cydelayFreqHz
  23              		.data
  24              		.align	2
  25              		.type	cydelayFreqHz, %object
  26              		.size	cydelayFreqHz, 4
  27              	cydelayFreqHz:
  28 0000 00366E01 		.word	24000000
  29              		.global	cydelayFreqKhz
  30              		.align	2
  31              		.type	cydelayFreqKhz, %object
  32              		.size	cydelayFreqKhz, 4
  33              	cydelayFreqKhz:
  34 0004 C05D0000 		.word	24000
  35              		.global	cydelayFreqMhz
  36              		.type	cydelayFreqMhz, %object
  37              		.size	cydelayFreqMhz, 1
  38              	cydelayFreqMhz:
  39 0008 18       		.byte	24
  40              		.global	cydelay32kMs
  41 0009 000000   		.align	2
  42              		.type	cydelay32kMs, %object
  43              		.size	cydelay32kMs, 4
  44              	cydelay32kMs:
  45 000c 0000E02E 		.word	786432000
  46              		.section	.text.CySysClkImoStart,"ax",%progbits
  47              		.align	2
  48              		.global	CySysClkImoStart
  49              		.code	16
  50              		.thumb_func
  51              		.type	CySysClkImoStart, %function
  52              	CySysClkImoStart:
  53              	.LFB0:
ARM GAS  C:\Users\maxk\AppData\Local\Temp\ccchLIRo.s 			page 2


  54              		.file 1 ".\\Generated_Source\\PSoC4\\CyLib.c"
   1:.\Generated_Source\PSoC4/CyLib.c **** /*******************************************************************************
   2:.\Generated_Source\PSoC4/CyLib.c **** * File Name: CyLib.c
   3:.\Generated_Source\PSoC4/CyLib.c **** * Version 3.40
   4:.\Generated_Source\PSoC4/CyLib.c **** *
   5:.\Generated_Source\PSoC4/CyLib.c **** *  Description:
   6:.\Generated_Source\PSoC4/CyLib.c **** *   Provides system API for the clocking, interrupts and watchdog timer.
   7:.\Generated_Source\PSoC4/CyLib.c **** *
   8:.\Generated_Source\PSoC4/CyLib.c **** *  Note:
   9:.\Generated_Source\PSoC4/CyLib.c **** *   Documentation of the API's in this file is located in the
  10:.\Generated_Source\PSoC4/CyLib.c **** *   System Reference Guide provided with PSoC Creator.
  11:.\Generated_Source\PSoC4/CyLib.c **** *
  12:.\Generated_Source\PSoC4/CyLib.c **** ********************************************************************************
  13:.\Generated_Source\PSoC4/CyLib.c **** * Copyright 2010-2013, Cypress Semiconductor Corporation.  All rights reserved.
  14:.\Generated_Source\PSoC4/CyLib.c **** * You may use this file only in accordance with the license, terms, conditions,
  15:.\Generated_Source\PSoC4/CyLib.c **** * disclaimers, and limitations in the end user license agreement accompanying
  16:.\Generated_Source\PSoC4/CyLib.c **** * the software package with which this file was provided.
  17:.\Generated_Source\PSoC4/CyLib.c **** *******************************************************************************/
  18:.\Generated_Source\PSoC4/CyLib.c **** 
  19:.\Generated_Source\PSoC4/CyLib.c **** #include "CyLib.h"
  20:.\Generated_Source\PSoC4/CyLib.c **** 
  21:.\Generated_Source\PSoC4/CyLib.c **** 
  22:.\Generated_Source\PSoC4/CyLib.c **** /* Do not use these definitions directly in your application */
  23:.\Generated_Source\PSoC4/CyLib.c **** uint32 cydelayFreqHz  = CYDEV_BCLK__SYSCLK__HZ;
  24:.\Generated_Source\PSoC4/CyLib.c **** uint32 cydelayFreqKhz = (CYDEV_BCLK__SYSCLK__HZ + CY_DELAY_1K_MINUS_1_THRESHOLD) / CY_DELAY_1K_THRE
  25:.\Generated_Source\PSoC4/CyLib.c **** uint8  cydelayFreqMhz = (uint8)((CYDEV_BCLK__SYSCLK__HZ + CY_DELAY_1M_MINUS_1_THRESHOLD) / CY_DELAY
  26:.\Generated_Source\PSoC4/CyLib.c **** uint32 cydelay32kMs   = CY_DELAY_MS_OVERFLOW * ((CYDEV_BCLK__SYSCLK__HZ + CY_DELAY_1K_MINUS_1_THRES
  27:.\Generated_Source\PSoC4/CyLib.c ****                         CY_DELAY_1K_THRESHOLD);
  28:.\Generated_Source\PSoC4/CyLib.c **** 
  29:.\Generated_Source\PSoC4/CyLib.c **** 
  30:.\Generated_Source\PSoC4/CyLib.c **** /*******************************************************************************
  31:.\Generated_Source\PSoC4/CyLib.c **** * Function Name: CySysClkImoStart
  32:.\Generated_Source\PSoC4/CyLib.c **** ********************************************************************************
  33:.\Generated_Source\PSoC4/CyLib.c **** *
  34:.\Generated_Source\PSoC4/CyLib.c **** * Summary:
  35:.\Generated_Source\PSoC4/CyLib.c **** *  Enables the IMO.
  36:.\Generated_Source\PSoC4/CyLib.c **** *
  37:.\Generated_Source\PSoC4/CyLib.c **** * Parameters:
  38:.\Generated_Source\PSoC4/CyLib.c **** *  None
  39:.\Generated_Source\PSoC4/CyLib.c **** *
  40:.\Generated_Source\PSoC4/CyLib.c **** * Return:
  41:.\Generated_Source\PSoC4/CyLib.c **** *  None
  42:.\Generated_Source\PSoC4/CyLib.c **** *
  43:.\Generated_Source\PSoC4/CyLib.c **** *******************************************************************************/
  44:.\Generated_Source\PSoC4/CyLib.c **** void CySysClkImoStart(void)
  45:.\Generated_Source\PSoC4/CyLib.c **** {
  55              		.loc 1 45 0
  56              		.cfi_startproc
  57 0000 80B5     		push	{r7, lr}
  58              	.LCFI0:
  59              		.cfi_def_cfa_offset 8
  60              		.cfi_offset 7, -8
  61              		.cfi_offset 14, -4
  62 0002 00AF     		add	r7, sp, #0
  63              	.LCFI1:
  64              		.cfi_def_cfa_register 7
  46:.\Generated_Source\PSoC4/CyLib.c ****     CY_SYS_CLK_IMO_CONFIG_REG |= CY_SYS_CLK_IMO_CONFIG_ENABLE;
ARM GAS  C:\Users\maxk\AppData\Local\Temp\ccchLIRo.s 			page 3


  65              		.loc 1 46 0
  66 0004 044A     		ldr	r2, .L3
  67 0006 044B     		ldr	r3, .L3
  68 0008 1968     		ldr	r1, [r3]
  69 000a 8023     		mov	r3, #128
  70 000c 1B06     		lsl	r3, r3, #24
  71 000e 0B43     		orr	r3, r3, r1
  72 0010 1360     		str	r3, [r2]
  47:.\Generated_Source\PSoC4/CyLib.c **** }
  73              		.loc 1 47 0
  74 0012 BD46     		mov	sp, r7
  75              		@ sp needed for prologue
  76 0014 80BD     		pop	{r7, pc}
  77              	.L4:
  78 0016 C046     		.align	2
  79              	.L3:
  80 0018 08010B40 		.word	1074462984
  81              		.cfi_endproc
  82              	.LFE0:
  83              		.size	CySysClkImoStart, .-CySysClkImoStart
  84              		.section	.text.CySysClkImoStop,"ax",%progbits
  85              		.align	2
  86              		.global	CySysClkImoStop
  87              		.code	16
  88              		.thumb_func
  89              		.type	CySysClkImoStop, %function
  90              	CySysClkImoStop:
  91              	.LFB1:
  48:.\Generated_Source\PSoC4/CyLib.c **** 
  49:.\Generated_Source\PSoC4/CyLib.c **** 
  50:.\Generated_Source\PSoC4/CyLib.c **** /*******************************************************************************
  51:.\Generated_Source\PSoC4/CyLib.c **** * Function Name: CySysClkImoStop
  52:.\Generated_Source\PSoC4/CyLib.c **** ********************************************************************************
  53:.\Generated_Source\PSoC4/CyLib.c **** *
  54:.\Generated_Source\PSoC4/CyLib.c **** * Summary:
  55:.\Generated_Source\PSoC4/CyLib.c **** *  Disables the IMO.
  56:.\Generated_Source\PSoC4/CyLib.c **** *
  57:.\Generated_Source\PSoC4/CyLib.c **** * Parameters:
  58:.\Generated_Source\PSoC4/CyLib.c **** *  None
  59:.\Generated_Source\PSoC4/CyLib.c **** *
  60:.\Generated_Source\PSoC4/CyLib.c **** * Return:
  61:.\Generated_Source\PSoC4/CyLib.c **** *  None
  62:.\Generated_Source\PSoC4/CyLib.c **** *
  63:.\Generated_Source\PSoC4/CyLib.c **** *******************************************************************************/
  64:.\Generated_Source\PSoC4/CyLib.c **** void CySysClkImoStop(void)
  65:.\Generated_Source\PSoC4/CyLib.c **** {
  92              		.loc 1 65 0
  93              		.cfi_startproc
  94 0000 80B5     		push	{r7, lr}
  95              	.LCFI2:
  96              		.cfi_def_cfa_offset 8
  97              		.cfi_offset 7, -8
  98              		.cfi_offset 14, -4
  99 0002 00AF     		add	r7, sp, #0
 100              	.LCFI3:
 101              		.cfi_def_cfa_register 7
  66:.\Generated_Source\PSoC4/CyLib.c ****     CY_SYS_CLK_IMO_CONFIG_REG &= ( uint32 ) ( ~( uint32 )CY_SYS_CLK_IMO_CONFIG_ENABLE);
ARM GAS  C:\Users\maxk\AppData\Local\Temp\ccchLIRo.s 			page 4


 102              		.loc 1 66 0
 103 0004 034B     		ldr	r3, .L7
 104 0006 034A     		ldr	r2, .L7
 105 0008 1268     		ldr	r2, [r2]
 106 000a 5200     		lsl	r2, r2, #1
 107 000c 5208     		lsr	r2, r2, #1
 108 000e 1A60     		str	r2, [r3]
  67:.\Generated_Source\PSoC4/CyLib.c **** }
 109              		.loc 1 67 0
 110 0010 BD46     		mov	sp, r7
 111              		@ sp needed for prologue
 112 0012 80BD     		pop	{r7, pc}
 113              	.L8:
 114              		.align	2
 115              	.L7:
 116 0014 08010B40 		.word	1074462984
 117              		.cfi_endproc
 118              	.LFE1:
 119              		.size	CySysClkImoStop, .-CySysClkImoStop
 120              		.section	.text.CySysClkIloStart,"ax",%progbits
 121              		.align	2
 122              		.global	CySysClkIloStart
 123              		.code	16
 124              		.thumb_func
 125              		.type	CySysClkIloStart, %function
 126              	CySysClkIloStart:
 127              	.LFB2:
  68:.\Generated_Source\PSoC4/CyLib.c **** 
  69:.\Generated_Source\PSoC4/CyLib.c **** 
  70:.\Generated_Source\PSoC4/CyLib.c **** /*******************************************************************************
  71:.\Generated_Source\PSoC4/CyLib.c **** * Function Name: CySysClkIloStart
  72:.\Generated_Source\PSoC4/CyLib.c **** ********************************************************************************
  73:.\Generated_Source\PSoC4/CyLib.c **** *
  74:.\Generated_Source\PSoC4/CyLib.c **** * Summary:
  75:.\Generated_Source\PSoC4/CyLib.c **** *  Enables the ILO.
  76:.\Generated_Source\PSoC4/CyLib.c **** *
  77:.\Generated_Source\PSoC4/CyLib.c **** * Parameters:
  78:.\Generated_Source\PSoC4/CyLib.c **** *  None
  79:.\Generated_Source\PSoC4/CyLib.c **** *
  80:.\Generated_Source\PSoC4/CyLib.c **** * Return:
  81:.\Generated_Source\PSoC4/CyLib.c **** *  None
  82:.\Generated_Source\PSoC4/CyLib.c **** *
  83:.\Generated_Source\PSoC4/CyLib.c **** *******************************************************************************/
  84:.\Generated_Source\PSoC4/CyLib.c **** void CySysClkIloStart(void)
  85:.\Generated_Source\PSoC4/CyLib.c **** {
 128              		.loc 1 85 0
 129              		.cfi_startproc
 130 0000 80B5     		push	{r7, lr}
 131              	.LCFI4:
 132              		.cfi_def_cfa_offset 8
 133              		.cfi_offset 7, -8
 134              		.cfi_offset 14, -4
 135 0002 00AF     		add	r7, sp, #0
 136              	.LCFI5:
 137              		.cfi_def_cfa_register 7
  86:.\Generated_Source\PSoC4/CyLib.c ****     CY_SYS_CLK_ILO_CONFIG_REG |= CY_SYS_CLK_ILO_CONFIG_ENABLE;
 138              		.loc 1 86 0
ARM GAS  C:\Users\maxk\AppData\Local\Temp\ccchLIRo.s 			page 5


 139 0004 044A     		ldr	r2, .L11
 140 0006 044B     		ldr	r3, .L11
 141 0008 1968     		ldr	r1, [r3]
 142 000a 8023     		mov	r3, #128
 143 000c 1B06     		lsl	r3, r3, #24
 144 000e 0B43     		orr	r3, r3, r1
 145 0010 1360     		str	r3, [r2]
  87:.\Generated_Source\PSoC4/CyLib.c **** }
 146              		.loc 1 87 0
 147 0012 BD46     		mov	sp, r7
 148              		@ sp needed for prologue
 149 0014 80BD     		pop	{r7, pc}
 150              	.L12:
 151 0016 C046     		.align	2
 152              	.L11:
 153 0018 04010B40 		.word	1074462980
 154              		.cfi_endproc
 155              	.LFE2:
 156              		.size	CySysClkIloStart, .-CySysClkIloStart
 157              		.section	.text.CySysClkIloStop,"ax",%progbits
 158              		.align	2
 159              		.global	CySysClkIloStop
 160              		.code	16
 161              		.thumb_func
 162              		.type	CySysClkIloStop, %function
 163              	CySysClkIloStop:
 164              	.LFB3:
  88:.\Generated_Source\PSoC4/CyLib.c **** 
  89:.\Generated_Source\PSoC4/CyLib.c **** 
  90:.\Generated_Source\PSoC4/CyLib.c **** /*******************************************************************************
  91:.\Generated_Source\PSoC4/CyLib.c **** * Function Name: CySysClkIloStop
  92:.\Generated_Source\PSoC4/CyLib.c **** ********************************************************************************
  93:.\Generated_Source\PSoC4/CyLib.c **** *
  94:.\Generated_Source\PSoC4/CyLib.c **** * Summary:
  95:.\Generated_Source\PSoC4/CyLib.c **** *  Disables the ILO.
  96:.\Generated_Source\PSoC4/CyLib.c **** *
  97:.\Generated_Source\PSoC4/CyLib.c **** * Parameters:
  98:.\Generated_Source\PSoC4/CyLib.c **** *  None
  99:.\Generated_Source\PSoC4/CyLib.c **** *
 100:.\Generated_Source\PSoC4/CyLib.c **** * Return:
 101:.\Generated_Source\PSoC4/CyLib.c **** *  None
 102:.\Generated_Source\PSoC4/CyLib.c **** *
 103:.\Generated_Source\PSoC4/CyLib.c **** * Side Effects:
 104:.\Generated_Source\PSoC4/CyLib.c **** *  This function will have no effect if WDT is locked (CySysWdtLock() is
 105:.\Generated_Source\PSoC4/CyLib.c **** *  called). Call CySysWdtUnlock() to unlock WDT and be able to stop ILO.
 106:.\Generated_Source\PSoC4/CyLib.c **** *  Note that ILO is required for WDT's operation.
 107:.\Generated_Source\PSoC4/CyLib.c **** *
 108:.\Generated_Source\PSoC4/CyLib.c **** *******************************************************************************/
 109:.\Generated_Source\PSoC4/CyLib.c **** void CySysClkIloStop(void)
 110:.\Generated_Source\PSoC4/CyLib.c **** {
 165              		.loc 1 110 0
 166              		.cfi_startproc
 167 0000 80B5     		push	{r7, lr}
 168              	.LCFI6:
 169              		.cfi_def_cfa_offset 8
 170              		.cfi_offset 7, -8
 171              		.cfi_offset 14, -4
ARM GAS  C:\Users\maxk\AppData\Local\Temp\ccchLIRo.s 			page 6


 172 0002 00AF     		add	r7, sp, #0
 173              	.LCFI7:
 174              		.cfi_def_cfa_register 7
 111:.\Generated_Source\PSoC4/CyLib.c ****     CY_SYS_CLK_ILO_CONFIG_REG &= ( uint32 ) ( ~( uint32 )CY_SYS_CLK_ILO_CONFIG_ENABLE);
 175              		.loc 1 111 0
 176 0004 034B     		ldr	r3, .L15
 177 0006 034A     		ldr	r2, .L15
 178 0008 1268     		ldr	r2, [r2]
 179 000a 5200     		lsl	r2, r2, #1
 180 000c 5208     		lsr	r2, r2, #1
 181 000e 1A60     		str	r2, [r3]
 112:.\Generated_Source\PSoC4/CyLib.c **** }
 182              		.loc 1 112 0
 183 0010 BD46     		mov	sp, r7
 184              		@ sp needed for prologue
 185 0012 80BD     		pop	{r7, pc}
 186              	.L16:
 187              		.align	2
 188              	.L15:
 189 0014 04010B40 		.word	1074462980
 190              		.cfi_endproc
 191              	.LFE3:
 192              		.size	CySysClkIloStop, .-CySysClkIloStop
 193              		.section	.text.CySysClkWriteHfclkDirect,"ax",%progbits
 194              		.align	2
 195              		.global	CySysClkWriteHfclkDirect
 196              		.code	16
 197              		.thumb_func
 198              		.type	CySysClkWriteHfclkDirect, %function
 199              	CySysClkWriteHfclkDirect:
 200              	.LFB4:
 113:.\Generated_Source\PSoC4/CyLib.c **** 
 114:.\Generated_Source\PSoC4/CyLib.c **** 
 115:.\Generated_Source\PSoC4/CyLib.c **** /*******************************************************************************
 116:.\Generated_Source\PSoC4/CyLib.c **** * Function Name: CySysClkWriteHfclkDirect
 117:.\Generated_Source\PSoC4/CyLib.c **** ********************************************************************************
 118:.\Generated_Source\PSoC4/CyLib.c **** *
 119:.\Generated_Source\PSoC4/CyLib.c **** * Summary:
 120:.\Generated_Source\PSoC4/CyLib.c **** *  Selects the direct source for the HFCLK.
 121:.\Generated_Source\PSoC4/CyLib.c **** *
 122:.\Generated_Source\PSoC4/CyLib.c **** * Parameters:
 123:.\Generated_Source\PSoC4/CyLib.c **** *  clkSelect: One of the available HFCLK direct sources:
 124:.\Generated_Source\PSoC4/CyLib.c **** *   Value        Define                    Source
 125:.\Generated_Source\PSoC4/CyLib.c **** *    0            CY_SYS_CLK_HFCLK_IMO      IMO
 126:.\Generated_Source\PSoC4/CyLib.c **** *    1            CY_SYS_CLK_HFCLK_EXTCLK   External clock pin
 127:.\Generated_Source\PSoC4/CyLib.c **** *
 128:.\Generated_Source\PSoC4/CyLib.c **** * Return:
 129:.\Generated_Source\PSoC4/CyLib.c **** *  None
 130:.\Generated_Source\PSoC4/CyLib.c **** *
 131:.\Generated_Source\PSoC4/CyLib.c **** * Side Effects:
 132:.\Generated_Source\PSoC4/CyLib.c **** *  The new source must be running and stable before calling this function.
 133:.\Generated_Source\PSoC4/CyLib.c **** *  Direct source is default option for HFCLK.
 134:.\Generated_Source\PSoC4/CyLib.c **** *
 135:.\Generated_Source\PSoC4/CyLib.c **** *  If the SYSCLK clock frequency increases during device operation, call
 136:.\Generated_Source\PSoC4/CyLib.c **** *  CySysFlashSetWaitCycles() with the appropriate parameter to adjust the number
 137:.\Generated_Source\PSoC4/CyLib.c **** *  of clock cycles cache will wait before sampling data coming back from Flash.
 138:.\Generated_Source\PSoC4/CyLib.c **** *  If the SYSCLK clock frequency decreases, you can call CyFlash_SetWaitCycles()
ARM GAS  C:\Users\maxk\AppData\Local\Temp\ccchLIRo.s 			page 7


 139:.\Generated_Source\PSoC4/CyLib.c **** *  to improve CPU performance. See CySysFlashSetWaitCycles() for more
 140:.\Generated_Source\PSoC4/CyLib.c **** *  information.
 141:.\Generated_Source\PSoC4/CyLib.c **** *
 142:.\Generated_Source\PSoC4/CyLib.c **** *******************************************************************************/
 143:.\Generated_Source\PSoC4/CyLib.c **** void CySysClkWriteHfclkDirect(uint32 clkSelect)
 144:.\Generated_Source\PSoC4/CyLib.c **** {
 201              		.loc 1 144 0
 202              		.cfi_startproc
 203 0000 80B5     		push	{r7, lr}
 204              	.LCFI8:
 205              		.cfi_def_cfa_offset 8
 206              		.cfi_offset 7, -8
 207              		.cfi_offset 14, -4
 208 0002 82B0     		sub	sp, sp, #8
 209              	.LCFI9:
 210              		.cfi_def_cfa_offset 16
 211 0004 00AF     		add	r7, sp, #0
 212              	.LCFI10:
 213              		.cfi_def_cfa_register 7
 214 0006 7860     		str	r0, [r7, #4]
 145:.\Generated_Source\PSoC4/CyLib.c ****     CY_SYS_CLK_SELECT_REG = ((CY_SYS_CLK_SELECT_REG & (( uint32 ) ~(( uint32 )CY_SYS_CLK_SELECT_DIR
 215              		.loc 1 145 0
 216 0008 074B     		ldr	r3, .L19
 217 000a 074A     		ldr	r2, .L19
 218 000c 1268     		ldr	r2, [r2]
 219 000e 0721     		mov	r1, #7
 220 0010 101C     		mov	r0, r2
 221 0012 8843     		bic	r0, r0, r1
 222 0014 011C     		mov	r1, r0
 146:.\Generated_Source\PSoC4/CyLib.c ****                         (( uint32 ) ( ( uint32 )clkSelect & ( uint32 )CY_SYS_CLK_SELECT_DIRECT_SEL_
 223              		.loc 1 146 0
 224 0016 7868     		ldr	r0, [r7, #4]
 225 0018 0122     		mov	r2, #1
 226 001a 0240     		and	r2, r2, r0
 227              		.loc 1 145 0
 228 001c 0A43     		orr	r2, r2, r1
 229 001e 1A60     		str	r2, [r3]
 147:.\Generated_Source\PSoC4/CyLib.c **** }
 230              		.loc 1 147 0
 231 0020 BD46     		mov	sp, r7
 232 0022 02B0     		add	sp, sp, #8
 233              		@ sp needed for prologue
 234 0024 80BD     		pop	{r7, pc}
 235              	.L20:
 236 0026 C046     		.align	2
 237              	.L19:
 238 0028 00010B40 		.word	1074462976
 239              		.cfi_endproc
 240              	.LFE4:
 241              		.size	CySysClkWriteHfclkDirect, .-CySysClkWriteHfclkDirect
 242              		.section	.text.CySysClkWriteSysclkDiv,"ax",%progbits
 243              		.align	2
 244              		.global	CySysClkWriteSysclkDiv
 245              		.code	16
 246              		.thumb_func
 247              		.type	CySysClkWriteSysclkDiv, %function
 248              	CySysClkWriteSysclkDiv:
ARM GAS  C:\Users\maxk\AppData\Local\Temp\ccchLIRo.s 			page 8


 249              	.LFB5:
 148:.\Generated_Source\PSoC4/CyLib.c **** 
 149:.\Generated_Source\PSoC4/CyLib.c **** 
 150:.\Generated_Source\PSoC4/CyLib.c **** /*******************************************************************************
 151:.\Generated_Source\PSoC4/CyLib.c **** * Function Name: CySysClkWriteSysclkDiv
 152:.\Generated_Source\PSoC4/CyLib.c **** ********************************************************************************
 153:.\Generated_Source\PSoC4/CyLib.c **** *
 154:.\Generated_Source\PSoC4/CyLib.c **** * Summary:
 155:.\Generated_Source\PSoC4/CyLib.c **** *  Selects SYSCLK from HFCLK pre-scaler value.
 156:.\Generated_Source\PSoC4/CyLib.c **** *
 157:.\Generated_Source\PSoC4/CyLib.c **** * Parameters:
 158:.\Generated_Source\PSoC4/CyLib.c **** *  divider: Power of 2 prescaler selection
 159:.\Generated_Source\PSoC4/CyLib.c **** *
 160:.\Generated_Source\PSoC4/CyLib.c **** *   Value    Define                        Description
 161:.\Generated_Source\PSoC4/CyLib.c **** *   0        CY_SYS_CLK_SYSCLK_DIV1        SYSCLK = HFCLK / 1
 162:.\Generated_Source\PSoC4/CyLib.c **** *   1        CY_SYS_CLK_SYSCLK_DIV2        SYSCLK = HFCLK / 2
 163:.\Generated_Source\PSoC4/CyLib.c **** *   2        CY_SYS_CLK_SYSCLK_DIV4        SYSCLK = HFCLK / 4
 164:.\Generated_Source\PSoC4/CyLib.c **** *   3        CY_SYS_CLK_SYSCLK_DIV8        SYSCLK = HFCLK / 8
 165:.\Generated_Source\PSoC4/CyLib.c **** *   4        CY_SYS_CLK_SYSCLK_DIV16       SYSCLK = HFCLK / 16
 166:.\Generated_Source\PSoC4/CyLib.c **** *   5        CY_SYS_CLK_SYSCLK_DIV32       SYSCLK = HFCLK / 32
 167:.\Generated_Source\PSoC4/CyLib.c **** *   6        CY_SYS_CLK_SYSCLK_DIV64       SYSCLK = HFCLK / 64
 168:.\Generated_Source\PSoC4/CyLib.c **** *   7        CY_SYS_CLK_SYSCLK_DIV128      SYSCLK = HFCLK / 128
 169:.\Generated_Source\PSoC4/CyLib.c **** *
 170:.\Generated_Source\PSoC4/CyLib.c **** * Return:
 171:.\Generated_Source\PSoC4/CyLib.c **** *  None
 172:.\Generated_Source\PSoC4/CyLib.c **** *
 173:.\Generated_Source\PSoC4/CyLib.c **** * Side Effects:
 174:.\Generated_Source\PSoC4/CyLib.c **** *  If the SYSCLK clock frequency increases during device operation, call
 175:.\Generated_Source\PSoC4/CyLib.c **** *  CySysFlashSetWaitCycles() with the appropriate parameter to adjust the number
 176:.\Generated_Source\PSoC4/CyLib.c **** *  of clock cycles cache will wait before sampling data coming back from Flash.
 177:.\Generated_Source\PSoC4/CyLib.c **** *  If the SYSCLK clock frequency decreases, you can call CyFlash_SetWaitCycles()
 178:.\Generated_Source\PSoC4/CyLib.c **** *  to improve CPU performance. See CySysFlashSetWaitCycles() for more
 179:.\Generated_Source\PSoC4/CyLib.c **** *  information.
 180:.\Generated_Source\PSoC4/CyLib.c **** *
 181:.\Generated_Source\PSoC4/CyLib.c **** *******************************************************************************/
 182:.\Generated_Source\PSoC4/CyLib.c **** void CySysClkWriteSysclkDiv(uint32 divider)
 183:.\Generated_Source\PSoC4/CyLib.c **** {
 250              		.loc 1 183 0
 251              		.cfi_startproc
 252 0000 80B5     		push	{r7, lr}
 253              	.LCFI11:
 254              		.cfi_def_cfa_offset 8
 255              		.cfi_offset 7, -8
 256              		.cfi_offset 14, -4
 257 0002 82B0     		sub	sp, sp, #8
 258              	.LCFI12:
 259              		.cfi_def_cfa_offset 16
 260 0004 00AF     		add	r7, sp, #0
 261              	.LCFI13:
 262              		.cfi_def_cfa_register 7
 263 0006 7860     		str	r0, [r7, #4]
 184:.\Generated_Source\PSoC4/CyLib.c ****     CY_SYS_CLK_SELECT_REG = ((uint32)(((uint32)divider & CY_SYS_CLK_SELECT_SYSCLK_DIV_MASK) <<
 264              		.loc 1 184 0
 265 0008 064B     		ldr	r3, .L23
 266 000a 7968     		ldr	r1, [r7, #4]
 267 000c 0722     		mov	r2, #7
 268 000e 0A40     		and	r2, r2, r1
ARM GAS  C:\Users\maxk\AppData\Local\Temp\ccchLIRo.s 			page 9


 269 0010 D104     		lsl	r1, r2, #19
 185:.\Generated_Source\PSoC4/CyLib.c ****                                     CY_SYS_CLK_SELECT_SYSCLK_DIV_SHIFT)) |
 186:.\Generated_Source\PSoC4/CyLib.c ****                             (CY_SYS_CLK_SELECT_REG & ((uint32)(~(uint32)(CY_SYS_CLK_SELECT_SYSCLK_D
 270              		.loc 1 186 0
 271 0012 044A     		ldr	r2, .L23
 272 0014 1068     		ldr	r0, [r2]
 273 0016 044A     		ldr	r2, .L23+4
 274 0018 0240     		and	r2, r2, r0
 275              		.loc 1 184 0
 276 001a 0A43     		orr	r2, r2, r1
 277 001c 1A60     		str	r2, [r3]
 187:.\Generated_Source\PSoC4/CyLib.c ****                                     CY_SYS_CLK_SELECT_SYSCLK_DIV_SHIFT))));
 188:.\Generated_Source\PSoC4/CyLib.c **** }
 278              		.loc 1 188 0
 279 001e BD46     		mov	sp, r7
 280 0020 02B0     		add	sp, sp, #8
 281              		@ sp needed for prologue
 282 0022 80BD     		pop	{r7, pc}
 283              	.L24:
 284              		.align	2
 285              	.L23:
 286 0024 00010B40 		.word	1074462976
 287 0028 FFFFC7FF 		.word	-3670017
 288              		.cfi_endproc
 289              	.LFE5:
 290              		.size	CySysClkWriteSysclkDiv, .-CySysClkWriteSysclkDiv
 291              		.section	.text.CySysClkWriteImoFreq,"ax",%progbits
 292              		.align	2
 293              		.global	CySysClkWriteImoFreq
 294              		.code	16
 295              		.thumb_func
 296              		.type	CySysClkWriteImoFreq, %function
 297              	CySysClkWriteImoFreq:
 298              	.LFB6:
 189:.\Generated_Source\PSoC4/CyLib.c **** 
 190:.\Generated_Source\PSoC4/CyLib.c **** 
 191:.\Generated_Source\PSoC4/CyLib.c **** /*******************************************************************************
 192:.\Generated_Source\PSoC4/CyLib.c **** * Function Name: CySysClkWriteImoFreq
 193:.\Generated_Source\PSoC4/CyLib.c **** ********************************************************************************
 194:.\Generated_Source\PSoC4/CyLib.c **** *
 195:.\Generated_Source\PSoC4/CyLib.c **** * Summary:
 196:.\Generated_Source\PSoC4/CyLib.c **** *  Sets the frequency of the IMO.
 197:.\Generated_Source\PSoC4/CyLib.c **** *
 198:.\Generated_Source\PSoC4/CyLib.c **** * Parameters:
 199:.\Generated_Source\PSoC4/CyLib.c **** *  freq: Valid range [3-48].  Frequency for operation of the IMO.
 200:.\Generated_Source\PSoC4/CyLib.c **** *  Note: Invalid frequency will be ignored.
 201:.\Generated_Source\PSoC4/CyLib.c **** *
 202:.\Generated_Source\PSoC4/CyLib.c **** * Return:
 203:.\Generated_Source\PSoC4/CyLib.c **** *  None
 204:.\Generated_Source\PSoC4/CyLib.c **** *
 205:.\Generated_Source\PSoC4/CyLib.c **** * Side Effects:
 206:.\Generated_Source\PSoC4/CyLib.c **** *  If the SYSCLK clock frequency increases during device operation, call
 207:.\Generated_Source\PSoC4/CyLib.c **** *  CySysFlashSetWaitCycles() with the appropriate parameter to adjust the number
 208:.\Generated_Source\PSoC4/CyLib.c **** *  of clock cycles cache will wait before sampling data coming back from Flash.
 209:.\Generated_Source\PSoC4/CyLib.c **** *  If the SYSCLK clock frequency decreases, you can call CyFlash_SetWaitCycles()
 210:.\Generated_Source\PSoC4/CyLib.c **** *  to improve CPU performance. See CySysFlashSetWaitCycles() for more
 211:.\Generated_Source\PSoC4/CyLib.c **** *  information.
ARM GAS  C:\Users\maxk\AppData\Local\Temp\ccchLIRo.s 			page 10


 212:.\Generated_Source\PSoC4/CyLib.c **** *
 213:.\Generated_Source\PSoC4/CyLib.c **** *******************************************************************************/
 214:.\Generated_Source\PSoC4/CyLib.c **** void CySysClkWriteImoFreq(uint32 freq)
 215:.\Generated_Source\PSoC4/CyLib.c **** {
 299              		.loc 1 215 0
 300              		.cfi_startproc
 301 0000 80B5     		push	{r7, lr}
 302              	.LCFI14:
 303              		.cfi_def_cfa_offset 8
 304              		.cfi_offset 7, -8
 305              		.cfi_offset 14, -4
 306 0002 86B0     		sub	sp, sp, #24
 307              	.LCFI15:
 308              		.cfi_def_cfa_offset 32
 309 0004 00AF     		add	r7, sp, #0
 310              	.LCFI16:
 311              		.cfi_def_cfa_register 7
 312 0006 7860     		str	r0, [r7, #4]
 216:.\Generated_Source\PSoC4/CyLib.c ****     uint8  bgTrim4;
 217:.\Generated_Source\PSoC4/CyLib.c ****     uint8  bgTrim5;
 218:.\Generated_Source\PSoC4/CyLib.c ****     uint32 currentFreq = CY_SYS_CLK_IMO_MAX_FREQ_MHZ;
 313              		.loc 1 218 0
 314 0008 3023     		mov	r3, #48
 315 000a FB60     		str	r3, [r7, #12]
 219:.\Generated_Source\PSoC4/CyLib.c ****     uint8  interruptState;
 220:.\Generated_Source\PSoC4/CyLib.c ****     uint32 i;
 221:.\Generated_Source\PSoC4/CyLib.c **** 
 222:.\Generated_Source\PSoC4/CyLib.c ****     /* Convertion between CySysClkWriteImoFreq() parameter and register's value */
 223:.\Generated_Source\PSoC4/CyLib.c ****     static const uint8 cyImoFreqMhz2Reg[CY_SYS_CLK_IMO_FREQ_TABLE_SIZE] = {
 224:.\Generated_Source\PSoC4/CyLib.c ****         /*  3 MHz */ 0x03u,  /*  4 MHz */ 0x04u,  /*  5 MHz */ 0x05u,  /*  6 MHz */ 0x06u,
 225:.\Generated_Source\PSoC4/CyLib.c ****         /*  7 MHz */ 0x07u,  /*  8 MHz */ 0x08u,  /*  9 MHz */ 0x09u,  /* 10 MHz */ 0x0Au,
 226:.\Generated_Source\PSoC4/CyLib.c ****         /* 11 MHz */ 0x0Bu,  /* 12 MHz */ 0x0Cu,  /* 13 MHz */ 0x0Eu,  /* 14 MHz */ 0x0Fu,
 227:.\Generated_Source\PSoC4/CyLib.c ****         /* 15 MHz */ 0x10u,  /* 16 MHz */ 0x11u,  /* 17 MHz */ 0x12u,  /* 18 MHz */ 0x13u,
 228:.\Generated_Source\PSoC4/CyLib.c ****         /* 19 MHz */ 0x14u,  /* 20 MHz */ 0x15u,  /* 21 MHz */ 0x16u,  /* 22 MHz */ 0x17u,
 229:.\Generated_Source\PSoC4/CyLib.c ****         /* 23 MHz */ 0x18u,  /* 24 MHz */ 0x19u,  /* 25 MHz */ 0x1Bu,  /* 26 MHz */ 0x1Cu,
 230:.\Generated_Source\PSoC4/CyLib.c ****         /* 27 MHz */ 0x1Du,  /* 28 MHz */ 0x1Eu,  /* 29 MHz */ 0x1Fu,  /* 30 MHz */ 0x20u,
 231:.\Generated_Source\PSoC4/CyLib.c ****         /* 31 MHz */ 0x21u,  /* 32 MHz */ 0x22u,  /* 33 MHz */ 0x23u,  /* 34 MHz */ 0x25u,
 232:.\Generated_Source\PSoC4/CyLib.c ****         /* 35 MHz */ 0x26u,  /* 36 MHz */ 0x27u,  /* 37 MHz */ 0x28u,  /* 38 MHz */ 0x29u,
 233:.\Generated_Source\PSoC4/CyLib.c ****         /* 39 MHz */ 0x2Au,  /* 40 MHz */ 0x2Bu,  /* 41 MHz */ 0x2Eu,  /* 42 MHz */ 0x2Fu,
 234:.\Generated_Source\PSoC4/CyLib.c ****         /* 43 MHz */ 0x30u,  /* 44 MHz */ 0x31u,  /* 45 MHz */ 0x32u,  /* 46 MHz */ 0x33u,
 235:.\Generated_Source\PSoC4/CyLib.c ****         /* 47 MHz */ 0x34u,  /* 48 MHz */ 0x35u };
 236:.\Generated_Source\PSoC4/CyLib.c **** 
 237:.\Generated_Source\PSoC4/CyLib.c **** 
 238:.\Generated_Source\PSoC4/CyLib.c ****     if ((freq >= CY_SYS_CLK_IMO_MIN_FREQ_MHZ) && (freq <= CY_SYS_CLK_IMO_MAX_FREQ_MHZ))
 316              		.loc 1 238 0
 317 000c 7B68     		ldr	r3, [r7, #4]
 318 000e 022B     		cmp	r3, #2
 319 0010 00D8     		bhi	.LCB181
 320 0012 C8E0     		b	.L26	@long jump
 321              	.LCB181:
 322 0014 7B68     		ldr	r3, [r7, #4]
 323 0016 302B     		cmp	r3, #48
 324 0018 00D9     		bls	.LCB184
 325 001a C4E0     		b	.L26	@long jump
 326              	.LCB184:
 239:.\Generated_Source\PSoC4/CyLib.c ****     {
 240:.\Generated_Source\PSoC4/CyLib.c ****         interruptState = CyEnterCriticalSection();
ARM GAS  C:\Users\maxk\AppData\Local\Temp\ccchLIRo.s 			page 11


 327              		.loc 1 240 0
 328 001c FFF7FEFF 		bl	CyEnterCriticalSection
 329 0020 031C     		mov	r3, r0
 330 0022 1A1C     		mov	r2, r3
 331 0024 3B1C     		mov	r3, r7
 332 0026 1333     		add	r3, r3, #19
 333 0028 1A70     		strb	r2, [r3]
 241:.\Generated_Source\PSoC4/CyLib.c **** 
 242:.\Generated_Source\PSoC4/CyLib.c ****         /* Get current IMO frequency */
 243:.\Generated_Source\PSoC4/CyLib.c ****         for (i = 0u; i < CY_SYS_CLK_IMO_FREQ_TABLE_SIZE; i++)
 334              		.loc 1 243 0
 335 002a 0023     		mov	r3, #0
 336 002c 7B61     		str	r3, [r7, #20]
 337 002e 10E0     		b	.L27
 338              	.L30:
 244:.\Generated_Source\PSoC4/CyLib.c ****         {
 245:.\Generated_Source\PSoC4/CyLib.c ****             if (cyImoFreqMhz2Reg[i] == (CY_SYS_CLK_IMO_TRIM2_REG & CY_SYS_CLK_IMO_FREQ_BITS_MASK))
 339              		.loc 1 245 0
 340 0030 7B69     		ldr	r3, [r7, #20]
 341 0032 604A     		ldr	r2, .L41
 342 0034 D35C     		ldrb	r3, [r2, r3]
 343 0036 1A1C     		mov	r2, r3
 344 0038 5F4B     		ldr	r3, .L41+4
 345 003a 1968     		ldr	r1, [r3]
 346 003c 3F23     		mov	r3, #63
 347 003e 0B40     		and	r3, r3, r1
 348 0040 9A42     		cmp	r2, r3
 349 0042 03D1     		bne	.L28
 246:.\Generated_Source\PSoC4/CyLib.c ****             {
 247:.\Generated_Source\PSoC4/CyLib.c ****                 currentFreq = i + CY_SYS_CLK_IMO_FREQ_TABLE_OFFSET;
 350              		.loc 1 247 0
 351 0044 7B69     		ldr	r3, [r7, #20]
 352 0046 0333     		add	r3, r3, #3
 353 0048 FB60     		str	r3, [r7, #12]
 248:.\Generated_Source\PSoC4/CyLib.c ****                 break;
 354              		.loc 1 248 0
 355 004a 05E0     		b	.L29
 356              	.L28:
 357              		.loc 1 243 0
 358 004c 7B69     		ldr	r3, [r7, #20]
 359 004e 0133     		add	r3, r3, #1
 360 0050 7B61     		str	r3, [r7, #20]
 361              	.L27:
 362 0052 7B69     		ldr	r3, [r7, #20]
 363 0054 2D2B     		cmp	r3, #45
 364 0056 EBD9     		bls	.L30
 365              	.L29:
 249:.\Generated_Source\PSoC4/CyLib.c ****             }
 250:.\Generated_Source\PSoC4/CyLib.c ****         }
 251:.\Generated_Source\PSoC4/CyLib.c **** 
 252:.\Generated_Source\PSoC4/CyLib.c ****         if(freq <= CY_SFLASH_IMO_MAXF0_REG)
 366              		.loc 1 252 0
 367 0058 584B     		ldr	r3, .L41+8
 368 005a 1B78     		ldrb	r3, [r3]
 369 005c DBB2     		uxtb	r3, r3
 370 005e 1A1C     		mov	r2, r3
 371 0060 7B68     		ldr	r3, [r7, #4]
ARM GAS  C:\Users\maxk\AppData\Local\Temp\ccchLIRo.s 			page 12


 372 0062 9A42     		cmp	r2, r3
 373 0064 0AD3     		bcc	.L31
 253:.\Generated_Source\PSoC4/CyLib.c ****         {
 254:.\Generated_Source\PSoC4/CyLib.c ****             bgTrim4 = CY_SFLASH_IMO_ABS0_REG;
 374              		.loc 1 254 0
 375 0066 564A     		ldr	r2, .L41+12
 376 0068 3B1C     		mov	r3, r7
 377 006a 0A33     		add	r3, r3, #10
 378 006c 1278     		ldrb	r2, [r2]
 379 006e 1A70     		strb	r2, [r3]
 255:.\Generated_Source\PSoC4/CyLib.c ****             bgTrim5 = CY_SFLASH_IMO_TMPCO0_REG;
 380              		.loc 1 255 0
 381 0070 544A     		ldr	r2, .L41+16
 382 0072 3B1C     		mov	r3, r7
 383 0074 0B33     		add	r3, r3, #11
 384 0076 1278     		ldrb	r2, [r2]
 385 0078 1A70     		strb	r2, [r3]
 386 007a 3FE0     		b	.L32
 387              	.L31:
 256:.\Generated_Source\PSoC4/CyLib.c ****         }
 257:.\Generated_Source\PSoC4/CyLib.c ****         else if(freq <= CY_SFLASH_IMO_MAXF1_REG)
 388              		.loc 1 257 0
 389 007c 524B     		ldr	r3, .L41+20
 390 007e 1B78     		ldrb	r3, [r3]
 391 0080 DBB2     		uxtb	r3, r3
 392 0082 1A1C     		mov	r2, r3
 393 0084 7B68     		ldr	r3, [r7, #4]
 394 0086 9A42     		cmp	r2, r3
 395 0088 0AD3     		bcc	.L33
 258:.\Generated_Source\PSoC4/CyLib.c ****         {
 259:.\Generated_Source\PSoC4/CyLib.c ****             bgTrim4 = CY_SFLASH_IMO_ABS1_REG;
 396              		.loc 1 259 0
 397 008a 504A     		ldr	r2, .L41+24
 398 008c 3B1C     		mov	r3, r7
 399 008e 0A33     		add	r3, r3, #10
 400 0090 1278     		ldrb	r2, [r2]
 401 0092 1A70     		strb	r2, [r3]
 260:.\Generated_Source\PSoC4/CyLib.c ****             bgTrim5 = CY_SFLASH_IMO_TMPCO1_REG;
 402              		.loc 1 260 0
 403 0094 4E4A     		ldr	r2, .L41+28
 404 0096 3B1C     		mov	r3, r7
 405 0098 0B33     		add	r3, r3, #11
 406 009a 1278     		ldrb	r2, [r2]
 407 009c 1A70     		strb	r2, [r3]
 408 009e 2DE0     		b	.L32
 409              	.L33:
 261:.\Generated_Source\PSoC4/CyLib.c ****         }
 262:.\Generated_Source\PSoC4/CyLib.c ****         else if(freq <= CY_SFLASH_IMO_MAXF2_REG)
 410              		.loc 1 262 0
 411 00a0 4C4B     		ldr	r3, .L41+32
 412 00a2 1B78     		ldrb	r3, [r3]
 413 00a4 DBB2     		uxtb	r3, r3
 414 00a6 1A1C     		mov	r2, r3
 415 00a8 7B68     		ldr	r3, [r7, #4]
 416 00aa 9A42     		cmp	r2, r3
 417 00ac 0AD3     		bcc	.L34
 263:.\Generated_Source\PSoC4/CyLib.c ****         {
ARM GAS  C:\Users\maxk\AppData\Local\Temp\ccchLIRo.s 			page 13


 264:.\Generated_Source\PSoC4/CyLib.c ****             bgTrim4 = CY_SFLASH_IMO_ABS2_REG;
 418              		.loc 1 264 0
 419 00ae 4A4A     		ldr	r2, .L41+36
 420 00b0 3B1C     		mov	r3, r7
 421 00b2 0A33     		add	r3, r3, #10
 422 00b4 1278     		ldrb	r2, [r2]
 423 00b6 1A70     		strb	r2, [r3]
 265:.\Generated_Source\PSoC4/CyLib.c ****             bgTrim5 = CY_SFLASH_IMO_TMPCO2_REG;
 424              		.loc 1 265 0
 425 00b8 484A     		ldr	r2, .L41+40
 426 00ba 3B1C     		mov	r3, r7
 427 00bc 0B33     		add	r3, r3, #11
 428 00be 1278     		ldrb	r2, [r2]
 429 00c0 1A70     		strb	r2, [r3]
 430 00c2 1BE0     		b	.L32
 431              	.L34:
 266:.\Generated_Source\PSoC4/CyLib.c ****         }
 267:.\Generated_Source\PSoC4/CyLib.c ****         else if(freq <= CY_SFLASH_IMO_MAXF3_REG)
 432              		.loc 1 267 0
 433 00c4 464B     		ldr	r3, .L41+44
 434 00c6 1B78     		ldrb	r3, [r3]
 435 00c8 DBB2     		uxtb	r3, r3
 436 00ca 1A1C     		mov	r2, r3
 437 00cc 7B68     		ldr	r3, [r7, #4]
 438 00ce 9A42     		cmp	r2, r3
 439 00d0 0AD3     		bcc	.L35
 268:.\Generated_Source\PSoC4/CyLib.c ****         {
 269:.\Generated_Source\PSoC4/CyLib.c ****             bgTrim4 = CY_SFLASH_IMO_ABS3_REG;
 440              		.loc 1 269 0
 441 00d2 444A     		ldr	r2, .L41+48
 442 00d4 3B1C     		mov	r3, r7
 443 00d6 0A33     		add	r3, r3, #10
 444 00d8 1278     		ldrb	r2, [r2]
 445 00da 1A70     		strb	r2, [r3]
 270:.\Generated_Source\PSoC4/CyLib.c ****             bgTrim5 = CY_SFLASH_IMO_TMPCO3_REG;
 446              		.loc 1 270 0
 447 00dc 424A     		ldr	r2, .L41+52
 448 00de 3B1C     		mov	r3, r7
 449 00e0 0B33     		add	r3, r3, #11
 450 00e2 1278     		ldrb	r2, [r2]
 451 00e4 1A70     		strb	r2, [r3]
 452 00e6 09E0     		b	.L32
 453              	.L35:
 271:.\Generated_Source\PSoC4/CyLib.c ****         }
 272:.\Generated_Source\PSoC4/CyLib.c ****         else
 273:.\Generated_Source\PSoC4/CyLib.c ****         {
 274:.\Generated_Source\PSoC4/CyLib.c ****             bgTrim4 = CY_SFLASH_IMO_ABS4_REG;
 454              		.loc 1 274 0
 455 00e8 404A     		ldr	r2, .L41+56
 456 00ea 3B1C     		mov	r3, r7
 457 00ec 0A33     		add	r3, r3, #10
 458 00ee 1278     		ldrb	r2, [r2]
 459 00f0 1A70     		strb	r2, [r3]
 275:.\Generated_Source\PSoC4/CyLib.c ****             bgTrim5 = CY_SFLASH_IMO_TMPCO4_REG;
 460              		.loc 1 275 0
 461 00f2 3F4A     		ldr	r2, .L41+60
 462 00f4 3B1C     		mov	r3, r7
ARM GAS  C:\Users\maxk\AppData\Local\Temp\ccchLIRo.s 			page 14


 463 00f6 0B33     		add	r3, r3, #11
 464 00f8 1278     		ldrb	r2, [r2]
 465 00fa 1A70     		strb	r2, [r3]
 466              	.L32:
 276:.\Generated_Source\PSoC4/CyLib.c ****         }
 277:.\Generated_Source\PSoC4/CyLib.c **** 
 278:.\Generated_Source\PSoC4/CyLib.c **** 
 279:.\Generated_Source\PSoC4/CyLib.c ****         /***************************************************************************
 280:.\Generated_Source\PSoC4/CyLib.c ****         * The IMO can have a different trim per frequency. To avoid possible corner
 281:.\Generated_Source\PSoC4/CyLib.c ****         * cases where a trim change can exceed the maximum frequency, the trim must
 282:.\Generated_Source\PSoC4/CyLib.c ****         * be applied at a frequency that is low enough.
 283:.\Generated_Source\PSoC4/CyLib.c ****         ***************************************************************************/
 284:.\Generated_Source\PSoC4/CyLib.c ****         if ((currentFreq >= CY_SYS_CLK_IMO_BOUNDARY_FREQ_MHZ) && (freq >= CY_SYS_CLK_IMO_BOUNDARY_F
 467              		.loc 1 284 0
 468 00fc FB68     		ldr	r3, [r7, #12]
 469 00fe 2A2B     		cmp	r3, #42
 470 0100 0BD9     		bls	.L36
 471 0102 7B68     		ldr	r3, [r7, #4]
 472 0104 2A2B     		cmp	r3, #42
 473 0106 08D9     		bls	.L36
 285:.\Generated_Source\PSoC4/CyLib.c ****         {
 286:.\Generated_Source\PSoC4/CyLib.c ****             /* Set boundary IMO frequency: safe for IMO above 48 MHZ trimming */
 287:.\Generated_Source\PSoC4/CyLib.c ****             CY_SYS_CLK_IMO_TRIM2_REG = (uint32) cyImoFreqMhz2Reg[CY_SYS_CLK_IMO_TEMP_FREQ_MHZ -
 474              		.loc 1 287 0
 475 0108 2B4B     		ldr	r3, .L41+4
 476 010a 2A4A     		ldr	r2, .L41
 477 010c 527D     		ldrb	r2, [r2, #21]
 478 010e 1A60     		str	r2, [r3]
 288:.\Generated_Source\PSoC4/CyLib.c ****                                                                  CY_SYS_CLK_IMO_FREQ_TABLE_OFFSET];
 289:.\Generated_Source\PSoC4/CyLib.c **** 
 290:.\Generated_Source\PSoC4/CyLib.c ****             CyDelayCycles(CY_SYS_CLK_IMO_FREQ_TIMEOUT_CYCLES);
 479              		.loc 1 290 0
 480 0110 0520     		mov	r0, #5
 481 0112 FFF7FEFF 		bl	CyDelayCycles
 291:.\Generated_Source\PSoC4/CyLib.c **** 
 292:.\Generated_Source\PSoC4/CyLib.c ****             currentFreq = CY_SYS_CLK_IMO_TEMP_FREQ_MHZ;
 482              		.loc 1 292 0
 483 0116 1823     		mov	r3, #24
 484 0118 FB60     		str	r3, [r7, #12]
 485              	.L36:
 293:.\Generated_Source\PSoC4/CyLib.c ****         }
 294:.\Generated_Source\PSoC4/CyLib.c **** 
 295:.\Generated_Source\PSoC4/CyLib.c **** 
 296:.\Generated_Source\PSoC4/CyLib.c ****         /***************************************************************************
 297:.\Generated_Source\PSoC4/CyLib.c ****         * Trim change need to allowed to settle (within 5us) before the Freq can be
 298:.\Generated_Source\PSoC4/CyLib.c ****         * changed to the new frequency.
 299:.\Generated_Source\PSoC4/CyLib.c ****         ***************************************************************************/
 300:.\Generated_Source\PSoC4/CyLib.c ****         if (freq > currentFreq)
 486              		.loc 1 300 0
 487 011a 7A68     		ldr	r2, [r7, #4]
 488 011c FB68     		ldr	r3, [r7, #12]
 489 011e 9A42     		cmp	r2, r3
 490 0120 1DD9     		bls	.L37
 301:.\Generated_Source\PSoC4/CyLib.c ****         {
 302:.\Generated_Source\PSoC4/CyLib.c ****             /* Set trims for the new IMO frequency */
 303:.\Generated_Source\PSoC4/CyLib.c ****             CY_SYS_CLK_IMO_TRIM1_REG = (uint32) CY_SFLASH_IMO_TRIM_REG(freq - CY_SYS_CLK_IMO_FREQ_T
 491              		.loc 1 303 0
ARM GAS  C:\Users\maxk\AppData\Local\Temp\ccchLIRo.s 			page 15


 492 0122 344B     		ldr	r3, .L41+64
 493 0124 7A68     		ldr	r2, [r7, #4]
 494 0126 3249     		ldr	r1, .L41+60
 495 0128 5218     		add	r2, r2, r1
 496 012a 1278     		ldrb	r2, [r2]
 497 012c D2B2     		uxtb	r2, r2
 498 012e 1A60     		str	r2, [r3]
 304:.\Generated_Source\PSoC4/CyLib.c ****             CY_PWR_BG_TRIM4_REG  = bgTrim4;
 499              		.loc 1 304 0
 500 0130 314B     		ldr	r3, .L41+68
 501 0132 3A1C     		mov	r2, r7
 502 0134 0A32     		add	r2, r2, #10
 503 0136 1278     		ldrb	r2, [r2]
 504 0138 1A60     		str	r2, [r3]
 305:.\Generated_Source\PSoC4/CyLib.c ****             CY_PWR_BG_TRIM5_REG  = bgTrim5;
 505              		.loc 1 305 0
 506 013a 304B     		ldr	r3, .L41+72
 507 013c 3A1C     		mov	r2, r7
 508 013e 0B32     		add	r2, r2, #11
 509 0140 1278     		ldrb	r2, [r2]
 510 0142 1A60     		str	r2, [r3]
 306:.\Generated_Source\PSoC4/CyLib.c ****             CyDelayUs(CY_SYS_CLK_IMO_TRIM_TIMEOUT_US);
 511              		.loc 1 306 0
 512 0144 0520     		mov	r0, #5
 513 0146 FFF7FEFF 		bl	CyDelayUs
 307:.\Generated_Source\PSoC4/CyLib.c **** 
 308:.\Generated_Source\PSoC4/CyLib.c ****             /* Set new IMO frequency */
 309:.\Generated_Source\PSoC4/CyLib.c ****             CY_SYS_CLK_IMO_TRIM2_REG = cyImoFreqMhz2Reg[freq - CY_SYS_CLK_IMO_FREQ_TABLE_OFFSET];
 514              		.loc 1 309 0
 515 014a 1B4B     		ldr	r3, .L41+4
 516 014c 7A68     		ldr	r2, [r7, #4]
 517 014e 033A     		sub	r2, r2, #3
 518 0150 1849     		ldr	r1, .L41
 519 0152 8A5C     		ldrb	r2, [r1, r2]
 520 0154 1A60     		str	r2, [r3]
 310:.\Generated_Source\PSoC4/CyLib.c ****             CyDelayCycles(CY_SYS_CLK_IMO_FREQ_TIMEOUT_CYCLES);
 521              		.loc 1 310 0
 522 0156 0520     		mov	r0, #5
 523 0158 FFF7FEFF 		bl	CyDelayCycles
 524 015c 1CE0     		b	.L38
 525              	.L37:
 311:.\Generated_Source\PSoC4/CyLib.c ****         }
 312:.\Generated_Source\PSoC4/CyLib.c ****         else
 313:.\Generated_Source\PSoC4/CyLib.c ****         {
 314:.\Generated_Source\PSoC4/CyLib.c ****             /* Set new IMO frequency */
 315:.\Generated_Source\PSoC4/CyLib.c ****             CY_SYS_CLK_IMO_TRIM2_REG = cyImoFreqMhz2Reg[freq - CY_SYS_CLK_IMO_FREQ_TABLE_OFFSET];
 526              		.loc 1 315 0
 527 015e 164B     		ldr	r3, .L41+4
 528 0160 7A68     		ldr	r2, [r7, #4]
 529 0162 033A     		sub	r2, r2, #3
 530 0164 1349     		ldr	r1, .L41
 531 0166 8A5C     		ldrb	r2, [r1, r2]
 532 0168 1A60     		str	r2, [r3]
 316:.\Generated_Source\PSoC4/CyLib.c ****             CyDelayCycles(CY_SYS_CLK_IMO_FREQ_TIMEOUT_CYCLES);
 533              		.loc 1 316 0
 534 016a 0520     		mov	r0, #5
 535 016c FFF7FEFF 		bl	CyDelayCycles
ARM GAS  C:\Users\maxk\AppData\Local\Temp\ccchLIRo.s 			page 16


 317:.\Generated_Source\PSoC4/CyLib.c **** 
 318:.\Generated_Source\PSoC4/CyLib.c ****             /* Set trims for the new IMO frequency */
 319:.\Generated_Source\PSoC4/CyLib.c ****             CY_SYS_CLK_IMO_TRIM1_REG = CY_SFLASH_IMO_TRIM_REG(freq - CY_SYS_CLK_IMO_FREQ_TABLE_OFFS
 536              		.loc 1 319 0
 537 0170 204B     		ldr	r3, .L41+64
 538 0172 7A68     		ldr	r2, [r7, #4]
 539 0174 1E49     		ldr	r1, .L41+60
 540 0176 5218     		add	r2, r2, r1
 541 0178 1278     		ldrb	r2, [r2]
 542 017a D2B2     		uxtb	r2, r2
 543 017c 1A60     		str	r2, [r3]
 320:.\Generated_Source\PSoC4/CyLib.c ****             CY_PWR_BG_TRIM4_REG  = bgTrim4;
 544              		.loc 1 320 0
 545 017e 1E4B     		ldr	r3, .L41+68
 546 0180 3A1C     		mov	r2, r7
 547 0182 0A32     		add	r2, r2, #10
 548 0184 1278     		ldrb	r2, [r2]
 549 0186 1A60     		str	r2, [r3]
 321:.\Generated_Source\PSoC4/CyLib.c ****             CY_PWR_BG_TRIM5_REG  = bgTrim5;
 550              		.loc 1 321 0
 551 0188 1C4B     		ldr	r3, .L41+72
 552 018a 3A1C     		mov	r2, r7
 553 018c 0B32     		add	r2, r2, #11
 554 018e 1278     		ldrb	r2, [r2]
 555 0190 1A60     		str	r2, [r3]
 322:.\Generated_Source\PSoC4/CyLib.c ****             CyDelayUs(CY_SYS_CLK_IMO_TRIM_TIMEOUT_US);
 556              		.loc 1 322 0
 557 0192 0520     		mov	r0, #5
 558 0194 FFF7FEFF 		bl	CyDelayUs
 559              	.L38:
 323:.\Generated_Source\PSoC4/CyLib.c ****         }
 324:.\Generated_Source\PSoC4/CyLib.c **** 
 325:.\Generated_Source\PSoC4/CyLib.c ****         CyExitCriticalSection(interruptState);
 560              		.loc 1 325 0
 561 0198 3B1C     		mov	r3, r7
 562 019a 1333     		add	r3, r3, #19
 563 019c 1B78     		ldrb	r3, [r3]
 564 019e 181C     		mov	r0, r3
 565 01a0 FFF7FEFF 		bl	CyExitCriticalSection
 566              		.loc 1 238 0
 567 01a4 02E0     		b	.L40
 568              	.L26:
 326:.\Generated_Source\PSoC4/CyLib.c ****     }
 327:.\Generated_Source\PSoC4/CyLib.c ****     else
 328:.\Generated_Source\PSoC4/CyLib.c ****     {
 329:.\Generated_Source\PSoC4/CyLib.c ****         /* Halt CPU in debug mode if new frequency is invalid */
 330:.\Generated_Source\PSoC4/CyLib.c ****         CYASSERT(0u != 0u);
 569              		.loc 1 330 0
 570 01a6 0020     		mov	r0, #0
 571 01a8 FFF7FEFF 		bl	CyHalt
 572              	.L40:
 331:.\Generated_Source\PSoC4/CyLib.c ****     }
 332:.\Generated_Source\PSoC4/CyLib.c **** }
 573              		.loc 1 332 0
 574 01ac BD46     		mov	sp, r7
 575 01ae 06B0     		add	sp, sp, #24
 576              		@ sp needed for prologue
ARM GAS  C:\Users\maxk\AppData\Local\Temp\ccchLIRo.s 			page 17


 577 01b0 80BD     		pop	{r7, pc}
 578              	.L42:
 579 01b2 C046     		.align	2
 580              	.L41:
 581 01b4 00000000 		.word	cyImoFreqMhz2Reg.1845
 582 01b8 2CFF0B40 		.word	1074528044
 583 01bc C0F1FF0F 		.word	268431808
 584 01c0 C1F1FF0F 		.word	268431809
 585 01c4 C2F1FF0F 		.word	268431810
 586 01c8 C3F1FF0F 		.word	268431811
 587 01cc C4F1FF0F 		.word	268431812
 588 01d0 C5F1FF0F 		.word	268431813
 589 01d4 C6F1FF0F 		.word	268431814
 590 01d8 C7F1FF0F 		.word	268431815
 591 01dc C8F1FF0F 		.word	268431816
 592 01e0 C9F1FF0F 		.word	268431817
 593 01e4 CAF1FF0F 		.word	268431818
 594 01e8 CBF1FF0F 		.word	268431819
 595 01ec CCF1FF0F 		.word	268431820
 596 01f0 CDF1FF0F 		.word	268431821
 597 01f4 28FF0B40 		.word	1074528040
 598 01f8 1CFF0B40 		.word	1074528028
 599 01fc 20FF0B40 		.word	1074528032
 600              		.cfi_endproc
 601              	.LFE6:
 602              		.size	CySysClkWriteImoFreq, .-CySysClkWriteImoFreq
 603              		.section	.text.CySysWdtLock,"ax",%progbits
 604              		.align	2
 605              		.global	CySysWdtLock
 606              		.code	16
 607              		.thumb_func
 608              		.type	CySysWdtLock, %function
 609              	CySysWdtLock:
 610              	.LFB7:
 333:.\Generated_Source\PSoC4/CyLib.c **** 
 334:.\Generated_Source\PSoC4/CyLib.c **** 
 335:.\Generated_Source\PSoC4/CyLib.c **** /*******************************************************************************
 336:.\Generated_Source\PSoC4/CyLib.c **** * Function Name: CySysWdtLock
 337:.\Generated_Source\PSoC4/CyLib.c **** ********************************************************************************
 338:.\Generated_Source\PSoC4/CyLib.c **** *
 339:.\Generated_Source\PSoC4/CyLib.c **** * Summary:
 340:.\Generated_Source\PSoC4/CyLib.c **** *  Locks out configuration changes to the Watchdog timer registers and ILO
 341:.\Generated_Source\PSoC4/CyLib.c **** *  config register.
 342:.\Generated_Source\PSoC4/CyLib.c **** *
 343:.\Generated_Source\PSoC4/CyLib.c **** * Parameters:
 344:.\Generated_Source\PSoC4/CyLib.c **** *  None
 345:.\Generated_Source\PSoC4/CyLib.c **** *
 346:.\Generated_Source\PSoC4/CyLib.c **** * Return:
 347:.\Generated_Source\PSoC4/CyLib.c **** *  None
 348:.\Generated_Source\PSoC4/CyLib.c **** *
 349:.\Generated_Source\PSoC4/CyLib.c **** * Side effects:
 350:.\Generated_Source\PSoC4/CyLib.c **** *  This API enables ILO, if it was disabled.
 351:.\Generated_Source\PSoC4/CyLib.c **** *  After this API was called, ILO clock can't be disabled untill calling of
 352:.\Generated_Source\PSoC4/CyLib.c **** *  CySysWdtUnlock().
 353:.\Generated_Source\PSoC4/CyLib.c **** *
 354:.\Generated_Source\PSoC4/CyLib.c **** *******************************************************************************/
 355:.\Generated_Source\PSoC4/CyLib.c **** void CySysWdtLock(void)
ARM GAS  C:\Users\maxk\AppData\Local\Temp\ccchLIRo.s 			page 18


 356:.\Generated_Source\PSoC4/CyLib.c **** {
 611              		.loc 1 356 0
 612              		.cfi_startproc
 613 0000 80B5     		push	{r7, lr}
 614              	.LCFI17:
 615              		.cfi_def_cfa_offset 8
 616              		.cfi_offset 7, -8
 617              		.cfi_offset 14, -4
 618 0002 82B0     		sub	sp, sp, #8
 619              	.LCFI18:
 620              		.cfi_def_cfa_offset 16
 621 0004 00AF     		add	r7, sp, #0
 622              	.LCFI19:
 623              		.cfi_def_cfa_register 7
 357:.\Generated_Source\PSoC4/CyLib.c ****     uint8 interruptState;
 358:.\Generated_Source\PSoC4/CyLib.c ****     interruptState = CyEnterCriticalSection();
 624              		.loc 1 358 0
 625 0006 FFF7FEFF 		bl	CyEnterCriticalSection
 626 000a 031C     		mov	r3, r0
 627 000c 1A1C     		mov	r2, r3
 628 000e FB1D     		add	r3, r7, #7
 629 0010 1A70     		strb	r2, [r3]
 359:.\Generated_Source\PSoC4/CyLib.c **** 
 360:.\Generated_Source\PSoC4/CyLib.c ****     /* Configuring the WDT involves passing control signals between clock domains,
 361:.\Generated_Source\PSoC4/CyLib.c ****     * which requires the ILO to be enabled.
 362:.\Generated_Source\PSoC4/CyLib.c ****     */
 363:.\Generated_Source\PSoC4/CyLib.c ****     if (0u == (CY_SYS_CLK_ILO_CONFIG_REG & CY_SYS_CLK_ILO_CONFIG_ENABLE))
 630              		.loc 1 363 0
 631 0012 0A4B     		ldr	r3, .L46
 632 0014 1B68     		ldr	r3, [r3]
 633 0016 002B     		cmp	r3, #0
 634 0018 01DB     		blt	.L44
 364:.\Generated_Source\PSoC4/CyLib.c ****     {
 365:.\Generated_Source\PSoC4/CyLib.c ****         CySysClkIloStart();
 635              		.loc 1 365 0
 636 001a FFF7FEFF 		bl	CySysClkIloStart
 637              	.L44:
 366:.\Generated_Source\PSoC4/CyLib.c ****     }
 367:.\Generated_Source\PSoC4/CyLib.c **** 
 368:.\Generated_Source\PSoC4/CyLib.c ****     /* CLK_SELECT register's bits 15:14 are WDT_LOCK */
 369:.\Generated_Source\PSoC4/CyLib.c ****     CY_SYS_CLK_SELECT_REG = (CY_SYS_CLK_SELECT_REG & (uint32)(~CY_SYS_WDT_CLK_LOCK_BITS_MASK)) |
 638              		.loc 1 369 0
 639 001e 084A     		ldr	r2, .L46+4
 640 0020 074B     		ldr	r3, .L46+4
 641 0022 1968     		ldr	r1, [r3]
 642 0024 C023     		mov	r3, #192
 643 0026 1B02     		lsl	r3, r3, #8
 644 0028 0B43     		orr	r3, r3, r1
 645 002a 1360     		str	r3, [r2]
 370:.\Generated_Source\PSoC4/CyLib.c ****              CY_SYS_WDT_CLK_LOCK_BITS_MASK;
 371:.\Generated_Source\PSoC4/CyLib.c **** 
 372:.\Generated_Source\PSoC4/CyLib.c ****     CyExitCriticalSection(interruptState);
 646              		.loc 1 372 0
 647 002c FB1D     		add	r3, r7, #7
 648 002e 1B78     		ldrb	r3, [r3]
 649 0030 181C     		mov	r0, r3
 650 0032 FFF7FEFF 		bl	CyExitCriticalSection
ARM GAS  C:\Users\maxk\AppData\Local\Temp\ccchLIRo.s 			page 19


 373:.\Generated_Source\PSoC4/CyLib.c **** }
 651              		.loc 1 373 0
 652 0036 BD46     		mov	sp, r7
 653 0038 02B0     		add	sp, sp, #8
 654              		@ sp needed for prologue
 655 003a 80BD     		pop	{r7, pc}
 656              	.L47:
 657              		.align	2
 658              	.L46:
 659 003c 04010B40 		.word	1074462980
 660 0040 00010B40 		.word	1074462976
 661              		.cfi_endproc
 662              	.LFE7:
 663              		.size	CySysWdtLock, .-CySysWdtLock
 664              		.section	.text.CySysWdtUnlock,"ax",%progbits
 665              		.align	2
 666              		.global	CySysWdtUnlock
 667              		.code	16
 668              		.thumb_func
 669              		.type	CySysWdtUnlock, %function
 670              	CySysWdtUnlock:
 671              	.LFB8:
 374:.\Generated_Source\PSoC4/CyLib.c **** 
 375:.\Generated_Source\PSoC4/CyLib.c **** 
 376:.\Generated_Source\PSoC4/CyLib.c **** /*******************************************************************************
 377:.\Generated_Source\PSoC4/CyLib.c **** * Function Name: CySysWdtUnlock
 378:.\Generated_Source\PSoC4/CyLib.c **** ********************************************************************************
 379:.\Generated_Source\PSoC4/CyLib.c **** *
 380:.\Generated_Source\PSoC4/CyLib.c **** * Summary:
 381:.\Generated_Source\PSoC4/CyLib.c **** *  Unlocks the Watchdog Timer configuration register.
 382:.\Generated_Source\PSoC4/CyLib.c **** *
 383:.\Generated_Source\PSoC4/CyLib.c **** * Parameters:
 384:.\Generated_Source\PSoC4/CyLib.c **** *  None
 385:.\Generated_Source\PSoC4/CyLib.c **** *
 386:.\Generated_Source\PSoC4/CyLib.c **** * Return:
 387:.\Generated_Source\PSoC4/CyLib.c **** *  None
 388:.\Generated_Source\PSoC4/CyLib.c **** *
 389:.\Generated_Source\PSoC4/CyLib.c **** * Side effects:
 390:.\Generated_Source\PSoC4/CyLib.c **** *  This API enables ILO, if it was disabled.
 391:.\Generated_Source\PSoC4/CyLib.c **** *
 392:.\Generated_Source\PSoC4/CyLib.c **** *******************************************************************************/
 393:.\Generated_Source\PSoC4/CyLib.c **** void CySysWdtUnlock(void)
 394:.\Generated_Source\PSoC4/CyLib.c **** {
 672              		.loc 1 394 0
 673              		.cfi_startproc
 674 0000 80B5     		push	{r7, lr}
 675              	.LCFI20:
 676              		.cfi_def_cfa_offset 8
 677              		.cfi_offset 7, -8
 678              		.cfi_offset 14, -4
 679 0002 82B0     		sub	sp, sp, #8
 680              	.LCFI21:
 681              		.cfi_def_cfa_offset 16
 682 0004 00AF     		add	r7, sp, #0
 683              	.LCFI22:
 684              		.cfi_def_cfa_register 7
 395:.\Generated_Source\PSoC4/CyLib.c ****     uint8 interruptState;
ARM GAS  C:\Users\maxk\AppData\Local\Temp\ccchLIRo.s 			page 20


 396:.\Generated_Source\PSoC4/CyLib.c ****     interruptState = CyEnterCriticalSection();
 685              		.loc 1 396 0
 686 0006 FFF7FEFF 		bl	CyEnterCriticalSection
 687 000a 031C     		mov	r3, r0
 688 000c 1A1C     		mov	r2, r3
 689 000e FB1D     		add	r3, r7, #7
 690 0010 1A70     		strb	r2, [r3]
 397:.\Generated_Source\PSoC4/CyLib.c **** 
 398:.\Generated_Source\PSoC4/CyLib.c ****     /* Configuring the WDT involves passing control signals between clock domains,
 399:.\Generated_Source\PSoC4/CyLib.c ****     * which requires the ILO to be enabled.
 400:.\Generated_Source\PSoC4/CyLib.c ****     */
 401:.\Generated_Source\PSoC4/CyLib.c ****     if (0u == (CY_SYS_CLK_ILO_CONFIG_REG & CY_SYS_CLK_ILO_CONFIG_ENABLE))
 691              		.loc 1 401 0
 692 0012 104B     		ldr	r3, .L51
 693 0014 1B68     		ldr	r3, [r3]
 694 0016 002B     		cmp	r3, #0
 695 0018 01DB     		blt	.L49
 402:.\Generated_Source\PSoC4/CyLib.c ****     {
 403:.\Generated_Source\PSoC4/CyLib.c ****         CySysClkIloStart();
 696              		.loc 1 403 0
 697 001a FFF7FEFF 		bl	CySysClkIloStart
 698              	.L49:
 404:.\Generated_Source\PSoC4/CyLib.c ****     }
 405:.\Generated_Source\PSoC4/CyLib.c **** 
 406:.\Generated_Source\PSoC4/CyLib.c ****     /* Removing WDT lock requires two writes */
 407:.\Generated_Source\PSoC4/CyLib.c ****     CY_SYS_CLK_SELECT_REG = ((CY_SYS_CLK_SELECT_REG & (uint32)(~CY_SYS_WDT_CLK_LOCK_BITS_MASK)) |
 699              		.loc 1 407 0
 700 001e 0E4A     		ldr	r2, .L51+4
 701 0020 0D4B     		ldr	r3, .L51+4
 702 0022 1968     		ldr	r1, [r3]
 703 0024 0D4B     		ldr	r3, .L51+8
 704 0026 1940     		and	r1, r1, r3
 705 0028 8023     		mov	r3, #128
 706 002a DB01     		lsl	r3, r3, #7
 707 002c 0B43     		orr	r3, r3, r1
 708 002e 1360     		str	r3, [r2]
 408:.\Generated_Source\PSoC4/CyLib.c ****             CY_SYS_WDT_CLK_LOCK_BIT0);
 409:.\Generated_Source\PSoC4/CyLib.c **** 
 410:.\Generated_Source\PSoC4/CyLib.c ****     CY_SYS_CLK_SELECT_REG = ((CY_SYS_CLK_SELECT_REG & (uint32)(~CY_SYS_WDT_CLK_LOCK_BITS_MASK)) |
 709              		.loc 1 410 0
 710 0030 094A     		ldr	r2, .L51+4
 711 0032 094B     		ldr	r3, .L51+4
 712 0034 1968     		ldr	r1, [r3]
 713 0036 094B     		ldr	r3, .L51+8
 714 0038 1940     		and	r1, r1, r3
 715 003a 8023     		mov	r3, #128
 716 003c 1B02     		lsl	r3, r3, #8
 717 003e 0B43     		orr	r3, r3, r1
 718 0040 1360     		str	r3, [r2]
 411:.\Generated_Source\PSoC4/CyLib.c ****             CY_SYS_WDT_CLK_LOCK_BIT1);
 412:.\Generated_Source\PSoC4/CyLib.c **** 
 413:.\Generated_Source\PSoC4/CyLib.c ****     CyExitCriticalSection(interruptState);
 719              		.loc 1 413 0
 720 0042 FB1D     		add	r3, r7, #7
 721 0044 1B78     		ldrb	r3, [r3]
 722 0046 181C     		mov	r0, r3
 723 0048 FFF7FEFF 		bl	CyExitCriticalSection
ARM GAS  C:\Users\maxk\AppData\Local\Temp\ccchLIRo.s 			page 21


 414:.\Generated_Source\PSoC4/CyLib.c **** }
 724              		.loc 1 414 0
 725 004c BD46     		mov	sp, r7
 726 004e 02B0     		add	sp, sp, #8
 727              		@ sp needed for prologue
 728 0050 80BD     		pop	{r7, pc}
 729              	.L52:
 730 0052 C046     		.align	2
 731              	.L51:
 732 0054 04010B40 		.word	1074462980
 733 0058 00010B40 		.word	1074462976
 734 005c FF3FFFFF 		.word	-49153
 735              		.cfi_endproc
 736              	.LFE8:
 737              		.size	CySysWdtUnlock, .-CySysWdtUnlock
 738              		.section	.text.CySysWdtReadEnabledStatus,"ax",%progbits
 739              		.align	2
 740              		.global	CySysWdtReadEnabledStatus
 741              		.code	16
 742              		.thumb_func
 743              		.type	CySysWdtReadEnabledStatus, %function
 744              	CySysWdtReadEnabledStatus:
 745              	.LFB9:
 415:.\Generated_Source\PSoC4/CyLib.c **** 
 416:.\Generated_Source\PSoC4/CyLib.c **** 
 417:.\Generated_Source\PSoC4/CyLib.c **** /*******************************************************************************
 418:.\Generated_Source\PSoC4/CyLib.c **** * Function Name: CySysWdtReadEnabledStatus
 419:.\Generated_Source\PSoC4/CyLib.c **** ********************************************************************************
 420:.\Generated_Source\PSoC4/CyLib.c **** *
 421:.\Generated_Source\PSoC4/CyLib.c **** * Summary:
 422:.\Generated_Source\PSoC4/CyLib.c **** *  Reads the enabled staus of one of the three WDT counters.
 423:.\Generated_Source\PSoC4/CyLib.c **** *
 424:.\Generated_Source\PSoC4/CyLib.c **** * Parameters:
 425:.\Generated_Source\PSoC4/CyLib.c **** *  counterNum: Valid range [0-2].  Number of the WDT counter.
 426:.\Generated_Source\PSoC4/CyLib.c **** *
 427:.\Generated_Source\PSoC4/CyLib.c **** * Return:
 428:.\Generated_Source\PSoC4/CyLib.c **** *  Status of WDT counter:
 429:.\Generated_Source\PSoC4/CyLib.c **** *   0 - counter is disabled
 430:.\Generated_Source\PSoC4/CyLib.c **** *   1 - counter is enabled
 431:.\Generated_Source\PSoC4/CyLib.c **** *
 432:.\Generated_Source\PSoC4/CyLib.c **** * Side Effects:
 433:.\Generated_Source\PSoC4/CyLib.c **** *  This API returns actual WDT counter status from status register.
 434:.\Generated_Source\PSoC4/CyLib.c **** *  It may take up to 3 LFCLK cycles since WDT counter was enabled for WDT status
 435:.\Generated_Source\PSoC4/CyLib.c **** *  register to contain actual data.
 436:.\Generated_Source\PSoC4/CyLib.c **** *
 437:.\Generated_Source\PSoC4/CyLib.c **** *******************************************************************************/
 438:.\Generated_Source\PSoC4/CyLib.c **** uint32 CySysWdtReadEnabledStatus(uint32 counterNum)
 439:.\Generated_Source\PSoC4/CyLib.c **** {
 746              		.loc 1 439 0
 747              		.cfi_startproc
 748 0000 80B5     		push	{r7, lr}
 749              	.LCFI23:
 750              		.cfi_def_cfa_offset 8
 751              		.cfi_offset 7, -8
 752              		.cfi_offset 14, -4
 753 0002 82B0     		sub	sp, sp, #8
 754              	.LCFI24:
ARM GAS  C:\Users\maxk\AppData\Local\Temp\ccchLIRo.s 			page 22


 755              		.cfi_def_cfa_offset 16
 756 0004 00AF     		add	r7, sp, #0
 757              	.LCFI25:
 758              		.cfi_def_cfa_register 7
 759 0006 7860     		str	r0, [r7, #4]
 440:.\Generated_Source\PSoC4/CyLib.c ****     CYASSERT(counterNum < CY_SYS_WDT_COUNTERS_MAX);
 760              		.loc 1 440 0
 761 0008 7B68     		ldr	r3, [r7, #4]
 762 000a 022B     		cmp	r3, #2
 763 000c 02D9     		bls	.L54
 764 000e 0020     		mov	r0, #0
 765 0010 FFF7FEFF 		bl	CyHalt
 766              	.L54:
 441:.\Generated_Source\PSoC4/CyLib.c **** 
 442:.\Generated_Source\PSoC4/CyLib.c ****     return ((CY_SYS_WDT_CONTROL_REG >> ((CY_SYS_WDT_CNT_SHIFT * counterNum) + CY_SYS_WDT_CNT_STTS_S
 767              		.loc 1 442 0
 768 0014 054B     		ldr	r3, .L56
 769 0016 1A68     		ldr	r2, [r3]
 770 0018 7B68     		ldr	r3, [r7, #4]
 771 001a DB00     		lsl	r3, r3, #3
 772 001c 0133     		add	r3, r3, #1
 773 001e DA40     		lsr	r2, r2, r3
 774 0020 0123     		mov	r3, #1
 775 0022 1340     		and	r3, r3, r2
 443:.\Generated_Source\PSoC4/CyLib.c **** }
 776              		.loc 1 443 0
 777 0024 181C     		mov	r0, r3
 778 0026 BD46     		mov	sp, r7
 779 0028 02B0     		add	sp, sp, #8
 780              		@ sp needed for prologue
 781 002a 80BD     		pop	{r7, pc}
 782              	.L57:
 783              		.align	2
 784              	.L56:
 785 002c 10020B40 		.word	1074463248
 786              		.cfi_endproc
 787              	.LFE9:
 788              		.size	CySysWdtReadEnabledStatus, .-CySysWdtReadEnabledStatus
 789              		.section	.text.CySysWdtWriteMode,"ax",%progbits
 790              		.align	2
 791              		.global	CySysWdtWriteMode
 792              		.code	16
 793              		.thumb_func
 794              		.type	CySysWdtWriteMode, %function
 795              	CySysWdtWriteMode:
 796              	.LFB10:
 444:.\Generated_Source\PSoC4/CyLib.c **** 
 445:.\Generated_Source\PSoC4/CyLib.c **** 
 446:.\Generated_Source\PSoC4/CyLib.c **** /*******************************************************************************
 447:.\Generated_Source\PSoC4/CyLib.c **** * Function Name: CySysWdtWriteMode
 448:.\Generated_Source\PSoC4/CyLib.c **** ********************************************************************************
 449:.\Generated_Source\PSoC4/CyLib.c **** *
 450:.\Generated_Source\PSoC4/CyLib.c **** * Summary:
 451:.\Generated_Source\PSoC4/CyLib.c **** *   Writes the mode of one of the three WDT counters.
 452:.\Generated_Source\PSoC4/CyLib.c **** *
 453:.\Generated_Source\PSoC4/CyLib.c **** * Parameters:
 454:.\Generated_Source\PSoC4/CyLib.c **** *   counterNum: Valid range [0-2].  Number of the WDT counter.
ARM GAS  C:\Users\maxk\AppData\Local\Temp\ccchLIRo.s 			page 23


 455:.\Generated_Source\PSoC4/CyLib.c **** *   mode:       Mode of operation for the counter
 456:.\Generated_Source\PSoC4/CyLib.c **** *   Value    Define                   Mode
 457:.\Generated_Source\PSoC4/CyLib.c **** *   0     CY_SYS_WDT_MODE_NONE       Free running
 458:.\Generated_Source\PSoC4/CyLib.c **** *   1     CY_SYS_WDT_MODE_INT        Interrupt generated on match for counter 0
 459:.\Generated_Source\PSoC4/CyLib.c **** *                                    and 1, and on bit toggle for counter 2.
 460:.\Generated_Source\PSoC4/CyLib.c **** *   2     CY_SYS_WDT_MODE_RESET      Reset on match (valid for counter 0 and 1
 461:.\Generated_Source\PSoC4/CyLib.c **** *                                    only)
 462:.\Generated_Source\PSoC4/CyLib.c **** *   3     CY_SYS_WDT_MODE_INT_RESET  Generate an interrupt.  Generate a reset on
 463:.\Generated_Source\PSoC4/CyLib.c **** *                                    the 3rd unhandled interrupt.
 464:.\Generated_Source\PSoC4/CyLib.c **** *                                    (valid for counter 0 and 1 only)
 465:.\Generated_Source\PSoC4/CyLib.c **** * Return:
 466:.\Generated_Source\PSoC4/CyLib.c **** *   None
 467:.\Generated_Source\PSoC4/CyLib.c **** *
 468:.\Generated_Source\PSoC4/CyLib.c **** * Side Effects:
 469:.\Generated_Source\PSoC4/CyLib.c **** *   WDT counter counterNum should be disabled to set mode. Othetwise function
 470:.\Generated_Source\PSoC4/CyLib.c **** *   call will have no effect.
 471:.\Generated_Source\PSoC4/CyLib.c **** *   This API enables ILO, if it was disabled.
 472:.\Generated_Source\PSoC4/CyLib.c **** *
 473:.\Generated_Source\PSoC4/CyLib.c **** *******************************************************************************/
 474:.\Generated_Source\PSoC4/CyLib.c **** void CySysWdtWriteMode(uint32 counterNum, uint32 mode)
 475:.\Generated_Source\PSoC4/CyLib.c **** {
 797              		.loc 1 475 0
 798              		.cfi_startproc
 799 0000 80B5     		push	{r7, lr}
 800              	.LCFI26:
 801              		.cfi_def_cfa_offset 8
 802              		.cfi_offset 7, -8
 803              		.cfi_offset 14, -4
 804 0002 84B0     		sub	sp, sp, #16
 805              	.LCFI27:
 806              		.cfi_def_cfa_offset 24
 807 0004 00AF     		add	r7, sp, #0
 808              	.LCFI28:
 809              		.cfi_def_cfa_register 7
 810 0006 7860     		str	r0, [r7, #4]
 811 0008 3960     		str	r1, [r7]
 476:.\Generated_Source\PSoC4/CyLib.c ****     uint32 configRegValue;
 477:.\Generated_Source\PSoC4/CyLib.c **** 
 478:.\Generated_Source\PSoC4/CyLib.c ****     CYASSERT(counterNum < CY_SYS_WDT_COUNTERS_MAX);
 812              		.loc 1 478 0
 813 000a 7B68     		ldr	r3, [r7, #4]
 814 000c 022B     		cmp	r3, #2
 815 000e 02D9     		bls	.L59
 816 0010 0020     		mov	r0, #0
 817 0012 FFF7FEFF 		bl	CyHalt
 818              	.L59:
 479:.\Generated_Source\PSoC4/CyLib.c **** 
 480:.\Generated_Source\PSoC4/CyLib.c ****     /* Configuring the WDT involves passing control signals between clock domains,
 481:.\Generated_Source\PSoC4/CyLib.c ****     * which requires the ILO to be enabled.
 482:.\Generated_Source\PSoC4/CyLib.c ****     */
 483:.\Generated_Source\PSoC4/CyLib.c ****     if (0u == (CY_SYS_CLK_ILO_CONFIG_REG & CY_SYS_CLK_ILO_CONFIG_ENABLE))
 819              		.loc 1 483 0
 820 0016 144B     		ldr	r3, .L63
 821 0018 1B68     		ldr	r3, [r3]
 822 001a 002B     		cmp	r3, #0
 823 001c 01DB     		blt	.L60
 484:.\Generated_Source\PSoC4/CyLib.c ****     {
ARM GAS  C:\Users\maxk\AppData\Local\Temp\ccchLIRo.s 			page 24


 485:.\Generated_Source\PSoC4/CyLib.c ****         CySysClkIloStart();
 824              		.loc 1 485 0
 825 001e FFF7FEFF 		bl	CySysClkIloStart
 826              	.L60:
 486:.\Generated_Source\PSoC4/CyLib.c ****     }
 487:.\Generated_Source\PSoC4/CyLib.c **** 
 488:.\Generated_Source\PSoC4/CyLib.c ****     if(0u == CySysWdtReadEnabledStatus(counterNum))
 827              		.loc 1 488 0
 828 0022 7B68     		ldr	r3, [r7, #4]
 829 0024 181C     		mov	r0, r3
 830 0026 FFF7FEFF 		bl	CySysWdtReadEnabledStatus
 831 002a 031C     		mov	r3, r0
 832 002c 002B     		cmp	r3, #0
 833 002e 18D1     		bne	.L62
 489:.\Generated_Source\PSoC4/CyLib.c ****     {
 490:.\Generated_Source\PSoC4/CyLib.c ****         configRegValue = CY_SYS_WDT_CONFIG_REG &
 834              		.loc 1 490 0
 835 0030 0E4B     		ldr	r3, .L63+4
 836 0032 1A68     		ldr	r2, [r3]
 491:.\Generated_Source\PSoC4/CyLib.c ****                             (uint32)~((uint32)(CY_SYS_WDT_MODE_MASK << (counterNum * CY_SYS_WDT_CNT
 837              		.loc 1 491 0
 838 0034 7B68     		ldr	r3, [r7, #4]
 839 0036 DB00     		lsl	r3, r3, #3
 840 0038 0321     		mov	r1, #3
 841 003a 081C     		mov	r0, r1
 842 003c 9840     		lsl	r0, r0, r3
 843 003e 031C     		mov	r3, r0
 844 0040 DB43     		mvn	r3, r3
 845              		.loc 1 490 0
 846 0042 1340     		and	r3, r3, r2
 847 0044 FB60     		str	r3, [r7, #12]
 492:.\Generated_Source\PSoC4/CyLib.c ****         configRegValue |= (uint32)((mode & CY_SYS_WDT_MODE_MASK) << (counterNum * CY_SYS_WDT_CNT_SH
 848              		.loc 1 492 0
 849 0046 3A68     		ldr	r2, [r7]
 850 0048 0323     		mov	r3, #3
 851 004a 1A40     		and	r2, r2, r3
 852 004c 7B68     		ldr	r3, [r7, #4]
 853 004e DB00     		lsl	r3, r3, #3
 854 0050 111C     		mov	r1, r2
 855 0052 9940     		lsl	r1, r1, r3
 856 0054 0B1C     		mov	r3, r1
 857 0056 FA68     		ldr	r2, [r7, #12]
 858 0058 1343     		orr	r3, r3, r2
 859 005a FB60     		str	r3, [r7, #12]
 493:.\Generated_Source\PSoC4/CyLib.c ****         CY_SYS_WDT_CONFIG_REG = configRegValue;
 860              		.loc 1 493 0
 861 005c 034B     		ldr	r3, .L63+4
 862 005e FA68     		ldr	r2, [r7, #12]
 863 0060 1A60     		str	r2, [r3]
 864              	.L62:
 494:.\Generated_Source\PSoC4/CyLib.c ****     }
 495:.\Generated_Source\PSoC4/CyLib.c **** }
 865              		.loc 1 495 0
 866 0062 BD46     		mov	sp, r7
 867 0064 04B0     		add	sp, sp, #16
 868              		@ sp needed for prologue
 869 0066 80BD     		pop	{r7, pc}
ARM GAS  C:\Users\maxk\AppData\Local\Temp\ccchLIRo.s 			page 25


 870              	.L64:
 871              		.align	2
 872              	.L63:
 873 0068 04010B40 		.word	1074462980
 874 006c 0C020B40 		.word	1074463244
 875              		.cfi_endproc
 876              	.LFE10:
 877              		.size	CySysWdtWriteMode, .-CySysWdtWriteMode
 878              		.section	.text.CySysWdtReadMode,"ax",%progbits
 879              		.align	2
 880              		.global	CySysWdtReadMode
 881              		.code	16
 882              		.thumb_func
 883              		.type	CySysWdtReadMode, %function
 884              	CySysWdtReadMode:
 885              	.LFB11:
 496:.\Generated_Source\PSoC4/CyLib.c **** 
 497:.\Generated_Source\PSoC4/CyLib.c **** 
 498:.\Generated_Source\PSoC4/CyLib.c **** /*******************************************************************************
 499:.\Generated_Source\PSoC4/CyLib.c **** * Function Name: CySysWdtReadMode
 500:.\Generated_Source\PSoC4/CyLib.c **** ********************************************************************************
 501:.\Generated_Source\PSoC4/CyLib.c **** *
 502:.\Generated_Source\PSoC4/CyLib.c **** * Summary:
 503:.\Generated_Source\PSoC4/CyLib.c **** *  Reads the mode of one of the three WDT counters.
 504:.\Generated_Source\PSoC4/CyLib.c **** *
 505:.\Generated_Source\PSoC4/CyLib.c **** * Parameters:
 506:.\Generated_Source\PSoC4/CyLib.c **** *  counterNum: Valid range [0-2].  Number of the WDT counter.
 507:.\Generated_Source\PSoC4/CyLib.c **** *
 508:.\Generated_Source\PSoC4/CyLib.c **** * Return:
 509:.\Generated_Source\PSoC4/CyLib.c **** *  Mode of the counter.  Same enumerated values as mode parameter used in
 510:.\Generated_Source\PSoC4/CyLib.c **** *  CySysWdtWriteMode().
 511:.\Generated_Source\PSoC4/CyLib.c **** *
 512:.\Generated_Source\PSoC4/CyLib.c **** *******************************************************************************/
 513:.\Generated_Source\PSoC4/CyLib.c **** uint32 CySysWdtReadMode(uint32 counterNum)
 514:.\Generated_Source\PSoC4/CyLib.c **** {
 886              		.loc 1 514 0
 887              		.cfi_startproc
 888 0000 80B5     		push	{r7, lr}
 889              	.LCFI29:
 890              		.cfi_def_cfa_offset 8
 891              		.cfi_offset 7, -8
 892              		.cfi_offset 14, -4
 893 0002 82B0     		sub	sp, sp, #8
 894              	.LCFI30:
 895              		.cfi_def_cfa_offset 16
 896 0004 00AF     		add	r7, sp, #0
 897              	.LCFI31:
 898              		.cfi_def_cfa_register 7
 899 0006 7860     		str	r0, [r7, #4]
 515:.\Generated_Source\PSoC4/CyLib.c ****     return ((CY_SYS_WDT_CONFIG_REG >> (counterNum * CY_SYS_WDT_CNT_SHIFT)) & CY_SYS_WDT_MODE_MASK);
 900              		.loc 1 515 0
 901 0008 054B     		ldr	r3, .L67
 902 000a 1A68     		ldr	r2, [r3]
 903 000c 7B68     		ldr	r3, [r7, #4]
 904 000e DB00     		lsl	r3, r3, #3
 905 0010 DA40     		lsr	r2, r2, r3
 906 0012 0323     		mov	r3, #3
ARM GAS  C:\Users\maxk\AppData\Local\Temp\ccchLIRo.s 			page 26


 907 0014 1340     		and	r3, r3, r2
 516:.\Generated_Source\PSoC4/CyLib.c **** }
 908              		.loc 1 516 0
 909 0016 181C     		mov	r0, r3
 910 0018 BD46     		mov	sp, r7
 911 001a 02B0     		add	sp, sp, #8
 912              		@ sp needed for prologue
 913 001c 80BD     		pop	{r7, pc}
 914              	.L68:
 915 001e C046     		.align	2
 916              	.L67:
 917 0020 0C020B40 		.word	1074463244
 918              		.cfi_endproc
 919              	.LFE11:
 920              		.size	CySysWdtReadMode, .-CySysWdtReadMode
 921              		.section	.text.CySysWdtWriteClearOnMatch,"ax",%progbits
 922              		.align	2
 923              		.global	CySysWdtWriteClearOnMatch
 924              		.code	16
 925              		.thumb_func
 926              		.type	CySysWdtWriteClearOnMatch, %function
 927              	CySysWdtWriteClearOnMatch:
 928              	.LFB12:
 517:.\Generated_Source\PSoC4/CyLib.c **** 
 518:.\Generated_Source\PSoC4/CyLib.c **** 
 519:.\Generated_Source\PSoC4/CyLib.c **** /*******************************************************************************
 520:.\Generated_Source\PSoC4/CyLib.c **** * Function Name: CySysWdtWriteClearOnMatch
 521:.\Generated_Source\PSoC4/CyLib.c **** ********************************************************************************
 522:.\Generated_Source\PSoC4/CyLib.c **** *
 523:.\Generated_Source\PSoC4/CyLib.c **** * Summary:
 524:.\Generated_Source\PSoC4/CyLib.c **** *  Configures the WDT counter clear on a match setting.  If configured to clear
 525:.\Generated_Source\PSoC4/CyLib.c **** *  on match the counter will count from 0 to the MatchValue giving it a
 526:.\Generated_Source\PSoC4/CyLib.c **** *  period of (MatchValue + 1).
 527:.\Generated_Source\PSoC4/CyLib.c **** *
 528:.\Generated_Source\PSoC4/CyLib.c **** * Parameters:
 529:.\Generated_Source\PSoC4/CyLib.c **** *  counterNum:
 530:.\Generated_Source\PSoC4/CyLib.c **** *   Valid range [0-1].  Number of the WDT counter.  Match values are not
 531:.\Generated_Source\PSoC4/CyLib.c **** *   supported by counter 2.
 532:.\Generated_Source\PSoC4/CyLib.c **** *
 533:.\Generated_Source\PSoC4/CyLib.c **** * enable:
 534:.\Generated_Source\PSoC4/CyLib.c **** *   0 to disable, 1 to enable
 535:.\Generated_Source\PSoC4/CyLib.c **** *
 536:.\Generated_Source\PSoC4/CyLib.c **** * Return:
 537:.\Generated_Source\PSoC4/CyLib.c **** *   None
 538:.\Generated_Source\PSoC4/CyLib.c **** *
 539:.\Generated_Source\PSoC4/CyLib.c **** * Side Effects:
 540:.\Generated_Source\PSoC4/CyLib.c **** *   WDT counter counterNum should be disabled. Othetwise function
 541:.\Generated_Source\PSoC4/CyLib.c **** *   call will have no effect.
 542:.\Generated_Source\PSoC4/CyLib.c **** *   This API enables ILO, if it was disabled.
 543:.\Generated_Source\PSoC4/CyLib.c **** *
 544:.\Generated_Source\PSoC4/CyLib.c **** *
 545:.\Generated_Source\PSoC4/CyLib.c **** *******************************************************************************/
 546:.\Generated_Source\PSoC4/CyLib.c **** void CySysWdtWriteClearOnMatch(uint32 counterNum, uint32 enable)
 547:.\Generated_Source\PSoC4/CyLib.c **** {
 929              		.loc 1 547 0
 930              		.cfi_startproc
 931 0000 90B5     		push	{r4, r7, lr}
ARM GAS  C:\Users\maxk\AppData\Local\Temp\ccchLIRo.s 			page 27


 932              	.LCFI32:
 933              		.cfi_def_cfa_offset 12
 934              		.cfi_offset 4, -12
 935              		.cfi_offset 7, -8
 936              		.cfi_offset 14, -4
 937 0002 83B0     		sub	sp, sp, #12
 938              	.LCFI33:
 939              		.cfi_def_cfa_offset 24
 940 0004 00AF     		add	r7, sp, #0
 941              	.LCFI34:
 942              		.cfi_def_cfa_register 7
 943 0006 7860     		str	r0, [r7, #4]
 944 0008 3960     		str	r1, [r7]
 548:.\Generated_Source\PSoC4/CyLib.c ****     CYASSERT((counterNum == CY_SYS_WDT_COUNTER0) ||
 945              		.loc 1 548 0
 946 000a 7B68     		ldr	r3, [r7, #4]
 947 000c 002B     		cmp	r3, #0
 948 000e 05D0     		beq	.L70
 949 0010 7B68     		ldr	r3, [r7, #4]
 950 0012 012B     		cmp	r3, #1
 951 0014 02D0     		beq	.L70
 952 0016 0020     		mov	r0, #0
 953 0018 FFF7FEFF 		bl	CyHalt
 954              	.L70:
 549:.\Generated_Source\PSoC4/CyLib.c ****                                          (counterNum == CY_SYS_WDT_COUNTER1));
 550:.\Generated_Source\PSoC4/CyLib.c **** 
 551:.\Generated_Source\PSoC4/CyLib.c ****     /* Configuring the WDT involves passing control signals between clock domains,
 552:.\Generated_Source\PSoC4/CyLib.c ****     * which requires the ILO to be enabled.
 553:.\Generated_Source\PSoC4/CyLib.c ****     */
 554:.\Generated_Source\PSoC4/CyLib.c ****     if (0u == (CY_SYS_CLK_ILO_CONFIG_REG & CY_SYS_CLK_ILO_CONFIG_ENABLE))
 955              		.loc 1 554 0
 956 001c 0E4B     		ldr	r3, .L74
 957 001e 1B68     		ldr	r3, [r3]
 958 0020 002B     		cmp	r3, #0
 959 0022 01DB     		blt	.L71
 555:.\Generated_Source\PSoC4/CyLib.c ****     {
 556:.\Generated_Source\PSoC4/CyLib.c ****         CySysClkIloStart();
 960              		.loc 1 556 0
 961 0024 FFF7FEFF 		bl	CySysClkIloStart
 962              	.L71:
 557:.\Generated_Source\PSoC4/CyLib.c ****     }
 558:.\Generated_Source\PSoC4/CyLib.c **** 
 559:.\Generated_Source\PSoC4/CyLib.c ****     if(0u == CySysWdtReadEnabledStatus(counterNum))
 963              		.loc 1 559 0
 964 0028 7B68     		ldr	r3, [r7, #4]
 965 002a 181C     		mov	r0, r3
 966 002c FFF7FEFF 		bl	CySysWdtReadEnabledStatus
 967 0030 031C     		mov	r3, r0
 968 0032 002B     		cmp	r3, #0
 969 0034 0CD1     		bne	.L73
 560:.\Generated_Source\PSoC4/CyLib.c ****     {
 561:.\Generated_Source\PSoC4/CyLib.c ****         CY_SYS_WDT_CONFIG_REG |= (uint32)(enable << ((counterNum * CY_SYS_WDT_CNT_SHIFT) +
 970              		.loc 1 561 0
 971 0036 094B     		ldr	r3, .L74+4
 972 0038 084A     		ldr	r2, .L74+4
 973 003a 1168     		ldr	r1, [r2]
 974 003c 7A68     		ldr	r2, [r7, #4]
ARM GAS  C:\Users\maxk\AppData\Local\Temp\ccchLIRo.s 			page 28


 975 003e 9200     		lsl	r2, r2, #2
 976 0040 0132     		add	r2, r2, #1
 977 0042 5200     		lsl	r2, r2, #1
 978 0044 3868     		ldr	r0, [r7]
 979 0046 041C     		mov	r4, r0
 980 0048 9440     		lsl	r4, r4, r2
 981 004a 221C     		mov	r2, r4
 982 004c 0A43     		orr	r2, r2, r1
 983 004e 1A60     		str	r2, [r3]
 984              	.L73:
 562:.\Generated_Source\PSoC4/CyLib.c ****                                                         CY_SYS_WDT_CNT_MATCH_CLR_SHIFT));
 563:.\Generated_Source\PSoC4/CyLib.c ****     }
 564:.\Generated_Source\PSoC4/CyLib.c **** }
 985              		.loc 1 564 0
 986 0050 BD46     		mov	sp, r7
 987 0052 03B0     		add	sp, sp, #12
 988              		@ sp needed for prologue
 989 0054 90BD     		pop	{r4, r7, pc}
 990              	.L75:
 991 0056 C046     		.align	2
 992              	.L74:
 993 0058 04010B40 		.word	1074462980
 994 005c 0C020B40 		.word	1074463244
 995              		.cfi_endproc
 996              	.LFE12:
 997              		.size	CySysWdtWriteClearOnMatch, .-CySysWdtWriteClearOnMatch
 998              		.section	.text.CySysWdtReadClearOnMatch,"ax",%progbits
 999              		.align	2
 1000              		.global	CySysWdtReadClearOnMatch
 1001              		.code	16
 1002              		.thumb_func
 1003              		.type	CySysWdtReadClearOnMatch, %function
 1004              	CySysWdtReadClearOnMatch:
 1005              	.LFB13:
 565:.\Generated_Source\PSoC4/CyLib.c **** 
 566:.\Generated_Source\PSoC4/CyLib.c **** 
 567:.\Generated_Source\PSoC4/CyLib.c **** /*******************************************************************************
 568:.\Generated_Source\PSoC4/CyLib.c **** * Function Name: CySysWdtReadClearOnMatch
 569:.\Generated_Source\PSoC4/CyLib.c **** ********************************************************************************
 570:.\Generated_Source\PSoC4/CyLib.c **** *
 571:.\Generated_Source\PSoC4/CyLib.c **** * Summary:
 572:.\Generated_Source\PSoC4/CyLib.c **** *  Reads the clear on match setting for the specified counter.
 573:.\Generated_Source\PSoC4/CyLib.c **** *
 574:.\Generated_Source\PSoC4/CyLib.c **** * Parameters:
 575:.\Generated_Source\PSoC4/CyLib.c **** *   counterNum: Valid range [0-1].  Number of the WDT counter.  Match values are
 576:.\Generated_Source\PSoC4/CyLib.c **** *               not supported by counter 2.
 577:.\Generated_Source\PSoC4/CyLib.c **** *
 578:.\Generated_Source\PSoC4/CyLib.c **** * Return:
 579:.\Generated_Source\PSoC4/CyLib.c **** *   Clear on Match status: 1 if enabled, 0 if disabled
 580:.\Generated_Source\PSoC4/CyLib.c **** *
 581:.\Generated_Source\PSoC4/CyLib.c **** *******************************************************************************/
 582:.\Generated_Source\PSoC4/CyLib.c **** uint32 CySysWdtReadClearOnMatch(uint32 counterNum)
 583:.\Generated_Source\PSoC4/CyLib.c **** {
 1006              		.loc 1 583 0
 1007              		.cfi_startproc
 1008 0000 80B5     		push	{r7, lr}
 1009              	.LCFI35:
ARM GAS  C:\Users\maxk\AppData\Local\Temp\ccchLIRo.s 			page 29


 1010              		.cfi_def_cfa_offset 8
 1011              		.cfi_offset 7, -8
 1012              		.cfi_offset 14, -4
 1013 0002 82B0     		sub	sp, sp, #8
 1014              	.LCFI36:
 1015              		.cfi_def_cfa_offset 16
 1016 0004 00AF     		add	r7, sp, #0
 1017              	.LCFI37:
 1018              		.cfi_def_cfa_register 7
 1019 0006 7860     		str	r0, [r7, #4]
 584:.\Generated_Source\PSoC4/CyLib.c ****     CYASSERT((counterNum == CY_SYS_WDT_COUNTER0) ||
 1020              		.loc 1 584 0
 1021 0008 7B68     		ldr	r3, [r7, #4]
 1022 000a 002B     		cmp	r3, #0
 1023 000c 05D0     		beq	.L77
 1024 000e 7B68     		ldr	r3, [r7, #4]
 1025 0010 012B     		cmp	r3, #1
 1026 0012 02D0     		beq	.L77
 1027 0014 0020     		mov	r0, #0
 1028 0016 FFF7FEFF 		bl	CyHalt
 1029              	.L77:
 585:.\Generated_Source\PSoC4/CyLib.c ****                                          (counterNum == CY_SYS_WDT_COUNTER1));
 586:.\Generated_Source\PSoC4/CyLib.c **** 
 587:.\Generated_Source\PSoC4/CyLib.c ****     return (uint32)((CY_SYS_WDT_CONFIG_REG >>
 1030              		.loc 1 587 0
 1031 001a 064B     		ldr	r3, .L79
 1032 001c 1A68     		ldr	r2, [r3]
 588:.\Generated_Source\PSoC4/CyLib.c ****                         ((counterNum * CY_SYS_WDT_CNT_SHIFT) + CY_SYS_WDT_CNT_MATCH_CLR_SHIFT)) & 0
 1033              		.loc 1 588 0
 1034 001e 7B68     		ldr	r3, [r7, #4]
 1035 0020 9B00     		lsl	r3, r3, #2
 1036 0022 0133     		add	r3, r3, #1
 1037 0024 5B00     		lsl	r3, r3, #1
 1038              		.loc 1 587 0
 1039 0026 DA40     		lsr	r2, r2, r3
 1040 0028 0123     		mov	r3, #1
 1041 002a 1340     		and	r3, r3, r2
 589:.\Generated_Source\PSoC4/CyLib.c **** }
 1042              		.loc 1 589 0
 1043 002c 181C     		mov	r0, r3
 1044 002e BD46     		mov	sp, r7
 1045 0030 02B0     		add	sp, sp, #8
 1046              		@ sp needed for prologue
 1047 0032 80BD     		pop	{r7, pc}
 1048              	.L80:
 1049              		.align	2
 1050              	.L79:
 1051 0034 0C020B40 		.word	1074463244
 1052              		.cfi_endproc
 1053              	.LFE13:
 1054              		.size	CySysWdtReadClearOnMatch, .-CySysWdtReadClearOnMatch
 1055              		.section	.text.CySysWdtEnable,"ax",%progbits
 1056              		.align	2
 1057              		.global	CySysWdtEnable
 1058              		.code	16
 1059              		.thumb_func
 1060              		.type	CySysWdtEnable, %function
ARM GAS  C:\Users\maxk\AppData\Local\Temp\ccchLIRo.s 			page 30


 1061              	CySysWdtEnable:
 1062              	.LFB14:
 590:.\Generated_Source\PSoC4/CyLib.c **** 
 591:.\Generated_Source\PSoC4/CyLib.c **** 
 592:.\Generated_Source\PSoC4/CyLib.c **** /*******************************************************************************
 593:.\Generated_Source\PSoC4/CyLib.c **** * Function Name: CySysWdtEnable
 594:.\Generated_Source\PSoC4/CyLib.c **** ********************************************************************************
 595:.\Generated_Source\PSoC4/CyLib.c **** *
 596:.\Generated_Source\PSoC4/CyLib.c **** * Summary:
 597:.\Generated_Source\PSoC4/CyLib.c **** *  Enables the specified WDT counters.  All counters specified in the mask are
 598:.\Generated_Source\PSoC4/CyLib.c **** *  enabled.
 599:.\Generated_Source\PSoC4/CyLib.c **** *
 600:.\Generated_Source\PSoC4/CyLib.c **** * Parameters:
 601:.\Generated_Source\PSoC4/CyLib.c **** *  counterMask: Mask of all counters to enable
 602:.\Generated_Source\PSoC4/CyLib.c **** *      Value    Define                       Counter
 603:.\Generated_Source\PSoC4/CyLib.c **** *      1<<0    CY_SYS_WDT_COUNTER0_MASK      0
 604:.\Generated_Source\PSoC4/CyLib.c **** *      1<<8    CY_SYS_WDT_COUNTER1_MASK      1
 605:.\Generated_Source\PSoC4/CyLib.c **** *      1<<16   CY_SYS_WDT_COUNTER2_MASK      2
 606:.\Generated_Source\PSoC4/CyLib.c **** *
 607:.\Generated_Source\PSoC4/CyLib.c **** * Return:
 608:.\Generated_Source\PSoC4/CyLib.c **** *  None
 609:.\Generated_Source\PSoC4/CyLib.c **** *
 610:.\Generated_Source\PSoC4/CyLib.c **** * Side Effects:
 611:.\Generated_Source\PSoC4/CyLib.c **** *  Enabling or disabling a WDT requires 3 LF Clock cycles to come into effect.
 612:.\Generated_Source\PSoC4/CyLib.c **** *  This API enables ILO, if it was disabled.
 613:.\Generated_Source\PSoC4/CyLib.c **** *
 614:.\Generated_Source\PSoC4/CyLib.c **** *******************************************************************************/
 615:.\Generated_Source\PSoC4/CyLib.c **** void CySysWdtEnable(uint32 counterMask)
 616:.\Generated_Source\PSoC4/CyLib.c **** {
 1063              		.loc 1 616 0
 1064              		.cfi_startproc
 1065 0000 80B5     		push	{r7, lr}
 1066              	.LCFI38:
 1067              		.cfi_def_cfa_offset 8
 1068              		.cfi_offset 7, -8
 1069              		.cfi_offset 14, -4
 1070 0002 82B0     		sub	sp, sp, #8
 1071              	.LCFI39:
 1072              		.cfi_def_cfa_offset 16
 1073 0004 00AF     		add	r7, sp, #0
 1074              	.LCFI40:
 1075              		.cfi_def_cfa_register 7
 1076 0006 7860     		str	r0, [r7, #4]
 617:.\Generated_Source\PSoC4/CyLib.c ****     /* Configuring the WDT involves passing control signals between clock domains,
 618:.\Generated_Source\PSoC4/CyLib.c ****     * which requires the ILO to be enabled.
 619:.\Generated_Source\PSoC4/CyLib.c ****     */
 620:.\Generated_Source\PSoC4/CyLib.c ****     if (0u == (CY_SYS_CLK_ILO_CONFIG_REG & CY_SYS_CLK_ILO_CONFIG_ENABLE))
 1077              		.loc 1 620 0
 1078 0008 074B     		ldr	r3, .L84
 1079 000a 1B68     		ldr	r3, [r3]
 1080 000c 002B     		cmp	r3, #0
 1081 000e 01DB     		blt	.L82
 621:.\Generated_Source\PSoC4/CyLib.c ****     {
 622:.\Generated_Source\PSoC4/CyLib.c ****         CySysClkIloStart();
 1082              		.loc 1 622 0
 1083 0010 FFF7FEFF 		bl	CySysClkIloStart
 1084              	.L82:
ARM GAS  C:\Users\maxk\AppData\Local\Temp\ccchLIRo.s 			page 31


 623:.\Generated_Source\PSoC4/CyLib.c ****     }
 624:.\Generated_Source\PSoC4/CyLib.c **** 
 625:.\Generated_Source\PSoC4/CyLib.c ****     CY_SYS_WDT_CONTROL_REG |= counterMask;
 1085              		.loc 1 625 0
 1086 0014 054B     		ldr	r3, .L84+4
 1087 0016 054A     		ldr	r2, .L84+4
 1088 0018 1168     		ldr	r1, [r2]
 1089 001a 7A68     		ldr	r2, [r7, #4]
 1090 001c 0A43     		orr	r2, r2, r1
 1091 001e 1A60     		str	r2, [r3]
 626:.\Generated_Source\PSoC4/CyLib.c **** }
 1092              		.loc 1 626 0
 1093 0020 BD46     		mov	sp, r7
 1094 0022 02B0     		add	sp, sp, #8
 1095              		@ sp needed for prologue
 1096 0024 80BD     		pop	{r7, pc}
 1097              	.L85:
 1098 0026 C046     		.align	2
 1099              	.L84:
 1100 0028 04010B40 		.word	1074462980
 1101 002c 10020B40 		.word	1074463248
 1102              		.cfi_endproc
 1103              	.LFE14:
 1104              		.size	CySysWdtEnable, .-CySysWdtEnable
 1105              		.section	.text.CySysWdtDisable,"ax",%progbits
 1106              		.align	2
 1107              		.global	CySysWdtDisable
 1108              		.code	16
 1109              		.thumb_func
 1110              		.type	CySysWdtDisable, %function
 1111              	CySysWdtDisable:
 1112              	.LFB15:
 627:.\Generated_Source\PSoC4/CyLib.c **** 
 628:.\Generated_Source\PSoC4/CyLib.c **** 
 629:.\Generated_Source\PSoC4/CyLib.c **** /*******************************************************************************
 630:.\Generated_Source\PSoC4/CyLib.c **** * Function Name: CySysWdtDisable
 631:.\Generated_Source\PSoC4/CyLib.c **** ********************************************************************************
 632:.\Generated_Source\PSoC4/CyLib.c **** *
 633:.\Generated_Source\PSoC4/CyLib.c **** * Summary:
 634:.\Generated_Source\PSoC4/CyLib.c **** *  Disables the specified WDT counters.  All counters specified in the mask are
 635:.\Generated_Source\PSoC4/CyLib.c **** *  disabled.
 636:.\Generated_Source\PSoC4/CyLib.c **** *
 637:.\Generated_Source\PSoC4/CyLib.c **** * Parameters:
 638:.\Generated_Source\PSoC4/CyLib.c **** *  uint32 counterMask: Mask of all counters to disable
 639:.\Generated_Source\PSoC4/CyLib.c **** *      Value    Define                       Counter
 640:.\Generated_Source\PSoC4/CyLib.c **** *      1<<0    CY_SYS_WDT_COUNTER0_MASK      0
 641:.\Generated_Source\PSoC4/CyLib.c **** *      1<<8    CY_SYS_WDT_COUNTER1_MASK      1
 642:.\Generated_Source\PSoC4/CyLib.c **** *      1<<16   CY_SYS_WDT_COUNTER2_MASK      2
 643:.\Generated_Source\PSoC4/CyLib.c **** *
 644:.\Generated_Source\PSoC4/CyLib.c **** * Return:
 645:.\Generated_Source\PSoC4/CyLib.c **** *   None
 646:.\Generated_Source\PSoC4/CyLib.c **** *
 647:.\Generated_Source\PSoC4/CyLib.c **** * Side Effects:
 648:.\Generated_Source\PSoC4/CyLib.c **** *  Enabling or disabling a WDT requires 3 LF Clock cycles to come into effect.
 649:.\Generated_Source\PSoC4/CyLib.c **** *  This API enables ILO, if it was disabled.
 650:.\Generated_Source\PSoC4/CyLib.c **** *
 651:.\Generated_Source\PSoC4/CyLib.c **** *******************************************************************************/
ARM GAS  C:\Users\maxk\AppData\Local\Temp\ccchLIRo.s 			page 32


 652:.\Generated_Source\PSoC4/CyLib.c **** void CySysWdtDisable(uint32 counterMask)
 653:.\Generated_Source\PSoC4/CyLib.c **** {
 1113              		.loc 1 653 0
 1114              		.cfi_startproc
 1115 0000 80B5     		push	{r7, lr}
 1116              	.LCFI41:
 1117              		.cfi_def_cfa_offset 8
 1118              		.cfi_offset 7, -8
 1119              		.cfi_offset 14, -4
 1120 0002 82B0     		sub	sp, sp, #8
 1121              	.LCFI42:
 1122              		.cfi_def_cfa_offset 16
 1123 0004 00AF     		add	r7, sp, #0
 1124              	.LCFI43:
 1125              		.cfi_def_cfa_register 7
 1126 0006 7860     		str	r0, [r7, #4]
 654:.\Generated_Source\PSoC4/CyLib.c ****     /* Configuring the WDT involves passing control signals between clock domains,
 655:.\Generated_Source\PSoC4/CyLib.c ****     * which requires the ILO to be enabled.
 656:.\Generated_Source\PSoC4/CyLib.c ****     */
 657:.\Generated_Source\PSoC4/CyLib.c ****     if (0u == (CY_SYS_CLK_ILO_CONFIG_REG & CY_SYS_CLK_ILO_CONFIG_ENABLE))
 1127              		.loc 1 657 0
 1128 0008 074B     		ldr	r3, .L89
 1129 000a 1B68     		ldr	r3, [r3]
 1130 000c 002B     		cmp	r3, #0
 1131 000e 01DB     		blt	.L87
 658:.\Generated_Source\PSoC4/CyLib.c ****     {
 659:.\Generated_Source\PSoC4/CyLib.c ****         CySysClkIloStart();
 1132              		.loc 1 659 0
 1133 0010 FFF7FEFF 		bl	CySysClkIloStart
 1134              	.L87:
 660:.\Generated_Source\PSoC4/CyLib.c ****     }
 661:.\Generated_Source\PSoC4/CyLib.c **** 
 662:.\Generated_Source\PSoC4/CyLib.c ****     CY_SYS_WDT_CONTROL_REG &= ~counterMask;
 1135              		.loc 1 662 0
 1136 0014 054B     		ldr	r3, .L89+4
 1137 0016 054A     		ldr	r2, .L89+4
 1138 0018 1168     		ldr	r1, [r2]
 1139 001a 7A68     		ldr	r2, [r7, #4]
 1140 001c D243     		mvn	r2, r2
 1141 001e 0A40     		and	r2, r2, r1
 1142 0020 1A60     		str	r2, [r3]
 663:.\Generated_Source\PSoC4/CyLib.c **** }
 1143              		.loc 1 663 0
 1144 0022 BD46     		mov	sp, r7
 1145 0024 02B0     		add	sp, sp, #8
 1146              		@ sp needed for prologue
 1147 0026 80BD     		pop	{r7, pc}
 1148              	.L90:
 1149              		.align	2
 1150              	.L89:
 1151 0028 04010B40 		.word	1074462980
 1152 002c 10020B40 		.word	1074463248
 1153              		.cfi_endproc
 1154              	.LFE15:
 1155              		.size	CySysWdtDisable, .-CySysWdtDisable
 1156              		.section	.text.CySysWdtWriteCascade,"ax",%progbits
 1157              		.align	2
ARM GAS  C:\Users\maxk\AppData\Local\Temp\ccchLIRo.s 			page 33


 1158              		.global	CySysWdtWriteCascade
 1159              		.code	16
 1160              		.thumb_func
 1161              		.type	CySysWdtWriteCascade, %function
 1162              	CySysWdtWriteCascade:
 1163              	.LFB16:
 664:.\Generated_Source\PSoC4/CyLib.c **** 
 665:.\Generated_Source\PSoC4/CyLib.c **** 
 666:.\Generated_Source\PSoC4/CyLib.c **** /*******************************************************************************
 667:.\Generated_Source\PSoC4/CyLib.c **** * Function Name: CySysWdtWriteCascade
 668:.\Generated_Source\PSoC4/CyLib.c **** ********************************************************************************
 669:.\Generated_Source\PSoC4/CyLib.c **** *
 670:.\Generated_Source\PSoC4/CyLib.c **** * Summary:
 671:.\Generated_Source\PSoC4/CyLib.c **** *   Writes the two WDT cascade values based on the combination of mask values
 672:.\Generated_Source\PSoC4/CyLib.c **** *   specified.
 673:.\Generated_Source\PSoC4/CyLib.c **** *
 674:.\Generated_Source\PSoC4/CyLib.c **** * Parameters:
 675:.\Generated_Source\PSoC4/CyLib.c **** *   cascadeMask: Mask value used to set or clear the cascade values.
 676:.\Generated_Source\PSoC4/CyLib.c **** *   Value    Define                     Cascade
 677:.\Generated_Source\PSoC4/CyLib.c **** *   0        CY_SYS_WDT_CASCADE_NONE    Neither
 678:.\Generated_Source\PSoC4/CyLib.c **** *   1<<3     CY_SYS_WDT_CASCADE_01      Cascade 01
 679:.\Generated_Source\PSoC4/CyLib.c **** *   1<<11    CY_SYS_WDT_CASCADE_12      Cascade 12
 680:.\Generated_Source\PSoC4/CyLib.c **** *
 681:.\Generated_Source\PSoC4/CyLib.c **** * Return:
 682:.\Generated_Source\PSoC4/CyLib.c **** *   None
 683:.\Generated_Source\PSoC4/CyLib.c **** *
 684:.\Generated_Source\PSoC4/CyLib.c **** * Side effects:
 685:.\Generated_Source\PSoC4/CyLib.c **** *   If only one cascasde mask is specified, the second cascade is disabled.
 686:.\Generated_Source\PSoC4/CyLib.c **** *   To set both cascade modes two defines should be ORed:
 687:.\Generated_Source\PSoC4/CyLib.c **** *    (CY_SYS_WDT_CASCADE_01 | CY_SYS_WDT_CASCADE_12)
 688:.\Generated_Source\PSoC4/CyLib.c **** *   This API enables ILO, if it was disabled.
 689:.\Generated_Source\PSoC4/CyLib.c **** *
 690:.\Generated_Source\PSoC4/CyLib.c **** *******************************************************************************/
 691:.\Generated_Source\PSoC4/CyLib.c **** void CySysWdtWriteCascade(uint32 cascadeMask)
 692:.\Generated_Source\PSoC4/CyLib.c **** {
 1164              		.loc 1 692 0
 1165              		.cfi_startproc
 1166 0000 90B5     		push	{r4, r7, lr}
 1167              	.LCFI44:
 1168              		.cfi_def_cfa_offset 12
 1169              		.cfi_offset 4, -12
 1170              		.cfi_offset 7, -8
 1171              		.cfi_offset 14, -4
 1172 0002 85B0     		sub	sp, sp, #20
 1173              	.LCFI45:
 1174              		.cfi_def_cfa_offset 32
 1175 0004 00AF     		add	r7, sp, #0
 1176              	.LCFI46:
 1177              		.cfi_def_cfa_register 7
 1178 0006 7860     		str	r0, [r7, #4]
 693:.\Generated_Source\PSoC4/CyLib.c ****     uint32 configRegValue;
 694:.\Generated_Source\PSoC4/CyLib.c ****     uint32 countersEnableStatus;
 695:.\Generated_Source\PSoC4/CyLib.c **** 
 696:.\Generated_Source\PSoC4/CyLib.c ****     countersEnableStatus = CySysWdtReadEnabledStatus(CY_SYS_WDT_COUNTER0) |
 697:.\Generated_Source\PSoC4/CyLib.c ****                         CySysWdtReadEnabledStatus(CY_SYS_WDT_COUNTER1) |
 1179              		.loc 1 697 0
 1180 0008 0020     		mov	r0, #0
ARM GAS  C:\Users\maxk\AppData\Local\Temp\ccchLIRo.s 			page 34


 1181 000a FFF7FEFF 		bl	CySysWdtReadEnabledStatus
 1182 000e 041C     		mov	r4, r0
 1183 0010 0120     		mov	r0, #1
 1184 0012 FFF7FEFF 		bl	CySysWdtReadEnabledStatus
 1185 0016 031C     		mov	r3, r0
 1186 0018 1C43     		orr	r4, r4, r3
 1187              		.loc 1 696 0
 1188 001a 0220     		mov	r0, #2
 1189 001c FFF7FEFF 		bl	CySysWdtReadEnabledStatus
 1190 0020 031C     		mov	r3, r0
 1191 0022 2343     		orr	r3, r3, r4
 1192 0024 FB60     		str	r3, [r7, #12]
 698:.\Generated_Source\PSoC4/CyLib.c ****                         CySysWdtReadEnabledStatus(CY_SYS_WDT_COUNTER2);
 699:.\Generated_Source\PSoC4/CyLib.c **** 
 700:.\Generated_Source\PSoC4/CyLib.c ****     if (0u == countersEnableStatus)
 1193              		.loc 1 700 0
 1194 0026 FB68     		ldr	r3, [r7, #12]
 1195 0028 002B     		cmp	r3, #0
 1196 002a 13D1     		bne	.L94
 701:.\Generated_Source\PSoC4/CyLib.c ****     {
 702:.\Generated_Source\PSoC4/CyLib.c ****         /* Configuring the WDT involves passing control signals between clock domains,
 703:.\Generated_Source\PSoC4/CyLib.c ****         * which requires the ILO to be enabled.
 704:.\Generated_Source\PSoC4/CyLib.c ****         */
 705:.\Generated_Source\PSoC4/CyLib.c ****         if (0u == (CY_SYS_CLK_ILO_CONFIG_REG & CY_SYS_CLK_ILO_CONFIG_ENABLE))
 1197              		.loc 1 705 0
 1198 002c 0B4B     		ldr	r3, .L95
 1199 002e 1B68     		ldr	r3, [r3]
 1200 0030 002B     		cmp	r3, #0
 1201 0032 01DB     		blt	.L93
 706:.\Generated_Source\PSoC4/CyLib.c ****         {
 707:.\Generated_Source\PSoC4/CyLib.c ****             CySysClkIloStart();
 1202              		.loc 1 707 0
 1203 0034 FFF7FEFF 		bl	CySysClkIloStart
 1204              	.L93:
 708:.\Generated_Source\PSoC4/CyLib.c ****         }
 709:.\Generated_Source\PSoC4/CyLib.c **** 
 710:.\Generated_Source\PSoC4/CyLib.c ****         configRegValue = CY_SYS_WDT_CONFIG_REG;
 1205              		.loc 1 710 0
 1206 0038 094B     		ldr	r3, .L95+4
 1207 003a 1B68     		ldr	r3, [r3]
 1208 003c BB60     		str	r3, [r7, #8]
 711:.\Generated_Source\PSoC4/CyLib.c ****         configRegValue &= ((uint32)(~(CY_SYS_WDT_CASCADE_01|CY_SYS_WDT_CASCADE_12)));
 1209              		.loc 1 711 0
 1210 003e BA68     		ldr	r2, [r7, #8]
 1211 0040 084B     		ldr	r3, .L95+8
 1212 0042 1340     		and	r3, r3, r2
 1213 0044 BB60     		str	r3, [r7, #8]
 712:.\Generated_Source\PSoC4/CyLib.c ****         configRegValue |= cascadeMask;
 1214              		.loc 1 712 0
 1215 0046 BA68     		ldr	r2, [r7, #8]
 1216 0048 7B68     		ldr	r3, [r7, #4]
 1217 004a 1343     		orr	r3, r3, r2
 1218 004c BB60     		str	r3, [r7, #8]
 713:.\Generated_Source\PSoC4/CyLib.c ****         CY_SYS_WDT_CONFIG_REG = configRegValue;
 1219              		.loc 1 713 0
 1220 004e 044B     		ldr	r3, .L95+4
 1221 0050 BA68     		ldr	r2, [r7, #8]
ARM GAS  C:\Users\maxk\AppData\Local\Temp\ccchLIRo.s 			page 35


 1222 0052 1A60     		str	r2, [r3]
 1223              	.L94:
 714:.\Generated_Source\PSoC4/CyLib.c ****     }
 715:.\Generated_Source\PSoC4/CyLib.c **** }
 1224              		.loc 1 715 0
 1225 0054 BD46     		mov	sp, r7
 1226 0056 05B0     		add	sp, sp, #20
 1227              		@ sp needed for prologue
 1228 0058 90BD     		pop	{r4, r7, pc}
 1229              	.L96:
 1230 005a C046     		.align	2
 1231              	.L95:
 1232 005c 04010B40 		.word	1074462980
 1233 0060 0C020B40 		.word	1074463244
 1234 0064 F7F7FFFF 		.word	-2057
 1235              		.cfi_endproc
 1236              	.LFE16:
 1237              		.size	CySysWdtWriteCascade, .-CySysWdtWriteCascade
 1238              		.section	.text.CySysWdtReadCascade,"ax",%progbits
 1239              		.align	2
 1240              		.global	CySysWdtReadCascade
 1241              		.code	16
 1242              		.thumb_func
 1243              		.type	CySysWdtReadCascade, %function
 1244              	CySysWdtReadCascade:
 1245              	.LFB17:
 716:.\Generated_Source\PSoC4/CyLib.c **** 
 717:.\Generated_Source\PSoC4/CyLib.c **** 
 718:.\Generated_Source\PSoC4/CyLib.c **** /*******************************************************************************
 719:.\Generated_Source\PSoC4/CyLib.c **** * Function Name: CySysWdtReadCascade
 720:.\Generated_Source\PSoC4/CyLib.c **** ********************************************************************************
 721:.\Generated_Source\PSoC4/CyLib.c **** *
 722:.\Generated_Source\PSoC4/CyLib.c **** * Summary:
 723:.\Generated_Source\PSoC4/CyLib.c **** *   Reads the two WDT cascade values returning a mask of the bits set.
 724:.\Generated_Source\PSoC4/CyLib.c **** *
 725:.\Generated_Source\PSoC4/CyLib.c **** * Parameters:
 726:.\Generated_Source\PSoC4/CyLib.c **** *   None
 727:.\Generated_Source\PSoC4/CyLib.c **** *
 728:.\Generated_Source\PSoC4/CyLib.c **** * Return:
 729:.\Generated_Source\PSoC4/CyLib.c **** *   Mask of cascade values set.
 730:.\Generated_Source\PSoC4/CyLib.c **** *   Value    Define                     Cascade
 731:.\Generated_Source\PSoC4/CyLib.c **** *   0        CY_SYS_WDT_CASCADE_NONE    Neither
 732:.\Generated_Source\PSoC4/CyLib.c **** *   1<<3     CY_SYS_WDT_CASCADE_01      Cascade 01
 733:.\Generated_Source\PSoC4/CyLib.c **** *   1<<11    CY_SYS_WDT_CASCADE_12      Cascade 12
 734:.\Generated_Source\PSoC4/CyLib.c **** *
 735:.\Generated_Source\PSoC4/CyLib.c **** *******************************************************************************/
 736:.\Generated_Source\PSoC4/CyLib.c **** uint32 CySysWdtReadCascade(void)
 737:.\Generated_Source\PSoC4/CyLib.c **** {
 1246              		.loc 1 737 0
 1247              		.cfi_startproc
 1248 0000 80B5     		push	{r7, lr}
 1249              	.LCFI47:
 1250              		.cfi_def_cfa_offset 8
 1251              		.cfi_offset 7, -8
 1252              		.cfi_offset 14, -4
 1253 0002 00AF     		add	r7, sp, #0
 1254              	.LCFI48:
ARM GAS  C:\Users\maxk\AppData\Local\Temp\ccchLIRo.s 			page 36


 1255              		.cfi_def_cfa_register 7
 738:.\Generated_Source\PSoC4/CyLib.c ****     return (CY_SYS_WDT_CONFIG_REG & (CY_SYS_WDT_CASCADE_01 | CY_SYS_WDT_CASCADE_12));
 1256              		.loc 1 738 0
 1257 0004 034B     		ldr	r3, .L99
 1258 0006 1A68     		ldr	r2, [r3]
 1259 0008 034B     		ldr	r3, .L99+4
 1260 000a 1340     		and	r3, r3, r2
 739:.\Generated_Source\PSoC4/CyLib.c **** }
 1261              		.loc 1 739 0
 1262 000c 181C     		mov	r0, r3
 1263 000e BD46     		mov	sp, r7
 1264              		@ sp needed for prologue
 1265 0010 80BD     		pop	{r7, pc}
 1266              	.L100:
 1267 0012 C046     		.align	2
 1268              	.L99:
 1269 0014 0C020B40 		.word	1074463244
 1270 0018 08080000 		.word	2056
 1271              		.cfi_endproc
 1272              	.LFE17:
 1273              		.size	CySysWdtReadCascade, .-CySysWdtReadCascade
 1274              		.section	.text.CySysWdtWriteMatch,"ax",%progbits
 1275              		.align	2
 1276              		.global	CySysWdtWriteMatch
 1277              		.code	16
 1278              		.thumb_func
 1279              		.type	CySysWdtWriteMatch, %function
 1280              	CySysWdtWriteMatch:
 1281              	.LFB18:
 740:.\Generated_Source\PSoC4/CyLib.c **** 
 741:.\Generated_Source\PSoC4/CyLib.c **** 
 742:.\Generated_Source\PSoC4/CyLib.c **** /*******************************************************************************
 743:.\Generated_Source\PSoC4/CyLib.c **** * Function Name: CySysWdtWriteMatch
 744:.\Generated_Source\PSoC4/CyLib.c **** ********************************************************************************
 745:.\Generated_Source\PSoC4/CyLib.c **** *
 746:.\Generated_Source\PSoC4/CyLib.c **** * Summary:
 747:.\Generated_Source\PSoC4/CyLib.c **** *  Configures the WDT counter match comparison value.
 748:.\Generated_Source\PSoC4/CyLib.c **** *
 749:.\Generated_Source\PSoC4/CyLib.c **** * Parameters:
 750:.\Generated_Source\PSoC4/CyLib.c **** *  counterNum:
 751:.\Generated_Source\PSoC4/CyLib.c **** *   Valid range [0-1]. Number of the WDT counter. Match values are not
 752:.\Generated_Source\PSoC4/CyLib.c **** *   supported by counter 2.
 753:.\Generated_Source\PSoC4/CyLib.c **** *
 754:.\Generated_Source\PSoC4/CyLib.c **** *  match:
 755:.\Generated_Source\PSoC4/CyLib.c **** *   Valid range [0-65535]. Value to be used to match against the counter.
 756:.\Generated_Source\PSoC4/CyLib.c **** *
 757:.\Generated_Source\PSoC4/CyLib.c **** * Return:
 758:.\Generated_Source\PSoC4/CyLib.c **** *   None
 759:.\Generated_Source\PSoC4/CyLib.c **** *
 760:.\Generated_Source\PSoC4/CyLib.c **** * Side effects:
 761:.\Generated_Source\PSoC4/CyLib.c **** *   This API enables ILO, if it was disabled.
 762:.\Generated_Source\PSoC4/CyLib.c **** *
 763:.\Generated_Source\PSoC4/CyLib.c **** *******************************************************************************/
 764:.\Generated_Source\PSoC4/CyLib.c **** void CySysWdtWriteMatch(uint32 counterNum, uint32 match)
 765:.\Generated_Source\PSoC4/CyLib.c **** {
 1282              		.loc 1 765 0
 1283              		.cfi_startproc
ARM GAS  C:\Users\maxk\AppData\Local\Temp\ccchLIRo.s 			page 37


 1284 0000 80B5     		push	{r7, lr}
 1285              	.LCFI49:
 1286              		.cfi_def_cfa_offset 8
 1287              		.cfi_offset 7, -8
 1288              		.cfi_offset 14, -4
 1289 0002 84B0     		sub	sp, sp, #16
 1290              	.LCFI50:
 1291              		.cfi_def_cfa_offset 24
 1292 0004 00AF     		add	r7, sp, #0
 1293              	.LCFI51:
 1294              		.cfi_def_cfa_register 7
 1295 0006 7860     		str	r0, [r7, #4]
 1296 0008 3960     		str	r1, [r7]
 766:.\Generated_Source\PSoC4/CyLib.c ****     uint32 regValue;
 767:.\Generated_Source\PSoC4/CyLib.c **** 
 768:.\Generated_Source\PSoC4/CyLib.c ****     CYASSERT((counterNum == CY_SYS_WDT_COUNTER0) ||
 1297              		.loc 1 768 0
 1298 000a 7B68     		ldr	r3, [r7, #4]
 1299 000c 002B     		cmp	r3, #0
 1300 000e 05D0     		beq	.L102
 1301 0010 7B68     		ldr	r3, [r7, #4]
 1302 0012 012B     		cmp	r3, #1
 1303 0014 02D0     		beq	.L102
 1304 0016 0020     		mov	r0, #0
 1305 0018 FFF7FEFF 		bl	CyHalt
 1306              	.L102:
 769:.\Generated_Source\PSoC4/CyLib.c ****                                          (counterNum == CY_SYS_WDT_COUNTER1));
 770:.\Generated_Source\PSoC4/CyLib.c **** 
 771:.\Generated_Source\PSoC4/CyLib.c ****     /* Configuring the WDT involves passing control signals between clock domains,
 772:.\Generated_Source\PSoC4/CyLib.c ****     * which requires the ILO to be enabled.
 773:.\Generated_Source\PSoC4/CyLib.c ****     */
 774:.\Generated_Source\PSoC4/CyLib.c ****     if (0u == (CY_SYS_CLK_ILO_CONFIG_REG & CY_SYS_CLK_ILO_CONFIG_ENABLE))
 1307              		.loc 1 774 0
 1308 001c 104B     		ldr	r3, .L105
 1309 001e 1B68     		ldr	r3, [r3]
 1310 0020 002B     		cmp	r3, #0
 1311 0022 01DB     		blt	.L103
 775:.\Generated_Source\PSoC4/CyLib.c ****     {
 776:.\Generated_Source\PSoC4/CyLib.c ****         CySysClkIloStart();
 1312              		.loc 1 776 0
 1313 0024 FFF7FEFF 		bl	CySysClkIloStart
 1314              	.L103:
 777:.\Generated_Source\PSoC4/CyLib.c ****     }
 778:.\Generated_Source\PSoC4/CyLib.c **** 
 779:.\Generated_Source\PSoC4/CyLib.c ****     /* Delay ~ 3LFCK in order to male sure previos changes are applied */
 780:.\Generated_Source\PSoC4/CyLib.c ****     CyDelayUs(CY_SYS_WDT_3LFCLK_DELAY_US);
 1315              		.loc 1 780 0
 1316 0028 8220     		mov	r0, #130
 1317 002a FFF7FEFF 		bl	CyDelayUs
 781:.\Generated_Source\PSoC4/CyLib.c **** 
 782:.\Generated_Source\PSoC4/CyLib.c ****     regValue = CY_SYS_WDT_MATCH_REG;
 1318              		.loc 1 782 0
 1319 002e 0D4B     		ldr	r3, .L105+4
 1320 0030 1B68     		ldr	r3, [r3]
 1321 0032 FB60     		str	r3, [r7, #12]
 783:.\Generated_Source\PSoC4/CyLib.c ****     regValue &= (uint32)~((uint32)(CY_SYS_WDT_LOWER_16BITS_MASK << (counterNum * CY_SYS_WDT_CNT_MAT
 1322              		.loc 1 783 0
ARM GAS  C:\Users\maxk\AppData\Local\Temp\ccchLIRo.s 			page 38


 1323 0034 7B68     		ldr	r3, [r7, #4]
 1324 0036 1B01     		lsl	r3, r3, #4
 1325 0038 0B4A     		ldr	r2, .L105+8
 1326 003a 111C     		mov	r1, r2
 1327 003c 9940     		lsl	r1, r1, r3
 1328 003e 0B1C     		mov	r3, r1
 1329 0040 DB43     		mvn	r3, r3
 1330 0042 FA68     		ldr	r2, [r7, #12]
 1331 0044 1340     		and	r3, r3, r2
 1332 0046 FB60     		str	r3, [r7, #12]
 784:.\Generated_Source\PSoC4/CyLib.c ****     CY_SYS_WDT_MATCH_REG = (regValue | (match << (counterNum * CY_SYS_WDT_CNT_MATCH_SHIFT)));
 1333              		.loc 1 784 0
 1334 0048 064B     		ldr	r3, .L105+4
 1335 004a 7A68     		ldr	r2, [r7, #4]
 1336 004c 1201     		lsl	r2, r2, #4
 1337 004e 3968     		ldr	r1, [r7]
 1338 0050 9140     		lsl	r1, r1, r2
 1339 0052 FA68     		ldr	r2, [r7, #12]
 1340 0054 0A43     		orr	r2, r2, r1
 1341 0056 1A60     		str	r2, [r3]
 785:.\Generated_Source\PSoC4/CyLib.c **** }
 1342              		.loc 1 785 0
 1343 0058 BD46     		mov	sp, r7
 1344 005a 04B0     		add	sp, sp, #16
 1345              		@ sp needed for prologue
 1346 005c 80BD     		pop	{r7, pc}
 1347              	.L106:
 1348 005e C046     		.align	2
 1349              	.L105:
 1350 0060 04010B40 		.word	1074462980
 1351 0064 08020B40 		.word	1074463240
 1352 0068 FFFF0000 		.word	65535
 1353              		.cfi_endproc
 1354              	.LFE18:
 1355              		.size	CySysWdtWriteMatch, .-CySysWdtWriteMatch
 1356              		.section	.text.CySysWdtWriteToggleBit,"ax",%progbits
 1357              		.align	2
 1358              		.global	CySysWdtWriteToggleBit
 1359              		.code	16
 1360              		.thumb_func
 1361              		.type	CySysWdtWriteToggleBit, %function
 1362              	CySysWdtWriteToggleBit:
 1363              	.LFB19:
 786:.\Generated_Source\PSoC4/CyLib.c **** 
 787:.\Generated_Source\PSoC4/CyLib.c **** 
 788:.\Generated_Source\PSoC4/CyLib.c **** /*******************************************************************************
 789:.\Generated_Source\PSoC4/CyLib.c **** * Function Name: CySysWdtWriteToggleBit
 790:.\Generated_Source\PSoC4/CyLib.c **** ********************************************************************************
 791:.\Generated_Source\PSoC4/CyLib.c **** *
 792:.\Generated_Source\PSoC4/CyLib.c **** * Summary:
 793:.\Generated_Source\PSoC4/CyLib.c **** *  Configures which bit in the WDT counter 2 to monitor for a toggle.  When that
 794:.\Generated_Source\PSoC4/CyLib.c **** *  bit toggles an interrupt is generated if the mode for counter 2 has
 795:.\Generated_Source\PSoC4/CyLib.c **** *  interrupts enabled.
 796:.\Generated_Source\PSoC4/CyLib.c **** *
 797:.\Generated_Source\PSoC4/CyLib.c **** * Parameters:
 798:.\Generated_Source\PSoC4/CyLib.c **** *  bit:
 799:.\Generated_Source\PSoC4/CyLib.c **** *   Valid range [0-31].  Counter 2 bit to monitor for a toggle.
ARM GAS  C:\Users\maxk\AppData\Local\Temp\ccchLIRo.s 			page 39


 800:.\Generated_Source\PSoC4/CyLib.c **** *
 801:.\Generated_Source\PSoC4/CyLib.c **** * Return:
 802:.\Generated_Source\PSoC4/CyLib.c **** *   None
 803:.\Generated_Source\PSoC4/CyLib.c **** *
 804:.\Generated_Source\PSoC4/CyLib.c **** * Side effects:
 805:.\Generated_Source\PSoC4/CyLib.c **** *   WDT counter 2 should be disabled. Othetwise function
 806:.\Generated_Source\PSoC4/CyLib.c **** *   call will have no effect.
 807:.\Generated_Source\PSoC4/CyLib.c **** *   This API enables ILO, if it was disabled.
 808:.\Generated_Source\PSoC4/CyLib.c **** *
 809:.\Generated_Source\PSoC4/CyLib.c **** *******************************************************************************/
 810:.\Generated_Source\PSoC4/CyLib.c **** void CySysWdtWriteToggleBit(uint32 bits)
 811:.\Generated_Source\PSoC4/CyLib.c **** {
 1364              		.loc 1 811 0
 1365              		.cfi_startproc
 1366 0000 80B5     		push	{r7, lr}
 1367              	.LCFI52:
 1368              		.cfi_def_cfa_offset 8
 1369              		.cfi_offset 7, -8
 1370              		.cfi_offset 14, -4
 1371 0002 84B0     		sub	sp, sp, #16
 1372              	.LCFI53:
 1373              		.cfi_def_cfa_offset 24
 1374 0004 00AF     		add	r7, sp, #0
 1375              	.LCFI54:
 1376              		.cfi_def_cfa_register 7
 1377 0006 7860     		str	r0, [r7, #4]
 812:.\Generated_Source\PSoC4/CyLib.c ****     uint32 configRegValue;
 813:.\Generated_Source\PSoC4/CyLib.c **** 
 814:.\Generated_Source\PSoC4/CyLib.c ****     if (0u == CySysWdtReadEnabledStatus(CY_SYS_WDT_COUNTER2))
 1378              		.loc 1 814 0
 1379 0008 0220     		mov	r0, #2
 1380 000a FFF7FEFF 		bl	CySysWdtReadEnabledStatus
 1381 000e 031C     		mov	r3, r0
 1382 0010 002B     		cmp	r3, #0
 1383 0012 16D1     		bne	.L110
 815:.\Generated_Source\PSoC4/CyLib.c ****     {
 816:.\Generated_Source\PSoC4/CyLib.c ****         /* Configuring the WDT involves passing control signals between clock domains,
 817:.\Generated_Source\PSoC4/CyLib.c ****         * which requires the ILO to be enabled.
 818:.\Generated_Source\PSoC4/CyLib.c ****         */
 819:.\Generated_Source\PSoC4/CyLib.c ****         if (0u == (CY_SYS_CLK_ILO_CONFIG_REG & CY_SYS_CLK_ILO_CONFIG_ENABLE))
 1384              		.loc 1 819 0
 1385 0014 0C4B     		ldr	r3, .L111
 1386 0016 1B68     		ldr	r3, [r3]
 1387 0018 002B     		cmp	r3, #0
 1388 001a 01DB     		blt	.L109
 820:.\Generated_Source\PSoC4/CyLib.c ****         {
 821:.\Generated_Source\PSoC4/CyLib.c ****             CySysClkIloStart();
 1389              		.loc 1 821 0
 1390 001c FFF7FEFF 		bl	CySysClkIloStart
 1391              	.L109:
 822:.\Generated_Source\PSoC4/CyLib.c ****         }
 823:.\Generated_Source\PSoC4/CyLib.c **** 
 824:.\Generated_Source\PSoC4/CyLib.c ****         configRegValue = CY_SYS_WDT_CONFIG_REG;
 1392              		.loc 1 824 0
 1393 0020 0A4B     		ldr	r3, .L111+4
 1394 0022 1B68     		ldr	r3, [r3]
 1395 0024 FB60     		str	r3, [r7, #12]
ARM GAS  C:\Users\maxk\AppData\Local\Temp\ccchLIRo.s 			page 40


 825:.\Generated_Source\PSoC4/CyLib.c ****         configRegValue &= (uint32)(~((uint32)(CY_SYS_WDT_CONFIG_BITS2_MASK << CY_SYS_WDT_CONFIG_BIT
 1396              		.loc 1 825 0
 1397 0026 FA68     		ldr	r2, [r7, #12]
 1398 0028 094B     		ldr	r3, .L111+8
 1399 002a 1340     		and	r3, r3, r2
 1400 002c FB60     		str	r3, [r7, #12]
 826:.\Generated_Source\PSoC4/CyLib.c ****         configRegValue |= ((bits & CY_SYS_WDT_CONFIG_BITS2_MASK) << CY_SYS_WDT_CONFIG_BITS2_POS);
 1401              		.loc 1 826 0
 1402 002e 7A68     		ldr	r2, [r7, #4]
 1403 0030 1F23     		mov	r3, #31
 1404 0032 1340     		and	r3, r3, r2
 1405 0034 1B06     		lsl	r3, r3, #24
 1406 0036 FA68     		ldr	r2, [r7, #12]
 1407 0038 1343     		orr	r3, r3, r2
 1408 003a FB60     		str	r3, [r7, #12]
 827:.\Generated_Source\PSoC4/CyLib.c ****         CY_SYS_WDT_CONFIG_REG = configRegValue;
 1409              		.loc 1 827 0
 1410 003c 034B     		ldr	r3, .L111+4
 1411 003e FA68     		ldr	r2, [r7, #12]
 1412 0040 1A60     		str	r2, [r3]
 1413              	.L110:
 828:.\Generated_Source\PSoC4/CyLib.c ****     }
 829:.\Generated_Source\PSoC4/CyLib.c **** }
 1414              		.loc 1 829 0
 1415 0042 BD46     		mov	sp, r7
 1416 0044 04B0     		add	sp, sp, #16
 1417              		@ sp needed for prologue
 1418 0046 80BD     		pop	{r7, pc}
 1419              	.L112:
 1420              		.align	2
 1421              	.L111:
 1422 0048 04010B40 		.word	1074462980
 1423 004c 0C020B40 		.word	1074463244
 1424 0050 FFFFFFE0 		.word	-520093697
 1425              		.cfi_endproc
 1426              	.LFE19:
 1427              		.size	CySysWdtWriteToggleBit, .-CySysWdtWriteToggleBit
 1428              		.section	.text.CySysWdtReadToggleBit,"ax",%progbits
 1429              		.align	2
 1430              		.global	CySysWdtReadToggleBit
 1431              		.code	16
 1432              		.thumb_func
 1433              		.type	CySysWdtReadToggleBit, %function
 1434              	CySysWdtReadToggleBit:
 1435              	.LFB20:
 830:.\Generated_Source\PSoC4/CyLib.c **** 
 831:.\Generated_Source\PSoC4/CyLib.c **** 
 832:.\Generated_Source\PSoC4/CyLib.c **** /*******************************************************************************
 833:.\Generated_Source\PSoC4/CyLib.c **** * Function Name: CySysWdtReadToggleBit
 834:.\Generated_Source\PSoC4/CyLib.c **** ********************************************************************************
 835:.\Generated_Source\PSoC4/CyLib.c **** *
 836:.\Generated_Source\PSoC4/CyLib.c **** * Summary:
 837:.\Generated_Source\PSoC4/CyLib.c **** *  Reads which bit in the WDT counter 2 is monitored for a toggle.
 838:.\Generated_Source\PSoC4/CyLib.c **** *
 839:.\Generated_Source\PSoC4/CyLib.c **** * Parameters:
 840:.\Generated_Source\PSoC4/CyLib.c **** *  None
 841:.\Generated_Source\PSoC4/CyLib.c **** *
ARM GAS  C:\Users\maxk\AppData\Local\Temp\ccchLIRo.s 			page 41


 842:.\Generated_Source\PSoC4/CyLib.c **** * Return:
 843:.\Generated_Source\PSoC4/CyLib.c **** *  Bit that is monitored (range of 0 to 31)
 844:.\Generated_Source\PSoC4/CyLib.c **** *
 845:.\Generated_Source\PSoC4/CyLib.c **** *******************************************************************************/
 846:.\Generated_Source\PSoC4/CyLib.c **** uint32 CySysWdtReadToggleBit(void)
 847:.\Generated_Source\PSoC4/CyLib.c **** {
 1436              		.loc 1 847 0
 1437              		.cfi_startproc
 1438 0000 80B5     		push	{r7, lr}
 1439              	.LCFI55:
 1440              		.cfi_def_cfa_offset 8
 1441              		.cfi_offset 7, -8
 1442              		.cfi_offset 14, -4
 1443 0002 00AF     		add	r7, sp, #0
 1444              	.LCFI56:
 1445              		.cfi_def_cfa_register 7
 848:.\Generated_Source\PSoC4/CyLib.c ****     return ((CY_SYS_WDT_CONFIG_REG >> CY_SYS_WDT_CONFIG_BITS2_POS) & CY_SYS_WDT_CONFIG_BITS2_MASK);
 1446              		.loc 1 848 0
 1447 0004 034B     		ldr	r3, .L115
 1448 0006 1B68     		ldr	r3, [r3]
 1449 0008 1A0E     		lsr	r2, r3, #24
 1450 000a 1F23     		mov	r3, #31
 1451 000c 1340     		and	r3, r3, r2
 849:.\Generated_Source\PSoC4/CyLib.c **** }
 1452              		.loc 1 849 0
 1453 000e 181C     		mov	r0, r3
 1454 0010 BD46     		mov	sp, r7
 1455              		@ sp needed for prologue
 1456 0012 80BD     		pop	{r7, pc}
 1457              	.L116:
 1458              		.align	2
 1459              	.L115:
 1460 0014 0C020B40 		.word	1074463244
 1461              		.cfi_endproc
 1462              	.LFE20:
 1463              		.size	CySysWdtReadToggleBit, .-CySysWdtReadToggleBit
 1464              		.section	.text.CySysWdtReadMatch,"ax",%progbits
 1465              		.align	2
 1466              		.global	CySysWdtReadMatch
 1467              		.code	16
 1468              		.thumb_func
 1469              		.type	CySysWdtReadMatch, %function
 1470              	CySysWdtReadMatch:
 1471              	.LFB21:
 850:.\Generated_Source\PSoC4/CyLib.c **** 
 851:.\Generated_Source\PSoC4/CyLib.c **** 
 852:.\Generated_Source\PSoC4/CyLib.c **** /*******************************************************************************
 853:.\Generated_Source\PSoC4/CyLib.c **** * Function Name: CySysWdtReadMatch
 854:.\Generated_Source\PSoC4/CyLib.c **** ********************************************************************************
 855:.\Generated_Source\PSoC4/CyLib.c **** *
 856:.\Generated_Source\PSoC4/CyLib.c **** * Summary:
 857:.\Generated_Source\PSoC4/CyLib.c **** *  Reads the WDT counter match comparison value.
 858:.\Generated_Source\PSoC4/CyLib.c **** *
 859:.\Generated_Source\PSoC4/CyLib.c **** * Parameters:
 860:.\Generated_Source\PSoC4/CyLib.c **** *  counterNum: Valid range [0-1].  Number of the WDT counter.  Match values
 861:.\Generated_Source\PSoC4/CyLib.c **** *               are not supported by counter 2.
 862:.\Generated_Source\PSoC4/CyLib.c **** *
ARM GAS  C:\Users\maxk\AppData\Local\Temp\ccchLIRo.s 			page 42


 863:.\Generated_Source\PSoC4/CyLib.c **** * Return:
 864:.\Generated_Source\PSoC4/CyLib.c **** *  Counter match value
 865:.\Generated_Source\PSoC4/CyLib.c **** *
 866:.\Generated_Source\PSoC4/CyLib.c **** *******************************************************************************/
 867:.\Generated_Source\PSoC4/CyLib.c **** uint32 CySysWdtReadMatch(uint32 counterNum)
 868:.\Generated_Source\PSoC4/CyLib.c **** {
 1472              		.loc 1 868 0
 1473              		.cfi_startproc
 1474 0000 80B5     		push	{r7, lr}
 1475              	.LCFI57:
 1476              		.cfi_def_cfa_offset 8
 1477              		.cfi_offset 7, -8
 1478              		.cfi_offset 14, -4
 1479 0002 82B0     		sub	sp, sp, #8
 1480              	.LCFI58:
 1481              		.cfi_def_cfa_offset 16
 1482 0004 00AF     		add	r7, sp, #0
 1483              	.LCFI59:
 1484              		.cfi_def_cfa_register 7
 1485 0006 7860     		str	r0, [r7, #4]
 869:.\Generated_Source\PSoC4/CyLib.c ****     CYASSERT((counterNum == CY_SYS_WDT_COUNTER0) ||
 1486              		.loc 1 869 0
 1487 0008 7B68     		ldr	r3, [r7, #4]
 1488 000a 002B     		cmp	r3, #0
 1489 000c 05D0     		beq	.L118
 1490 000e 7B68     		ldr	r3, [r7, #4]
 1491 0010 012B     		cmp	r3, #1
 1492 0012 02D0     		beq	.L118
 1493 0014 0020     		mov	r0, #0
 1494 0016 FFF7FEFF 		bl	CyHalt
 1495              	.L118:
 870:.\Generated_Source\PSoC4/CyLib.c ****                                          (counterNum == CY_SYS_WDT_COUNTER1));
 871:.\Generated_Source\PSoC4/CyLib.c **** 
 872:.\Generated_Source\PSoC4/CyLib.c ****     return ((uint32)(CY_SYS_WDT_MATCH_REG >> (counterNum * CY_SYS_WDT_CNT_MATCH_SHIFT)) & CY_SYS_WD
 1496              		.loc 1 872 0
 1497 001a 064B     		ldr	r3, .L120
 1498 001c 1A68     		ldr	r2, [r3]
 1499 001e 7B68     		ldr	r3, [r7, #4]
 1500 0020 1B01     		lsl	r3, r3, #4
 1501 0022 111C     		mov	r1, r2
 1502 0024 D940     		lsr	r1, r1, r3
 1503 0026 0B1C     		mov	r3, r1
 1504 0028 1B04     		lsl	r3, r3, #16
 1505 002a 1B0C     		lsr	r3, r3, #16
 873:.\Generated_Source\PSoC4/CyLib.c **** }
 1506              		.loc 1 873 0
 1507 002c 181C     		mov	r0, r3
 1508 002e BD46     		mov	sp, r7
 1509 0030 02B0     		add	sp, sp, #8
 1510              		@ sp needed for prologue
 1511 0032 80BD     		pop	{r7, pc}
 1512              	.L121:
 1513              		.align	2
 1514              	.L120:
 1515 0034 08020B40 		.word	1074463240
 1516              		.cfi_endproc
 1517              	.LFE21:
ARM GAS  C:\Users\maxk\AppData\Local\Temp\ccchLIRo.s 			page 43


 1518              		.size	CySysWdtReadMatch, .-CySysWdtReadMatch
 1519              		.section	.text.CySysWdtReadCount,"ax",%progbits
 1520              		.align	2
 1521              		.global	CySysWdtReadCount
 1522              		.code	16
 1523              		.thumb_func
 1524              		.type	CySysWdtReadCount, %function
 1525              	CySysWdtReadCount:
 1526              	.LFB22:
 874:.\Generated_Source\PSoC4/CyLib.c **** 
 875:.\Generated_Source\PSoC4/CyLib.c **** 
 876:.\Generated_Source\PSoC4/CyLib.c **** /*******************************************************************************
 877:.\Generated_Source\PSoC4/CyLib.c **** * Function Name: CySysWdtReadCount
 878:.\Generated_Source\PSoC4/CyLib.c **** ********************************************************************************
 879:.\Generated_Source\PSoC4/CyLib.c **** *
 880:.\Generated_Source\PSoC4/CyLib.c **** * Summary:
 881:.\Generated_Source\PSoC4/CyLib.c **** *  Reads the current WDT counter value.
 882:.\Generated_Source\PSoC4/CyLib.c **** *
 883:.\Generated_Source\PSoC4/CyLib.c **** * Parameters:
 884:.\Generated_Source\PSoC4/CyLib.c **** *  counterNum: Valid range [0-2].  Number of the WDT counter.
 885:.\Generated_Source\PSoC4/CyLib.c **** *
 886:.\Generated_Source\PSoC4/CyLib.c **** * Return:
 887:.\Generated_Source\PSoC4/CyLib.c **** *  Live counter value.  Counter 0 and 1 are 16 bit counters and counter
 888:.\Generated_Source\PSoC4/CyLib.c **** *  2 is a 32 bit counter.
 889:.\Generated_Source\PSoC4/CyLib.c **** *
 890:.\Generated_Source\PSoC4/CyLib.c **** *******************************************************************************/
 891:.\Generated_Source\PSoC4/CyLib.c **** uint32 CySysWdtReadCount(uint32 counterNum)
 892:.\Generated_Source\PSoC4/CyLib.c **** {
 1527              		.loc 1 892 0
 1528              		.cfi_startproc
 1529 0000 80B5     		push	{r7, lr}
 1530              	.LCFI60:
 1531              		.cfi_def_cfa_offset 8
 1532              		.cfi_offset 7, -8
 1533              		.cfi_offset 14, -4
 1534 0002 84B0     		sub	sp, sp, #16
 1535              	.LCFI61:
 1536              		.cfi_def_cfa_offset 24
 1537 0004 00AF     		add	r7, sp, #0
 1538              	.LCFI62:
 1539              		.cfi_def_cfa_register 7
 1540 0006 7860     		str	r0, [r7, #4]
 893:.\Generated_Source\PSoC4/CyLib.c ****     uint32 regValue = 0u;
 1541              		.loc 1 893 0
 1542 0008 0023     		mov	r3, #0
 1543 000a FB60     		str	r3, [r7, #12]
 894:.\Generated_Source\PSoC4/CyLib.c **** 
 895:.\Generated_Source\PSoC4/CyLib.c ****     switch(counterNum)
 1544              		.loc 1 895 0
 1545 000c 7B68     		ldr	r3, [r7, #4]
 1546 000e 012B     		cmp	r3, #1
 1547 0010 0AD0     		beq	.L125
 1548 0012 012B     		cmp	r3, #1
 1549 0014 02D3     		bcc	.L124
 1550 0016 022B     		cmp	r3, #2
 1551 0018 0BD0     		beq	.L126
 1552 001a 0EE0     		b	.L129
ARM GAS  C:\Users\maxk\AppData\Local\Temp\ccchLIRo.s 			page 44


 1553              	.L124:
 896:.\Generated_Source\PSoC4/CyLib.c ****     {
 897:.\Generated_Source\PSoC4/CyLib.c ****         /* WDT Counter 0 */
 898:.\Generated_Source\PSoC4/CyLib.c ****         case 0u:
 899:.\Generated_Source\PSoC4/CyLib.c ****             regValue = CY_SYS_WDT_CTRLOW_REG & CY_SYS_WDT_LOWER_16BITS_MASK;
 1554              		.loc 1 899 0
 1555 001c 0B4B     		ldr	r3, .L130
 1556 001e 1B68     		ldr	r3, [r3]
 1557 0020 1B04     		lsl	r3, r3, #16
 1558 0022 1B0C     		lsr	r3, r3, #16
 1559 0024 FB60     		str	r3, [r7, #12]
 900:.\Generated_Source\PSoC4/CyLib.c ****         break;
 1560              		.loc 1 900 0
 1561 0026 0BE0     		b	.L127
 1562              	.L125:
 901:.\Generated_Source\PSoC4/CyLib.c **** 
 902:.\Generated_Source\PSoC4/CyLib.c ****         /* WDT Counter 1 */
 903:.\Generated_Source\PSoC4/CyLib.c ****         case 1u:
 904:.\Generated_Source\PSoC4/CyLib.c ****             regValue = (CY_SYS_WDT_CTRLOW_REG >> CY_SYS_WDT_CNT_MATCH_SHIFT) & CY_SYS_WDT_LOWER_16B
 1563              		.loc 1 904 0
 1564 0028 084B     		ldr	r3, .L130
 1565 002a 1B68     		ldr	r3, [r3]
 1566 002c 1B0C     		lsr	r3, r3, #16
 1567 002e FB60     		str	r3, [r7, #12]
 905:.\Generated_Source\PSoC4/CyLib.c ****         break;
 1568              		.loc 1 905 0
 1569 0030 06E0     		b	.L127
 1570              	.L126:
 906:.\Generated_Source\PSoC4/CyLib.c **** 
 907:.\Generated_Source\PSoC4/CyLib.c ****         /* WDT Counter 2 */
 908:.\Generated_Source\PSoC4/CyLib.c ****         case 2u:
 909:.\Generated_Source\PSoC4/CyLib.c ****             regValue = CY_SYS_WDT_CTRHIGH_REG;
 1571              		.loc 1 909 0
 1572 0032 074B     		ldr	r3, .L130+4
 1573 0034 1B68     		ldr	r3, [r3]
 1574 0036 FB60     		str	r3, [r7, #12]
 910:.\Generated_Source\PSoC4/CyLib.c ****         break;
 1575              		.loc 1 910 0
 1576 0038 02E0     		b	.L127
 1577              	.L129:
 911:.\Generated_Source\PSoC4/CyLib.c **** 
 912:.\Generated_Source\PSoC4/CyLib.c ****         default:
 913:.\Generated_Source\PSoC4/CyLib.c ****             CYASSERT(0u != 0u);
 1578              		.loc 1 913 0
 1579 003a 0020     		mov	r0, #0
 1580 003c FFF7FEFF 		bl	CyHalt
 1581              	.L127:
 914:.\Generated_Source\PSoC4/CyLib.c ****         break;
 915:.\Generated_Source\PSoC4/CyLib.c ****     }
 916:.\Generated_Source\PSoC4/CyLib.c **** 
 917:.\Generated_Source\PSoC4/CyLib.c ****     return (regValue);
 1582              		.loc 1 917 0
 1583 0040 FB68     		ldr	r3, [r7, #12]
 918:.\Generated_Source\PSoC4/CyLib.c **** }
 1584              		.loc 1 918 0
 1585 0042 181C     		mov	r0, r3
 1586 0044 BD46     		mov	sp, r7
ARM GAS  C:\Users\maxk\AppData\Local\Temp\ccchLIRo.s 			page 45


 1587 0046 04B0     		add	sp, sp, #16
 1588              		@ sp needed for prologue
 1589 0048 80BD     		pop	{r7, pc}
 1590              	.L131:
 1591 004a C046     		.align	2
 1592              	.L130:
 1593 004c 00020B40 		.word	1074463232
 1594 0050 04020B40 		.word	1074463236
 1595              		.cfi_endproc
 1596              	.LFE22:
 1597              		.size	CySysWdtReadCount, .-CySysWdtReadCount
 1598              		.section	.text.CySysWdtGetInterruptSource,"ax",%progbits
 1599              		.align	2
 1600              		.global	CySysWdtGetInterruptSource
 1601              		.code	16
 1602              		.thumb_func
 1603              		.type	CySysWdtGetInterruptSource, %function
 1604              	CySysWdtGetInterruptSource:
 1605              	.LFB23:
 919:.\Generated_Source\PSoC4/CyLib.c **** 
 920:.\Generated_Source\PSoC4/CyLib.c **** 
 921:.\Generated_Source\PSoC4/CyLib.c **** /*******************************************************************************
 922:.\Generated_Source\PSoC4/CyLib.c **** * Function Name: CySysWdtGetInterruptSource
 923:.\Generated_Source\PSoC4/CyLib.c **** ********************************************************************************
 924:.\Generated_Source\PSoC4/CyLib.c **** *
 925:.\Generated_Source\PSoC4/CyLib.c **** * Summary:
 926:.\Generated_Source\PSoC4/CyLib.c **** *   Reads a mask containing all the WDT counters interrupts that are currently
 927:.\Generated_Source\PSoC4/CyLib.c **** *   set by hardware, if corresponding mode is selected.
 928:.\Generated_Source\PSoC4/CyLib.c **** *
 929:.\Generated_Source\PSoC4/CyLib.c **** * Parameters:
 930:.\Generated_Source\PSoC4/CyLib.c **** *   None
 931:.\Generated_Source\PSoC4/CyLib.c **** *
 932:.\Generated_Source\PSoC4/CyLib.c **** * Return:
 933:.\Generated_Source\PSoC4/CyLib.c **** *   Mask of interrupts set.
 934:.\Generated_Source\PSoC4/CyLib.c **** *   Value    Define                    Counter
 935:.\Generated_Source\PSoC4/CyLib.c **** *   1<<2     CY_SYS_WDT_COUNTER0_INT    0
 936:.\Generated_Source\PSoC4/CyLib.c **** *   1<<10    CY_SYS_WDT_COUNTER1_INT    1
 937:.\Generated_Source\PSoC4/CyLib.c **** *   1<<18    CY_SYS_WDT_COUNTER2_INT    2
 938:.\Generated_Source\PSoC4/CyLib.c **** *
 939:.\Generated_Source\PSoC4/CyLib.c **** *******************************************************************************/
 940:.\Generated_Source\PSoC4/CyLib.c **** uint32 CySysWdtGetInterruptSource(void)
 941:.\Generated_Source\PSoC4/CyLib.c **** {
 1606              		.loc 1 941 0
 1607              		.cfi_startproc
 1608 0000 80B5     		push	{r7, lr}
 1609              	.LCFI63:
 1610              		.cfi_def_cfa_offset 8
 1611              		.cfi_offset 7, -8
 1612              		.cfi_offset 14, -4
 1613 0002 00AF     		add	r7, sp, #0
 1614              	.LCFI64:
 1615              		.cfi_def_cfa_register 7
 942:.\Generated_Source\PSoC4/CyLib.c ****     return (CY_SYS_WDT_CONTROL_REG & (CY_SYS_WDT_COUNTER0_INT | CY_SYS_WDT_COUNTER1_INT | CY_SYS_WD
 1616              		.loc 1 942 0
 1617 0004 034B     		ldr	r3, .L134
 1618 0006 1A68     		ldr	r2, [r3]
 1619 0008 034B     		ldr	r3, .L134+4
ARM GAS  C:\Users\maxk\AppData\Local\Temp\ccchLIRo.s 			page 46


 1620 000a 1340     		and	r3, r3, r2
 943:.\Generated_Source\PSoC4/CyLib.c **** }
 1621              		.loc 1 943 0
 1622 000c 181C     		mov	r0, r3
 1623 000e BD46     		mov	sp, r7
 1624              		@ sp needed for prologue
 1625 0010 80BD     		pop	{r7, pc}
 1626              	.L135:
 1627 0012 C046     		.align	2
 1628              	.L134:
 1629 0014 10020B40 		.word	1074463248
 1630 0018 04040400 		.word	263172
 1631              		.cfi_endproc
 1632              	.LFE23:
 1633              		.size	CySysWdtGetInterruptSource, .-CySysWdtGetInterruptSource
 1634              		.section	.text.CySysWdtClearInterrupt,"ax",%progbits
 1635              		.align	2
 1636              		.global	CySysWdtClearInterrupt
 1637              		.code	16
 1638              		.thumb_func
 1639              		.type	CySysWdtClearInterrupt, %function
 1640              	CySysWdtClearInterrupt:
 1641              	.LFB24:
 944:.\Generated_Source\PSoC4/CyLib.c **** 
 945:.\Generated_Source\PSoC4/CyLib.c **** 
 946:.\Generated_Source\PSoC4/CyLib.c **** /*******************************************************************************
 947:.\Generated_Source\PSoC4/CyLib.c **** * Function Name: CySysWdtClearInterrupt
 948:.\Generated_Source\PSoC4/CyLib.c **** ********************************************************************************
 949:.\Generated_Source\PSoC4/CyLib.c **** *
 950:.\Generated_Source\PSoC4/CyLib.c **** * Summary:
 951:.\Generated_Source\PSoC4/CyLib.c **** *   Clears all WDT counter interrupts set in the mask. Calling this API also
 952:.\Generated_Source\PSoC4/CyLib.c **** *   prevents Reset from happening when counter mode is set to generate
 953:.\Generated_Source\PSoC4/CyLib.c **** *   3 interrupts and then reset device.
 954:.\Generated_Source\PSoC4/CyLib.c **** *   All WDT interrupts are to be cleared by firmware, otherwise interrupts will
 955:.\Generated_Source\PSoC4/CyLib.c **** *   be generated continuously.
 956:.\Generated_Source\PSoC4/CyLib.c **** *
 957:.\Generated_Source\PSoC4/CyLib.c **** * Parameters:
 958:.\Generated_Source\PSoC4/CyLib.c **** *   counterMask: Mask of all counters to enable
 959:.\Generated_Source\PSoC4/CyLib.c **** *   Value    Define                    Counter
 960:.\Generated_Source\PSoC4/CyLib.c **** *   1<<2     CY_SYS_WDT_COUNTER0_INT    0
 961:.\Generated_Source\PSoC4/CyLib.c **** *   1<<10    CY_SYS_WDT_COUNTER1_INT    1
 962:.\Generated_Source\PSoC4/CyLib.c **** *   1<<18    CY_SYS_WDT_COUNTER2_INT    2
 963:.\Generated_Source\PSoC4/CyLib.c **** *
 964:.\Generated_Source\PSoC4/CyLib.c **** * Return:
 965:.\Generated_Source\PSoC4/CyLib.c **** *   None
 966:.\Generated_Source\PSoC4/CyLib.c **** *
 967:.\Generated_Source\PSoC4/CyLib.c **** * Side effects:
 968:.\Generated_Source\PSoC4/CyLib.c **** *   This API enables ILO, if it was disabled and temporary removes Watchdog
 969:.\Generated_Source\PSoC4/CyLib.c **** *   lock, if it was set, and restores lock state, after cleaning WDT interrupts,
 970:.\Generated_Source\PSoC4/CyLib.c **** *   that are set in mask.
 971:.\Generated_Source\PSoC4/CyLib.c **** *
 972:.\Generated_Source\PSoC4/CyLib.c **** *******************************************************************************/
 973:.\Generated_Source\PSoC4/CyLib.c **** void CySysWdtClearInterrupt(uint32 counterMask)
 974:.\Generated_Source\PSoC4/CyLib.c **** {
 1642              		.loc 1 974 0
 1643              		.cfi_startproc
 1644 0000 80B5     		push	{r7, lr}
ARM GAS  C:\Users\maxk\AppData\Local\Temp\ccchLIRo.s 			page 47


 1645              	.LCFI65:
 1646              		.cfi_def_cfa_offset 8
 1647              		.cfi_offset 7, -8
 1648              		.cfi_offset 14, -4
 1649 0002 84B0     		sub	sp, sp, #16
 1650              	.LCFI66:
 1651              		.cfi_def_cfa_offset 24
 1652 0004 00AF     		add	r7, sp, #0
 1653              	.LCFI67:
 1654              		.cfi_def_cfa_register 7
 1655 0006 7860     		str	r0, [r7, #4]
 975:.\Generated_Source\PSoC4/CyLib.c ****     uint8 interruptState;
 976:.\Generated_Source\PSoC4/CyLib.c ****     uint32 wdtLockState;
 977:.\Generated_Source\PSoC4/CyLib.c **** 
 978:.\Generated_Source\PSoC4/CyLib.c ****     interruptState = CyEnterCriticalSection();
 1656              		.loc 1 978 0
 1657 0008 FFF7FEFF 		bl	CyEnterCriticalSection
 1658 000c 031C     		mov	r3, r0
 1659 000e 1A1C     		mov	r2, r3
 1660 0010 3B1C     		mov	r3, r7
 1661 0012 0B33     		add	r3, r3, #11
 1662 0014 1A70     		strb	r2, [r3]
 979:.\Generated_Source\PSoC4/CyLib.c **** 
 980:.\Generated_Source\PSoC4/CyLib.c ****     /* Configuring the WDT involves passing control signals between clock domains,
 981:.\Generated_Source\PSoC4/CyLib.c ****     * which requires the ILO to be enabled.
 982:.\Generated_Source\PSoC4/CyLib.c ****     */
 983:.\Generated_Source\PSoC4/CyLib.c ****     if (0u == (CY_SYS_CLK_ILO_CONFIG_REG & CY_SYS_CLK_ILO_CONFIG_ENABLE))
 1663              		.loc 1 983 0
 1664 0016 204B     		ldr	r3, .L142
 1665 0018 1B68     		ldr	r3, [r3]
 1666 001a 002B     		cmp	r3, #0
 1667 001c 01DB     		blt	.L137
 984:.\Generated_Source\PSoC4/CyLib.c ****     {
 985:.\Generated_Source\PSoC4/CyLib.c ****         CySysClkIloStart();
 1668              		.loc 1 985 0
 1669 001e FFF7FEFF 		bl	CySysClkIloStart
 1670              	.L137:
 986:.\Generated_Source\PSoC4/CyLib.c ****     }
 987:.\Generated_Source\PSoC4/CyLib.c **** 
 988:.\Generated_Source\PSoC4/CyLib.c ****     if ((CY_SYS_CLK_SELECT_REG & (uint32)(CY_SYS_WDT_CLK_LOCK_BITS_MASK)) == CY_SYS_WDT_CLK_LOCK_BI
 1671              		.loc 1 988 0
 1672 0022 1E4B     		ldr	r3, .L142+4
 1673 0024 1A68     		ldr	r2, [r3]
 1674 0026 C023     		mov	r3, #192
 1675 0028 1B02     		lsl	r3, r3, #8
 1676 002a 1A40     		and	r2, r2, r3
 1677 002c C023     		mov	r3, #192
 1678 002e 1B02     		lsl	r3, r3, #8
 1679 0030 9A42     		cmp	r2, r3
 1680 0032 14D1     		bne	.L138
 989:.\Generated_Source\PSoC4/CyLib.c ****     {
 990:.\Generated_Source\PSoC4/CyLib.c ****         wdtLockState = 1u;
 1681              		.loc 1 990 0
 1682 0034 0123     		mov	r3, #1
 1683 0036 FB60     		str	r3, [r7, #12]
 991:.\Generated_Source\PSoC4/CyLib.c **** 
 992:.\Generated_Source\PSoC4/CyLib.c ****         /* Removing WDT lock requires two writes */
ARM GAS  C:\Users\maxk\AppData\Local\Temp\ccchLIRo.s 			page 48


 993:.\Generated_Source\PSoC4/CyLib.c ****         CY_SYS_CLK_SELECT_REG = ((CY_SYS_CLK_SELECT_REG & (uint32)(~CY_SYS_WDT_CLK_LOCK_BITS_MASK))
 1684              		.loc 1 993 0
 1685 0038 184A     		ldr	r2, .L142+4
 1686 003a 184B     		ldr	r3, .L142+4
 1687 003c 1968     		ldr	r1, [r3]
 1688 003e 184B     		ldr	r3, .L142+8
 1689 0040 1940     		and	r1, r1, r3
 1690 0042 8023     		mov	r3, #128
 1691 0044 DB01     		lsl	r3, r3, #7
 1692 0046 0B43     		orr	r3, r3, r1
 1693 0048 1360     		str	r3, [r2]
 994:.\Generated_Source\PSoC4/CyLib.c ****                 CY_SYS_WDT_CLK_LOCK_BIT0);
 995:.\Generated_Source\PSoC4/CyLib.c **** 
 996:.\Generated_Source\PSoC4/CyLib.c ****         CY_SYS_CLK_SELECT_REG = ((CY_SYS_CLK_SELECT_REG & (uint32)(~CY_SYS_WDT_CLK_LOCK_BITS_MASK))
 1694              		.loc 1 996 0
 1695 004a 144A     		ldr	r2, .L142+4
 1696 004c 134B     		ldr	r3, .L142+4
 1697 004e 1968     		ldr	r1, [r3]
 1698 0050 134B     		ldr	r3, .L142+8
 1699 0052 1940     		and	r1, r1, r3
 1700 0054 8023     		mov	r3, #128
 1701 0056 1B02     		lsl	r3, r3, #8
 1702 0058 0B43     		orr	r3, r3, r1
 1703 005a 1360     		str	r3, [r2]
 1704 005c 01E0     		b	.L139
 1705              	.L138:
 997:.\Generated_Source\PSoC4/CyLib.c ****                 CY_SYS_WDT_CLK_LOCK_BIT1);
 998:.\Generated_Source\PSoC4/CyLib.c ****     }
 999:.\Generated_Source\PSoC4/CyLib.c ****     else
1000:.\Generated_Source\PSoC4/CyLib.c ****     {
1001:.\Generated_Source\PSoC4/CyLib.c ****         wdtLockState = 0u;
 1706              		.loc 1 1001 0
 1707 005e 0023     		mov	r3, #0
 1708 0060 FB60     		str	r3, [r7, #12]
 1709              	.L139:
1002:.\Generated_Source\PSoC4/CyLib.c ****     }
1003:.\Generated_Source\PSoC4/CyLib.c **** 
1004:.\Generated_Source\PSoC4/CyLib.c ****     /* Set the new WDT control register value */
1005:.\Generated_Source\PSoC4/CyLib.c ****     CY_SYS_WDT_CONTROL_REG |= (counterMask & (CY_SYS_WDT_COUNTER0_INT |
 1710              		.loc 1 1005 0
 1711 0062 104B     		ldr	r3, .L142+12
 1712 0064 0F4A     		ldr	r2, .L142+12
 1713 0066 1168     		ldr	r1, [r2]
 1714 0068 7868     		ldr	r0, [r7, #4]
 1715 006a 0F4A     		ldr	r2, .L142+16
 1716 006c 0240     		and	r2, r2, r0
 1717 006e 0A43     		orr	r2, r2, r1
 1718 0070 1A60     		str	r2, [r3]
1006:.\Generated_Source\PSoC4/CyLib.c ****         CY_SYS_WDT_COUNTER1_INT | CY_SYS_WDT_COUNTER2_INT));
1007:.\Generated_Source\PSoC4/CyLib.c **** 
1008:.\Generated_Source\PSoC4/CyLib.c ****     if (1u == wdtLockState)
 1719              		.loc 1 1008 0
 1720 0072 FB68     		ldr	r3, [r7, #12]
 1721 0074 012B     		cmp	r3, #1
 1722 0076 06D1     		bne	.L140
1009:.\Generated_Source\PSoC4/CyLib.c ****     {
1010:.\Generated_Source\PSoC4/CyLib.c ****         /* CLK_SELECT register's bits 15:14 are WDT_LOCK */
ARM GAS  C:\Users\maxk\AppData\Local\Temp\ccchLIRo.s 			page 49


1011:.\Generated_Source\PSoC4/CyLib.c ****         CY_SYS_CLK_SELECT_REG = (CY_SYS_CLK_SELECT_REG & (uint32)(~CY_SYS_WDT_CLK_LOCK_BITS_MASK)) 
 1723              		.loc 1 1011 0
 1724 0078 084A     		ldr	r2, .L142+4
 1725 007a 084B     		ldr	r3, .L142+4
 1726 007c 1968     		ldr	r1, [r3]
 1727 007e C023     		mov	r3, #192
 1728 0080 1B02     		lsl	r3, r3, #8
 1729 0082 0B43     		orr	r3, r3, r1
 1730 0084 1360     		str	r3, [r2]
 1731              	.L140:
1012:.\Generated_Source\PSoC4/CyLib.c ****                  CY_SYS_WDT_CLK_LOCK_BITS_MASK;
1013:.\Generated_Source\PSoC4/CyLib.c ****     }
1014:.\Generated_Source\PSoC4/CyLib.c **** 
1015:.\Generated_Source\PSoC4/CyLib.c ****     CyExitCriticalSection(interruptState);
 1732              		.loc 1 1015 0
 1733 0086 3B1C     		mov	r3, r7
 1734 0088 0B33     		add	r3, r3, #11
 1735 008a 1B78     		ldrb	r3, [r3]
 1736 008c 181C     		mov	r0, r3
 1737 008e FFF7FEFF 		bl	CyExitCriticalSection
1016:.\Generated_Source\PSoC4/CyLib.c **** }
 1738              		.loc 1 1016 0
 1739 0092 BD46     		mov	sp, r7
 1740 0094 04B0     		add	sp, sp, #16
 1741              		@ sp needed for prologue
 1742 0096 80BD     		pop	{r7, pc}
 1743              	.L143:
 1744              		.align	2
 1745              	.L142:
 1746 0098 04010B40 		.word	1074462980
 1747 009c 00010B40 		.word	1074462976
 1748 00a0 FF3FFFFF 		.word	-49153
 1749 00a4 10020B40 		.word	1074463248
 1750 00a8 04040400 		.word	263172
 1751              		.cfi_endproc
 1752              	.LFE24:
 1753              		.size	CySysWdtClearInterrupt, .-CySysWdtClearInterrupt
 1754              		.section	.text.CySysWdtResetCounters,"ax",%progbits
 1755              		.align	2
 1756              		.global	CySysWdtResetCounters
 1757              		.code	16
 1758              		.thumb_func
 1759              		.type	CySysWdtResetCounters, %function
 1760              	CySysWdtResetCounters:
 1761              	.LFB25:
1017:.\Generated_Source\PSoC4/CyLib.c **** 
1018:.\Generated_Source\PSoC4/CyLib.c **** 
1019:.\Generated_Source\PSoC4/CyLib.c **** /*******************************************************************************
1020:.\Generated_Source\PSoC4/CyLib.c **** * Function Name: CySysWdtResetCounters
1021:.\Generated_Source\PSoC4/CyLib.c **** ********************************************************************************
1022:.\Generated_Source\PSoC4/CyLib.c **** *
1023:.\Generated_Source\PSoC4/CyLib.c **** * Summary:
1024:.\Generated_Source\PSoC4/CyLib.c **** *  Resets all WDT counters set in the mask.
1025:.\Generated_Source\PSoC4/CyLib.c **** *
1026:.\Generated_Source\PSoC4/CyLib.c **** * Parameters:
1027:.\Generated_Source\PSoC4/CyLib.c **** *  counterMask: Mask of all counters to reset.
1028:.\Generated_Source\PSoC4/CyLib.c **** *   Value    Define                       Counter
ARM GAS  C:\Users\maxk\AppData\Local\Temp\ccchLIRo.s 			page 50


1029:.\Generated_Source\PSoC4/CyLib.c **** *   1<<3     CY_SYS_WDT_COUNTER0_RESET    0
1030:.\Generated_Source\PSoC4/CyLib.c **** *   1<<11    CY_SYS_WDT_COUNTER1_RESET    1
1031:.\Generated_Source\PSoC4/CyLib.c **** *   1<<19    CY_SYS_WDT_COUNTER2_RESET    2
1032:.\Generated_Source\PSoC4/CyLib.c **** *
1033:.\Generated_Source\PSoC4/CyLib.c **** * Return:
1034:.\Generated_Source\PSoC4/CyLib.c **** *   None
1035:.\Generated_Source\PSoC4/CyLib.c **** *
1036:.\Generated_Source\PSoC4/CyLib.c **** * Side effects:
1037:.\Generated_Source\PSoC4/CyLib.c **** *   This API enables ILO, if it was disabled, this API call will not reset
1038:.\Generated_Source\PSoC4/CyLib.c **** *   counter values, if Watchdog is locked.
1039:.\Generated_Source\PSoC4/CyLib.c **** *
1040:.\Generated_Source\PSoC4/CyLib.c **** *******************************************************************************/
1041:.\Generated_Source\PSoC4/CyLib.c **** void CySysWdtResetCounters(uint32 countersMask)
1042:.\Generated_Source\PSoC4/CyLib.c **** {
 1762              		.loc 1 1042 0
 1763              		.cfi_startproc
 1764 0000 80B5     		push	{r7, lr}
 1765              	.LCFI68:
 1766              		.cfi_def_cfa_offset 8
 1767              		.cfi_offset 7, -8
 1768              		.cfi_offset 14, -4
 1769 0002 82B0     		sub	sp, sp, #8
 1770              	.LCFI69:
 1771              		.cfi_def_cfa_offset 16
 1772 0004 00AF     		add	r7, sp, #0
 1773              	.LCFI70:
 1774              		.cfi_def_cfa_register 7
 1775 0006 7860     		str	r0, [r7, #4]
1043:.\Generated_Source\PSoC4/CyLib.c ****     /* Configuring the WDT involves passing control signals between clock domains,
1044:.\Generated_Source\PSoC4/CyLib.c ****     * which requires the ILO to be enabled.
1045:.\Generated_Source\PSoC4/CyLib.c ****     */
1046:.\Generated_Source\PSoC4/CyLib.c ****     if (0u == (CY_SYS_CLK_ILO_CONFIG_REG & CY_SYS_CLK_ILO_CONFIG_ENABLE))
 1776              		.loc 1 1046 0
 1777 0008 084B     		ldr	r3, .L147
 1778 000a 1B68     		ldr	r3, [r3]
 1779 000c 002B     		cmp	r3, #0
 1780 000e 01DB     		blt	.L145
1047:.\Generated_Source\PSoC4/CyLib.c ****     {
1048:.\Generated_Source\PSoC4/CyLib.c ****         CySysClkIloStart();
 1781              		.loc 1 1048 0
 1782 0010 FFF7FEFF 		bl	CySysClkIloStart
 1783              	.L145:
1049:.\Generated_Source\PSoC4/CyLib.c ****     }
1050:.\Generated_Source\PSoC4/CyLib.c **** 
1051:.\Generated_Source\PSoC4/CyLib.c ****     /* Set the new WDT reset value */
1052:.\Generated_Source\PSoC4/CyLib.c ****     CY_SYS_WDT_CONTROL_REG |= (countersMask & (CY_SYS_WDT_COUNTER0_RESET |
 1784              		.loc 1 1052 0
 1785 0014 064B     		ldr	r3, .L147+4
 1786 0016 064A     		ldr	r2, .L147+4
 1787 0018 1168     		ldr	r1, [r2]
 1788 001a 7868     		ldr	r0, [r7, #4]
 1789 001c 054A     		ldr	r2, .L147+8
 1790 001e 0240     		and	r2, r2, r0
 1791 0020 0A43     		orr	r2, r2, r1
 1792 0022 1A60     		str	r2, [r3]
1053:.\Generated_Source\PSoC4/CyLib.c ****         CY_SYS_WDT_COUNTER1_RESET | CY_SYS_WDT_COUNTER2_RESET));
1054:.\Generated_Source\PSoC4/CyLib.c **** }
ARM GAS  C:\Users\maxk\AppData\Local\Temp\ccchLIRo.s 			page 51


 1793              		.loc 1 1054 0
 1794 0024 BD46     		mov	sp, r7
 1795 0026 02B0     		add	sp, sp, #8
 1796              		@ sp needed for prologue
 1797 0028 80BD     		pop	{r7, pc}
 1798              	.L148:
 1799 002a C046     		.align	2
 1800              	.L147:
 1801 002c 04010B40 		.word	1074462980
 1802 0030 10020B40 		.word	1074463248
 1803 0034 08080800 		.word	526344
 1804              		.cfi_endproc
 1805              	.LFE25:
 1806              		.size	CySysWdtResetCounters, .-CySysWdtResetCounters
 1807              		.section	.text.CySysLvdEnable,"ax",%progbits
 1808              		.align	2
 1809              		.global	CySysLvdEnable
 1810              		.code	16
 1811              		.thumb_func
 1812              		.type	CySysLvdEnable, %function
 1813              	CySysLvdEnable:
 1814              	.LFB26:
1055:.\Generated_Source\PSoC4/CyLib.c **** 
1056:.\Generated_Source\PSoC4/CyLib.c **** 
1057:.\Generated_Source\PSoC4/CyLib.c **** /*******************************************************************************
1058:.\Generated_Source\PSoC4/CyLib.c **** * Function Name: CySysLvdEnable
1059:.\Generated_Source\PSoC4/CyLib.c **** ********************************************************************************
1060:.\Generated_Source\PSoC4/CyLib.c **** *
1061:.\Generated_Source\PSoC4/CyLib.c **** * Summary:
1062:.\Generated_Source\PSoC4/CyLib.c **** *  Enables the output of the low-voltage monitor when Vddd is at or below the
1063:.\Generated_Source\PSoC4/CyLib.c **** *  trip point, configures device to generate an interrupt, and sets the voltage
1064:.\Generated_Source\PSoC4/CyLib.c **** *  trip level.
1065:.\Generated_Source\PSoC4/CyLib.c **** *
1066:.\Generated_Source\PSoC4/CyLib.c **** * Parameters:
1067:.\Generated_Source\PSoC4/CyLib.c **** *  threshold: Threshold selection for Low Voltage Detect circuit.
1068:.\Generated_Source\PSoC4/CyLib.c **** *  Threshold variation is +/- 2.5% from these typical voltage choices.
1069:.\Generated_Source\PSoC4/CyLib.c **** *         Define                     Voltage threshold
1070:.\Generated_Source\PSoC4/CyLib.c **** *    CY_LVD_THRESHOLD_1_75_V       1.7500 V
1071:.\Generated_Source\PSoC4/CyLib.c **** *    CY_LVD_THRESHOLD_1_80_V       1.8000 V
1072:.\Generated_Source\PSoC4/CyLib.c **** *    CY_LVD_THRESHOLD_1_90_V       1.9000 V
1073:.\Generated_Source\PSoC4/CyLib.c **** *    CY_LVD_THRESHOLD_2_00_V       2.0000 V
1074:.\Generated_Source\PSoC4/CyLib.c **** *    CY_LVD_THRESHOLD_2_10_V       2.1000 V
1075:.\Generated_Source\PSoC4/CyLib.c **** *    CY_LVD_THRESHOLD_2_20_V       2.2000 V
1076:.\Generated_Source\PSoC4/CyLib.c **** *    CY_LVD_THRESHOLD_2_30_V       2.3000 V
1077:.\Generated_Source\PSoC4/CyLib.c **** *    CY_LVD_THRESHOLD_2_40_V       2.4000 V
1078:.\Generated_Source\PSoC4/CyLib.c **** *    CY_LVD_THRESHOLD_2_50_V       2.5000 V
1079:.\Generated_Source\PSoC4/CyLib.c **** *    CY_LVD_THRESHOLD_2_60_V       2.6000 V
1080:.\Generated_Source\PSoC4/CyLib.c **** *    CY_LVD_THRESHOLD_2_70_V       2.7000 V
1081:.\Generated_Source\PSoC4/CyLib.c **** *    CY_LVD_THRESHOLD_2_80_V       2.8000 V
1082:.\Generated_Source\PSoC4/CyLib.c **** *    CY_LVD_THRESHOLD_2_90_V       2.9000 V
1083:.\Generated_Source\PSoC4/CyLib.c **** *    CY_LVD_THRESHOLD_3_00_V       3.0000 V
1084:.\Generated_Source\PSoC4/CyLib.c **** *    CY_LVD_THRESHOLD_3_20_V       3.2000 V
1085:.\Generated_Source\PSoC4/CyLib.c **** *    CY_LVD_THRESHOLD_4_50_V       4.5000 V
1086:.\Generated_Source\PSoC4/CyLib.c **** *
1087:.\Generated_Source\PSoC4/CyLib.c **** * Return:
1088:.\Generated_Source\PSoC4/CyLib.c **** *  None
1089:.\Generated_Source\PSoC4/CyLib.c **** *
ARM GAS  C:\Users\maxk\AppData\Local\Temp\ccchLIRo.s 			page 52


1090:.\Generated_Source\PSoC4/CyLib.c **** *******************************************************************************/
1091:.\Generated_Source\PSoC4/CyLib.c **** void CySysLvdEnable(uint32 threshold)
1092:.\Generated_Source\PSoC4/CyLib.c **** {
 1815              		.loc 1 1092 0
 1816              		.cfi_startproc
 1817 0000 80B5     		push	{r7, lr}
 1818              	.LCFI71:
 1819              		.cfi_def_cfa_offset 8
 1820              		.cfi_offset 7, -8
 1821              		.cfi_offset 14, -4
 1822 0002 82B0     		sub	sp, sp, #8
 1823              	.LCFI72:
 1824              		.cfi_def_cfa_offset 16
 1825 0004 00AF     		add	r7, sp, #0
 1826              	.LCFI73:
 1827              		.cfi_def_cfa_register 7
 1828 0006 7860     		str	r0, [r7, #4]
1093:.\Generated_Source\PSoC4/CyLib.c ****     /* Set threshold */
1094:.\Generated_Source\PSoC4/CyLib.c ****     CY_LVD_PWR_VMON_CONFIG_REG = (CY_LVD_PWR_VMON_CONFIG_REG & ~CY_LVD_PWR_VMON_CONFIG_LVD_SEL_MASK
 1829              		.loc 1 1094 0
 1830 0008 0D4B     		ldr	r3, .L151
 1831 000a 0D4A     		ldr	r2, .L151
 1832 000c 1268     		ldr	r2, [r2]
 1833 000e 1E21     		mov	r1, #30
 1834 0010 101C     		mov	r0, r2
 1835 0012 8843     		bic	r0, r0, r1
 1836 0014 011C     		mov	r1, r0
1095:.\Generated_Source\PSoC4/CyLib.c ****             ((threshold << CY_LVD_PWR_VMON_CONFIG_LVD_SEL_SHIFT) & CY_LVD_PWR_VMON_CONFIG_LVD_SEL_M
 1837              		.loc 1 1095 0
 1838 0016 7A68     		ldr	r2, [r7, #4]
 1839 0018 5000     		lsl	r0, r2, #1
 1840 001a 1E22     		mov	r2, #30
 1841 001c 0240     		and	r2, r2, r0
 1842              		.loc 1 1094 0
 1843 001e 0A43     		orr	r2, r2, r1
 1844 0020 1A60     		str	r2, [r3]
1096:.\Generated_Source\PSoC4/CyLib.c **** 
1097:.\Generated_Source\PSoC4/CyLib.c ****     CY_LVD_PWR_VMON_CONFIG_REG |= CY_LVD_PWR_VMON_CONFIG_LVD_EN;
 1845              		.loc 1 1097 0
 1846 0022 074B     		ldr	r3, .L151
 1847 0024 064A     		ldr	r2, .L151
 1848 0026 1168     		ldr	r1, [r2]
 1849 0028 0122     		mov	r2, #1
 1850 002a 0A43     		orr	r2, r2, r1
 1851 002c 1A60     		str	r2, [r3]
1098:.\Generated_Source\PSoC4/CyLib.c ****     CY_LVD_PWR_INTR_MASK_REG   |= CY_LVD_PROPAGATE_INT_TO_CPU;
 1852              		.loc 1 1098 0
 1853 002e 054B     		ldr	r3, .L151+4
 1854 0030 044A     		ldr	r2, .L151+4
 1855 0032 1168     		ldr	r1, [r2]
 1856 0034 0222     		mov	r2, #2
 1857 0036 0A43     		orr	r2, r2, r1
 1858 0038 1A60     		str	r2, [r3]
1099:.\Generated_Source\PSoC4/CyLib.c **** }
 1859              		.loc 1 1099 0
 1860 003a BD46     		mov	sp, r7
 1861 003c 02B0     		add	sp, sp, #8
ARM GAS  C:\Users\maxk\AppData\Local\Temp\ccchLIRo.s 			page 53


 1862              		@ sp needed for prologue
 1863 003e 80BD     		pop	{r7, pc}
 1864              	.L152:
 1865              		.align	2
 1866              	.L151:
 1867 0040 18000B40 		.word	1074462744
 1868 0044 08000B40 		.word	1074462728
 1869              		.cfi_endproc
 1870              	.LFE26:
 1871              		.size	CySysLvdEnable, .-CySysLvdEnable
 1872              		.section	.text.CySysLvdDisable,"ax",%progbits
 1873              		.align	2
 1874              		.global	CySysLvdDisable
 1875              		.code	16
 1876              		.thumb_func
 1877              		.type	CySysLvdDisable, %function
 1878              	CySysLvdDisable:
 1879              	.LFB27:
1100:.\Generated_Source\PSoC4/CyLib.c **** 
1101:.\Generated_Source\PSoC4/CyLib.c **** 
1102:.\Generated_Source\PSoC4/CyLib.c **** /*******************************************************************************
1103:.\Generated_Source\PSoC4/CyLib.c **** * Function Name: CySysLvdDisable
1104:.\Generated_Source\PSoC4/CyLib.c **** ********************************************************************************
1105:.\Generated_Source\PSoC4/CyLib.c **** *
1106:.\Generated_Source\PSoC4/CyLib.c **** * Summary:
1107:.\Generated_Source\PSoC4/CyLib.c **** *  Disables the low voltage detection. Low voltage interrupt is disabled.
1108:.\Generated_Source\PSoC4/CyLib.c **** *
1109:.\Generated_Source\PSoC4/CyLib.c **** * Parameters:
1110:.\Generated_Source\PSoC4/CyLib.c **** *  None
1111:.\Generated_Source\PSoC4/CyLib.c **** *
1112:.\Generated_Source\PSoC4/CyLib.c **** * Return:
1113:.\Generated_Source\PSoC4/CyLib.c **** *  None
1114:.\Generated_Source\PSoC4/CyLib.c **** *
1115:.\Generated_Source\PSoC4/CyLib.c **** *******************************************************************************/
1116:.\Generated_Source\PSoC4/CyLib.c **** void CySysLvdDisable(void)
1117:.\Generated_Source\PSoC4/CyLib.c **** {
 1880              		.loc 1 1117 0
 1881              		.cfi_startproc
 1882 0000 80B5     		push	{r7, lr}
 1883              	.LCFI74:
 1884              		.cfi_def_cfa_offset 8
 1885              		.cfi_offset 7, -8
 1886              		.cfi_offset 14, -4
 1887 0002 00AF     		add	r7, sp, #0
 1888              	.LCFI75:
 1889              		.cfi_def_cfa_register 7
1118:.\Generated_Source\PSoC4/CyLib.c ****     CY_LVD_PWR_INTR_MASK_REG   &= ~CY_LVD_PROPAGATE_INT_TO_CPU;
 1890              		.loc 1 1118 0
 1891 0004 064B     		ldr	r3, .L155
 1892 0006 064A     		ldr	r2, .L155
 1893 0008 1268     		ldr	r2, [r2]
 1894 000a 0221     		mov	r1, #2
 1895 000c 8A43     		bic	r2, r2, r1
 1896 000e 1A60     		str	r2, [r3]
1119:.\Generated_Source\PSoC4/CyLib.c ****     CY_LVD_PWR_VMON_CONFIG_REG &= ~CY_LVD_PWR_VMON_CONFIG_LVD_EN;
 1897              		.loc 1 1119 0
 1898 0010 044B     		ldr	r3, .L155+4
ARM GAS  C:\Users\maxk\AppData\Local\Temp\ccchLIRo.s 			page 54


 1899 0012 044A     		ldr	r2, .L155+4
 1900 0014 1268     		ldr	r2, [r2]
 1901 0016 0121     		mov	r1, #1
 1902 0018 8A43     		bic	r2, r2, r1
 1903 001a 1A60     		str	r2, [r3]
1120:.\Generated_Source\PSoC4/CyLib.c **** }
 1904              		.loc 1 1120 0
 1905 001c BD46     		mov	sp, r7
 1906              		@ sp needed for prologue
 1907 001e 80BD     		pop	{r7, pc}
 1908              	.L156:
 1909              		.align	2
 1910              	.L155:
 1911 0020 08000B40 		.word	1074462728
 1912 0024 18000B40 		.word	1074462744
 1913              		.cfi_endproc
 1914              	.LFE27:
 1915              		.size	CySysLvdDisable, .-CySysLvdDisable
 1916              		.section	.text.CySysLvdGetInterruptSource,"ax",%progbits
 1917              		.align	2
 1918              		.global	CySysLvdGetInterruptSource
 1919              		.code	16
 1920              		.thumb_func
 1921              		.type	CySysLvdGetInterruptSource, %function
 1922              	CySysLvdGetInterruptSource:
 1923              	.LFB28:
1121:.\Generated_Source\PSoC4/CyLib.c **** 
1122:.\Generated_Source\PSoC4/CyLib.c **** 
1123:.\Generated_Source\PSoC4/CyLib.c **** /*******************************************************************************
1124:.\Generated_Source\PSoC4/CyLib.c **** * Function Name: CySysLvdGetInterruptSource
1125:.\Generated_Source\PSoC4/CyLib.c **** ********************************************************************************
1126:.\Generated_Source\PSoC4/CyLib.c **** *
1127:.\Generated_Source\PSoC4/CyLib.c **** * Summary:
1128:.\Generated_Source\PSoC4/CyLib.c **** *  Gets the low voltage detection interrupt status (without clearing).
1129:.\Generated_Source\PSoC4/CyLib.c **** *
1130:.\Generated_Source\PSoC4/CyLib.c **** * Parameters:
1131:.\Generated_Source\PSoC4/CyLib.c **** *  None
1132:.\Generated_Source\PSoC4/CyLib.c **** *
1133:.\Generated_Source\PSoC4/CyLib.c **** * Return:
1134:.\Generated_Source\PSoC4/CyLib.c **** *  Interrupt request value:
1135:.\Generated_Source\PSoC4/CyLib.c **** *    CY_SYS_LVD_INT - Indicates an Low Voltage Detect interrupt
1136:.\Generated_Source\PSoC4/CyLib.c **** *
1137:.\Generated_Source\PSoC4/CyLib.c **** *******************************************************************************/
1138:.\Generated_Source\PSoC4/CyLib.c **** uint32 CySysLvdGetInterruptSource(void)
1139:.\Generated_Source\PSoC4/CyLib.c **** {
 1924              		.loc 1 1139 0
 1925              		.cfi_startproc
 1926 0000 80B5     		push	{r7, lr}
 1927              	.LCFI76:
 1928              		.cfi_def_cfa_offset 8
 1929              		.cfi_offset 7, -8
 1930              		.cfi_offset 14, -4
 1931 0002 00AF     		add	r7, sp, #0
 1932              	.LCFI77:
 1933              		.cfi_def_cfa_register 7
1140:.\Generated_Source\PSoC4/CyLib.c ****     return (CY_LVD_PWR_INTR_REG & CY_SYS_LVD_INT);
 1934              		.loc 1 1140 0
ARM GAS  C:\Users\maxk\AppData\Local\Temp\ccchLIRo.s 			page 55


 1935 0004 034B     		ldr	r3, .L159
 1936 0006 1A68     		ldr	r2, [r3]
 1937 0008 0223     		mov	r3, #2
 1938 000a 1340     		and	r3, r3, r2
1141:.\Generated_Source\PSoC4/CyLib.c **** }
 1939              		.loc 1 1141 0
 1940 000c 181C     		mov	r0, r3
 1941 000e BD46     		mov	sp, r7
 1942              		@ sp needed for prologue
 1943 0010 80BD     		pop	{r7, pc}
 1944              	.L160:
 1945 0012 C046     		.align	2
 1946              	.L159:
 1947 0014 04000B40 		.word	1074462724
 1948              		.cfi_endproc
 1949              	.LFE28:
 1950              		.size	CySysLvdGetInterruptSource, .-CySysLvdGetInterruptSource
 1951              		.section	.text.CySysLvdClearInterrupt,"ax",%progbits
 1952              		.align	2
 1953              		.global	CySysLvdClearInterrupt
 1954              		.code	16
 1955              		.thumb_func
 1956              		.type	CySysLvdClearInterrupt, %function
 1957              	CySysLvdClearInterrupt:
 1958              	.LFB29:
1142:.\Generated_Source\PSoC4/CyLib.c **** 
1143:.\Generated_Source\PSoC4/CyLib.c **** 
1144:.\Generated_Source\PSoC4/CyLib.c **** /*******************************************************************************
1145:.\Generated_Source\PSoC4/CyLib.c **** * Function Name: CySysLvdClearInterrupt
1146:.\Generated_Source\PSoC4/CyLib.c **** ********************************************************************************
1147:.\Generated_Source\PSoC4/CyLib.c **** *
1148:.\Generated_Source\PSoC4/CyLib.c **** * Summary:
1149:.\Generated_Source\PSoC4/CyLib.c **** *  Clears the low voltage detection interrupt status.
1150:.\Generated_Source\PSoC4/CyLib.c **** *
1151:.\Generated_Source\PSoC4/CyLib.c **** * Parameters:
1152:.\Generated_Source\PSoC4/CyLib.c **** *  None
1153:.\Generated_Source\PSoC4/CyLib.c **** *
1154:.\Generated_Source\PSoC4/CyLib.c **** * Return:
1155:.\Generated_Source\PSoC4/CyLib.c **** *  None
1156:.\Generated_Source\PSoC4/CyLib.c **** *
1157:.\Generated_Source\PSoC4/CyLib.c **** *******************************************************************************/
1158:.\Generated_Source\PSoC4/CyLib.c **** void CySysLvdClearInterrupt(void)
1159:.\Generated_Source\PSoC4/CyLib.c **** {
 1959              		.loc 1 1159 0
 1960              		.cfi_startproc
 1961 0000 80B5     		push	{r7, lr}
 1962              	.LCFI78:
 1963              		.cfi_def_cfa_offset 8
 1964              		.cfi_offset 7, -8
 1965              		.cfi_offset 14, -4
 1966 0002 00AF     		add	r7, sp, #0
 1967              	.LCFI79:
 1968              		.cfi_def_cfa_register 7
1160:.\Generated_Source\PSoC4/CyLib.c ****     CY_LVD_PWR_INTR_REG = CY_SYS_LVD_INT;
 1969              		.loc 1 1160 0
 1970 0004 024B     		ldr	r3, .L163
 1971 0006 0222     		mov	r2, #2
ARM GAS  C:\Users\maxk\AppData\Local\Temp\ccchLIRo.s 			page 56


 1972 0008 1A60     		str	r2, [r3]
1161:.\Generated_Source\PSoC4/CyLib.c **** }
 1973              		.loc 1 1161 0
 1974 000a BD46     		mov	sp, r7
 1975              		@ sp needed for prologue
 1976 000c 80BD     		pop	{r7, pc}
 1977              	.L164:
 1978 000e C046     		.align	2
 1979              	.L163:
 1980 0010 04000B40 		.word	1074462724
 1981              		.cfi_endproc
 1982              	.LFE29:
 1983              		.size	CySysLvdClearInterrupt, .-CySysLvdClearInterrupt
 1984              		.section	.text.CyDisableInts,"ax",%progbits
 1985              		.align	2
 1986              		.global	CyDisableInts
 1987              		.code	16
 1988              		.thumb_func
 1989              		.type	CyDisableInts, %function
 1990              	CyDisableInts:
 1991              	.LFB30:
1162:.\Generated_Source\PSoC4/CyLib.c **** 
1163:.\Generated_Source\PSoC4/CyLib.c **** 
1164:.\Generated_Source\PSoC4/CyLib.c **** /*******************************************************************************
1165:.\Generated_Source\PSoC4/CyLib.c **** * Function Name: CyDisableInts
1166:.\Generated_Source\PSoC4/CyLib.c **** ********************************************************************************
1167:.\Generated_Source\PSoC4/CyLib.c **** *
1168:.\Generated_Source\PSoC4/CyLib.c **** * Summary:
1169:.\Generated_Source\PSoC4/CyLib.c **** *  Disables all interrupts.
1170:.\Generated_Source\PSoC4/CyLib.c **** *
1171:.\Generated_Source\PSoC4/CyLib.c **** * Parameters:
1172:.\Generated_Source\PSoC4/CyLib.c **** *  None
1173:.\Generated_Source\PSoC4/CyLib.c **** *
1174:.\Generated_Source\PSoC4/CyLib.c **** * Return:
1175:.\Generated_Source\PSoC4/CyLib.c **** *  32 bit mask of previously enabled interrupts.
1176:.\Generated_Source\PSoC4/CyLib.c **** *
1177:.\Generated_Source\PSoC4/CyLib.c **** *******************************************************************************/
1178:.\Generated_Source\PSoC4/CyLib.c **** uint32 CyDisableInts(void)
1179:.\Generated_Source\PSoC4/CyLib.c **** {
 1992              		.loc 1 1179 0
 1993              		.cfi_startproc
 1994 0000 80B5     		push	{r7, lr}
 1995              	.LCFI80:
 1996              		.cfi_def_cfa_offset 8
 1997              		.cfi_offset 7, -8
 1998              		.cfi_offset 14, -4
 1999 0002 82B0     		sub	sp, sp, #8
 2000              	.LCFI81:
 2001              		.cfi_def_cfa_offset 16
 2002 0004 00AF     		add	r7, sp, #0
 2003              	.LCFI82:
 2004              		.cfi_def_cfa_register 7
1180:.\Generated_Source\PSoC4/CyLib.c ****     uint32 intState;
1181:.\Generated_Source\PSoC4/CyLib.c **** 
1182:.\Generated_Source\PSoC4/CyLib.c ****     /* Get the curreent interrupt state. */
1183:.\Generated_Source\PSoC4/CyLib.c ****     intState = CY_INT_CLEAR_REG;
 2005              		.loc 1 1183 0
ARM GAS  C:\Users\maxk\AppData\Local\Temp\ccchLIRo.s 			page 57


 2006 0006 064B     		ldr	r3, .L167
 2007 0008 1B68     		ldr	r3, [r3]
 2008 000a 7B60     		str	r3, [r7, #4]
1184:.\Generated_Source\PSoC4/CyLib.c **** 
1185:.\Generated_Source\PSoC4/CyLib.c ****     /* Disable all of the interrupts. */
1186:.\Generated_Source\PSoC4/CyLib.c ****     CY_INT_CLEAR_REG = CY_INT_CLEAR_DISABLE_ALL;
 2009              		.loc 1 1186 0
 2010 000c 044A     		ldr	r2, .L167
 2011 000e 0123     		mov	r3, #1
 2012 0010 5B42     		neg	r3, r3
 2013 0012 1360     		str	r3, [r2]
1187:.\Generated_Source\PSoC4/CyLib.c **** 
1188:.\Generated_Source\PSoC4/CyLib.c ****     return (intState);
 2014              		.loc 1 1188 0
 2015 0014 7B68     		ldr	r3, [r7, #4]
1189:.\Generated_Source\PSoC4/CyLib.c **** }
 2016              		.loc 1 1189 0
 2017 0016 181C     		mov	r0, r3
 2018 0018 BD46     		mov	sp, r7
 2019 001a 02B0     		add	sp, sp, #8
 2020              		@ sp needed for prologue
 2021 001c 80BD     		pop	{r7, pc}
 2022              	.L168:
 2023 001e C046     		.align	2
 2024              	.L167:
 2025 0020 80E100E0 		.word	-536813184
 2026              		.cfi_endproc
 2027              	.LFE30:
 2028              		.size	CyDisableInts, .-CyDisableInts
 2029              		.section	.text.CyEnableInts,"ax",%progbits
 2030              		.align	2
 2031              		.global	CyEnableInts
 2032              		.code	16
 2033              		.thumb_func
 2034              		.type	CyEnableInts, %function
 2035              	CyEnableInts:
 2036              	.LFB31:
1190:.\Generated_Source\PSoC4/CyLib.c **** 
1191:.\Generated_Source\PSoC4/CyLib.c **** 
1192:.\Generated_Source\PSoC4/CyLib.c **** /*******************************************************************************
1193:.\Generated_Source\PSoC4/CyLib.c **** * Function Name: CyEnableInts
1194:.\Generated_Source\PSoC4/CyLib.c **** ********************************************************************************
1195:.\Generated_Source\PSoC4/CyLib.c **** *
1196:.\Generated_Source\PSoC4/CyLib.c **** * Summary:
1197:.\Generated_Source\PSoC4/CyLib.c **** *  Enables interrupts to a given state.
1198:.\Generated_Source\PSoC4/CyLib.c **** *
1199:.\Generated_Source\PSoC4/CyLib.c **** * Parameters:
1200:.\Generated_Source\PSoC4/CyLib.c **** *   mask, 32 bit mask of interrupts to enable.
1201:.\Generated_Source\PSoC4/CyLib.c **** *
1202:.\Generated_Source\PSoC4/CyLib.c **** * Return:
1203:.\Generated_Source\PSoC4/CyLib.c **** *  None
1204:.\Generated_Source\PSoC4/CyLib.c **** *
1205:.\Generated_Source\PSoC4/CyLib.c **** *******************************************************************************/
1206:.\Generated_Source\PSoC4/CyLib.c **** void CyEnableInts(uint32 mask)
1207:.\Generated_Source\PSoC4/CyLib.c **** {
 2037              		.loc 1 1207 0
 2038              		.cfi_startproc
ARM GAS  C:\Users\maxk\AppData\Local\Temp\ccchLIRo.s 			page 58


 2039 0000 80B5     		push	{r7, lr}
 2040              	.LCFI83:
 2041              		.cfi_def_cfa_offset 8
 2042              		.cfi_offset 7, -8
 2043              		.cfi_offset 14, -4
 2044 0002 82B0     		sub	sp, sp, #8
 2045              	.LCFI84:
 2046              		.cfi_def_cfa_offset 16
 2047 0004 00AF     		add	r7, sp, #0
 2048              	.LCFI85:
 2049              		.cfi_def_cfa_register 7
 2050 0006 7860     		str	r0, [r7, #4]
1208:.\Generated_Source\PSoC4/CyLib.c ****     CY_INT_ENABLE_REG = mask;
 2051              		.loc 1 1208 0
 2052 0008 024B     		ldr	r3, .L171
 2053 000a 7A68     		ldr	r2, [r7, #4]
 2054 000c 1A60     		str	r2, [r3]
1209:.\Generated_Source\PSoC4/CyLib.c **** }
 2055              		.loc 1 1209 0
 2056 000e BD46     		mov	sp, r7
 2057 0010 02B0     		add	sp, sp, #8
 2058              		@ sp needed for prologue
 2059 0012 80BD     		pop	{r7, pc}
 2060              	.L172:
 2061              		.align	2
 2062              	.L171:
 2063 0014 00E100E0 		.word	-536813312
 2064              		.cfi_endproc
 2065              	.LFE31:
 2066              		.size	CyEnableInts, .-CyEnableInts
 2067              		.section	.text.CyIntSetSysVector,"ax",%progbits
 2068              		.align	2
 2069              		.global	CyIntSetSysVector
 2070              		.code	16
 2071              		.thumb_func
 2072              		.type	CyIntSetSysVector, %function
 2073              	CyIntSetSysVector:
 2074              	.LFB32:
1210:.\Generated_Source\PSoC4/CyLib.c **** 
1211:.\Generated_Source\PSoC4/CyLib.c **** 
1212:.\Generated_Source\PSoC4/CyLib.c **** /*******************************************************************************
1213:.\Generated_Source\PSoC4/CyLib.c **** * Function Name: CyIntSetSysVector
1214:.\Generated_Source\PSoC4/CyLib.c **** ********************************************************************************
1215:.\Generated_Source\PSoC4/CyLib.c **** *
1216:.\Generated_Source\PSoC4/CyLib.c **** * Summary:
1217:.\Generated_Source\PSoC4/CyLib.c **** *  Sets the interrupt vector of the specified system interrupt number. These
1218:.\Generated_Source\PSoC4/CyLib.c **** *  interrupts are for SysTick, PendSV and others.
1219:.\Generated_Source\PSoC4/CyLib.c **** *
1220:.\Generated_Source\PSoC4/CyLib.c **** * Parameters:
1221:.\Generated_Source\PSoC4/CyLib.c **** *  number: Interrupt number, valid range [0-15].
1222:.\Generated_Source\PSoC4/CyLib.c **** *  address: Pointer to an interrupt service routine.
1223:.\Generated_Source\PSoC4/CyLib.c **** *
1224:.\Generated_Source\PSoC4/CyLib.c **** * Return:
1225:.\Generated_Source\PSoC4/CyLib.c **** *  The old ISR vector at this location.
1226:.\Generated_Source\PSoC4/CyLib.c **** *
1227:.\Generated_Source\PSoC4/CyLib.c **** *******************************************************************************/
1228:.\Generated_Source\PSoC4/CyLib.c **** cyisraddress CyIntSetSysVector(uint8 number, cyisraddress address)
ARM GAS  C:\Users\maxk\AppData\Local\Temp\ccchLIRo.s 			page 59


1229:.\Generated_Source\PSoC4/CyLib.c **** {
 2075              		.loc 1 1229 0
 2076              		.cfi_startproc
 2077 0000 80B5     		push	{r7, lr}
 2078              	.LCFI86:
 2079              		.cfi_def_cfa_offset 8
 2080              		.cfi_offset 7, -8
 2081              		.cfi_offset 14, -4
 2082 0002 84B0     		sub	sp, sp, #16
 2083              	.LCFI87:
 2084              		.cfi_def_cfa_offset 24
 2085 0004 00AF     		add	r7, sp, #0
 2086              	.LCFI88:
 2087              		.cfi_def_cfa_register 7
 2088 0006 021C     		mov	r2, r0
 2089 0008 3960     		str	r1, [r7]
 2090 000a FB1D     		add	r3, r7, #7
 2091 000c 1A70     		strb	r2, [r3]
1230:.\Generated_Source\PSoC4/CyLib.c ****     cyisraddress oldIsr;
1231:.\Generated_Source\PSoC4/CyLib.c ****     cyisraddress *ramVectorTable = (cyisraddress *) CY_INT_VECT_TABLE;
 2092              		.loc 1 1231 0
 2093 000e 8023     		mov	r3, #128
 2094 0010 9B05     		lsl	r3, r3, #22
 2095 0012 FB60     		str	r3, [r7, #12]
1232:.\Generated_Source\PSoC4/CyLib.c **** 
1233:.\Generated_Source\PSoC4/CyLib.c ****     CYASSERT(number < CY_INT_IRQ_BASE);
 2096              		.loc 1 1233 0
 2097 0014 FB1D     		add	r3, r7, #7
 2098 0016 1B78     		ldrb	r3, [r3]
 2099 0018 0F2B     		cmp	r3, #15
 2100 001a 02D9     		bls	.L174
 2101 001c 0020     		mov	r0, #0
 2102 001e FFF7FEFF 		bl	CyHalt
 2103              	.L174:
1234:.\Generated_Source\PSoC4/CyLib.c **** 
1235:.\Generated_Source\PSoC4/CyLib.c ****     /* Save old Interrupt service routine. */
1236:.\Generated_Source\PSoC4/CyLib.c ****     oldIsr = ramVectorTable[number];
 2104              		.loc 1 1236 0
 2105 0022 FB1D     		add	r3, r7, #7
 2106 0024 1B78     		ldrb	r3, [r3]
 2107 0026 9A00     		lsl	r2, r3, #2
 2108 0028 FB68     		ldr	r3, [r7, #12]
 2109 002a D318     		add	r3, r2, r3
 2110 002c 1B68     		ldr	r3, [r3]
 2111 002e BB60     		str	r3, [r7, #8]
1237:.\Generated_Source\PSoC4/CyLib.c **** 
1238:.\Generated_Source\PSoC4/CyLib.c ****     /* Set new Interrupt service routine. */
1239:.\Generated_Source\PSoC4/CyLib.c ****     ramVectorTable[number] = address;
 2112              		.loc 1 1239 0
 2113 0030 FB1D     		add	r3, r7, #7
 2114 0032 1B78     		ldrb	r3, [r3]
 2115 0034 9A00     		lsl	r2, r3, #2
 2116 0036 FB68     		ldr	r3, [r7, #12]
 2117 0038 D318     		add	r3, r2, r3
 2118 003a 3A68     		ldr	r2, [r7]
 2119 003c 1A60     		str	r2, [r3]
1240:.\Generated_Source\PSoC4/CyLib.c **** 
ARM GAS  C:\Users\maxk\AppData\Local\Temp\ccchLIRo.s 			page 60


1241:.\Generated_Source\PSoC4/CyLib.c ****     return(oldIsr);
 2120              		.loc 1 1241 0
 2121 003e BB68     		ldr	r3, [r7, #8]
1242:.\Generated_Source\PSoC4/CyLib.c **** }
 2122              		.loc 1 1242 0
 2123 0040 181C     		mov	r0, r3
 2124 0042 BD46     		mov	sp, r7
 2125 0044 04B0     		add	sp, sp, #16
 2126              		@ sp needed for prologue
 2127 0046 80BD     		pop	{r7, pc}
 2128              		.cfi_endproc
 2129              	.LFE32:
 2130              		.size	CyIntSetSysVector, .-CyIntSetSysVector
 2131              		.section	.text.CyIntGetSysVector,"ax",%progbits
 2132              		.align	2
 2133              		.global	CyIntGetSysVector
 2134              		.code	16
 2135              		.thumb_func
 2136              		.type	CyIntGetSysVector, %function
 2137              	CyIntGetSysVector:
 2138              	.LFB33:
1243:.\Generated_Source\PSoC4/CyLib.c **** 
1244:.\Generated_Source\PSoC4/CyLib.c **** 
1245:.\Generated_Source\PSoC4/CyLib.c **** /*******************************************************************************
1246:.\Generated_Source\PSoC4/CyLib.c **** * Function Name: CyIntGetSysVector
1247:.\Generated_Source\PSoC4/CyLib.c **** ********************************************************************************
1248:.\Generated_Source\PSoC4/CyLib.c **** *
1249:.\Generated_Source\PSoC4/CyLib.c **** * Summary:
1250:.\Generated_Source\PSoC4/CyLib.c **** *   Gets the interrupt vector of the specified system interrupt number. These
1251:.\Generated_Source\PSoC4/CyLib.c **** *   interrupts are for SysTick, PendSV and others.
1252:.\Generated_Source\PSoC4/CyLib.c **** *
1253:.\Generated_Source\PSoC4/CyLib.c **** * Parameters:
1254:.\Generated_Source\PSoC4/CyLib.c **** *   number: The interrupt number, valid range [0-15].
1255:.\Generated_Source\PSoC4/CyLib.c **** *
1256:.\Generated_Source\PSoC4/CyLib.c **** * Return:
1257:.\Generated_Source\PSoC4/CyLib.c **** *   Address of the ISR in the interrupt vector table.
1258:.\Generated_Source\PSoC4/CyLib.c **** *
1259:.\Generated_Source\PSoC4/CyLib.c **** *******************************************************************************/
1260:.\Generated_Source\PSoC4/CyLib.c **** cyisraddress CyIntGetSysVector(uint8 number)
1261:.\Generated_Source\PSoC4/CyLib.c **** {
 2139              		.loc 1 1261 0
 2140              		.cfi_startproc
 2141 0000 80B5     		push	{r7, lr}
 2142              	.LCFI89:
 2143              		.cfi_def_cfa_offset 8
 2144              		.cfi_offset 7, -8
 2145              		.cfi_offset 14, -4
 2146 0002 84B0     		sub	sp, sp, #16
 2147              	.LCFI90:
 2148              		.cfi_def_cfa_offset 24
 2149 0004 00AF     		add	r7, sp, #0
 2150              	.LCFI91:
 2151              		.cfi_def_cfa_register 7
 2152 0006 021C     		mov	r2, r0
 2153 0008 FB1D     		add	r3, r7, #7
 2154 000a 1A70     		strb	r2, [r3]
1262:.\Generated_Source\PSoC4/CyLib.c ****     cyisraddress *ramVectorTable = (cyisraddress *) CY_INT_VECT_TABLE;
ARM GAS  C:\Users\maxk\AppData\Local\Temp\ccchLIRo.s 			page 61


 2155              		.loc 1 1262 0
 2156 000c 8023     		mov	r3, #128
 2157 000e 9B05     		lsl	r3, r3, #22
 2158 0010 FB60     		str	r3, [r7, #12]
1263:.\Generated_Source\PSoC4/CyLib.c **** 
1264:.\Generated_Source\PSoC4/CyLib.c ****     CYASSERT(number < CY_INT_IRQ_BASE);
 2159              		.loc 1 1264 0
 2160 0012 FB1D     		add	r3, r7, #7
 2161 0014 1B78     		ldrb	r3, [r3]
 2162 0016 0F2B     		cmp	r3, #15
 2163 0018 02D9     		bls	.L177
 2164 001a 0020     		mov	r0, #0
 2165 001c FFF7FEFF 		bl	CyHalt
 2166              	.L177:
1265:.\Generated_Source\PSoC4/CyLib.c **** 
1266:.\Generated_Source\PSoC4/CyLib.c ****     return(ramVectorTable[number]);
 2167              		.loc 1 1266 0
 2168 0020 FB1D     		add	r3, r7, #7
 2169 0022 1B78     		ldrb	r3, [r3]
 2170 0024 9A00     		lsl	r2, r3, #2
 2171 0026 FB68     		ldr	r3, [r7, #12]
 2172 0028 D318     		add	r3, r2, r3
 2173 002a 1B68     		ldr	r3, [r3]
1267:.\Generated_Source\PSoC4/CyLib.c **** }
 2174              		.loc 1 1267 0
 2175 002c 181C     		mov	r0, r3
 2176 002e BD46     		mov	sp, r7
 2177 0030 04B0     		add	sp, sp, #16
 2178              		@ sp needed for prologue
 2179 0032 80BD     		pop	{r7, pc}
 2180              		.cfi_endproc
 2181              	.LFE33:
 2182              		.size	CyIntGetSysVector, .-CyIntGetSysVector
 2183              		.section	.text.CyIntSetVector,"ax",%progbits
 2184              		.align	2
 2185              		.global	CyIntSetVector
 2186              		.code	16
 2187              		.thumb_func
 2188              		.type	CyIntSetVector, %function
 2189              	CyIntSetVector:
 2190              	.LFB34:
1268:.\Generated_Source\PSoC4/CyLib.c **** 
1269:.\Generated_Source\PSoC4/CyLib.c **** 
1270:.\Generated_Source\PSoC4/CyLib.c **** /*******************************************************************************
1271:.\Generated_Source\PSoC4/CyLib.c **** * Function Name: CyIntSetVector
1272:.\Generated_Source\PSoC4/CyLib.c **** ********************************************************************************
1273:.\Generated_Source\PSoC4/CyLib.c **** *
1274:.\Generated_Source\PSoC4/CyLib.c **** * Summary:
1275:.\Generated_Source\PSoC4/CyLib.c **** *  Sets the interrupt vector of the specified interrupt number.
1276:.\Generated_Source\PSoC4/CyLib.c **** *
1277:.\Generated_Source\PSoC4/CyLib.c **** * Parameters:
1278:.\Generated_Source\PSoC4/CyLib.c **** *  number: Valid range [0-31].  Interrupt number
1279:.\Generated_Source\PSoC4/CyLib.c **** *  address: Pointer to an interrupt service routine
1280:.\Generated_Source\PSoC4/CyLib.c **** *
1281:.\Generated_Source\PSoC4/CyLib.c **** * Return:
1282:.\Generated_Source\PSoC4/CyLib.c **** *   Previous interrupt vector value.
1283:.\Generated_Source\PSoC4/CyLib.c **** *
ARM GAS  C:\Users\maxk\AppData\Local\Temp\ccchLIRo.s 			page 62


1284:.\Generated_Source\PSoC4/CyLib.c **** *******************************************************************************/
1285:.\Generated_Source\PSoC4/CyLib.c **** cyisraddress CyIntSetVector(uint8 number, cyisraddress address)
1286:.\Generated_Source\PSoC4/CyLib.c **** {
 2191              		.loc 1 1286 0
 2192              		.cfi_startproc
 2193 0000 80B5     		push	{r7, lr}
 2194              	.LCFI92:
 2195              		.cfi_def_cfa_offset 8
 2196              		.cfi_offset 7, -8
 2197              		.cfi_offset 14, -4
 2198 0002 84B0     		sub	sp, sp, #16
 2199              	.LCFI93:
 2200              		.cfi_def_cfa_offset 24
 2201 0004 00AF     		add	r7, sp, #0
 2202              	.LCFI94:
 2203              		.cfi_def_cfa_register 7
 2204 0006 021C     		mov	r2, r0
 2205 0008 3960     		str	r1, [r7]
 2206 000a FB1D     		add	r3, r7, #7
 2207 000c 1A70     		strb	r2, [r3]
1287:.\Generated_Source\PSoC4/CyLib.c ****     cyisraddress oldIsr;
1288:.\Generated_Source\PSoC4/CyLib.c ****     cyisraddress *ramVectorTable = (cyisraddress *) CY_INT_VECT_TABLE;
 2208              		.loc 1 1288 0
 2209 000e 8023     		mov	r3, #128
 2210 0010 9B05     		lsl	r3, r3, #22
 2211 0012 FB60     		str	r3, [r7, #12]
1289:.\Generated_Source\PSoC4/CyLib.c **** 
1290:.\Generated_Source\PSoC4/CyLib.c ****     CYASSERT(number < CY_NUM_INTERRUPTS);
 2212              		.loc 1 1290 0
 2213 0014 FB1D     		add	r3, r7, #7
 2214 0016 1B78     		ldrb	r3, [r3]
 2215 0018 1F2B     		cmp	r3, #31
 2216 001a 02D9     		bls	.L180
 2217 001c 0020     		mov	r0, #0
 2218 001e FFF7FEFF 		bl	CyHalt
 2219              	.L180:
1291:.\Generated_Source\PSoC4/CyLib.c **** 
1292:.\Generated_Source\PSoC4/CyLib.c ****     /* Save old Interrupt service routine. */
1293:.\Generated_Source\PSoC4/CyLib.c ****     oldIsr = ramVectorTable[CY_INT_IRQ_BASE + number];
 2220              		.loc 1 1293 0
 2221 0022 FB1D     		add	r3, r7, #7
 2222 0024 1B78     		ldrb	r3, [r3]
 2223 0026 1033     		add	r3, r3, #16
 2224 0028 9A00     		lsl	r2, r3, #2
 2225 002a FB68     		ldr	r3, [r7, #12]
 2226 002c D318     		add	r3, r2, r3
 2227 002e 1B68     		ldr	r3, [r3]
 2228 0030 BB60     		str	r3, [r7, #8]
1294:.\Generated_Source\PSoC4/CyLib.c **** 
1295:.\Generated_Source\PSoC4/CyLib.c ****     /* Set new Interrupt service routine. */
1296:.\Generated_Source\PSoC4/CyLib.c ****     ramVectorTable[CY_INT_IRQ_BASE + number] = address;
 2229              		.loc 1 1296 0
 2230 0032 FB1D     		add	r3, r7, #7
 2231 0034 1B78     		ldrb	r3, [r3]
 2232 0036 1033     		add	r3, r3, #16
 2233 0038 9A00     		lsl	r2, r3, #2
 2234 003a FB68     		ldr	r3, [r7, #12]
ARM GAS  C:\Users\maxk\AppData\Local\Temp\ccchLIRo.s 			page 63


 2235 003c D318     		add	r3, r2, r3
 2236 003e 3A68     		ldr	r2, [r7]
 2237 0040 1A60     		str	r2, [r3]
1297:.\Generated_Source\PSoC4/CyLib.c **** 
1298:.\Generated_Source\PSoC4/CyLib.c ****     return(oldIsr);
 2238              		.loc 1 1298 0
 2239 0042 BB68     		ldr	r3, [r7, #8]
1299:.\Generated_Source\PSoC4/CyLib.c **** }
 2240              		.loc 1 1299 0
 2241 0044 181C     		mov	r0, r3
 2242 0046 BD46     		mov	sp, r7
 2243 0048 04B0     		add	sp, sp, #16
 2244              		@ sp needed for prologue
 2245 004a 80BD     		pop	{r7, pc}
 2246              		.cfi_endproc
 2247              	.LFE34:
 2248              		.size	CyIntSetVector, .-CyIntSetVector
 2249              		.section	.text.CyIntGetVector,"ax",%progbits
 2250              		.align	2
 2251              		.global	CyIntGetVector
 2252              		.code	16
 2253              		.thumb_func
 2254              		.type	CyIntGetVector, %function
 2255              	CyIntGetVector:
 2256              	.LFB35:
1300:.\Generated_Source\PSoC4/CyLib.c **** 
1301:.\Generated_Source\PSoC4/CyLib.c **** 
1302:.\Generated_Source\PSoC4/CyLib.c **** /*******************************************************************************
1303:.\Generated_Source\PSoC4/CyLib.c **** * Function Name: CyIntGetVector
1304:.\Generated_Source\PSoC4/CyLib.c **** ********************************************************************************
1305:.\Generated_Source\PSoC4/CyLib.c **** *
1306:.\Generated_Source\PSoC4/CyLib.c **** * Summary:
1307:.\Generated_Source\PSoC4/CyLib.c **** *  Gets the interrupt vector of the specified interrupt number.
1308:.\Generated_Source\PSoC4/CyLib.c **** *
1309:.\Generated_Source\PSoC4/CyLib.c **** * Parameters:
1310:.\Generated_Source\PSoC4/CyLib.c **** *  number: Valid range [0-31].  Interrupt number
1311:.\Generated_Source\PSoC4/CyLib.c **** *
1312:.\Generated_Source\PSoC4/CyLib.c **** * Return:
1313:.\Generated_Source\PSoC4/CyLib.c **** *  Address of the ISR in the interrupt vector table.
1314:.\Generated_Source\PSoC4/CyLib.c **** *
1315:.\Generated_Source\PSoC4/CyLib.c **** *******************************************************************************/
1316:.\Generated_Source\PSoC4/CyLib.c **** cyisraddress CyIntGetVector(uint8 number)
1317:.\Generated_Source\PSoC4/CyLib.c **** {
 2257              		.loc 1 1317 0
 2258              		.cfi_startproc
 2259 0000 80B5     		push	{r7, lr}
 2260              	.LCFI95:
 2261              		.cfi_def_cfa_offset 8
 2262              		.cfi_offset 7, -8
 2263              		.cfi_offset 14, -4
 2264 0002 84B0     		sub	sp, sp, #16
 2265              	.LCFI96:
 2266              		.cfi_def_cfa_offset 24
 2267 0004 00AF     		add	r7, sp, #0
 2268              	.LCFI97:
 2269              		.cfi_def_cfa_register 7
 2270 0006 021C     		mov	r2, r0
ARM GAS  C:\Users\maxk\AppData\Local\Temp\ccchLIRo.s 			page 64


 2271 0008 FB1D     		add	r3, r7, #7
 2272 000a 1A70     		strb	r2, [r3]
1318:.\Generated_Source\PSoC4/CyLib.c ****     cyisraddress *ramVectorTable = (cyisraddress *) CY_INT_VECT_TABLE;
 2273              		.loc 1 1318 0
 2274 000c 8023     		mov	r3, #128
 2275 000e 9B05     		lsl	r3, r3, #22
 2276 0010 FB60     		str	r3, [r7, #12]
1319:.\Generated_Source\PSoC4/CyLib.c **** 
1320:.\Generated_Source\PSoC4/CyLib.c ****     CYASSERT(number < CY_NUM_INTERRUPTS);
 2277              		.loc 1 1320 0
 2278 0012 FB1D     		add	r3, r7, #7
 2279 0014 1B78     		ldrb	r3, [r3]
 2280 0016 1F2B     		cmp	r3, #31
 2281 0018 02D9     		bls	.L183
 2282 001a 0020     		mov	r0, #0
 2283 001c FFF7FEFF 		bl	CyHalt
 2284              	.L183:
1321:.\Generated_Source\PSoC4/CyLib.c **** 
1322:.\Generated_Source\PSoC4/CyLib.c ****     return (ramVectorTable[CY_INT_IRQ_BASE + number]);
 2285              		.loc 1 1322 0
 2286 0020 FB1D     		add	r3, r7, #7
 2287 0022 1B78     		ldrb	r3, [r3]
 2288 0024 1033     		add	r3, r3, #16
 2289 0026 9A00     		lsl	r2, r3, #2
 2290 0028 FB68     		ldr	r3, [r7, #12]
 2291 002a D318     		add	r3, r2, r3
 2292 002c 1B68     		ldr	r3, [r3]
1323:.\Generated_Source\PSoC4/CyLib.c **** }
 2293              		.loc 1 1323 0
 2294 002e 181C     		mov	r0, r3
 2295 0030 BD46     		mov	sp, r7
 2296 0032 04B0     		add	sp, sp, #16
 2297              		@ sp needed for prologue
 2298 0034 80BD     		pop	{r7, pc}
 2299              		.cfi_endproc
 2300              	.LFE35:
 2301              		.size	CyIntGetVector, .-CyIntGetVector
 2302 0036 C046     		.section	.text.CyIntSetPriority,"ax",%progbits
 2303              		.align	2
 2304              		.global	CyIntSetPriority
 2305              		.code	16
 2306              		.thumb_func
 2307              		.type	CyIntSetPriority, %function
 2308              	CyIntSetPriority:
 2309              	.LFB36:
1324:.\Generated_Source\PSoC4/CyLib.c **** 
1325:.\Generated_Source\PSoC4/CyLib.c **** /*******************************************************************************
1326:.\Generated_Source\PSoC4/CyLib.c **** * Function Name: CyIntSetPriority
1327:.\Generated_Source\PSoC4/CyLib.c **** ********************************************************************************
1328:.\Generated_Source\PSoC4/CyLib.c **** *
1329:.\Generated_Source\PSoC4/CyLib.c **** * Summary:
1330:.\Generated_Source\PSoC4/CyLib.c **** *  Sets the priority of the interrupt.
1331:.\Generated_Source\PSoC4/CyLib.c **** *
1332:.\Generated_Source\PSoC4/CyLib.c **** * Parameters:
1333:.\Generated_Source\PSoC4/CyLib.c **** *  priority: Priority of the interrupt. 0 - 3, 0 being the highest.
1334:.\Generated_Source\PSoC4/CyLib.c **** *  number: The number of the interrupt, 0 - 31.
1335:.\Generated_Source\PSoC4/CyLib.c **** *
ARM GAS  C:\Users\maxk\AppData\Local\Temp\ccchLIRo.s 			page 65


1336:.\Generated_Source\PSoC4/CyLib.c **** * Return:
1337:.\Generated_Source\PSoC4/CyLib.c **** *  None
1338:.\Generated_Source\PSoC4/CyLib.c **** *
1339:.\Generated_Source\PSoC4/CyLib.c **** *******************************************************************************/
1340:.\Generated_Source\PSoC4/CyLib.c **** void CyIntSetPriority(uint8 number, uint8 priority)
1341:.\Generated_Source\PSoC4/CyLib.c **** {
 2310              		.loc 1 1341 0
 2311              		.cfi_startproc
 2312 0000 80B5     		push	{r7, lr}
 2313              	.LCFI98:
 2314              		.cfi_def_cfa_offset 8
 2315              		.cfi_offset 7, -8
 2316              		.cfi_offset 14, -4
 2317 0002 86B0     		sub	sp, sp, #24
 2318              	.LCFI99:
 2319              		.cfi_def_cfa_offset 32
 2320 0004 00AF     		add	r7, sp, #0
 2321              	.LCFI100:
 2322              		.cfi_def_cfa_register 7
 2323 0006 0A1C     		mov	r2, r1
 2324 0008 FB1D     		add	r3, r7, #7
 2325 000a 011C     		add	r1, r0, #0
 2326 000c 1970     		strb	r1, [r3]
 2327 000e BB1D     		add	r3, r7, #6
 2328 0010 1A70     		strb	r2, [r3]
1342:.\Generated_Source\PSoC4/CyLib.c ****     uint8 interruptState;
1343:.\Generated_Source\PSoC4/CyLib.c ****     uint32 shift;
1344:.\Generated_Source\PSoC4/CyLib.c ****     uint32 value;
1345:.\Generated_Source\PSoC4/CyLib.c **** 
1346:.\Generated_Source\PSoC4/CyLib.c ****     CYASSERT(priority <= CY_MIN_PRIORITY);
 2329              		.loc 1 1346 0
 2330 0012 BB1D     		add	r3, r7, #6
 2331 0014 1B78     		ldrb	r3, [r3]
 2332 0016 032B     		cmp	r3, #3
 2333 0018 02D9     		bls	.L186
 2334 001a 0020     		mov	r0, #0
 2335 001c FFF7FEFF 		bl	CyHalt
 2336              	.L186:
1347:.\Generated_Source\PSoC4/CyLib.c ****     CYASSERT(number < CY_NUM_INTERRUPTS);
 2337              		.loc 1 1347 0
 2338 0020 FB1D     		add	r3, r7, #7
 2339 0022 1B78     		ldrb	r3, [r3]
 2340 0024 1F2B     		cmp	r3, #31
 2341 0026 02D9     		bls	.L187
 2342 0028 0020     		mov	r0, #0
 2343 002a FFF7FEFF 		bl	CyHalt
 2344              	.L187:
1348:.\Generated_Source\PSoC4/CyLib.c **** 
1349:.\Generated_Source\PSoC4/CyLib.c ****     shift = CY_INT_PRIORITY_SHIFT(number);
 2345              		.loc 1 1349 0
 2346 002e FB1D     		add	r3, r7, #7
 2347 0030 1A78     		ldrb	r2, [r3]
 2348 0032 0323     		mov	r3, #3
 2349 0034 1340     		and	r3, r3, r2
 2350 0036 DB00     		lsl	r3, r3, #3
 2351 0038 0633     		add	r3, r3, #6
 2352 003a 3B61     		str	r3, [r7, #16]
ARM GAS  C:\Users\maxk\AppData\Local\Temp\ccchLIRo.s 			page 66


1350:.\Generated_Source\PSoC4/CyLib.c **** 
1351:.\Generated_Source\PSoC4/CyLib.c ****     interruptState = CyEnterCriticalSection();
 2353              		.loc 1 1351 0
 2354 003c FFF7FEFF 		bl	CyEnterCriticalSection
 2355 0040 031C     		mov	r3, r0
 2356 0042 1A1C     		mov	r2, r3
 2357 0044 3B1C     		mov	r3, r7
 2358 0046 0F33     		add	r3, r3, #15
 2359 0048 1A70     		strb	r2, [r3]
1352:.\Generated_Source\PSoC4/CyLib.c **** 
1353:.\Generated_Source\PSoC4/CyLib.c ****     value = CY_INT_PRIORITY_REG(number);
 2360              		.loc 1 1353 0
 2361 004a FB1D     		add	r3, r7, #7
 2362 004c 1B78     		ldrb	r3, [r3]
 2363 004e 9B08     		lsr	r3, r3, #2
 2364 0050 DBB2     		uxtb	r3, r3
 2365 0052 9B00     		lsl	r3, r3, #2
 2366 0054 1349     		ldr	r1, .L189
 2367 0056 5B18     		add	r3, r3, r1
 2368 0058 1B68     		ldr	r3, [r3]
 2369 005a 7B61     		str	r3, [r7, #20]
1354:.\Generated_Source\PSoC4/CyLib.c ****     value &= (uint32)(~((uint32)(CY_INT_PRIORITY_MASK << shift)));
 2370              		.loc 1 1354 0
 2371 005c 3B69     		ldr	r3, [r7, #16]
 2372 005e 0322     		mov	r2, #3
 2373 0060 111C     		mov	r1, r2
 2374 0062 9940     		lsl	r1, r1, r3
 2375 0064 0B1C     		mov	r3, r1
 2376 0066 DB43     		mvn	r3, r3
 2377 0068 7A69     		ldr	r2, [r7, #20]
 2378 006a 1340     		and	r3, r3, r2
 2379 006c 7B61     		str	r3, [r7, #20]
1355:.\Generated_Source\PSoC4/CyLib.c ****     value |= ((uint32)priority << shift);
 2380              		.loc 1 1355 0
 2381 006e BB1D     		add	r3, r7, #6
 2382 0070 1A78     		ldrb	r2, [r3]
 2383 0072 3B69     		ldr	r3, [r7, #16]
 2384 0074 111C     		mov	r1, r2
 2385 0076 9940     		lsl	r1, r1, r3
 2386 0078 0B1C     		mov	r3, r1
 2387 007a 7A69     		ldr	r2, [r7, #20]
 2388 007c 1343     		orr	r3, r3, r2
 2389 007e 7B61     		str	r3, [r7, #20]
1356:.\Generated_Source\PSoC4/CyLib.c ****     CY_INT_PRIORITY_REG(number) = value;
 2390              		.loc 1 1356 0
 2391 0080 FB1D     		add	r3, r7, #7
 2392 0082 1B78     		ldrb	r3, [r3]
 2393 0084 9B08     		lsr	r3, r3, #2
 2394 0086 DBB2     		uxtb	r3, r3
 2395 0088 9B00     		lsl	r3, r3, #2
 2396 008a 064A     		ldr	r2, .L189
 2397 008c 9B18     		add	r3, r3, r2
 2398 008e 7A69     		ldr	r2, [r7, #20]
 2399 0090 1A60     		str	r2, [r3]
1357:.\Generated_Source\PSoC4/CyLib.c **** 
1358:.\Generated_Source\PSoC4/CyLib.c ****     CyExitCriticalSection(interruptState);
 2400              		.loc 1 1358 0
ARM GAS  C:\Users\maxk\AppData\Local\Temp\ccchLIRo.s 			page 67


 2401 0092 3B1C     		mov	r3, r7
 2402 0094 0F33     		add	r3, r3, #15
 2403 0096 1B78     		ldrb	r3, [r3]
 2404 0098 181C     		mov	r0, r3
 2405 009a FFF7FEFF 		bl	CyExitCriticalSection
1359:.\Generated_Source\PSoC4/CyLib.c **** }
 2406              		.loc 1 1359 0
 2407 009e BD46     		mov	sp, r7
 2408 00a0 06B0     		add	sp, sp, #24
 2409              		@ sp needed for prologue
 2410 00a2 80BD     		pop	{r7, pc}
 2411              	.L190:
 2412              		.align	2
 2413              	.L189:
 2414 00a4 00E400E0 		.word	-536812544
 2415              		.cfi_endproc
 2416              	.LFE36:
 2417              		.size	CyIntSetPriority, .-CyIntSetPriority
 2418              		.section	.text.CyIntGetPriority,"ax",%progbits
 2419              		.align	2
 2420              		.global	CyIntGetPriority
 2421              		.code	16
 2422              		.thumb_func
 2423              		.type	CyIntGetPriority, %function
 2424              	CyIntGetPriority:
 2425              	.LFB37:
1360:.\Generated_Source\PSoC4/CyLib.c **** 
1361:.\Generated_Source\PSoC4/CyLib.c **** 
1362:.\Generated_Source\PSoC4/CyLib.c **** /*******************************************************************************
1363:.\Generated_Source\PSoC4/CyLib.c **** * Function Name: CyIntGetPriority
1364:.\Generated_Source\PSoC4/CyLib.c **** ********************************************************************************
1365:.\Generated_Source\PSoC4/CyLib.c **** *
1366:.\Generated_Source\PSoC4/CyLib.c **** * Summary:
1367:.\Generated_Source\PSoC4/CyLib.c **** *  Gets the priority of the interrupt.
1368:.\Generated_Source\PSoC4/CyLib.c **** *
1369:.\Generated_Source\PSoC4/CyLib.c **** * Parameters:
1370:.\Generated_Source\PSoC4/CyLib.c **** *  number: The number of the interrupt, 0 - 31.
1371:.\Generated_Source\PSoC4/CyLib.c **** *
1372:.\Generated_Source\PSoC4/CyLib.c **** * Return:
1373:.\Generated_Source\PSoC4/CyLib.c **** *  Priority of the interrupt. 0 - 3, 0 being the highest.
1374:.\Generated_Source\PSoC4/CyLib.c **** *
1375:.\Generated_Source\PSoC4/CyLib.c **** *******************************************************************************/
1376:.\Generated_Source\PSoC4/CyLib.c **** uint8 CyIntGetPriority(uint8 number)
1377:.\Generated_Source\PSoC4/CyLib.c **** {
 2426              		.loc 1 1377 0
 2427              		.cfi_startproc
 2428 0000 80B5     		push	{r7, lr}
 2429              	.LCFI101:
 2430              		.cfi_def_cfa_offset 8
 2431              		.cfi_offset 7, -8
 2432              		.cfi_offset 14, -4
 2433 0002 84B0     		sub	sp, sp, #16
 2434              	.LCFI102:
 2435              		.cfi_def_cfa_offset 24
 2436 0004 00AF     		add	r7, sp, #0
 2437              	.LCFI103:
 2438              		.cfi_def_cfa_register 7
ARM GAS  C:\Users\maxk\AppData\Local\Temp\ccchLIRo.s 			page 68


 2439 0006 021C     		mov	r2, r0
 2440 0008 FB1D     		add	r3, r7, #7
 2441 000a 1A70     		strb	r2, [r3]
1378:.\Generated_Source\PSoC4/CyLib.c ****     uint8 priority;
1379:.\Generated_Source\PSoC4/CyLib.c **** 
1380:.\Generated_Source\PSoC4/CyLib.c ****     CYASSERT(number < CY_NUM_INTERRUPTS);
 2442              		.loc 1 1380 0
 2443 000c FB1D     		add	r3, r7, #7
 2444 000e 1B78     		ldrb	r3, [r3]
 2445 0010 1F2B     		cmp	r3, #31
 2446 0012 02D9     		bls	.L192
 2447 0014 0020     		mov	r0, #0
 2448 0016 FFF7FEFF 		bl	CyHalt
 2449              	.L192:
1381:.\Generated_Source\PSoC4/CyLib.c **** 
1382:.\Generated_Source\PSoC4/CyLib.c ****     priority = (uint8) (CY_INT_PRIORITY_REG(number) >> CY_INT_PRIORITY_SHIFT(number));
 2450              		.loc 1 1382 0
 2451 001a FB1D     		add	r3, r7, #7
 2452 001c 1B78     		ldrb	r3, [r3]
 2453 001e 9B08     		lsr	r3, r3, #2
 2454 0020 DBB2     		uxtb	r3, r3
 2455 0022 9B00     		lsl	r3, r3, #2
 2456 0024 0A4A     		ldr	r2, .L194
 2457 0026 9B18     		add	r3, r3, r2
 2458 0028 1A68     		ldr	r2, [r3]
 2459 002a FB1D     		add	r3, r7, #7
 2460 002c 1978     		ldrb	r1, [r3]
 2461 002e 0323     		mov	r3, #3
 2462 0030 0B40     		and	r3, r3, r1
 2463 0032 DB00     		lsl	r3, r3, #3
 2464 0034 0633     		add	r3, r3, #6
 2465 0036 DA40     		lsr	r2, r2, r3
 2466 0038 3B1C     		mov	r3, r7
 2467 003a 0F33     		add	r3, r3, #15
 2468 003c 1A70     		strb	r2, [r3]
1383:.\Generated_Source\PSoC4/CyLib.c **** 
1384:.\Generated_Source\PSoC4/CyLib.c ****     return (priority & (uint8) CY_INT_PRIORITY_MASK);
 2469              		.loc 1 1384 0
 2470 003e 3B1C     		mov	r3, r7
 2471 0040 0F33     		add	r3, r3, #15
 2472 0042 1B78     		ldrb	r3, [r3]
 2473 0044 0322     		mov	r2, #3
 2474 0046 1340     		and	r3, r3, r2
1385:.\Generated_Source\PSoC4/CyLib.c **** }
 2475              		.loc 1 1385 0
 2476 0048 181C     		mov	r0, r3
 2477 004a BD46     		mov	sp, r7
 2478 004c 04B0     		add	sp, sp, #16
 2479              		@ sp needed for prologue
 2480 004e 80BD     		pop	{r7, pc}
 2481              	.L195:
 2482              		.align	2
 2483              	.L194:
 2484 0050 00E400E0 		.word	-536812544
 2485              		.cfi_endproc
 2486              	.LFE37:
 2487              		.size	CyIntGetPriority, .-CyIntGetPriority
ARM GAS  C:\Users\maxk\AppData\Local\Temp\ccchLIRo.s 			page 69


 2488              		.section	.text.CyIntEnable,"ax",%progbits
 2489              		.align	2
 2490              		.global	CyIntEnable
 2491              		.code	16
 2492              		.thumb_func
 2493              		.type	CyIntEnable, %function
 2494              	CyIntEnable:
 2495              	.LFB38:
1386:.\Generated_Source\PSoC4/CyLib.c **** 
1387:.\Generated_Source\PSoC4/CyLib.c **** 
1388:.\Generated_Source\PSoC4/CyLib.c **** /*******************************************************************************
1389:.\Generated_Source\PSoC4/CyLib.c **** * Function Name: CyIntEnable
1390:.\Generated_Source\PSoC4/CyLib.c **** ********************************************************************************
1391:.\Generated_Source\PSoC4/CyLib.c **** *
1392:.\Generated_Source\PSoC4/CyLib.c **** * Summary:
1393:.\Generated_Source\PSoC4/CyLib.c **** *  Enables the specified interrupt number.
1394:.\Generated_Source\PSoC4/CyLib.c **** *
1395:.\Generated_Source\PSoC4/CyLib.c **** * Parameters:
1396:.\Generated_Source\PSoC4/CyLib.c **** *  number: Valid range [0-31].  Interrupt number
1397:.\Generated_Source\PSoC4/CyLib.c **** *
1398:.\Generated_Source\PSoC4/CyLib.c **** * Return:
1399:.\Generated_Source\PSoC4/CyLib.c **** *  None
1400:.\Generated_Source\PSoC4/CyLib.c **** *
1401:.\Generated_Source\PSoC4/CyLib.c **** *******************************************************************************/
1402:.\Generated_Source\PSoC4/CyLib.c **** void CyIntEnable(uint8 number)
1403:.\Generated_Source\PSoC4/CyLib.c **** {
 2496              		.loc 1 1403 0
 2497              		.cfi_startproc
 2498 0000 80B5     		push	{r7, lr}
 2499              	.LCFI104:
 2500              		.cfi_def_cfa_offset 8
 2501              		.cfi_offset 7, -8
 2502              		.cfi_offset 14, -4
 2503 0002 82B0     		sub	sp, sp, #8
 2504              	.LCFI105:
 2505              		.cfi_def_cfa_offset 16
 2506 0004 00AF     		add	r7, sp, #0
 2507              	.LCFI106:
 2508              		.cfi_def_cfa_register 7
 2509 0006 021C     		mov	r2, r0
 2510 0008 FB1D     		add	r3, r7, #7
 2511 000a 1A70     		strb	r2, [r3]
1404:.\Generated_Source\PSoC4/CyLib.c ****     CY_INT_ENABLE_REG = ((uint32) 0x01u << (CY_INT_ENABLE_RANGE_MASK & number));
 2512              		.loc 1 1404 0
 2513 000c 064B     		ldr	r3, .L198
 2514 000e FA1D     		add	r2, r7, #7
 2515 0010 1178     		ldrb	r1, [r2]
 2516 0012 1F22     		mov	r2, #31
 2517 0014 0A40     		and	r2, r2, r1
 2518 0016 0121     		mov	r1, #1
 2519 0018 081C     		mov	r0, r1
 2520 001a 9040     		lsl	r0, r0, r2
 2521 001c 021C     		mov	r2, r0
 2522 001e 1A60     		str	r2, [r3]
1405:.\Generated_Source\PSoC4/CyLib.c **** }
 2523              		.loc 1 1405 0
 2524 0020 BD46     		mov	sp, r7
ARM GAS  C:\Users\maxk\AppData\Local\Temp\ccchLIRo.s 			page 70


 2525 0022 02B0     		add	sp, sp, #8
 2526              		@ sp needed for prologue
 2527 0024 80BD     		pop	{r7, pc}
 2528              	.L199:
 2529 0026 C046     		.align	2
 2530              	.L198:
 2531 0028 00E100E0 		.word	-536813312
 2532              		.cfi_endproc
 2533              	.LFE38:
 2534              		.size	CyIntEnable, .-CyIntEnable
 2535              		.section	.text.CyIntGetState,"ax",%progbits
 2536              		.align	2
 2537              		.global	CyIntGetState
 2538              		.code	16
 2539              		.thumb_func
 2540              		.type	CyIntGetState, %function
 2541              	CyIntGetState:
 2542              	.LFB39:
1406:.\Generated_Source\PSoC4/CyLib.c **** 
1407:.\Generated_Source\PSoC4/CyLib.c **** 
1408:.\Generated_Source\PSoC4/CyLib.c **** /*******************************************************************************
1409:.\Generated_Source\PSoC4/CyLib.c **** * Function Name: CyIntGetState
1410:.\Generated_Source\PSoC4/CyLib.c **** ********************************************************************************
1411:.\Generated_Source\PSoC4/CyLib.c **** *
1412:.\Generated_Source\PSoC4/CyLib.c **** * Summary:
1413:.\Generated_Source\PSoC4/CyLib.c **** *  Gets the enable state of the specified interrupt number.
1414:.\Generated_Source\PSoC4/CyLib.c **** *
1415:.\Generated_Source\PSoC4/CyLib.c **** * Parameters:
1416:.\Generated_Source\PSoC4/CyLib.c **** *  number: Valid range [0-31].  Interrupt number.
1417:.\Generated_Source\PSoC4/CyLib.c **** *
1418:.\Generated_Source\PSoC4/CyLib.c **** * Return:
1419:.\Generated_Source\PSoC4/CyLib.c **** *  Enable status: 1 if enabled, 0 if disabled
1420:.\Generated_Source\PSoC4/CyLib.c **** *
1421:.\Generated_Source\PSoC4/CyLib.c **** *******************************************************************************/
1422:.\Generated_Source\PSoC4/CyLib.c **** uint8 CyIntGetState(uint8 number)
1423:.\Generated_Source\PSoC4/CyLib.c **** {
 2543              		.loc 1 1423 0
 2544              		.cfi_startproc
 2545 0000 80B5     		push	{r7, lr}
 2546              	.LCFI107:
 2547              		.cfi_def_cfa_offset 8
 2548              		.cfi_offset 7, -8
 2549              		.cfi_offset 14, -4
 2550 0002 82B0     		sub	sp, sp, #8
 2551              	.LCFI108:
 2552              		.cfi_def_cfa_offset 16
 2553 0004 00AF     		add	r7, sp, #0
 2554              	.LCFI109:
 2555              		.cfi_def_cfa_register 7
 2556 0006 021C     		mov	r2, r0
 2557 0008 FB1D     		add	r3, r7, #7
 2558 000a 1A70     		strb	r2, [r3]
1424:.\Generated_Source\PSoC4/CyLib.c ****     /* Get the state of the interrupt. */
1425:.\Generated_Source\PSoC4/CyLib.c ****     return ((0u != (CY_INT_ENABLE_REG & ((uint32) 0x01u << (CY_INT_ENABLE_RANGE_MASK & number)))) ?
 2559              		.loc 1 1425 0
 2560 000c 0A4B     		ldr	r3, .L204
 2561 000e 1A68     		ldr	r2, [r3]
ARM GAS  C:\Users\maxk\AppData\Local\Temp\ccchLIRo.s 			page 71


 2562 0010 FB1D     		add	r3, r7, #7
 2563 0012 1978     		ldrb	r1, [r3]
 2564 0014 1F23     		mov	r3, #31
 2565 0016 0B40     		and	r3, r3, r1
 2566 0018 111C     		mov	r1, r2
 2567 001a D940     		lsr	r1, r1, r3
 2568 001c 0B1C     		mov	r3, r1
 2569 001e 1A1C     		mov	r2, r3
 2570 0020 0123     		mov	r3, #1
 2571 0022 1340     		and	r3, r3, r2
 2572 0024 DBB2     		uxtb	r3, r3
 2573 0026 002B     		cmp	r3, #0
 2574 0028 01D0     		beq	.L201
 2575 002a 0123     		mov	r3, #1
 2576 002c 00E0     		b	.L202
 2577              	.L201:
 2578 002e 0023     		mov	r3, #0
 2579              	.L202:
1426:.\Generated_Source\PSoC4/CyLib.c **** }
 2580              		.loc 1 1426 0
 2581 0030 181C     		mov	r0, r3
 2582 0032 BD46     		mov	sp, r7
 2583 0034 02B0     		add	sp, sp, #8
 2584              		@ sp needed for prologue
 2585 0036 80BD     		pop	{r7, pc}
 2586              	.L205:
 2587              		.align	2
 2588              	.L204:
 2589 0038 00E100E0 		.word	-536813312
 2590              		.cfi_endproc
 2591              	.LFE39:
 2592              		.size	CyIntGetState, .-CyIntGetState
 2593              		.section	.text.CyIntDisable,"ax",%progbits
 2594              		.align	2
 2595              		.global	CyIntDisable
 2596              		.code	16
 2597              		.thumb_func
 2598              		.type	CyIntDisable, %function
 2599              	CyIntDisable:
 2600              	.LFB40:
1427:.\Generated_Source\PSoC4/CyLib.c **** 
1428:.\Generated_Source\PSoC4/CyLib.c **** 
1429:.\Generated_Source\PSoC4/CyLib.c **** /*******************************************************************************
1430:.\Generated_Source\PSoC4/CyLib.c **** * Function Name: CyIntDisable
1431:.\Generated_Source\PSoC4/CyLib.c **** ********************************************************************************
1432:.\Generated_Source\PSoC4/CyLib.c **** *
1433:.\Generated_Source\PSoC4/CyLib.c **** * Summary:
1434:.\Generated_Source\PSoC4/CyLib.c **** *   Disables the specified interrupt number.
1435:.\Generated_Source\PSoC4/CyLib.c **** *
1436:.\Generated_Source\PSoC4/CyLib.c **** * Parameters:
1437:.\Generated_Source\PSoC4/CyLib.c **** *   number: Valid range [0-31].  Interrupt number.
1438:.\Generated_Source\PSoC4/CyLib.c **** *
1439:.\Generated_Source\PSoC4/CyLib.c **** * Return:
1440:.\Generated_Source\PSoC4/CyLib.c **** *  None
1441:.\Generated_Source\PSoC4/CyLib.c **** *
1442:.\Generated_Source\PSoC4/CyLib.c **** *******************************************************************************/
1443:.\Generated_Source\PSoC4/CyLib.c **** void CyIntDisable(uint8 number)
ARM GAS  C:\Users\maxk\AppData\Local\Temp\ccchLIRo.s 			page 72


1444:.\Generated_Source\PSoC4/CyLib.c **** {
 2601              		.loc 1 1444 0
 2602              		.cfi_startproc
 2603 0000 80B5     		push	{r7, lr}
 2604              	.LCFI110:
 2605              		.cfi_def_cfa_offset 8
 2606              		.cfi_offset 7, -8
 2607              		.cfi_offset 14, -4
 2608 0002 82B0     		sub	sp, sp, #8
 2609              	.LCFI111:
 2610              		.cfi_def_cfa_offset 16
 2611 0004 00AF     		add	r7, sp, #0
 2612              	.LCFI112:
 2613              		.cfi_def_cfa_register 7
 2614 0006 021C     		mov	r2, r0
 2615 0008 FB1D     		add	r3, r7, #7
 2616 000a 1A70     		strb	r2, [r3]
1445:.\Generated_Source\PSoC4/CyLib.c ****     CY_INT_CLEAR_REG = ((uint32) 0x01u << (CY_INT_ENABLE_RANGE_MASK & number));
 2617              		.loc 1 1445 0
 2618 000c 064B     		ldr	r3, .L208
 2619 000e FA1D     		add	r2, r7, #7
 2620 0010 1178     		ldrb	r1, [r2]
 2621 0012 1F22     		mov	r2, #31
 2622 0014 0A40     		and	r2, r2, r1
 2623 0016 0121     		mov	r1, #1
 2624 0018 081C     		mov	r0, r1
 2625 001a 9040     		lsl	r0, r0, r2
 2626 001c 021C     		mov	r2, r0
 2627 001e 1A60     		str	r2, [r3]
1446:.\Generated_Source\PSoC4/CyLib.c **** }
 2628              		.loc 1 1446 0
 2629 0020 BD46     		mov	sp, r7
 2630 0022 02B0     		add	sp, sp, #8
 2631              		@ sp needed for prologue
 2632 0024 80BD     		pop	{r7, pc}
 2633              	.L209:
 2634 0026 C046     		.align	2
 2635              	.L208:
 2636 0028 80E100E0 		.word	-536813184
 2637              		.cfi_endproc
 2638              	.LFE40:
 2639              		.size	CyIntDisable, .-CyIntDisable
 2640              		.section	.text.CyIntSetPending,"ax",%progbits
 2641              		.align	2
 2642              		.global	CyIntSetPending
 2643              		.code	16
 2644              		.thumb_func
 2645              		.type	CyIntSetPending, %function
 2646              	CyIntSetPending:
 2647              	.LFB41:
1447:.\Generated_Source\PSoC4/CyLib.c **** 
1448:.\Generated_Source\PSoC4/CyLib.c **** /*******************************************************************************
1449:.\Generated_Source\PSoC4/CyLib.c **** * Function Name: CyIntSetPending
1450:.\Generated_Source\PSoC4/CyLib.c **** ********************************************************************************
1451:.\Generated_Source\PSoC4/CyLib.c **** *
1452:.\Generated_Source\PSoC4/CyLib.c **** * Summary:
1453:.\Generated_Source\PSoC4/CyLib.c **** *  Forces the specified interrupt number to be pending.
ARM GAS  C:\Users\maxk\AppData\Local\Temp\ccchLIRo.s 			page 73


1454:.\Generated_Source\PSoC4/CyLib.c **** *
1455:.\Generated_Source\PSoC4/CyLib.c **** * Parameters:
1456:.\Generated_Source\PSoC4/CyLib.c **** *  number: Valid range [0-31].  Interrupt number.
1457:.\Generated_Source\PSoC4/CyLib.c **** *
1458:.\Generated_Source\PSoC4/CyLib.c **** * Return:
1459:.\Generated_Source\PSoC4/CyLib.c **** *  None
1460:.\Generated_Source\PSoC4/CyLib.c **** *
1461:.\Generated_Source\PSoC4/CyLib.c **** *******************************************************************************/
1462:.\Generated_Source\PSoC4/CyLib.c **** void CyIntSetPending(uint8 number)
1463:.\Generated_Source\PSoC4/CyLib.c **** {
 2648              		.loc 1 1463 0
 2649              		.cfi_startproc
 2650 0000 80B5     		push	{r7, lr}
 2651              	.LCFI113:
 2652              		.cfi_def_cfa_offset 8
 2653              		.cfi_offset 7, -8
 2654              		.cfi_offset 14, -4
 2655 0002 82B0     		sub	sp, sp, #8
 2656              	.LCFI114:
 2657              		.cfi_def_cfa_offset 16
 2658 0004 00AF     		add	r7, sp, #0
 2659              	.LCFI115:
 2660              		.cfi_def_cfa_register 7
 2661 0006 021C     		mov	r2, r0
 2662 0008 FB1D     		add	r3, r7, #7
 2663 000a 1A70     		strb	r2, [r3]
1464:.\Generated_Source\PSoC4/CyLib.c ****     CY_INT_SET_PEND_REG = ((uint32) 0x01u << (CY_INT_ENABLE_RANGE_MASK & number));
 2664              		.loc 1 1464 0
 2665 000c 064B     		ldr	r3, .L212
 2666 000e FA1D     		add	r2, r7, #7
 2667 0010 1178     		ldrb	r1, [r2]
 2668 0012 1F22     		mov	r2, #31
 2669 0014 0A40     		and	r2, r2, r1
 2670 0016 0121     		mov	r1, #1
 2671 0018 081C     		mov	r0, r1
 2672 001a 9040     		lsl	r0, r0, r2
 2673 001c 021C     		mov	r2, r0
 2674 001e 1A60     		str	r2, [r3]
1465:.\Generated_Source\PSoC4/CyLib.c **** }
 2675              		.loc 1 1465 0
 2676 0020 BD46     		mov	sp, r7
 2677 0022 02B0     		add	sp, sp, #8
 2678              		@ sp needed for prologue
 2679 0024 80BD     		pop	{r7, pc}
 2680              	.L213:
 2681 0026 C046     		.align	2
 2682              	.L212:
 2683 0028 00E200E0 		.word	-536813056
 2684              		.cfi_endproc
 2685              	.LFE41:
 2686              		.size	CyIntSetPending, .-CyIntSetPending
 2687              		.section	.text.CyIntClearPending,"ax",%progbits
 2688              		.align	2
 2689              		.global	CyIntClearPending
 2690              		.code	16
 2691              		.thumb_func
 2692              		.type	CyIntClearPending, %function
ARM GAS  C:\Users\maxk\AppData\Local\Temp\ccchLIRo.s 			page 74


 2693              	CyIntClearPending:
 2694              	.LFB42:
1466:.\Generated_Source\PSoC4/CyLib.c **** 
1467:.\Generated_Source\PSoC4/CyLib.c **** 
1468:.\Generated_Source\PSoC4/CyLib.c **** /*******************************************************************************
1469:.\Generated_Source\PSoC4/CyLib.c **** * Function Name: CyIntClearPending
1470:.\Generated_Source\PSoC4/CyLib.c **** ********************************************************************************
1471:.\Generated_Source\PSoC4/CyLib.c **** *
1472:.\Generated_Source\PSoC4/CyLib.c **** * Summary:
1473:.\Generated_Source\PSoC4/CyLib.c **** *  Clears any pending interrupt for the specified interrupt number.
1474:.\Generated_Source\PSoC4/CyLib.c **** *
1475:.\Generated_Source\PSoC4/CyLib.c **** * Parameters:
1476:.\Generated_Source\PSoC4/CyLib.c **** *  number: Valid range [0-31].  Interrupt number.
1477:.\Generated_Source\PSoC4/CyLib.c **** *
1478:.\Generated_Source\PSoC4/CyLib.c **** * Return:
1479:.\Generated_Source\PSoC4/CyLib.c **** *  None
1480:.\Generated_Source\PSoC4/CyLib.c **** *
1481:.\Generated_Source\PSoC4/CyLib.c **** *******************************************************************************/
1482:.\Generated_Source\PSoC4/CyLib.c **** void CyIntClearPending(uint8 number)
1483:.\Generated_Source\PSoC4/CyLib.c **** {
 2695              		.loc 1 1483 0
 2696              		.cfi_startproc
 2697 0000 80B5     		push	{r7, lr}
 2698              	.LCFI116:
 2699              		.cfi_def_cfa_offset 8
 2700              		.cfi_offset 7, -8
 2701              		.cfi_offset 14, -4
 2702 0002 82B0     		sub	sp, sp, #8
 2703              	.LCFI117:
 2704              		.cfi_def_cfa_offset 16
 2705 0004 00AF     		add	r7, sp, #0
 2706              	.LCFI118:
 2707              		.cfi_def_cfa_register 7
 2708 0006 021C     		mov	r2, r0
 2709 0008 FB1D     		add	r3, r7, #7
 2710 000a 1A70     		strb	r2, [r3]
1484:.\Generated_Source\PSoC4/CyLib.c ****     CY_INT_CLR_PEND_REG = ((uint32) 0x01u << (CY_INT_ENABLE_RANGE_MASK & number));
 2711              		.loc 1 1484 0
 2712 000c 064B     		ldr	r3, .L216
 2713 000e FA1D     		add	r2, r7, #7
 2714 0010 1178     		ldrb	r1, [r2]
 2715 0012 1F22     		mov	r2, #31
 2716 0014 0A40     		and	r2, r2, r1
 2717 0016 0121     		mov	r1, #1
 2718 0018 081C     		mov	r0, r1
 2719 001a 9040     		lsl	r0, r0, r2
 2720 001c 021C     		mov	r2, r0
 2721 001e 1A60     		str	r2, [r3]
1485:.\Generated_Source\PSoC4/CyLib.c **** }
 2722              		.loc 1 1485 0
 2723 0020 BD46     		mov	sp, r7
 2724 0022 02B0     		add	sp, sp, #8
 2725              		@ sp needed for prologue
 2726 0024 80BD     		pop	{r7, pc}
 2727              	.L217:
 2728 0026 C046     		.align	2
 2729              	.L216:
ARM GAS  C:\Users\maxk\AppData\Local\Temp\ccchLIRo.s 			page 75


 2730 0028 80E200E0 		.word	-536812928
 2731              		.cfi_endproc
 2732              	.LFE42:
 2733              		.size	CyIntClearPending, .-CyIntClearPending
 2734              		.section	.text.CyHalt,"ax",%progbits
 2735              		.align	2
 2736              		.global	CyHalt
 2737              		.code	16
 2738              		.thumb_func
 2739              		.type	CyHalt, %function
 2740              	CyHalt:
 2741              	.LFB43:
1486:.\Generated_Source\PSoC4/CyLib.c **** 
1487:.\Generated_Source\PSoC4/CyLib.c **** 
1488:.\Generated_Source\PSoC4/CyLib.c **** /*******************************************************************************
1489:.\Generated_Source\PSoC4/CyLib.c **** * Function Name: CyHalt
1490:.\Generated_Source\PSoC4/CyLib.c **** ********************************************************************************
1491:.\Generated_Source\PSoC4/CyLib.c **** *
1492:.\Generated_Source\PSoC4/CyLib.c **** * Summary:
1493:.\Generated_Source\PSoC4/CyLib.c **** *  Halts the CPU.
1494:.\Generated_Source\PSoC4/CyLib.c **** *
1495:.\Generated_Source\PSoC4/CyLib.c **** * Parameters:
1496:.\Generated_Source\PSoC4/CyLib.c **** *  reason: Value to be used during debugging.
1497:.\Generated_Source\PSoC4/CyLib.c **** *
1498:.\Generated_Source\PSoC4/CyLib.c **** * Return:
1499:.\Generated_Source\PSoC4/CyLib.c **** *  None
1500:.\Generated_Source\PSoC4/CyLib.c **** *
1501:.\Generated_Source\PSoC4/CyLib.c **** *******************************************************************************/
1502:.\Generated_Source\PSoC4/CyLib.c **** void CyHalt(uint8 reason)
1503:.\Generated_Source\PSoC4/CyLib.c **** {
 2742              		.loc 1 1503 0
 2743              		.cfi_startproc
 2744 0000 80B5     		push	{r7, lr}
 2745              	.LCFI119:
 2746              		.cfi_def_cfa_offset 8
 2747              		.cfi_offset 7, -8
 2748              		.cfi_offset 14, -4
 2749 0002 82B0     		sub	sp, sp, #8
 2750              	.LCFI120:
 2751              		.cfi_def_cfa_offset 16
 2752 0004 00AF     		add	r7, sp, #0
 2753              	.LCFI121:
 2754              		.cfi_def_cfa_register 7
 2755 0006 021C     		mov	r2, r0
 2756 0008 FB1D     		add	r3, r7, #7
 2757 000a 1A70     		strb	r2, [r3]
1504:.\Generated_Source\PSoC4/CyLib.c ****     if(0u != reason)
1505:.\Generated_Source\PSoC4/CyLib.c ****     {
1506:.\Generated_Source\PSoC4/CyLib.c ****         /* To remove unreferenced local variable warning */
1507:.\Generated_Source\PSoC4/CyLib.c ****     }
1508:.\Generated_Source\PSoC4/CyLib.c **** 
1509:.\Generated_Source\PSoC4/CyLib.c ****     #if defined (__ARMCC_VERSION)
1510:.\Generated_Source\PSoC4/CyLib.c ****         __breakpoint(0x0);
1511:.\Generated_Source\PSoC4/CyLib.c ****     #elif defined(__GNUC__)
1512:.\Generated_Source\PSoC4/CyLib.c ****         __asm("    bkpt    1");
 2758              		.loc 1 1512 0
 2759              	@ 1512 ".\Generated_Source\PSoC4\CyLib.c" 1
ARM GAS  C:\Users\maxk\AppData\Local\Temp\ccchLIRo.s 			page 76


 2760 000c 01BE     		    bkpt    1
 2761              	@ 0 "" 2
1513:.\Generated_Source\PSoC4/CyLib.c ****     #elif defined(__C51__)
1514:.\Generated_Source\PSoC4/CyLib.c ****         CYDEV_HALT_CPU;
1515:.\Generated_Source\PSoC4/CyLib.c ****     #endif  /* (__ARMCC_VERSION) */
1516:.\Generated_Source\PSoC4/CyLib.c **** }
 2762              		.loc 1 1516 0
 2763              		.code	16
 2764 000e BD46     		mov	sp, r7
 2765 0010 02B0     		add	sp, sp, #8
 2766              		@ sp needed for prologue
 2767 0012 80BD     		pop	{r7, pc}
 2768              		.cfi_endproc
 2769              	.LFE43:
 2770              		.size	CyHalt, .-CyHalt
 2771              		.section	.text.CySoftwareReset,"ax",%progbits
 2772              		.align	2
 2773              		.global	CySoftwareReset
 2774              		.code	16
 2775              		.thumb_func
 2776              		.type	CySoftwareReset, %function
 2777              	CySoftwareReset:
 2778              	.LFB44:
1517:.\Generated_Source\PSoC4/CyLib.c **** 
1518:.\Generated_Source\PSoC4/CyLib.c **** 
1519:.\Generated_Source\PSoC4/CyLib.c **** /*******************************************************************************
1520:.\Generated_Source\PSoC4/CyLib.c **** * Function Name: CySoftwareReset
1521:.\Generated_Source\PSoC4/CyLib.c **** ********************************************************************************
1522:.\Generated_Source\PSoC4/CyLib.c **** *
1523:.\Generated_Source\PSoC4/CyLib.c **** * Summary:
1524:.\Generated_Source\PSoC4/CyLib.c **** *  Forces a software reset of the device.
1525:.\Generated_Source\PSoC4/CyLib.c **** *
1526:.\Generated_Source\PSoC4/CyLib.c **** * Parameters:
1527:.\Generated_Source\PSoC4/CyLib.c **** *  None
1528:.\Generated_Source\PSoC4/CyLib.c **** *
1529:.\Generated_Source\PSoC4/CyLib.c **** * Return:
1530:.\Generated_Source\PSoC4/CyLib.c **** *  None
1531:.\Generated_Source\PSoC4/CyLib.c **** *
1532:.\Generated_Source\PSoC4/CyLib.c **** *******************************************************************************/
1533:.\Generated_Source\PSoC4/CyLib.c **** void CySoftwareReset(void)
1534:.\Generated_Source\PSoC4/CyLib.c **** {
 2779              		.loc 1 1534 0
 2780              		.cfi_startproc
 2781 0000 80B5     		push	{r7, lr}
 2782              	.LCFI122:
 2783              		.cfi_def_cfa_offset 8
 2784              		.cfi_offset 7, -8
 2785              		.cfi_offset 14, -4
 2786 0002 00AF     		add	r7, sp, #0
 2787              	.LCFI123:
 2788              		.cfi_def_cfa_register 7
1535:.\Generated_Source\PSoC4/CyLib.c ****     /***************************************************************************
1536:.\Generated_Source\PSoC4/CyLib.c ****     * Setting the system reset request bit. The vector key value must be written
1537:.\Generated_Source\PSoC4/CyLib.c ****     * to the register, otherwise the register write is unpredictable.
1538:.\Generated_Source\PSoC4/CyLib.c ****     ***************************************************************************/
1539:.\Generated_Source\PSoC4/CyLib.c ****     CY_SYS_CM0_AIRCR_REG = (CY_SYS_CM0_AIRCR_REG & ~CY_SYS_CM0_AIRCR_VECTKEY_MASK) |
 2789              		.loc 1 1539 0
ARM GAS  C:\Users\maxk\AppData\Local\Temp\ccchLIRo.s 			page 77


 2790 0004 044B     		ldr	r3, .L222
 2791 0006 044A     		ldr	r2, .L222
 2792 0008 1268     		ldr	r2, [r2]
 2793 000a 1204     		lsl	r2, r2, #16
 2794 000c 110C     		lsr	r1, r2, #16
 2795 000e 034A     		ldr	r2, .L222+4
 2796 0010 0A43     		orr	r2, r2, r1
 2797 0012 1A60     		str	r2, [r3]
1540:.\Generated_Source\PSoC4/CyLib.c ****                             CY_SYS_CM0_AIRCR_VECTKEY | CY_SYS_CM0_AIRCR_SYSRESETREQ;
1541:.\Generated_Source\PSoC4/CyLib.c **** }
 2798              		.loc 1 1541 0
 2799 0014 BD46     		mov	sp, r7
 2800              		@ sp needed for prologue
 2801 0016 80BD     		pop	{r7, pc}
 2802              	.L223:
 2803              		.align	2
 2804              	.L222:
 2805 0018 0CED00E0 		.word	-536810228
 2806 001c 0400FA05 		.word	100270084
 2807              		.cfi_endproc
 2808              	.LFE44:
 2809              		.size	CySoftwareReset, .-CySoftwareReset
 2810              		.section	.text.CyDelay,"ax",%progbits
 2811              		.align	2
 2812              		.global	CyDelay
 2813              		.code	16
 2814              		.thumb_func
 2815              		.type	CyDelay, %function
 2816              	CyDelay:
 2817              	.LFB45:
1542:.\Generated_Source\PSoC4/CyLib.c **** 
1543:.\Generated_Source\PSoC4/CyLib.c **** 
1544:.\Generated_Source\PSoC4/CyLib.c **** /*******************************************************************************
1545:.\Generated_Source\PSoC4/CyLib.c **** * Function Name: CyDelay
1546:.\Generated_Source\PSoC4/CyLib.c **** ********************************************************************************
1547:.\Generated_Source\PSoC4/CyLib.c **** *
1548:.\Generated_Source\PSoC4/CyLib.c **** * Summary:
1549:.\Generated_Source\PSoC4/CyLib.c **** *  Blocks for milliseconds.
1550:.\Generated_Source\PSoC4/CyLib.c **** *
1551:.\Generated_Source\PSoC4/CyLib.c **** * Parameters:
1552:.\Generated_Source\PSoC4/CyLib.c **** *  milliseconds: number of milliseconds to delay.
1553:.\Generated_Source\PSoC4/CyLib.c **** *
1554:.\Generated_Source\PSoC4/CyLib.c **** * Return:
1555:.\Generated_Source\PSoC4/CyLib.c **** *  None
1556:.\Generated_Source\PSoC4/CyLib.c **** *
1557:.\Generated_Source\PSoC4/CyLib.c **** *******************************************************************************/
1558:.\Generated_Source\PSoC4/CyLib.c **** void CyDelay(uint32 milliseconds)
1559:.\Generated_Source\PSoC4/CyLib.c **** {
 2818              		.loc 1 1559 0
 2819              		.cfi_startproc
 2820 0000 80B5     		push	{r7, lr}
 2821              	.LCFI124:
 2822              		.cfi_def_cfa_offset 8
 2823              		.cfi_offset 7, -8
 2824              		.cfi_offset 14, -4
 2825 0002 82B0     		sub	sp, sp, #8
 2826              	.LCFI125:
ARM GAS  C:\Users\maxk\AppData\Local\Temp\ccchLIRo.s 			page 78


 2827              		.cfi_def_cfa_offset 16
 2828 0004 00AF     		add	r7, sp, #0
 2829              	.LCFI126:
 2830              		.cfi_def_cfa_register 7
 2831 0006 7860     		str	r0, [r7, #4]
1560:.\Generated_Source\PSoC4/CyLib.c ****     while (milliseconds > CY_DELAY_MS_OVERFLOW)
 2832              		.loc 1 1560 0
 2833 0008 08E0     		b	.L225
 2834              	.L226:
1561:.\Generated_Source\PSoC4/CyLib.c ****     {
1562:.\Generated_Source\PSoC4/CyLib.c ****         /* This loop prevents overflow.
1563:.\Generated_Source\PSoC4/CyLib.c ****          * At 100MHz, milliseconds * cydelayFreqKhz overflows at about 42 seconds
1564:.\Generated_Source\PSoC4/CyLib.c ****          */
1565:.\Generated_Source\PSoC4/CyLib.c ****         CyDelayCycles(cydelay32kMs);
 2835              		.loc 1 1565 0
 2836 000a 0C4B     		ldr	r3, .L228
 2837 000c 1B68     		ldr	r3, [r3]
 2838 000e 181C     		mov	r0, r3
 2839 0010 FFF7FEFF 		bl	CyDelayCycles
1566:.\Generated_Source\PSoC4/CyLib.c ****         milliseconds -= CY_DELAY_MS_OVERFLOW;
 2840              		.loc 1 1566 0
 2841 0014 7B68     		ldr	r3, [r7, #4]
 2842 0016 0A4A     		ldr	r2, .L228+4
 2843 0018 9B18     		add	r3, r3, r2
 2844 001a 7B60     		str	r3, [r7, #4]
 2845              	.L225:
 2846              		.loc 1 1560 0
 2847 001c 7A68     		ldr	r2, [r7, #4]
 2848 001e 8023     		mov	r3, #128
 2849 0020 1B02     		lsl	r3, r3, #8
 2850 0022 9A42     		cmp	r2, r3
 2851 0024 F1D8     		bhi	.L226
1567:.\Generated_Source\PSoC4/CyLib.c ****     }
1568:.\Generated_Source\PSoC4/CyLib.c **** 
1569:.\Generated_Source\PSoC4/CyLib.c ****     CyDelayCycles(milliseconds * cydelayFreqKhz);
 2852              		.loc 1 1569 0
 2853 0026 074B     		ldr	r3, .L228+8
 2854 0028 1B68     		ldr	r3, [r3]
 2855 002a 7A68     		ldr	r2, [r7, #4]
 2856 002c 5343     		mul	r3, r2
 2857 002e 181C     		mov	r0, r3
 2858 0030 FFF7FEFF 		bl	CyDelayCycles
1570:.\Generated_Source\PSoC4/CyLib.c **** }
 2859              		.loc 1 1570 0
 2860 0034 BD46     		mov	sp, r7
 2861 0036 02B0     		add	sp, sp, #8
 2862              		@ sp needed for prologue
 2863 0038 80BD     		pop	{r7, pc}
 2864              	.L229:
 2865 003a C046     		.align	2
 2866              	.L228:
 2867 003c 00000000 		.word	cydelay32kMs
 2868 0040 0080FFFF 		.word	-32768
 2869 0044 00000000 		.word	cydelayFreqKhz
 2870              		.cfi_endproc
 2871              	.LFE45:
 2872              		.size	CyDelay, .-CyDelay
ARM GAS  C:\Users\maxk\AppData\Local\Temp\ccchLIRo.s 			page 79


 2873              		.section	.text.CyDelayUs,"ax",%progbits
 2874              		.align	2
 2875              		.global	CyDelayUs
 2876              		.code	16
 2877              		.thumb_func
 2878              		.type	CyDelayUs, %function
 2879              	CyDelayUs:
 2880              	.LFB46:
1571:.\Generated_Source\PSoC4/CyLib.c **** 
1572:.\Generated_Source\PSoC4/CyLib.c **** 
1573:.\Generated_Source\PSoC4/CyLib.c **** /*******************************************************************************
1574:.\Generated_Source\PSoC4/CyLib.c **** * Function Name: CyDelayUs
1575:.\Generated_Source\PSoC4/CyLib.c **** ********************************************************************************
1576:.\Generated_Source\PSoC4/CyLib.c **** * Summary:
1577:.\Generated_Source\PSoC4/CyLib.c **** *  Blocks for microseconds.
1578:.\Generated_Source\PSoC4/CyLib.c **** *
1579:.\Generated_Source\PSoC4/CyLib.c **** * Parameters:
1580:.\Generated_Source\PSoC4/CyLib.c **** *  microseconds: number of microseconds to delay.
1581:.\Generated_Source\PSoC4/CyLib.c **** *
1582:.\Generated_Source\PSoC4/CyLib.c **** * Return:
1583:.\Generated_Source\PSoC4/CyLib.c **** *  None
1584:.\Generated_Source\PSoC4/CyLib.c **** *
1585:.\Generated_Source\PSoC4/CyLib.c **** *******************************************************************************/
1586:.\Generated_Source\PSoC4/CyLib.c **** void CyDelayUs(uint16 microseconds)
1587:.\Generated_Source\PSoC4/CyLib.c **** {
 2881              		.loc 1 1587 0
 2882              		.cfi_startproc
 2883 0000 80B5     		push	{r7, lr}
 2884              	.LCFI127:
 2885              		.cfi_def_cfa_offset 8
 2886              		.cfi_offset 7, -8
 2887              		.cfi_offset 14, -4
 2888 0002 82B0     		sub	sp, sp, #8
 2889              	.LCFI128:
 2890              		.cfi_def_cfa_offset 16
 2891 0004 00AF     		add	r7, sp, #0
 2892              	.LCFI129:
 2893              		.cfi_def_cfa_register 7
 2894 0006 021C     		mov	r2, r0
 2895 0008 BB1D     		add	r3, r7, #6
 2896 000a 1A80     		strh	r2, [r3]
1588:.\Generated_Source\PSoC4/CyLib.c ****     CyDelayCycles((uint32)microseconds * cydelayFreqMhz);
 2897              		.loc 1 1588 0
 2898 000c BB1D     		add	r3, r7, #6
 2899 000e 1B88     		ldrh	r3, [r3]
 2900 0010 044A     		ldr	r2, .L232
 2901 0012 1278     		ldrb	r2, [r2]
 2902 0014 5343     		mul	r3, r2
 2903 0016 181C     		mov	r0, r3
 2904 0018 FFF7FEFF 		bl	CyDelayCycles
1589:.\Generated_Source\PSoC4/CyLib.c **** }
 2905              		.loc 1 1589 0
 2906 001c BD46     		mov	sp, r7
 2907 001e 02B0     		add	sp, sp, #8
 2908              		@ sp needed for prologue
 2909 0020 80BD     		pop	{r7, pc}
 2910              	.L233:
ARM GAS  C:\Users\maxk\AppData\Local\Temp\ccchLIRo.s 			page 80


 2911 0022 C046     		.align	2
 2912              	.L232:
 2913 0024 00000000 		.word	cydelayFreqMhz
 2914              		.cfi_endproc
 2915              	.LFE46:
 2916              		.size	CyDelayUs, .-CyDelayUs
 2917              		.global	__aeabi_uidiv
 2918              		.section	.text.CyDelayFreq,"ax",%progbits
 2919              		.align	2
 2920              		.global	CyDelayFreq
 2921              		.code	16
 2922              		.thumb_func
 2923              		.type	CyDelayFreq, %function
 2924              	CyDelayFreq:
 2925              	.LFB47:
1590:.\Generated_Source\PSoC4/CyLib.c **** 
1591:.\Generated_Source\PSoC4/CyLib.c **** 
1592:.\Generated_Source\PSoC4/CyLib.c **** /*******************************************************************************
1593:.\Generated_Source\PSoC4/CyLib.c **** * Function Name: CyDelayFreq
1594:.\Generated_Source\PSoC4/CyLib.c **** ********************************************************************************
1595:.\Generated_Source\PSoC4/CyLib.c **** * Summary:
1596:.\Generated_Source\PSoC4/CyLib.c **** *  Sets clock frequency for CyDelay.
1597:.\Generated_Source\PSoC4/CyLib.c **** *
1598:.\Generated_Source\PSoC4/CyLib.c **** * Parameters:
1599:.\Generated_Source\PSoC4/CyLib.c **** *  freq: Frequency of bus clock in Hertz.
1600:.\Generated_Source\PSoC4/CyLib.c **** *
1601:.\Generated_Source\PSoC4/CyLib.c **** * Return:
1602:.\Generated_Source\PSoC4/CyLib.c **** *  None
1603:.\Generated_Source\PSoC4/CyLib.c **** *
1604:.\Generated_Source\PSoC4/CyLib.c **** *******************************************************************************/
1605:.\Generated_Source\PSoC4/CyLib.c **** void CyDelayFreq(uint32 freq)
1606:.\Generated_Source\PSoC4/CyLib.c **** {
 2926              		.loc 1 1606 0
 2927              		.cfi_startproc
 2928 0000 80B5     		push	{r7, lr}
 2929              	.LCFI130:
 2930              		.cfi_def_cfa_offset 8
 2931              		.cfi_offset 7, -8
 2932              		.cfi_offset 14, -4
 2933 0002 82B0     		sub	sp, sp, #8
 2934              	.LCFI131:
 2935              		.cfi_def_cfa_offset 16
 2936 0004 00AF     		add	r7, sp, #0
 2937              	.LCFI132:
 2938              		.cfi_def_cfa_register 7
 2939 0006 7860     		str	r0, [r7, #4]
1607:.\Generated_Source\PSoC4/CyLib.c ****     if (freq != 0u)
 2940              		.loc 1 1607 0
 2941 0008 7B68     		ldr	r3, [r7, #4]
 2942 000a 002B     		cmp	r3, #0
 2943 000c 03D0     		beq	.L235
1608:.\Generated_Source\PSoC4/CyLib.c ****     {
1609:.\Generated_Source\PSoC4/CyLib.c ****         cydelayFreqHz = freq;
 2944              		.loc 1 1609 0
 2945 000e 144B     		ldr	r3, .L238
 2946 0010 7A68     		ldr	r2, [r7, #4]
 2947 0012 1A60     		str	r2, [r3]
ARM GAS  C:\Users\maxk\AppData\Local\Temp\ccchLIRo.s 			page 81


 2948 0014 02E0     		b	.L236
 2949              	.L235:
1610:.\Generated_Source\PSoC4/CyLib.c ****     }
1611:.\Generated_Source\PSoC4/CyLib.c ****     else
1612:.\Generated_Source\PSoC4/CyLib.c ****     {
1613:.\Generated_Source\PSoC4/CyLib.c ****         cydelayFreqHz = CYDEV_BCLK__SYSCLK__HZ;
 2950              		.loc 1 1613 0
 2951 0016 124B     		ldr	r3, .L238
 2952 0018 124A     		ldr	r2, .L238+4
 2953 001a 1A60     		str	r2, [r3]
 2954              	.L236:
1614:.\Generated_Source\PSoC4/CyLib.c ****     }
1615:.\Generated_Source\PSoC4/CyLib.c **** 
1616:.\Generated_Source\PSoC4/CyLib.c ****     cydelayFreqMhz = (uint8)((cydelayFreqHz + CY_DELAY_1M_MINUS_1_THRESHOLD) / CY_DELAY_1M_THRESHOL
 2955              		.loc 1 1616 0
 2956 001c 104B     		ldr	r3, .L238
 2957 001e 1B68     		ldr	r3, [r3]
 2958 0020 114A     		ldr	r2, .L238+8
 2959 0022 9B18     		add	r3, r3, r2
 2960 0024 181C     		mov	r0, r3
 2961 0026 1149     		ldr	r1, .L238+12
 2962 0028 FFF7FEFF 		bl	__aeabi_uidiv
 2963 002c 031C     		mov	r3, r0
 2964 002e DAB2     		uxtb	r2, r3
 2965 0030 0F4B     		ldr	r3, .L238+16
 2966 0032 1A70     		strb	r2, [r3]
1617:.\Generated_Source\PSoC4/CyLib.c ****     cydelayFreqKhz = (cydelayFreqHz + CY_DELAY_1K_MINUS_1_THRESHOLD) / CY_DELAY_1K_THRESHOLD;
 2967              		.loc 1 1617 0
 2968 0034 0A4B     		ldr	r3, .L238
 2969 0036 1B68     		ldr	r3, [r3]
 2970 0038 0E4A     		ldr	r2, .L238+20
 2971 003a 9B18     		add	r3, r3, r2
 2972 003c 181C     		mov	r0, r3
 2973 003e FA21     		mov	r1, #250
 2974 0040 8900     		lsl	r1, r1, #2
 2975 0042 FFF7FEFF 		bl	__aeabi_uidiv
 2976 0046 031C     		mov	r3, r0
 2977 0048 1A1C     		mov	r2, r3
 2978 004a 0B4B     		ldr	r3, .L238+24
 2979 004c 1A60     		str	r2, [r3]
1618:.\Generated_Source\PSoC4/CyLib.c ****     cydelay32kMs   = CY_DELAY_MS_OVERFLOW * cydelayFreqKhz;
 2980              		.loc 1 1618 0
 2981 004e 0A4B     		ldr	r3, .L238+24
 2982 0050 1B68     		ldr	r3, [r3]
 2983 0052 DA03     		lsl	r2, r3, #15
 2984 0054 094B     		ldr	r3, .L238+28
 2985 0056 1A60     		str	r2, [r3]
1619:.\Generated_Source\PSoC4/CyLib.c **** }
 2986              		.loc 1 1619 0
 2987 0058 BD46     		mov	sp, r7
 2988 005a 02B0     		add	sp, sp, #8
 2989              		@ sp needed for prologue
 2990 005c 80BD     		pop	{r7, pc}
 2991              	.L239:
 2992 005e C046     		.align	2
 2993              	.L238:
 2994 0060 00000000 		.word	cydelayFreqHz
ARM GAS  C:\Users\maxk\AppData\Local\Temp\ccchLIRo.s 			page 82


 2995 0064 00366E01 		.word	24000000
 2996 0068 3F420F00 		.word	999999
 2997 006c 40420F00 		.word	1000000
 2998 0070 00000000 		.word	cydelayFreqMhz
 2999 0074 E7030000 		.word	999
 3000 0078 00000000 		.word	cydelayFreqKhz
 3001 007c 00000000 		.word	cydelay32kMs
 3002              		.cfi_endproc
 3003              	.LFE47:
 3004              		.size	CyDelayFreq, .-CyDelayFreq
 3005              		.section	.rodata
 3006              		.align	2
 3007              		.type	cyImoFreqMhz2Reg.1845, %object
 3008              		.size	cyImoFreqMhz2Reg.1845, 46
 3009              	cyImoFreqMhz2Reg.1845:
 3010 0000 03       		.byte	3
 3011 0001 04       		.byte	4
 3012 0002 05       		.byte	5
 3013 0003 06       		.byte	6
 3014 0004 07       		.byte	7
 3015 0005 08       		.byte	8
 3016 0006 09       		.byte	9
 3017 0007 0A       		.byte	10
 3018 0008 0B       		.byte	11
 3019 0009 0C       		.byte	12
 3020 000a 0E       		.byte	14
 3021 000b 0F       		.byte	15
 3022 000c 10       		.byte	16
 3023 000d 11       		.byte	17
 3024 000e 12       		.byte	18
 3025 000f 13       		.byte	19
 3026 0010 14       		.byte	20
 3027 0011 15       		.byte	21
 3028 0012 16       		.byte	22
 3029 0013 17       		.byte	23
 3030 0014 18       		.byte	24
 3031 0015 19       		.byte	25
 3032 0016 1B       		.byte	27
 3033 0017 1C       		.byte	28
 3034 0018 1D       		.byte	29
 3035 0019 1E       		.byte	30
 3036 001a 1F       		.byte	31
 3037 001b 20       		.byte	32
 3038 001c 21       		.byte	33
 3039 001d 22       		.byte	34
 3040 001e 23       		.byte	35
 3041 001f 25       		.byte	37
 3042 0020 26       		.byte	38
 3043 0021 27       		.byte	39
 3044 0022 28       		.byte	40
 3045 0023 29       		.byte	41
 3046 0024 2A       		.byte	42
 3047 0025 2B       		.byte	43
 3048 0026 2E       		.byte	46
 3049 0027 2F       		.byte	47
 3050 0028 30       		.byte	48
 3051 0029 31       		.byte	49
ARM GAS  C:\Users\maxk\AppData\Local\Temp\ccchLIRo.s 			page 83


 3052 002a 32       		.byte	50
 3053 002b 33       		.byte	51
 3054 002c 34       		.byte	52
 3055 002d 35       		.byte	53
 3056 002e 0000     		.text
 3057              	.Letext0: