ARM GAS  C:\Users\maxk\AppData\Local\Temp\ccTxu1E5.s 			page 1


   1              		.cpu cortex-m0
   2              		.fpu softvfp
   3              		.eabi_attribute 20, 1
   4              		.eabi_attribute 21, 1
   5              		.eabi_attribute 23, 3
   6              		.eabi_attribute 24, 1
   7              		.eabi_attribute 25, 1
   8              		.eabi_attribute 26, 1
   9              		.eabi_attribute 30, 6
  10              		.eabi_attribute 18, 4
  11              		.code	16
  12              		.file	"Pin_Red.c"
  19 0000 C3000000 		.text
  19      02006000 
  19      00000201 
  19      FB0E0D00 
  19      01010101 
  20              	.Ltext0:
  21              		.cfi_sections	.debug_frame
  22              		.section	.text.Pin_Red_Write,"ax",%progbits
  23              		.align	2
  24              		.global	Pin_Red_Write
  25              		.code	16
  26              		.thumb_func
  27              		.type	Pin_Red_Write, %function
  28              	Pin_Red_Write:
  29              	.LFB0:
  30              		.file 1 ".\\Generated_Source\\PSoC4\\Pin_Red.c"
   1:.\Generated_Source\PSoC4/Pin_Red.c **** /*******************************************************************************
   2:.\Generated_Source\PSoC4/Pin_Red.c **** * File Name: Pin_Red.c  
   3:.\Generated_Source\PSoC4/Pin_Red.c **** * Version 1.90
   4:.\Generated_Source\PSoC4/Pin_Red.c **** *
   5:.\Generated_Source\PSoC4/Pin_Red.c **** * Description:
   6:.\Generated_Source\PSoC4/Pin_Red.c **** *  This file contains API to enable firmware control of a Pins component.
   7:.\Generated_Source\PSoC4/Pin_Red.c **** *
   8:.\Generated_Source\PSoC4/Pin_Red.c **** * Note:
   9:.\Generated_Source\PSoC4/Pin_Red.c **** *
  10:.\Generated_Source\PSoC4/Pin_Red.c **** ********************************************************************************
  11:.\Generated_Source\PSoC4/Pin_Red.c **** * Copyright 2008-2012, Cypress Semiconductor Corporation.  All rights reserved.
  12:.\Generated_Source\PSoC4/Pin_Red.c **** * You may use this file only in accordance with the license, terms, conditions, 
  13:.\Generated_Source\PSoC4/Pin_Red.c **** * disclaimers, and limitations in the end user license agreement accompanying 
  14:.\Generated_Source\PSoC4/Pin_Red.c **** * the software package with which this file was provided.
  15:.\Generated_Source\PSoC4/Pin_Red.c **** *******************************************************************************/
  16:.\Generated_Source\PSoC4/Pin_Red.c **** 
  17:.\Generated_Source\PSoC4/Pin_Red.c **** #include "cytypes.h"
  18:.\Generated_Source\PSoC4/Pin_Red.c **** #include "Pin_Red.h"
  19:.\Generated_Source\PSoC4/Pin_Red.c **** 
  20:.\Generated_Source\PSoC4/Pin_Red.c **** #define SetP4PinDriveMode(shift, mode)  \
  21:.\Generated_Source\PSoC4/Pin_Red.c ****     do { \
  22:.\Generated_Source\PSoC4/Pin_Red.c ****         Pin_Red_PC =   (Pin_Red_PC & \
  23:.\Generated_Source\PSoC4/Pin_Red.c ****                                 (uint32)(~(uint32)(Pin_Red_DRIVE_MODE_IND_MASK << (Pin_Red_DRIVE_MO
ARM GAS  C:\Users\maxk\AppData\Local\Temp\ccTxu1E5.s 			page 2


  24:.\Generated_Source\PSoC4/Pin_Red.c ****                                 (uint32)((uint32)(mode) << (Pin_Red_DRIVE_MODE_BITS * (shift))); \
  25:.\Generated_Source\PSoC4/Pin_Red.c ****     } while (0)
  26:.\Generated_Source\PSoC4/Pin_Red.c **** 
  27:.\Generated_Source\PSoC4/Pin_Red.c **** 
  28:.\Generated_Source\PSoC4/Pin_Red.c **** /*******************************************************************************
  29:.\Generated_Source\PSoC4/Pin_Red.c **** * Function Name: Pin_Red_Write
  30:.\Generated_Source\PSoC4/Pin_Red.c **** ********************************************************************************
  31:.\Generated_Source\PSoC4/Pin_Red.c **** *
  32:.\Generated_Source\PSoC4/Pin_Red.c **** * Summary:
  33:.\Generated_Source\PSoC4/Pin_Red.c **** *  Assign a new value to the digital port's data output register.  
  34:.\Generated_Source\PSoC4/Pin_Red.c **** *
  35:.\Generated_Source\PSoC4/Pin_Red.c **** * Parameters:  
  36:.\Generated_Source\PSoC4/Pin_Red.c **** *  prtValue:  The value to be assigned to the Digital Port. 
  37:.\Generated_Source\PSoC4/Pin_Red.c **** *
  38:.\Generated_Source\PSoC4/Pin_Red.c **** * Return: 
  39:.\Generated_Source\PSoC4/Pin_Red.c **** *  None 
  40:.\Generated_Source\PSoC4/Pin_Red.c **** *  
  41:.\Generated_Source\PSoC4/Pin_Red.c **** *******************************************************************************/
  42:.\Generated_Source\PSoC4/Pin_Red.c **** void Pin_Red_Write(uint8 value) 
  43:.\Generated_Source\PSoC4/Pin_Red.c **** {
  31              		.loc 1 43 0
  32              		.cfi_startproc
  33 0000 80B5     		push	{r7, lr}
  34              	.LCFI0:
  35              		.cfi_def_cfa_offset 8
  36              		.cfi_offset 7, -8
  37              		.cfi_offset 14, -4
  38 0002 84B0     		sub	sp, sp, #16
  39              	.LCFI1:
  40              		.cfi_def_cfa_offset 24
  41 0004 00AF     		add	r7, sp, #0
  42              	.LCFI2:
  43              		.cfi_def_cfa_register 7
  44 0006 021C     		mov	r2, r0
  45 0008 FB1D     		add	r3, r7, #7
  46 000a 1A70     		strb	r2, [r3]
  44:.\Generated_Source\PSoC4/Pin_Red.c ****     uint8 drVal = (uint8)(Pin_Red_DR & (uint8)(~Pin_Red_MASK));
  47              		.loc 1 44 0
  48 000c 0E4B     		ldr	r3, .L3
  49 000e 1B68     		ldr	r3, [r3]
  50 0010 DAB2     		uxtb	r2, r3
  51 0012 3B1C     		mov	r3, r7
  52 0014 0F33     		add	r3, r3, #15
  53 0016 4021     		mov	r1, #64
  54 0018 8A43     		bic	r2, r2, r1
  55 001a 1A70     		strb	r2, [r3]
  45:.\Generated_Source\PSoC4/Pin_Red.c ****     drVal = (drVal | ((uint8)(value << Pin_Red_SHIFT) & Pin_Red_MASK));
  56              		.loc 1 45 0
  57 001c FB1D     		add	r3, r7, #7
  58 001e 1B78     		ldrb	r3, [r3]
  59 0020 9B01     		lsl	r3, r3, #6
  60 0022 DBB2     		uxtb	r3, r3
  61 0024 4022     		mov	r2, #64
  62 0026 1340     		and	r3, r3, r2
  63 0028 3A1C     		mov	r2, r7
  64 002a 0F32     		add	r2, r2, #15
  65 002c 391C     		mov	r1, r7
ARM GAS  C:\Users\maxk\AppData\Local\Temp\ccTxu1E5.s 			page 3


  66 002e 0F31     		add	r1, r1, #15
  67 0030 0978     		ldrb	r1, [r1]
  68 0032 0B43     		orr	r3, r3, r1
  69 0034 1370     		strb	r3, [r2]
  46:.\Generated_Source\PSoC4/Pin_Red.c ****     Pin_Red_DR = (uint32)drVal;
  70              		.loc 1 46 0
  71 0036 044B     		ldr	r3, .L3
  72 0038 3A1C     		mov	r2, r7
  73 003a 0F32     		add	r2, r2, #15
  74 003c 1278     		ldrb	r2, [r2]
  75 003e 1A60     		str	r2, [r3]
  47:.\Generated_Source\PSoC4/Pin_Red.c **** }
  76              		.loc 1 47 0
  77 0040 BD46     		mov	sp, r7
  78 0042 04B0     		add	sp, sp, #16
  79              		@ sp needed for prologue
  80 0044 80BD     		pop	{r7, pc}
  81              	.L4:
  82 0046 C046     		.align	2
  83              	.L3:
  84 0048 00010440 		.word	1074004224
  85              		.cfi_endproc
  86              	.LFE0:
  87              		.size	Pin_Red_Write, .-Pin_Red_Write
  88              		.section	.text.Pin_Red_SetDriveMode,"ax",%progbits
  89              		.align	2
  90              		.global	Pin_Red_SetDriveMode
  91              		.code	16
  92              		.thumb_func
  93              		.type	Pin_Red_SetDriveMode, %function
  94              	Pin_Red_SetDriveMode:
  95              	.LFB1:
  48:.\Generated_Source\PSoC4/Pin_Red.c **** 
  49:.\Generated_Source\PSoC4/Pin_Red.c **** 
  50:.\Generated_Source\PSoC4/Pin_Red.c **** /*******************************************************************************
  51:.\Generated_Source\PSoC4/Pin_Red.c **** * Function Name: Pin_Red_SetDriveMode
  52:.\Generated_Source\PSoC4/Pin_Red.c **** ********************************************************************************
  53:.\Generated_Source\PSoC4/Pin_Red.c **** *
  54:.\Generated_Source\PSoC4/Pin_Red.c **** * Summary:
  55:.\Generated_Source\PSoC4/Pin_Red.c **** *  Change the drive mode on the pins of the port.
  56:.\Generated_Source\PSoC4/Pin_Red.c **** * 
  57:.\Generated_Source\PSoC4/Pin_Red.c **** * Parameters:  
  58:.\Generated_Source\PSoC4/Pin_Red.c **** *  mode:  Change the pins to this drive mode.
  59:.\Generated_Source\PSoC4/Pin_Red.c **** *
  60:.\Generated_Source\PSoC4/Pin_Red.c **** * Return: 
  61:.\Generated_Source\PSoC4/Pin_Red.c **** *  None
  62:.\Generated_Source\PSoC4/Pin_Red.c **** *
  63:.\Generated_Source\PSoC4/Pin_Red.c **** *******************************************************************************/
  64:.\Generated_Source\PSoC4/Pin_Red.c **** void Pin_Red_SetDriveMode(uint8 mode) 
  65:.\Generated_Source\PSoC4/Pin_Red.c **** {
  96              		.loc 1 65 0
  97              		.cfi_startproc
  98 0000 80B5     		push	{r7, lr}
  99              	.LCFI3:
 100              		.cfi_def_cfa_offset 8
 101              		.cfi_offset 7, -8
 102              		.cfi_offset 14, -4
ARM GAS  C:\Users\maxk\AppData\Local\Temp\ccTxu1E5.s 			page 4


 103 0002 82B0     		sub	sp, sp, #8
 104              	.LCFI4:
 105              		.cfi_def_cfa_offset 16
 106 0004 00AF     		add	r7, sp, #0
 107              	.LCFI5:
 108              		.cfi_def_cfa_register 7
 109 0006 021C     		mov	r2, r0
 110 0008 FB1D     		add	r3, r7, #7
 111 000a 1A70     		strb	r2, [r3]
  66:.\Generated_Source\PSoC4/Pin_Red.c **** 	SetP4PinDriveMode(Pin_Red__0__SHIFT, mode);
 112              		.loc 1 66 0
 113 000c 064B     		ldr	r3, .L7
 114 000e 064A     		ldr	r2, .L7
 115 0010 1168     		ldr	r1, [r2]
 116 0012 064A     		ldr	r2, .L7+4
 117 0014 1140     		and	r1, r1, r2
 118 0016 FA1D     		add	r2, r7, #7
 119 0018 1278     		ldrb	r2, [r2]
 120 001a 9204     		lsl	r2, r2, #18
 121 001c 0A43     		orr	r2, r2, r1
 122 001e 1A60     		str	r2, [r3]
  67:.\Generated_Source\PSoC4/Pin_Red.c **** }
 123              		.loc 1 67 0
 124 0020 BD46     		mov	sp, r7
 125 0022 02B0     		add	sp, sp, #8
 126              		@ sp needed for prologue
 127 0024 80BD     		pop	{r7, pc}
 128              	.L8:
 129 0026 C046     		.align	2
 130              	.L7:
 131 0028 08010440 		.word	1074004232
 132 002c FFFFE3FF 		.word	-1835009
 133              		.cfi_endproc
 134              	.LFE1:
 135              		.size	Pin_Red_SetDriveMode, .-Pin_Red_SetDriveMode
 136              		.section	.text.Pin_Red_Read,"ax",%progbits
 137              		.align	2
 138              		.global	Pin_Red_Read
 139              		.code	16
 140              		.thumb_func
 141              		.type	Pin_Red_Read, %function
 142              	Pin_Red_Read:
 143              	.LFB2:
  68:.\Generated_Source\PSoC4/Pin_Red.c **** 
  69:.\Generated_Source\PSoC4/Pin_Red.c **** 
  70:.\Generated_Source\PSoC4/Pin_Red.c **** /*******************************************************************************
  71:.\Generated_Source\PSoC4/Pin_Red.c **** * Function Name: Pin_Red_Read
  72:.\Generated_Source\PSoC4/Pin_Red.c **** ********************************************************************************
  73:.\Generated_Source\PSoC4/Pin_Red.c **** *
  74:.\Generated_Source\PSoC4/Pin_Red.c **** * Summary:
  75:.\Generated_Source\PSoC4/Pin_Red.c **** *  Read the current value on the pins of the Digital Port in right justified 
  76:.\Generated_Source\PSoC4/Pin_Red.c **** *  form.
  77:.\Generated_Source\PSoC4/Pin_Red.c **** *
  78:.\Generated_Source\PSoC4/Pin_Red.c **** * Parameters:  
  79:.\Generated_Source\PSoC4/Pin_Red.c **** *  None 
  80:.\Generated_Source\PSoC4/Pin_Red.c **** *
  81:.\Generated_Source\PSoC4/Pin_Red.c **** * Return: 
ARM GAS  C:\Users\maxk\AppData\Local\Temp\ccTxu1E5.s 			page 5


  82:.\Generated_Source\PSoC4/Pin_Red.c **** *  Returns the current value of the Digital Port as a right justified number
  83:.\Generated_Source\PSoC4/Pin_Red.c **** *  
  84:.\Generated_Source\PSoC4/Pin_Red.c **** * Note:
  85:.\Generated_Source\PSoC4/Pin_Red.c **** *  Macro Pin_Red_ReadPS calls this function. 
  86:.\Generated_Source\PSoC4/Pin_Red.c **** *  
  87:.\Generated_Source\PSoC4/Pin_Red.c **** *******************************************************************************/
  88:.\Generated_Source\PSoC4/Pin_Red.c **** uint8 Pin_Red_Read(void) 
  89:.\Generated_Source\PSoC4/Pin_Red.c **** {
 144              		.loc 1 89 0
 145              		.cfi_startproc
 146 0000 80B5     		push	{r7, lr}
 147              	.LCFI6:
 148              		.cfi_def_cfa_offset 8
 149              		.cfi_offset 7, -8
 150              		.cfi_offset 14, -4
 151 0002 00AF     		add	r7, sp, #0
 152              	.LCFI7:
 153              		.cfi_def_cfa_register 7
  90:.\Generated_Source\PSoC4/Pin_Red.c ****     return (uint8)((Pin_Red_PS & Pin_Red_MASK) >> Pin_Red_SHIFT);
 154              		.loc 1 90 0
 155 0004 044B     		ldr	r3, .L11
 156 0006 1A68     		ldr	r2, [r3]
 157 0008 4023     		mov	r3, #64
 158 000a 1340     		and	r3, r3, r2
 159 000c 9B09     		lsr	r3, r3, #6
 160 000e DBB2     		uxtb	r3, r3
  91:.\Generated_Source\PSoC4/Pin_Red.c **** }
 161              		.loc 1 91 0
 162 0010 181C     		mov	r0, r3
 163 0012 BD46     		mov	sp, r7
 164              		@ sp needed for prologue
 165 0014 80BD     		pop	{r7, pc}
 166              	.L12:
 167 0016 C046     		.align	2
 168              	.L11:
 169 0018 04010440 		.word	1074004228
 170              		.cfi_endproc
 171              	.LFE2:
 172              		.size	Pin_Red_Read, .-Pin_Red_Read
 173              		.section	.text.Pin_Red_ReadDataReg,"ax",%progbits
 174              		.align	2
 175              		.global	Pin_Red_ReadDataReg
 176              		.code	16
 177              		.thumb_func
 178              		.type	Pin_Red_ReadDataReg, %function
 179              	Pin_Red_ReadDataReg:
 180              	.LFB3:
  92:.\Generated_Source\PSoC4/Pin_Red.c **** 
  93:.\Generated_Source\PSoC4/Pin_Red.c **** 
  94:.\Generated_Source\PSoC4/Pin_Red.c **** /*******************************************************************************
  95:.\Generated_Source\PSoC4/Pin_Red.c **** * Function Name: Pin_Red_ReadDataReg
  96:.\Generated_Source\PSoC4/Pin_Red.c **** ********************************************************************************
  97:.\Generated_Source\PSoC4/Pin_Red.c **** *
  98:.\Generated_Source\PSoC4/Pin_Red.c **** * Summary:
  99:.\Generated_Source\PSoC4/Pin_Red.c **** *  Read the current value assigned to a Digital Port's data output register
 100:.\Generated_Source\PSoC4/Pin_Red.c **** *
 101:.\Generated_Source\PSoC4/Pin_Red.c **** * Parameters:  
ARM GAS  C:\Users\maxk\AppData\Local\Temp\ccTxu1E5.s 			page 6


 102:.\Generated_Source\PSoC4/Pin_Red.c **** *  None 
 103:.\Generated_Source\PSoC4/Pin_Red.c **** *
 104:.\Generated_Source\PSoC4/Pin_Red.c **** * Return: 
 105:.\Generated_Source\PSoC4/Pin_Red.c **** *  Returns the current value assigned to the Digital Port's data output register
 106:.\Generated_Source\PSoC4/Pin_Red.c **** *  
 107:.\Generated_Source\PSoC4/Pin_Red.c **** *******************************************************************************/
 108:.\Generated_Source\PSoC4/Pin_Red.c **** uint8 Pin_Red_ReadDataReg(void) 
 109:.\Generated_Source\PSoC4/Pin_Red.c **** {
 181              		.loc 1 109 0
 182              		.cfi_startproc
 183 0000 80B5     		push	{r7, lr}
 184              	.LCFI8:
 185              		.cfi_def_cfa_offset 8
 186              		.cfi_offset 7, -8
 187              		.cfi_offset 14, -4
 188 0002 00AF     		add	r7, sp, #0
 189              	.LCFI9:
 190              		.cfi_def_cfa_register 7
 110:.\Generated_Source\PSoC4/Pin_Red.c ****     return (uint8)((Pin_Red_DR & Pin_Red_MASK) >> Pin_Red_SHIFT);
 191              		.loc 1 110 0
 192 0004 044B     		ldr	r3, .L15
 193 0006 1A68     		ldr	r2, [r3]
 194 0008 4023     		mov	r3, #64
 195 000a 1340     		and	r3, r3, r2
 196 000c 9B09     		lsr	r3, r3, #6
 197 000e DBB2     		uxtb	r3, r3
 111:.\Generated_Source\PSoC4/Pin_Red.c **** }
 198              		.loc 1 111 0
 199 0010 181C     		mov	r0, r3
 200 0012 BD46     		mov	sp, r7
 201              		@ sp needed for prologue
 202 0014 80BD     		pop	{r7, pc}
 203              	.L16:
 204 0016 C046     		.align	2
 205              	.L15:
 206 0018 00010440 		.word	1074004224
 207              		.cfi_endproc
 208              	.LFE3:
 209              		.size	Pin_Red_ReadDataReg, .-Pin_Red_ReadDataReg
 210              		.section	.text.Pin_Red_ClearInterrupt,"ax",%progbits
 211              		.align	2
 212              		.global	Pin_Red_ClearInterrupt
 213              		.code	16
 214              		.thumb_func
 215              		.type	Pin_Red_ClearInterrupt, %function
 216              	Pin_Red_ClearInterrupt:
 217              	.LFB4:
 112:.\Generated_Source\PSoC4/Pin_Red.c **** 
 113:.\Generated_Source\PSoC4/Pin_Red.c **** 
 114:.\Generated_Source\PSoC4/Pin_Red.c **** /* If Interrupts Are Enabled for this Pins component */ 
 115:.\Generated_Source\PSoC4/Pin_Red.c **** #if defined(Pin_Red_INTSTAT) 
 116:.\Generated_Source\PSoC4/Pin_Red.c **** 
 117:.\Generated_Source\PSoC4/Pin_Red.c ****     /*******************************************************************************
 118:.\Generated_Source\PSoC4/Pin_Red.c ****     * Function Name: Pin_Red_ClearInterrupt
 119:.\Generated_Source\PSoC4/Pin_Red.c ****     ********************************************************************************
 120:.\Generated_Source\PSoC4/Pin_Red.c ****     *
 121:.\Generated_Source\PSoC4/Pin_Red.c ****     * Summary:
ARM GAS  C:\Users\maxk\AppData\Local\Temp\ccTxu1E5.s 			page 7


 122:.\Generated_Source\PSoC4/Pin_Red.c ****     *  Clears any active interrupts attached to port and returns the value of the 
 123:.\Generated_Source\PSoC4/Pin_Red.c ****     *  interrupt status register.
 124:.\Generated_Source\PSoC4/Pin_Red.c ****     *
 125:.\Generated_Source\PSoC4/Pin_Red.c ****     * Parameters:  
 126:.\Generated_Source\PSoC4/Pin_Red.c ****     *  None 
 127:.\Generated_Source\PSoC4/Pin_Red.c ****     *
 128:.\Generated_Source\PSoC4/Pin_Red.c ****     * Return: 
 129:.\Generated_Source\PSoC4/Pin_Red.c ****     *  Returns the value of the interrupt status register
 130:.\Generated_Source\PSoC4/Pin_Red.c ****     *  
 131:.\Generated_Source\PSoC4/Pin_Red.c ****     *******************************************************************************/
 132:.\Generated_Source\PSoC4/Pin_Red.c ****     uint8 Pin_Red_ClearInterrupt(void) 
 133:.\Generated_Source\PSoC4/Pin_Red.c ****     {
 218              		.loc 1 133 0
 219              		.cfi_startproc
 220 0000 80B5     		push	{r7, lr}
 221              	.LCFI10:
 222              		.cfi_def_cfa_offset 8
 223              		.cfi_offset 7, -8
 224              		.cfi_offset 14, -4
 225 0002 82B0     		sub	sp, sp, #8
 226              	.LCFI11:
 227              		.cfi_def_cfa_offset 16
 228 0004 00AF     		add	r7, sp, #0
 229              	.LCFI12:
 230              		.cfi_def_cfa_register 7
 134:.\Generated_Source\PSoC4/Pin_Red.c **** 		uint8 maskedStatus = (uint8)(Pin_Red_INTSTAT & Pin_Red_MASK);
 231              		.loc 1 134 0
 232 0006 094B     		ldr	r3, .L19
 233 0008 1B68     		ldr	r3, [r3]
 234 000a D9B2     		uxtb	r1, r3
 235 000c FB1D     		add	r3, r7, #7
 236 000e 4022     		mov	r2, #64
 237 0010 0A40     		and	r2, r2, r1
 238 0012 1A70     		strb	r2, [r3]
 135:.\Generated_Source\PSoC4/Pin_Red.c **** 		Pin_Red_INTSTAT = maskedStatus;
 239              		.loc 1 135 0
 240 0014 054B     		ldr	r3, .L19
 241 0016 FA1D     		add	r2, r7, #7
 242 0018 1278     		ldrb	r2, [r2]
 243 001a 1A60     		str	r2, [r3]
 136:.\Generated_Source\PSoC4/Pin_Red.c ****         return maskedStatus >> Pin_Red_SHIFT;
 244              		.loc 1 136 0
 245 001c FB1D     		add	r3, r7, #7
 246 001e 1B78     		ldrb	r3, [r3]
 247 0020 9B09     		lsr	r3, r3, #6
 248 0022 DBB2     		uxtb	r3, r3
 137:.\Generated_Source\PSoC4/Pin_Red.c ****     }
 249              		.loc 1 137 0
 250 0024 181C     		mov	r0, r3
 251 0026 BD46     		mov	sp, r7
 252 0028 02B0     		add	sp, sp, #8
 253              		@ sp needed for prologue
 254 002a 80BD     		pop	{r7, pc}
 255              	.L20:
 256              		.align	2
 257              	.L19:
 258 002c 10010440 		.word	1074004240
ARM GAS  C:\Users\maxk\AppData\Local\Temp\ccTxu1E5.s 			page 8


 259              		.cfi_endproc
 260              	.LFE4:
 261              		.size	Pin_Red_ClearInterrupt, .-Pin_Red_ClearInterrupt
 262              		.text
 263              	.Letext0: