ARM GAS  C:\Users\GLENNL~1\AppData\Local\Temp\ccZ2zzZc.s 			page 1


   1              		.cpu cortex-m0
   2              		.fpu softvfp
   3              		.eabi_attribute 20, 1
   4              		.eabi_attribute 21, 1
   5              		.eabi_attribute 23, 3
   6              		.eabi_attribute 24, 1
   7              		.eabi_attribute 25, 1
   8              		.eabi_attribute 26, 1
   9              		.eabi_attribute 30, 6
  10              		.eabi_attribute 34, 0
  11              		.eabi_attribute 18, 4
  12              		.code	16
  13              		.file	"cyPm.c"
  14              		.text
  15              	.Ltext0:
  16              		.cfi_sections	.debug_frame
  17              		.section	.text.CySysPmSleep,"ax",%progbits
  18              		.align	2
  19              		.global	CySysPmSleep
  20              		.code	16
  21              		.thumb_func
  22              		.type	CySysPmSleep, %function
  23              	CySysPmSleep:
  24              	.LFB0:
  25              		.file 1 ".\\Generated_Source\\PSoC4\\cyPm.c"
   1:.\Generated_Source\PSoC4/cyPm.c **** /*******************************************************************************
   2:.\Generated_Source\PSoC4/cyPm.c **** * File Name: cyPm.c
   3:.\Generated_Source\PSoC4/cyPm.c **** * Version 4.11
   4:.\Generated_Source\PSoC4/cyPm.c **** *
   5:.\Generated_Source\PSoC4/cyPm.c **** *  Description:
   6:.\Generated_Source\PSoC4/cyPm.c **** *   Provides an API for the power management.
   7:.\Generated_Source\PSoC4/cyPm.c **** *
   8:.\Generated_Source\PSoC4/cyPm.c **** *  Note:
   9:.\Generated_Source\PSoC4/cyPm.c **** *   Documentation of the API's in this file is located in the
  10:.\Generated_Source\PSoC4/cyPm.c **** *   System Reference Guide provided with PSoC Creator.
  11:.\Generated_Source\PSoC4/cyPm.c **** *
  12:.\Generated_Source\PSoC4/cyPm.c **** ********************************************************************************
  13:.\Generated_Source\PSoC4/cyPm.c **** * Copyright 2011-2014, Cypress Semiconductor Corporation.  All rights reserved.
  14:.\Generated_Source\PSoC4/cyPm.c **** * You may use this file only in accordance with the license, terms, conditions,
  15:.\Generated_Source\PSoC4/cyPm.c **** * disclaimers, and limitations in the end user license agreement accompanying
  16:.\Generated_Source\PSoC4/cyPm.c **** * the software package with which this file was provided.
  17:.\Generated_Source\PSoC4/cyPm.c **** *******************************************************************************/
  18:.\Generated_Source\PSoC4/cyPm.c **** 
  19:.\Generated_Source\PSoC4/cyPm.c **** #include "cyPm.h"
  20:.\Generated_Source\PSoC4/cyPm.c **** #include "CyLib.h"
  21:.\Generated_Source\PSoC4/cyPm.c **** 
  22:.\Generated_Source\PSoC4/cyPm.c **** 
  23:.\Generated_Source\PSoC4/cyPm.c **** /*******************************************************************************
  24:.\Generated_Source\PSoC4/cyPm.c **** * Function Name: CySysPmSleep
  25:.\Generated_Source\PSoC4/cyPm.c **** ********************************************************************************
  26:.\Generated_Source\PSoC4/cyPm.c **** *
  27:.\Generated_Source\PSoC4/cyPm.c **** * Summary:
  28:.\Generated_Source\PSoC4/cyPm.c **** *  Puts the part into the Sleep state. This is a CPU-centric power mode.
  29:.\Generated_Source\PSoC4/cyPm.c **** *  It means that the CPU has indicated that it is in the sleep mode and
  30:.\Generated_Source\PSoC4/cyPm.c **** *  its main clock can be removed. It is identical to Active from a peripheral
  31:.\Generated_Source\PSoC4/cyPm.c **** *  point of view. Any enabled interrupts can cause wakeup from the  Sleep mode.
  32:.\Generated_Source\PSoC4/cyPm.c **** *
ARM GAS  C:\Users\GLENNL~1\AppData\Local\Temp\ccZ2zzZc.s 			page 2


  33:.\Generated_Source\PSoC4/cyPm.c **** * Parameters:
  34:.\Generated_Source\PSoC4/cyPm.c **** *  None
  35:.\Generated_Source\PSoC4/cyPm.c **** *
  36:.\Generated_Source\PSoC4/cyPm.c **** * Return:
  37:.\Generated_Source\PSoC4/cyPm.c **** *  None
  38:.\Generated_Source\PSoC4/cyPm.c **** *
  39:.\Generated_Source\PSoC4/cyPm.c **** *******************************************************************************/
  40:.\Generated_Source\PSoC4/cyPm.c **** void CySysPmSleep(void)
  41:.\Generated_Source\PSoC4/cyPm.c **** {
  26              		.loc 1 41 0
  27              		.cfi_startproc
  28 0000 90B5     		push	{r4, r7, lr}
  29              	.LCFI0:
  30              		.cfi_def_cfa_offset 12
  31              		.cfi_offset 4, -12
  32              		.cfi_offset 7, -8
  33              		.cfi_offset 14, -4
  34 0002 83B0     		sub	sp, sp, #12
  35              	.LCFI1:
  36              		.cfi_def_cfa_offset 24
  37 0004 00AF     		add	r7, sp, #0
  38              	.LCFI2:
  39              		.cfi_def_cfa_register 7
  42:.\Generated_Source\PSoC4/cyPm.c ****     uint8 interruptState;
  43:.\Generated_Source\PSoC4/cyPm.c **** 
  44:.\Generated_Source\PSoC4/cyPm.c ****     interruptState = CyEnterCriticalSection();
  40              		.loc 1 44 0
  41 0006 FC1D     		add	r4, r7, #7
  42 0008 FFF7FEFF 		bl	CyEnterCriticalSection
  43 000c 031C     		mov	r3, r0
  44 000e 2370     		strb	r3, [r4]
  45:.\Generated_Source\PSoC4/cyPm.c **** 
  46:.\Generated_Source\PSoC4/cyPm.c ****     /* CM0 enters Sleep mode upon execution of WFI */
  47:.\Generated_Source\PSoC4/cyPm.c ****     CY_PM_CM0_SCR_REG &= (uint32) (~CY_PM_CM0_SCR_SLEEPDEEP);
  45              		.loc 1 47 0
  46 0010 074B     		ldr	r3, .L2
  47 0012 074A     		ldr	r2, .L2
  48 0014 1268     		ldr	r2, [r2]
  49 0016 0421     		mov	r1, #4
  50 0018 8A43     		bic	r2, r1
  51 001a 1A60     		str	r2, [r3]
  48:.\Generated_Source\PSoC4/cyPm.c **** 
  49:.\Generated_Source\PSoC4/cyPm.c ****     /* Sleep and wait for interrupt */
  50:.\Generated_Source\PSoC4/cyPm.c ****     CY_PM_WFI;
  52              		.loc 1 50 0
  53              	@ 50 ".\Generated_Source\PSoC4\cyPm.c" 1
  54 001c 30BF     		WFI 
  55              	
  56              	@ 0 "" 2
  51:.\Generated_Source\PSoC4/cyPm.c **** 
  52:.\Generated_Source\PSoC4/cyPm.c ****     CyExitCriticalSection(interruptState);
  57              		.loc 1 52 0
  58              		.code	16
  59 001e FB1D     		add	r3, r7, #7
  60 0020 1B78     		ldrb	r3, [r3]
  61 0022 181C     		mov	r0, r3
  62 0024 FFF7FEFF 		bl	CyExitCriticalSection
ARM GAS  C:\Users\GLENNL~1\AppData\Local\Temp\ccZ2zzZc.s 			page 3


  53:.\Generated_Source\PSoC4/cyPm.c **** }
  63              		.loc 1 53 0
  64 0028 BD46     		mov	sp, r7
  65 002a 03B0     		add	sp, sp, #12
  66              		@ sp needed for prologue
  67 002c 90BD     		pop	{r4, r7, pc}
  68              	.L3:
  69 002e C046     		.align	2
  70              	.L2:
  71 0030 10ED00E0 		.word	-536810224
  72              		.cfi_endproc
  73              	.LFE0:
  74              		.size	CySysPmSleep, .-CySysPmSleep
  75              		.section	.text.CySysPmDeepSleep,"ax",%progbits
  76              		.align	2
  77              		.global	CySysPmDeepSleep
  78              		.code	16
  79              		.thumb_func
  80              		.type	CySysPmDeepSleep, %function
  81              	CySysPmDeepSleep:
  82              	.LFB1:
  54:.\Generated_Source\PSoC4/cyPm.c **** 
  55:.\Generated_Source\PSoC4/cyPm.c **** 
  56:.\Generated_Source\PSoC4/cyPm.c **** /*******************************************************************************
  57:.\Generated_Source\PSoC4/cyPm.c **** * Function Name: CySysPmDeepSleep
  58:.\Generated_Source\PSoC4/cyPm.c **** ********************************************************************************
  59:.\Generated_Source\PSoC4/cyPm.c **** *
  60:.\Generated_Source\PSoC4/cyPm.c **** * Summary:
  61:.\Generated_Source\PSoC4/cyPm.c **** *  Puts the part into the Deep Sleep state. If the firmware attempts to enter
  62:.\Generated_Source\PSoC4/cyPm.c **** *  this mode before the system is ready (that is, when
  63:.\Generated_Source\PSoC4/cyPm.c **** *  PWR_CONTROL.LPM_READY = 0), then the device will go into the Sleep mode
  64:.\Generated_Source\PSoC4/cyPm.c **** *  instead and automatically enter the originally intended mode when the
  65:.\Generated_Source\PSoC4/cyPm.c **** *  holdoff expires.
  66:.\Generated_Source\PSoC4/cyPm.c **** *
  67:.\Generated_Source\PSoC4/cyPm.c **** *  The wakeup occurs when an interrupt is received from a DeepSleep or
  68:.\Generated_Source\PSoC4/cyPm.c **** *  Hibernate peripheral. For more details, see a corresponding
  69:.\Generated_Source\PSoC4/cyPm.c **** *  peripheral's datasheet.
  70:.\Generated_Source\PSoC4/cyPm.c **** *
  71:.\Generated_Source\PSoC4/cyPm.c **** * Parameters:
  72:.\Generated_Source\PSoC4/cyPm.c **** *  None
  73:.\Generated_Source\PSoC4/cyPm.c **** *
  74:.\Generated_Source\PSoC4/cyPm.c **** * Return:
  75:.\Generated_Source\PSoC4/cyPm.c **** *  None
  76:.\Generated_Source\PSoC4/cyPm.c **** *
  77:.\Generated_Source\PSoC4/cyPm.c **** *******************************************************************************/
  78:.\Generated_Source\PSoC4/cyPm.c **** void CySysPmDeepSleep(void)
  79:.\Generated_Source\PSoC4/cyPm.c **** {
  83              		.loc 1 79 0
  84              		.cfi_startproc
  85 0000 90B5     		push	{r4, r7, lr}
  86              	.LCFI3:
  87              		.cfi_def_cfa_offset 12
  88              		.cfi_offset 4, -12
  89              		.cfi_offset 7, -8
  90              		.cfi_offset 14, -4
  91 0002 83B0     		sub	sp, sp, #12
  92              	.LCFI4:
ARM GAS  C:\Users\GLENNL~1\AppData\Local\Temp\ccZ2zzZc.s 			page 4


  93              		.cfi_def_cfa_offset 24
  94 0004 00AF     		add	r7, sp, #0
  95              	.LCFI5:
  96              		.cfi_def_cfa_register 7
  80:.\Generated_Source\PSoC4/cyPm.c ****     uint8 interruptState;
  81:.\Generated_Source\PSoC4/cyPm.c ****     #if(CY_PSOC4A)
  82:.\Generated_Source\PSoC4/cyPm.c ****         volatile uint32 clkSelectReg;
  83:.\Generated_Source\PSoC4/cyPm.c ****     #endif /* (CY_PSOC4A) */
  84:.\Generated_Source\PSoC4/cyPm.c **** 
  85:.\Generated_Source\PSoC4/cyPm.c ****     interruptState = CyEnterCriticalSection();
  97              		.loc 1 85 0
  98 0006 FC1D     		add	r4, r7, #7
  99 0008 FFF7FEFF 		bl	CyEnterCriticalSection
 100 000c 031C     		mov	r3, r0
 101 000e 2370     		strb	r3, [r4]
  86:.\Generated_Source\PSoC4/cyPm.c **** 
  87:.\Generated_Source\PSoC4/cyPm.c ****     #if(CY_PSOC4A)
  88:.\Generated_Source\PSoC4/cyPm.c ****         /* Device enters DeepSleep mode when CPU asserts SLEEPDEEP signal */
  89:.\Generated_Source\PSoC4/cyPm.c ****         CY_PM_PWR_CONTROL_REG &= (uint32) (~CY_PM_PWR_CONTROL_HIBERNATE);
 102              		.loc 1 89 0
 103 0010 114B     		ldr	r3, .L5
 104 0012 114A     		ldr	r2, .L5
 105 0014 1268     		ldr	r2, [r2]
 106 0016 5200     		lsl	r2, r2, #1
 107 0018 5208     		lsr	r2, r2, #1
 108 001a 1A60     		str	r2, [r3]
  90:.\Generated_Source\PSoC4/cyPm.c ****     #endif /* (CY_PSOC4A) */
  91:.\Generated_Source\PSoC4/cyPm.c **** 
  92:.\Generated_Source\PSoC4/cyPm.c ****     /* Adjust delay to wait for references to settle on wakeup from deepsleep */
  93:.\Generated_Source\PSoC4/cyPm.c ****     CY_PM_PWR_KEY_DELAY_REG = CY_SFLASH_DPSLP_KEY_DELAY_REG;
 109              		.loc 1 93 0
 110 001c 0F4B     		ldr	r3, .L5+4
 111 001e 104A     		ldr	r2, .L5+8
 112 0020 1288     		ldrh	r2, [r2]
 113 0022 92B2     		uxth	r2, r2
 114 0024 1A60     		str	r2, [r3]
  94:.\Generated_Source\PSoC4/cyPm.c **** 
  95:.\Generated_Source\PSoC4/cyPm.c ****     /* CM0 enters DeepSleep/Hibernate mode upon execution of WFI */
  96:.\Generated_Source\PSoC4/cyPm.c ****     CY_PM_CM0_SCR_REG |= CY_PM_CM0_SCR_SLEEPDEEP;
 115              		.loc 1 96 0
 116 0026 0F4B     		ldr	r3, .L5+12
 117 0028 0E4A     		ldr	r2, .L5+12
 118 002a 1268     		ldr	r2, [r2]
 119 002c 0421     		mov	r1, #4
 120 002e 0A43     		orr	r2, r1
 121 0030 1A60     		str	r2, [r3]
  97:.\Generated_Source\PSoC4/cyPm.c **** 
  98:.\Generated_Source\PSoC4/cyPm.c ****     #if(CY_PSOC4A)
  99:.\Generated_Source\PSoC4/cyPm.c ****         /* Preserve system clock configuration and
 100:.\Generated_Source\PSoC4/cyPm.c ****         * reduce sysclk to <=12 MHz (Cypress ID #158710, #179888).
 101:.\Generated_Source\PSoC4/cyPm.c ****         */
 102:.\Generated_Source\PSoC4/cyPm.c ****         clkSelectReg = CY_SYS_CLK_SELECT_REG;
 122              		.loc 1 102 0
 123 0032 0D4B     		ldr	r3, .L5+16
 124 0034 1B68     		ldr	r3, [r3]
 125 0036 3B60     		str	r3, [r7]
 103:.\Generated_Source\PSoC4/cyPm.c ****         CySysClkWriteSysclkDiv(CY_SYS_CLK_SYSCLK_DIV4);
ARM GAS  C:\Users\GLENNL~1\AppData\Local\Temp\ccZ2zzZc.s 			page 5


 126              		.loc 1 103 0
 127 0038 0220     		mov	r0, #2
 128 003a FFF7FEFF 		bl	CySysClkWriteSysclkDiv
 104:.\Generated_Source\PSoC4/cyPm.c ****     #endif /* (CY_PSOC4A) */
 105:.\Generated_Source\PSoC4/cyPm.c **** 
 106:.\Generated_Source\PSoC4/cyPm.c ****     /* Sleep and wait for interrupt */
 107:.\Generated_Source\PSoC4/cyPm.c ****     CY_PM_WFI;
 129              		.loc 1 107 0
 130              	@ 107 ".\Generated_Source\PSoC4\cyPm.c" 1
 131 003e 30BF     		WFI 
 132              	
 133              	@ 0 "" 2
 108:.\Generated_Source\PSoC4/cyPm.c **** 
 109:.\Generated_Source\PSoC4/cyPm.c ****     #if(CY_PSOC4A)
 110:.\Generated_Source\PSoC4/cyPm.c ****         /* Restore system clock configuration */
 111:.\Generated_Source\PSoC4/cyPm.c ****         CY_SYS_CLK_SELECT_REG = clkSelectReg;
 134              		.loc 1 111 0
 135              		.code	16
 136 0040 094B     		ldr	r3, .L5+16
 137 0042 3A68     		ldr	r2, [r7]
 138 0044 1A60     		str	r2, [r3]
 112:.\Generated_Source\PSoC4/cyPm.c ****     #endif /* (CY_PSOC4A) */
 113:.\Generated_Source\PSoC4/cyPm.c **** 
 114:.\Generated_Source\PSoC4/cyPm.c ****     CyExitCriticalSection(interruptState);
 139              		.loc 1 114 0
 140 0046 FB1D     		add	r3, r7, #7
 141 0048 1B78     		ldrb	r3, [r3]
 142 004a 181C     		mov	r0, r3
 143 004c FFF7FEFF 		bl	CyExitCriticalSection
 115:.\Generated_Source\PSoC4/cyPm.c **** }
 144              		.loc 1 115 0
 145 0050 BD46     		mov	sp, r7
 146 0052 03B0     		add	sp, sp, #12
 147              		@ sp needed for prologue
 148 0054 90BD     		pop	{r4, r7, pc}
 149              	.L6:
 150 0056 C046     		.align	2
 151              	.L5:
 152 0058 00000B40 		.word	1074462720
 153 005c 0C000B40 		.word	1074462732
 154 0060 52F1FF0F 		.word	268431698
 155 0064 10ED00E0 		.word	-536810224
 156 0068 00010B40 		.word	1074462976
 157              		.cfi_endproc
 158              	.LFE1:
 159              		.size	CySysPmDeepSleep, .-CySysPmDeepSleep
 160              		.section	.text.CySysPmHibernate,"ax",%progbits
 161              		.align	2
 162              		.global	CySysPmHibernate
 163              		.code	16
 164              		.thumb_func
 165              		.type	CySysPmHibernate, %function
 166              	CySysPmHibernate:
 167              	.LFB2:
 116:.\Generated_Source\PSoC4/cyPm.c **** 
 117:.\Generated_Source\PSoC4/cyPm.c **** 
 118:.\Generated_Source\PSoC4/cyPm.c **** #if(CY_PSOC4A)
ARM GAS  C:\Users\GLENNL~1\AppData\Local\Temp\ccZ2zzZc.s 			page 6


 119:.\Generated_Source\PSoC4/cyPm.c **** 
 120:.\Generated_Source\PSoC4/cyPm.c ****     /*******************************************************************************
 121:.\Generated_Source\PSoC4/cyPm.c ****     * Function Name: CySysPmHibernate
 122:.\Generated_Source\PSoC4/cyPm.c ****     ********************************************************************************
 123:.\Generated_Source\PSoC4/cyPm.c ****     *
 124:.\Generated_Source\PSoC4/cyPm.c ****     * Summary:
 125:.\Generated_Source\PSoC4/cyPm.c ****     *  Puts the part into the Hibernate state. Only SRAM and UDBs are retained;
 126:.\Generated_Source\PSoC4/cyPm.c ****     *  most internal supplies are off. Wakeup is possible from a pin or a hibernate
 127:.\Generated_Source\PSoC4/cyPm.c ****     *  comparator only.
 128:.\Generated_Source\PSoC4/cyPm.c ****     *
 129:.\Generated_Source\PSoC4/cyPm.c ****     *  It is expected that the firmware has already frozen the IO-Cells using
 130:.\Generated_Source\PSoC4/cyPm.c ****     *  CySysPmFreezeIo() function before the call to this function. If this is
 131:.\Generated_Source\PSoC4/cyPm.c ****     *  omitted, the IO-cells will be frozen in the same way as they are
 132:.\Generated_Source\PSoC4/cyPm.c ****     *  in the Active to Deep Sleep transition, but will lose their state on wake up
 133:.\Generated_Source\PSoC4/cyPm.c ****     *  (because of the reset occurring at that time).
 134:.\Generated_Source\PSoC4/cyPm.c ****     *
 135:.\Generated_Source\PSoC4/cyPm.c ****     *  Because all the CPU state is lost, the CPU will start up at the reset vector.
 136:.\Generated_Source\PSoC4/cyPm.c ****     *  To save the firmware state through the Hibernate low power mode, a
 137:.\Generated_Source\PSoC4/cyPm.c ****     *  corresponding variable should be defined with CY_NOINIT attribute. It
 138:.\Generated_Source\PSoC4/cyPm.c ****     *  prevents data from being initialized to zero on startup. The interrupt
 139:.\Generated_Source\PSoC4/cyPm.c ****     *  cause of the hibernate peripheral is retained, such that it can be either
 140:.\Generated_Source\PSoC4/cyPm.c ****     *  read by the firmware or cause an interrupt after the firmware has booted and
 141:.\Generated_Source\PSoC4/cyPm.c ****     *  enabled the corresponding interrupt. To distinguish the wakeup from
 142:.\Generated_Source\PSoC4/cyPm.c ****     *  the Hibernate mode and the general Reset event, the CySysPmGetResetReason()
 143:.\Generated_Source\PSoC4/cyPm.c ****     *  function could be used.
 144:.\Generated_Source\PSoC4/cyPm.c ****     *
 145:.\Generated_Source\PSoC4/cyPm.c ****     * Parameters:
 146:.\Generated_Source\PSoC4/cyPm.c ****     *  None
 147:.\Generated_Source\PSoC4/cyPm.c ****     *
 148:.\Generated_Source\PSoC4/cyPm.c ****     * Return:
 149:.\Generated_Source\PSoC4/cyPm.c ****     *  None
 150:.\Generated_Source\PSoC4/cyPm.c ****     *
 151:.\Generated_Source\PSoC4/cyPm.c ****     *******************************************************************************/
 152:.\Generated_Source\PSoC4/cyPm.c ****     void CySysPmHibernate(void)
 153:.\Generated_Source\PSoC4/cyPm.c ****     {
 168              		.loc 1 153 0
 169              		.cfi_startproc
 170 0000 90B5     		push	{r4, r7, lr}
 171              	.LCFI6:
 172              		.cfi_def_cfa_offset 12
 173              		.cfi_offset 4, -12
 174              		.cfi_offset 7, -8
 175              		.cfi_offset 14, -4
 176 0002 83B0     		sub	sp, sp, #12
 177              	.LCFI7:
 178              		.cfi_def_cfa_offset 24
 179 0004 00AF     		add	r7, sp, #0
 180              	.LCFI8:
 181              		.cfi_def_cfa_register 7
 154:.\Generated_Source\PSoC4/cyPm.c ****         uint8 interruptState;
 155:.\Generated_Source\PSoC4/cyPm.c **** 
 156:.\Generated_Source\PSoC4/cyPm.c ****         interruptState = CyEnterCriticalSection();
 182              		.loc 1 156 0
 183 0006 FC1D     		add	r4, r7, #7
 184 0008 FFF7FEFF 		bl	CyEnterCriticalSection
 185 000c 031C     		mov	r3, r0
 186 000e 2370     		strb	r3, [r4]
ARM GAS  C:\Users\GLENNL~1\AppData\Local\Temp\ccZ2zzZc.s 			page 7


 157:.\Generated_Source\PSoC4/cyPm.c **** 
 158:.\Generated_Source\PSoC4/cyPm.c ****         /* Device enters Hibernate mode when CPU asserts SLEEPDEEP signal */
 159:.\Generated_Source\PSoC4/cyPm.c ****         CY_PM_PWR_CONTROL_REG |= CY_PM_PWR_CONTROL_HIBERNATE;
 187              		.loc 1 159 0
 188 0010 114B     		ldr	r3, .L8
 189 0012 114A     		ldr	r2, .L8
 190 0014 1268     		ldr	r2, [r2]
 191 0016 8021     		mov	r1, #128
 192 0018 0906     		lsl	r1, r1, #24
 193 001a 0A43     		orr	r2, r1
 194 001c 1A60     		str	r2, [r3]
 160:.\Generated_Source\PSoC4/cyPm.c **** 
 161:.\Generated_Source\PSoC4/cyPm.c ****         /* Adjust delay to wait for references to settle on wakeup from hibernate */
 162:.\Generated_Source\PSoC4/cyPm.c ****         CY_PM_PWR_KEY_DELAY_REG = CY_SFLASH_HIB_KEY_DELAY_REG;
 195              		.loc 1 162 0
 196 001e 0F4B     		ldr	r3, .L8+4
 197 0020 0F4A     		ldr	r2, .L8+8
 198 0022 1288     		ldrh	r2, [r2]
 199 0024 92B2     		uxth	r2, r2
 200 0026 1A60     		str	r2, [r3]
 163:.\Generated_Source\PSoC4/cyPm.c **** 
 164:.\Generated_Source\PSoC4/cyPm.c ****         /* CM0 enters DeepSleep/Hibernate mode upon execution of WFI */
 165:.\Generated_Source\PSoC4/cyPm.c ****         CY_PM_CM0_SCR_REG |= CY_PM_CM0_SCR_SLEEPDEEP;
 201              		.loc 1 165 0
 202 0028 0E4B     		ldr	r3, .L8+12
 203 002a 0E4A     		ldr	r2, .L8+12
 204 002c 1268     		ldr	r2, [r2]
 205 002e 0421     		mov	r1, #4
 206 0030 0A43     		orr	r2, r1
 207 0032 1A60     		str	r2, [r3]
 166:.\Generated_Source\PSoC4/cyPm.c **** 
 167:.\Generated_Source\PSoC4/cyPm.c ****         /* Save token that will retain through a STOP/WAKEUP sequence
 168:.\Generated_Source\PSoC4/cyPm.c ****          * thus could be used by CySysPmGetResetReason() to differentiate
 169:.\Generated_Source\PSoC4/cyPm.c ****          * WAKEUP from a general RESET event.
 170:.\Generated_Source\PSoC4/cyPm.c ****          */
 171:.\Generated_Source\PSoC4/cyPm.c ****         CY_PM_PWR_STOP_REG = (CY_PM_PWR_STOP_REG & (uint32)(~CY_PM_PWR_STOP_TOKEN_MASK)) | CY_PM_PW
 208              		.loc 1 171 0
 209 0034 0C4B     		ldr	r3, .L8+16
 210 0036 0C4A     		ldr	r2, .L8+16
 211 0038 1268     		ldr	r2, [r2]
 212 003a FF21     		mov	r1, #255
 213 003c 8A43     		bic	r2, r1
 214 003e F121     		mov	r1, #241
 215 0040 0A43     		orr	r2, r1
 216 0042 1A60     		str	r2, [r3]
 172:.\Generated_Source\PSoC4/cyPm.c **** 
 173:.\Generated_Source\PSoC4/cyPm.c ****         /* Sleep and wait for interrupt. Wakeup from Hibernate is performed
 174:.\Generated_Source\PSoC4/cyPm.c ****          * through RESET state, causing a normal Boot procedure to occur.
 175:.\Generated_Source\PSoC4/cyPm.c ****          * The WFI instruction doesn't put the core to sleep if its wake condition
 176:.\Generated_Source\PSoC4/cyPm.c ****          * is true when the instruction is executed.
 177:.\Generated_Source\PSoC4/cyPm.c ****          */
 178:.\Generated_Source\PSoC4/cyPm.c ****         CY_PM_WFI;
 217              		.loc 1 178 0
 218              	@ 178 ".\Generated_Source\PSoC4\cyPm.c" 1
 219 0044 30BF     		WFI 
 220              	
 221              	@ 0 "" 2
ARM GAS  C:\Users\GLENNL~1\AppData\Local\Temp\ccZ2zzZc.s 			page 8


 179:.\Generated_Source\PSoC4/cyPm.c **** 
 180:.\Generated_Source\PSoC4/cyPm.c ****         CyExitCriticalSection(interruptState);
 222              		.loc 1 180 0
 223              		.code	16
 224 0046 FB1D     		add	r3, r7, #7
 225 0048 1B78     		ldrb	r3, [r3]
 226 004a 181C     		mov	r0, r3
 227 004c FFF7FEFF 		bl	CyExitCriticalSection
 181:.\Generated_Source\PSoC4/cyPm.c ****     }
 228              		.loc 1 181 0
 229 0050 BD46     		mov	sp, r7
 230 0052 03B0     		add	sp, sp, #12
 231              		@ sp needed for prologue
 232 0054 90BD     		pop	{r4, r7, pc}
 233              	.L9:
 234 0056 C046     		.align	2
 235              	.L8:
 236 0058 00000B40 		.word	1074462720
 237 005c 0C000B40 		.word	1074462732
 238 0060 50F1FF0F 		.word	268431696
 239 0064 10ED00E0 		.word	-536810224
 240 0068 2C000B40 		.word	1074462764
 241              		.cfi_endproc
 242              	.LFE2:
 243              		.size	CySysPmHibernate, .-CySysPmHibernate
 244              		.section	.text.CySysPmStop,"ax",%progbits
 245              		.align	2
 246              		.global	CySysPmStop
 247              		.code	16
 248              		.thumb_func
 249              		.type	CySysPmStop, %function
 250              	CySysPmStop:
 251              	.LFB3:
 182:.\Generated_Source\PSoC4/cyPm.c **** 
 183:.\Generated_Source\PSoC4/cyPm.c **** 
 184:.\Generated_Source\PSoC4/cyPm.c ****     /*******************************************************************************
 185:.\Generated_Source\PSoC4/cyPm.c ****     * Function Name: CySysPmStop
 186:.\Generated_Source\PSoC4/cyPm.c ****     ********************************************************************************
 187:.\Generated_Source\PSoC4/cyPm.c ****     *
 188:.\Generated_Source\PSoC4/cyPm.c ****     * Summary:
 189:.\Generated_Source\PSoC4/cyPm.c ****     *  Puts the part into the Stop state. All internal supplies are off;
 190:.\Generated_Source\PSoC4/cyPm.c ****     *  no state is retained.
 191:.\Generated_Source\PSoC4/cyPm.c ****     *
 192:.\Generated_Source\PSoC4/cyPm.c ****     *  Wakeup from Stop is performed by toggling the wakeup pin (P0.7), causing
 193:.\Generated_Source\PSoC4/cyPm.c ****     *  a normal Boot procedure to occur. To configure the wakeup pin,
 194:.\Generated_Source\PSoC4/cyPm.c ****     *  the Digital Input Pin component should be placed on the schematic,
 195:.\Generated_Source\PSoC4/cyPm.c ****     *  assigned to the P0.7, and resistively pulled up or down to the inverse state
 196:.\Generated_Source\PSoC4/cyPm.c ****     *  of the wakeup polarity. To distinguish the wakeup from the Stop mode and
 197:.\Generated_Source\PSoC4/cyPm.c ****     *  the general Reset event, CySysPmGetResetReason() function could be used.
 198:.\Generated_Source\PSoC4/cyPm.c ****     *  The wakeup pin is active low by default. The wakeup pin polarity
 199:.\Generated_Source\PSoC4/cyPm.c ****     *  could be changed with the CySysPmSetWakeupPolarity() function.
 200:.\Generated_Source\PSoC4/cyPm.c ****     *
 201:.\Generated_Source\PSoC4/cyPm.c ****     *  This function freezes IO cells implicitly. It is not possible to enter
 202:.\Generated_Source\PSoC4/cyPm.c ****     *  the STOP mode before freezing the IO cells. The IO cells remain frozen after
 203:.\Generated_Source\PSoC4/cyPm.c ****     *  awake from the Stop mode until the firmware unfreezes them after booting
 204:.\Generated_Source\PSoC4/cyPm.c ****     *  explicitly with CySysPmUnfreezeIo() function call.
 205:.\Generated_Source\PSoC4/cyPm.c ****     *
ARM GAS  C:\Users\GLENNL~1\AppData\Local\Temp\ccZ2zzZc.s 			page 9


 206:.\Generated_Source\PSoC4/cyPm.c ****     * Parameters:
 207:.\Generated_Source\PSoC4/cyPm.c ****     *  None
 208:.\Generated_Source\PSoC4/cyPm.c ****     *
 209:.\Generated_Source\PSoC4/cyPm.c ****     * Return:
 210:.\Generated_Source\PSoC4/cyPm.c ****     *  None
 211:.\Generated_Source\PSoC4/cyPm.c ****     *
 212:.\Generated_Source\PSoC4/cyPm.c ****     *******************************************************************************/
 213:.\Generated_Source\PSoC4/cyPm.c ****     void CySysPmStop(void)
 214:.\Generated_Source\PSoC4/cyPm.c ****     {
 252              		.loc 1 214 0
 253              		.cfi_startproc
 254 0000 80B5     		push	{r7, lr}
 255              	.LCFI9:
 256              		.cfi_def_cfa_offset 8
 257              		.cfi_offset 7, -8
 258              		.cfi_offset 14, -4
 259 0002 00AF     		add	r7, sp, #0
 260              	.LCFI10:
 261              		.cfi_def_cfa_register 7
 215:.\Generated_Source\PSoC4/cyPm.c ****         (void)CyEnterCriticalSection();
 262              		.loc 1 215 0
 263 0004 FFF7FEFF 		bl	CyEnterCriticalSection
 216:.\Generated_Source\PSoC4/cyPm.c **** 
 217:.\Generated_Source\PSoC4/cyPm.c ****         /* Freeze IO-Cells to save IO-Cell state */
 218:.\Generated_Source\PSoC4/cyPm.c ****         CySysPmFreezeIo();
 264              		.loc 1 218 0
 265 0008 FFF7FEFF 		bl	CySysPmFreezeIo
 219:.\Generated_Source\PSoC4/cyPm.c **** 
 220:.\Generated_Source\PSoC4/cyPm.c ****         /* Initiates transition to Stop state */
 221:.\Generated_Source\PSoC4/cyPm.c ****         CY_PM_PWR_STOP_REG = (CY_PM_PWR_STOP_REG & (uint32)(~CY_PM_PWR_STOP_TOKEN_MASK)) |
 266              		.loc 1 221 0
 267 000c 064B     		ldr	r3, .L11
 268 000e 064A     		ldr	r2, .L11
 269 0010 1168     		ldr	r1, [r2]
 222:.\Generated_Source\PSoC4/cyPm.c ****                             CY_PM_PWR_STOP_TOKEN_STOP | CY_PM_PWR_STOP_STOP;
 270              		.loc 1 222 0
 271 0012 064A     		ldr	r2, .L11+4
 272 0014 0A40     		and	r2, r1
 273 0016 0649     		ldr	r1, .L11+8
 274 0018 0A43     		orr	r2, r1
 221:.\Generated_Source\PSoC4/cyPm.c ****         CY_PM_PWR_STOP_REG = (CY_PM_PWR_STOP_REG & (uint32)(~CY_PM_PWR_STOP_TOKEN_MASK)) |
 275              		.loc 1 221 0
 276 001a 1A60     		str	r2, [r3]
 223:.\Generated_Source\PSoC4/cyPm.c **** 
 224:.\Generated_Source\PSoC4/cyPm.c ****         /* Depending on the clock frequency and internal timing delays,
 225:.\Generated_Source\PSoC4/cyPm.c ****          * the final AHB transaction may or may not complete. To guard against
 226:.\Generated_Source\PSoC4/cyPm.c ****          * accidentally executing an unintended instruction, it is recommended
 227:.\Generated_Source\PSoC4/cyPm.c ****          * to add 2 NOP cycles after the final write to the STOP register.
 228:.\Generated_Source\PSoC4/cyPm.c ****          */
 229:.\Generated_Source\PSoC4/cyPm.c ****         CY_NOP;
 277              		.loc 1 229 0
 278              	@ 229 ".\Generated_Source\PSoC4\cyPm.c" 1
 279 001c C046     		NOP
 280              	
 281              	@ 0 "" 2
 230:.\Generated_Source\PSoC4/cyPm.c ****         CY_NOP;
 282              		.loc 1 230 0
ARM GAS  C:\Users\GLENNL~1\AppData\Local\Temp\ccZ2zzZc.s 			page 10


 283              	@ 230 ".\Generated_Source\PSoC4\cyPm.c" 1
 284 001e C046     		NOP
 285              	
 286              	@ 0 "" 2
 231:.\Generated_Source\PSoC4/cyPm.c **** 
 232:.\Generated_Source\PSoC4/cyPm.c ****         /* Should never get to this WFI instruction */
 233:.\Generated_Source\PSoC4/cyPm.c ****         CY_PM_WFI;
 287              		.loc 1 233 0
 288              	@ 233 ".\Generated_Source\PSoC4\cyPm.c" 1
 289 0020 30BF     		WFI 
 290              	
 291              	@ 0 "" 2
 234:.\Generated_Source\PSoC4/cyPm.c **** 
 235:.\Generated_Source\PSoC4/cyPm.c ****         /* Wakeup from Stop is performed by toggling of Wakeup pin,
 236:.\Generated_Source\PSoC4/cyPm.c ****          * causing a normal Boot procedure to occur. No need to exit
 237:.\Generated_Source\PSoC4/cyPm.c ****          * from the critical section.
 238:.\Generated_Source\PSoC4/cyPm.c ****          */
 239:.\Generated_Source\PSoC4/cyPm.c ****     }
 292              		.loc 1 239 0
 293              		.code	16
 294 0022 BD46     		mov	sp, r7
 295              		@ sp needed for prologue
 296 0024 80BD     		pop	{r7, pc}
 297              	.L12:
 298 0026 C046     		.align	2
 299              	.L11:
 300 0028 2C000B40 		.word	1074462764
 301 002c 00FFFF7F 		.word	2147483392
 302 0030 F2000080 		.word	-2147483406
 303              		.cfi_endproc
 304              	.LFE3:
 305              		.size	CySysPmStop, .-CySysPmStop
 306              		.section	.text.CySysPmSetWakeupPolarity,"ax",%progbits
 307              		.align	2
 308              		.global	CySysPmSetWakeupPolarity
 309              		.code	16
 310              		.thumb_func
 311              		.type	CySysPmSetWakeupPolarity, %function
 312              	CySysPmSetWakeupPolarity:
 313              	.LFB4:
 240:.\Generated_Source\PSoC4/cyPm.c **** 
 241:.\Generated_Source\PSoC4/cyPm.c **** 
 242:.\Generated_Source\PSoC4/cyPm.c ****     /*******************************************************************************
 243:.\Generated_Source\PSoC4/cyPm.c ****     * Function Name: CySysPmSetWakeupPolarity
 244:.\Generated_Source\PSoC4/cyPm.c ****     ********************************************************************************
 245:.\Generated_Source\PSoC4/cyPm.c ****     *
 246:.\Generated_Source\PSoC4/cyPm.c ****     * Summary:
 247:.\Generated_Source\PSoC4/cyPm.c ****     *  Wake up from the stop mode is performed by toggling the wakeup pin (P0.7),
 248:.\Generated_Source\PSoC4/cyPm.c ****     *  causing a normal boot procedure to occur. This function assigns
 249:.\Generated_Source\PSoC4/cyPm.c ****     *  the wakeup pin active level. Setting the wakeup pin to this level will cause
 250:.\Generated_Source\PSoC4/cyPm.c ****     *  the wakeup from stop mode. The wakeup pin is active low by default.
 251:.\Generated_Source\PSoC4/cyPm.c ****     *
 252:.\Generated_Source\PSoC4/cyPm.c ****     * Parameters:
 253:.\Generated_Source\PSoC4/cyPm.c ****     *  polarity: Wakeup pin active level:
 254:.\Generated_Source\PSoC4/cyPm.c ****     *   Value    Define                          Level
 255:.\Generated_Source\PSoC4/cyPm.c ****     *    0        CY_PM_STOP_WAKEUP_ACTIVE_LOW    Logical zero will wakeup the chip
 256:.\Generated_Source\PSoC4/cyPm.c ****     *    1        CY_PM_STOP_WAKEUP_ACTIVE_HIGH   Logical one will wakeup the chip
ARM GAS  C:\Users\GLENNL~1\AppData\Local\Temp\ccZ2zzZc.s 			page 11


 257:.\Generated_Source\PSoC4/cyPm.c ****     *
 258:.\Generated_Source\PSoC4/cyPm.c ****     * Return:
 259:.\Generated_Source\PSoC4/cyPm.c ****     *  None
 260:.\Generated_Source\PSoC4/cyPm.c ****     *
 261:.\Generated_Source\PSoC4/cyPm.c ****     *******************************************************************************/
 262:.\Generated_Source\PSoC4/cyPm.c ****     void CySysPmSetWakeupPolarity(uint32 polarity)
 263:.\Generated_Source\PSoC4/cyPm.c ****     {
 314              		.loc 1 263 0
 315              		.cfi_startproc
 316 0000 90B5     		push	{r4, r7, lr}
 317              	.LCFI11:
 318              		.cfi_def_cfa_offset 12
 319              		.cfi_offset 4, -12
 320              		.cfi_offset 7, -8
 321              		.cfi_offset 14, -4
 322 0002 85B0     		sub	sp, sp, #20
 323              	.LCFI12:
 324              		.cfi_def_cfa_offset 32
 325 0004 00AF     		add	r7, sp, #0
 326              	.LCFI13:
 327              		.cfi_def_cfa_register 7
 328 0006 7860     		str	r0, [r7, #4]
 264:.\Generated_Source\PSoC4/cyPm.c ****         uint8 interruptState;
 265:.\Generated_Source\PSoC4/cyPm.c **** 
 266:.\Generated_Source\PSoC4/cyPm.c ****         interruptState = CyEnterCriticalSection();
 329              		.loc 1 266 0
 330 0008 3C1C     		mov	r4, r7
 331 000a 0F34     		add	r4, r4, #15
 332 000c FFF7FEFF 		bl	CyEnterCriticalSection
 333 0010 031C     		mov	r3, r0
 334 0012 2370     		strb	r3, [r4]
 267:.\Generated_Source\PSoC4/cyPm.c **** 
 268:.\Generated_Source\PSoC4/cyPm.c ****         CY_PM_PWR_STOP_REG = (CY_PM_STOP_WAKEUP_ACTIVE_LOW != polarity) ?
 335              		.loc 1 268 0
 336 0014 0B4B     		ldr	r3, .L16
 269:.\Generated_Source\PSoC4/cyPm.c ****                             (CY_PM_PWR_STOP_REG | CY_PM_PWR_STOP_POLARITY) :
 337              		.loc 1 269 0
 338 0016 7A68     		ldr	r2, [r7, #4]
 339 0018 002A     		cmp	r2, #0
 340 001a 05D0     		beq	.L14
 341              		.loc 1 269 0 is_stmt 0 discriminator 1
 342 001c 094A     		ldr	r2, .L16
 343 001e 1268     		ldr	r2, [r2]
 344 0020 8021     		mov	r1, #128
 345 0022 4902     		lsl	r1, r1, #9
 346 0024 0A43     		orr	r2, r1
 347 0026 03E0     		b	.L15
 348              	.L14:
 270:.\Generated_Source\PSoC4/cyPm.c ****                             (CY_PM_PWR_STOP_REG & (uint32) (~CY_PM_PWR_STOP_POLARITY));
 349              		.loc 1 270 0 is_stmt 1 discriminator 2
 350 0028 064A     		ldr	r2, .L16
 351 002a 1168     		ldr	r1, [r2]
 269:.\Generated_Source\PSoC4/cyPm.c ****                             (CY_PM_PWR_STOP_REG | CY_PM_PWR_STOP_POLARITY) :
 352              		.loc 1 269 0 discriminator 2
 353 002c 064A     		ldr	r2, .L16+4
 354 002e 0A40     		and	r2, r1
 355              	.L15:
ARM GAS  C:\Users\GLENNL~1\AppData\Local\Temp\ccZ2zzZc.s 			page 12


 268:.\Generated_Source\PSoC4/cyPm.c ****         CY_PM_PWR_STOP_REG = (CY_PM_STOP_WAKEUP_ACTIVE_LOW != polarity) ?
 356              		.loc 1 268 0
 357 0030 1A60     		str	r2, [r3]
 271:.\Generated_Source\PSoC4/cyPm.c **** 
 272:.\Generated_Source\PSoC4/cyPm.c ****         CyExitCriticalSection(interruptState);
 358              		.loc 1 272 0
 359 0032 3B1C     		mov	r3, r7
 360 0034 0F33     		add	r3, r3, #15
 361 0036 1B78     		ldrb	r3, [r3]
 362 0038 181C     		mov	r0, r3
 363 003a FFF7FEFF 		bl	CyExitCriticalSection
 273:.\Generated_Source\PSoC4/cyPm.c ****     }
 364              		.loc 1 273 0
 365 003e BD46     		mov	sp, r7
 366 0040 05B0     		add	sp, sp, #20
 367              		@ sp needed for prologue
 368 0042 90BD     		pop	{r4, r7, pc}
 369              	.L17:
 370              		.align	2
 371              	.L16:
 372 0044 2C000B40 		.word	1074462764
 373 0048 FFFFFEFF 		.word	-65537
 374              		.cfi_endproc
 375              	.LFE4:
 376              		.size	CySysPmSetWakeupPolarity, .-CySysPmSetWakeupPolarity
 377              		.section	.text.CySysPmGetResetReason,"ax",%progbits
 378              		.align	2
 379              		.global	CySysPmGetResetReason
 380              		.code	16
 381              		.thumb_func
 382              		.type	CySysPmGetResetReason, %function
 383              	CySysPmGetResetReason:
 384              	.LFB5:
 274:.\Generated_Source\PSoC4/cyPm.c **** 
 275:.\Generated_Source\PSoC4/cyPm.c **** 
 276:.\Generated_Source\PSoC4/cyPm.c ****     /*******************************************************************************
 277:.\Generated_Source\PSoC4/cyPm.c ****     * Function Name: CySysPmGetResetReason
 278:.\Generated_Source\PSoC4/cyPm.c ****     ********************************************************************************
 279:.\Generated_Source\PSoC4/cyPm.c ****     *
 280:.\Generated_Source\PSoC4/cyPm.c ****     * Summary:
 281:.\Generated_Source\PSoC4/cyPm.c ****     *  Retrieves the last reset reason - transition from OFF/XRES/STOP/HIBERNATE to
 282:.\Generated_Source\PSoC4/cyPm.c ****     *  the RESET state. Note that waking up from STOP using XRES will be perceived
 283:.\Generated_Source\PSoC4/cyPm.c ****     *  as a general RESET.
 284:.\Generated_Source\PSoC4/cyPm.c ****     *
 285:.\Generated_Source\PSoC4/cyPm.c ****     * Parameters:
 286:.\Generated_Source\PSoC4/cyPm.c ****     *  None
 287:.\Generated_Source\PSoC4/cyPm.c ****     *
 288:.\Generated_Source\PSoC4/cyPm.c ****     * Return:
 289:.\Generated_Source\PSoC4/cyPm.c ****     *  Reset reason.
 290:.\Generated_Source\PSoC4/cyPm.c ****     *  CY_PM_RESET_REASON_UNKN        - unknown
 291:.\Generated_Source\PSoC4/cyPm.c ****     *  CY_PM_RESET_REASON_XRES        - transition from OFF/XRES to RESET
 292:.\Generated_Source\PSoC4/cyPm.c ****     *  CY_PM_RESET_REASON_WAKEUP_HIB  - transition/wakeup from HIBERNATE to RESET
 293:.\Generated_Source\PSoC4/cyPm.c ****     *  CY_PM_RESET_REASON_WAKEUP_STOP - transition/wakeup from STOP to RESET
 294:.\Generated_Source\PSoC4/cyPm.c ****     *
 295:.\Generated_Source\PSoC4/cyPm.c ****     *******************************************************************************/
 296:.\Generated_Source\PSoC4/cyPm.c ****     uint32 CySysPmGetResetReason(void)
 297:.\Generated_Source\PSoC4/cyPm.c ****     {
ARM GAS  C:\Users\GLENNL~1\AppData\Local\Temp\ccZ2zzZc.s 			page 13


 385              		.loc 1 297 0
 386              		.cfi_startproc
 387 0000 80B5     		push	{r7, lr}
 388              	.LCFI14:
 389              		.cfi_def_cfa_offset 8
 390              		.cfi_offset 7, -8
 391              		.cfi_offset 14, -4
 392 0002 82B0     		sub	sp, sp, #8
 393              	.LCFI15:
 394              		.cfi_def_cfa_offset 16
 395 0004 00AF     		add	r7, sp, #0
 396              	.LCFI16:
 397              		.cfi_def_cfa_register 7
 298:.\Generated_Source\PSoC4/cyPm.c ****         uint32 reason = CY_PM_RESET_REASON_UNKN;
 398              		.loc 1 298 0
 399 0006 0023     		mov	r3, #0
 400 0008 7B60     		str	r3, [r7, #4]
 299:.\Generated_Source\PSoC4/cyPm.c **** 
 300:.\Generated_Source\PSoC4/cyPm.c ****         switch(CY_PM_PWR_STOP_REG & CY_PM_PWR_STOP_TOKEN_MASK)
 401              		.loc 1 300 0
 402 000a 0C4B     		ldr	r3, .L26
 403 000c 1A68     		ldr	r2, [r3]
 404 000e FF23     		mov	r3, #255
 405 0010 1340     		and	r3, r2
 406 0012 F12B     		cmp	r3, #241
 407 0014 06D0     		beq	.L21
 408 0016 F22B     		cmp	r3, #242
 409 0018 07D0     		beq	.L22
 410 001a 002B     		cmp	r3, #0
 411 001c 08D1     		bne	.L25
 412              	.L20:
 301:.\Generated_Source\PSoC4/cyPm.c ****         {
 302:.\Generated_Source\PSoC4/cyPm.c ****         /* Power up, XRES */
 303:.\Generated_Source\PSoC4/cyPm.c ****         case CY_PM_PWR_STOP_TOKEN_XRES:
 304:.\Generated_Source\PSoC4/cyPm.c ****             reason = CY_PM_RESET_REASON_XRES;
 413              		.loc 1 304 0
 414 001e 0123     		mov	r3, #1
 415 0020 7B60     		str	r3, [r7, #4]
 305:.\Generated_Source\PSoC4/cyPm.c ****             break;
 416              		.loc 1 305 0
 417 0022 06E0     		b	.L23
 418              	.L21:
 306:.\Generated_Source\PSoC4/cyPm.c **** 
 307:.\Generated_Source\PSoC4/cyPm.c ****         /* Wakeup from Hibernate */
 308:.\Generated_Source\PSoC4/cyPm.c ****         case CY_PM_PWR_STOP_TOKEN_HIB:
 309:.\Generated_Source\PSoC4/cyPm.c ****             reason = CY_PM_RESET_REASON_WAKEUP_HIB;
 419              		.loc 1 309 0
 420 0024 0223     		mov	r3, #2
 421 0026 7B60     		str	r3, [r7, #4]
 310:.\Generated_Source\PSoC4/cyPm.c ****             break;
 422              		.loc 1 310 0
 423 0028 03E0     		b	.L23
 424              	.L22:
 311:.\Generated_Source\PSoC4/cyPm.c **** 
 312:.\Generated_Source\PSoC4/cyPm.c ****         /* Wakeup from Stop (through WAKEUP pin assert) */
 313:.\Generated_Source\PSoC4/cyPm.c ****         case CY_PM_PWR_STOP_TOKEN_STOP:
 314:.\Generated_Source\PSoC4/cyPm.c ****             reason = CY_PM_RESET_REASON_WAKEUP_STOP;
ARM GAS  C:\Users\GLENNL~1\AppData\Local\Temp\ccZ2zzZc.s 			page 14


 425              		.loc 1 314 0
 426 002a 0323     		mov	r3, #3
 427 002c 7B60     		str	r3, [r7, #4]
 315:.\Generated_Source\PSoC4/cyPm.c ****             break;
 428              		.loc 1 315 0
 429 002e 00E0     		b	.L23
 430              	.L25:
 316:.\Generated_Source\PSoC4/cyPm.c **** 
 317:.\Generated_Source\PSoC4/cyPm.c ****         /* Unknown reason */
 318:.\Generated_Source\PSoC4/cyPm.c ****         default:
 319:.\Generated_Source\PSoC4/cyPm.c ****             break;
 431              		.loc 1 319 0
 432 0030 C046     		mov	r8, r8
 433              	.L23:
 320:.\Generated_Source\PSoC4/cyPm.c ****         }
 321:.\Generated_Source\PSoC4/cyPm.c **** 
 322:.\Generated_Source\PSoC4/cyPm.c ****         return (reason);
 434              		.loc 1 322 0
 435 0032 7B68     		ldr	r3, [r7, #4]
 323:.\Generated_Source\PSoC4/cyPm.c ****     }
 436              		.loc 1 323 0
 437 0034 181C     		mov	r0, r3
 438 0036 BD46     		mov	sp, r7
 439 0038 02B0     		add	sp, sp, #8
 440              		@ sp needed for prologue
 441 003a 80BD     		pop	{r7, pc}
 442              	.L27:
 443              		.align	2
 444              	.L26:
 445 003c 2C000B40 		.word	1074462764
 446              		.cfi_endproc
 447              	.LFE5:
 448              		.size	CySysPmGetResetReason, .-CySysPmGetResetReason
 449              		.section	.text.CySysPmFreezeIo,"ax",%progbits
 450              		.align	2
 451              		.global	CySysPmFreezeIo
 452              		.code	16
 453              		.thumb_func
 454              		.type	CySysPmFreezeIo, %function
 455              	CySysPmFreezeIo:
 456              	.LFB6:
 324:.\Generated_Source\PSoC4/cyPm.c **** 
 325:.\Generated_Source\PSoC4/cyPm.c **** 
 326:.\Generated_Source\PSoC4/cyPm.c ****     /*******************************************************************************
 327:.\Generated_Source\PSoC4/cyPm.c ****     * Function Name: CySysPmFreezeIo
 328:.\Generated_Source\PSoC4/cyPm.c ****     ********************************************************************************
 329:.\Generated_Source\PSoC4/cyPm.c ****     *
 330:.\Generated_Source\PSoC4/cyPm.c ****     * Summary:
 331:.\Generated_Source\PSoC4/cyPm.c ****     *  Freezes IO-Cells directly to save the IO-Cell state on wake up from the
 332:.\Generated_Source\PSoC4/cyPm.c ****     *  Hibernate or Stop state. It is not required to call this function before
 333:.\Generated_Source\PSoC4/cyPm.c ****     *  entering the Stop mode, since CySysPmStop() function freezes IO-Cells
 334:.\Generated_Source\PSoC4/cyPm.c ****     *  implicitly.
 335:.\Generated_Source\PSoC4/cyPm.c ****     *
 336:.\Generated_Source\PSoC4/cyPm.c ****     * Parameters:
 337:.\Generated_Source\PSoC4/cyPm.c ****     *  None
 338:.\Generated_Source\PSoC4/cyPm.c ****     *
 339:.\Generated_Source\PSoC4/cyPm.c ****     * Return:
ARM GAS  C:\Users\GLENNL~1\AppData\Local\Temp\ccZ2zzZc.s 			page 15


 340:.\Generated_Source\PSoC4/cyPm.c ****     *  None
 341:.\Generated_Source\PSoC4/cyPm.c ****     *
 342:.\Generated_Source\PSoC4/cyPm.c ****     *******************************************************************************/
 343:.\Generated_Source\PSoC4/cyPm.c ****     void CySysPmFreezeIo(void)
 344:.\Generated_Source\PSoC4/cyPm.c ****     {
 457              		.loc 1 344 0
 458              		.cfi_startproc
 459 0000 90B5     		push	{r4, r7, lr}
 460              	.LCFI17:
 461              		.cfi_def_cfa_offset 12
 462              		.cfi_offset 4, -12
 463              		.cfi_offset 7, -8
 464              		.cfi_offset 14, -4
 465 0002 83B0     		sub	sp, sp, #12
 466              	.LCFI18:
 467              		.cfi_def_cfa_offset 24
 468 0004 00AF     		add	r7, sp, #0
 469              	.LCFI19:
 470              		.cfi_def_cfa_register 7
 345:.\Generated_Source\PSoC4/cyPm.c ****         uint8 interruptState;
 346:.\Generated_Source\PSoC4/cyPm.c **** 
 347:.\Generated_Source\PSoC4/cyPm.c ****         interruptState = CyEnterCriticalSection();
 471              		.loc 1 347 0
 472 0006 FC1D     		add	r4, r7, #7
 473 0008 FFF7FEFF 		bl	CyEnterCriticalSection
 474 000c 031C     		mov	r3, r0
 475 000e 2370     		strb	r3, [r4]
 348:.\Generated_Source\PSoC4/cyPm.c **** 
 349:.\Generated_Source\PSoC4/cyPm.c ****         /* Check FREEZE state to avoid recurrent IO-Cells freeze attempt,
 350:.\Generated_Source\PSoC4/cyPm.c ****          * since the second call to this function will cause accidental switch
 351:.\Generated_Source\PSoC4/cyPm.c ****          * to the STOP mode (the system will enter STOP mode immediately after
 352:.\Generated_Source\PSoC4/cyPm.c ****          * writing to STOP bit since both UNLOCK and FREEZE have been set correctly
 353:.\Generated_Source\PSoC4/cyPm.c ****          * in a previous call to this function).
 354:.\Generated_Source\PSoC4/cyPm.c ****          */
 355:.\Generated_Source\PSoC4/cyPm.c ****         if (0u == (CY_PM_PWR_STOP_REG & CY_PM_PWR_STOP_FREEZE))
 476              		.loc 1 355 0
 477 0010 0F4B     		ldr	r3, .L30
 478 0012 1A68     		ldr	r2, [r3]
 479 0014 8023     		mov	r3, #128
 480 0016 9B02     		lsl	r3, r3, #10
 481 0018 1340     		and	r3, r2
 482 001a 10D1     		bne	.L29
 356:.\Generated_Source\PSoC4/cyPm.c ****         {
 357:.\Generated_Source\PSoC4/cyPm.c ****             /* Preserve last reset reason and disable overrides the next freeze command by peripher
 358:.\Generated_Source\PSoC4/cyPm.c ****             CY_PM_PWR_STOP_REG = CY_PM_PWR_STOP_STOP | CY_PM_PWR_STOP_FREEZE | CY_PM_PWR_STOP_UNLOC
 483              		.loc 1 358 0
 484 001c 0C4B     		ldr	r3, .L30
 359:.\Generated_Source\PSoC4/cyPm.c ****                                 (CY_PM_PWR_STOP_REG & (CY_PM_PWR_STOP_TOKEN_MASK | CY_PM_PWR_STOP_P
 485              		.loc 1 359 0
 486 001e 0C4A     		ldr	r2, .L30
 487 0020 1168     		ldr	r1, [r2]
 488 0022 0C4A     		ldr	r2, .L30+4
 489 0024 0A40     		and	r2, r1
 358:.\Generated_Source\PSoC4/cyPm.c ****             CY_PM_PWR_STOP_REG = CY_PM_PWR_STOP_STOP | CY_PM_PWR_STOP_FREEZE | CY_PM_PWR_STOP_UNLOC
 490              		.loc 1 358 0
 491 0026 0C49     		ldr	r1, .L30+8
 492 0028 0A43     		orr	r2, r1
ARM GAS  C:\Users\GLENNL~1\AppData\Local\Temp\ccZ2zzZc.s 			page 16


 493 002a 1A60     		str	r2, [r3]
 360:.\Generated_Source\PSoC4/cyPm.c **** 
 361:.\Generated_Source\PSoC4/cyPm.c ****             /* PWR_STOP read after write must be delayed for 6 clock cycles to let internal nodes t
 362:.\Generated_Source\PSoC4/cyPm.c ****             CyDelayCycles(6u);
 494              		.loc 1 362 0
 495 002c 0620     		mov	r0, #6
 496 002e FFF7FEFF 		bl	CyDelayCycles
 363:.\Generated_Source\PSoC4/cyPm.c **** 
 364:.\Generated_Source\PSoC4/cyPm.c ****             /* Second write causes the freeze of IO-Cells to save IO-Cell state */
 365:.\Generated_Source\PSoC4/cyPm.c ****             CY_PM_PWR_STOP_REG &= ~CY_PM_PWR_STOP_STOP;
 497              		.loc 1 365 0
 498 0032 074B     		ldr	r3, .L30
 499 0034 064A     		ldr	r2, .L30
 500 0036 1268     		ldr	r2, [r2]
 501 0038 5200     		lsl	r2, r2, #1
 502 003a 5208     		lsr	r2, r2, #1
 503 003c 1A60     		str	r2, [r3]
 504              	.L29:
 366:.\Generated_Source\PSoC4/cyPm.c ****         }
 367:.\Generated_Source\PSoC4/cyPm.c **** 
 368:.\Generated_Source\PSoC4/cyPm.c ****         CyExitCriticalSection(interruptState);
 505              		.loc 1 368 0
 506 003e FB1D     		add	r3, r7, #7
 507 0040 1B78     		ldrb	r3, [r3]
 508 0042 181C     		mov	r0, r3
 509 0044 FFF7FEFF 		bl	CyExitCriticalSection
 369:.\Generated_Source\PSoC4/cyPm.c ****     }
 510              		.loc 1 369 0
 511 0048 BD46     		mov	sp, r7
 512 004a 03B0     		add	sp, sp, #12
 513              		@ sp needed for prologue
 514 004c 90BD     		pop	{r4, r7, pc}
 515              	.L31:
 516 004e C046     		.align	2
 517              	.L30:
 518 0050 2C000B40 		.word	1074462764
 519 0054 FF000100 		.word	65791
 520 0058 003A0280 		.word	-2147337728
 521              		.cfi_endproc
 522              	.LFE6:
 523              		.size	CySysPmFreezeIo, .-CySysPmFreezeIo
 524              		.section	.text.CySysPmUnfreezeIo,"ax",%progbits
 525              		.align	2
 526              		.global	CySysPmUnfreezeIo
 527              		.code	16
 528              		.thumb_func
 529              		.type	CySysPmUnfreezeIo, %function
 530              	CySysPmUnfreezeIo:
 531              	.LFB7:
 370:.\Generated_Source\PSoC4/cyPm.c **** 
 371:.\Generated_Source\PSoC4/cyPm.c **** 
 372:.\Generated_Source\PSoC4/cyPm.c ****     /*******************************************************************************
 373:.\Generated_Source\PSoC4/cyPm.c ****     * Function Name: CySysPmUnfreezeIo
 374:.\Generated_Source\PSoC4/cyPm.c ****     ********************************************************************************
 375:.\Generated_Source\PSoC4/cyPm.c ****     *
 376:.\Generated_Source\PSoC4/cyPm.c ****     * Summary:
 377:.\Generated_Source\PSoC4/cyPm.c ****     *  The IO-Cells remain frozen after awake from Hibernate or Stop mode until
ARM GAS  C:\Users\GLENNL~1\AppData\Local\Temp\ccZ2zzZc.s 			page 17


 378:.\Generated_Source\PSoC4/cyPm.c ****     *  the firmware unfreezes them after booting. The call of this function
 379:.\Generated_Source\PSoC4/cyPm.c ****     *  unfreezes IO-Cells explicitly.
 380:.\Generated_Source\PSoC4/cyPm.c ****     *
 381:.\Generated_Source\PSoC4/cyPm.c ****     * Parameters:
 382:.\Generated_Source\PSoC4/cyPm.c ****     *  None
 383:.\Generated_Source\PSoC4/cyPm.c ****     *
 384:.\Generated_Source\PSoC4/cyPm.c ****     * Return:
 385:.\Generated_Source\PSoC4/cyPm.c ****     *  None
 386:.\Generated_Source\PSoC4/cyPm.c ****     *
 387:.\Generated_Source\PSoC4/cyPm.c ****     *******************************************************************************/
 388:.\Generated_Source\PSoC4/cyPm.c ****     void CySysPmUnfreezeIo(void)
 389:.\Generated_Source\PSoC4/cyPm.c ****     {
 532              		.loc 1 389 0
 533              		.cfi_startproc
 534 0000 90B5     		push	{r4, r7, lr}
 535              	.LCFI20:
 536              		.cfi_def_cfa_offset 12
 537              		.cfi_offset 4, -12
 538              		.cfi_offset 7, -8
 539              		.cfi_offset 14, -4
 540 0002 83B0     		sub	sp, sp, #12
 541              	.LCFI21:
 542              		.cfi_def_cfa_offset 24
 543 0004 00AF     		add	r7, sp, #0
 544              	.LCFI22:
 545              		.cfi_def_cfa_register 7
 390:.\Generated_Source\PSoC4/cyPm.c ****         uint8 interruptState;
 391:.\Generated_Source\PSoC4/cyPm.c **** 
 392:.\Generated_Source\PSoC4/cyPm.c ****         interruptState = CyEnterCriticalSection();
 546              		.loc 1 392 0
 547 0006 FC1D     		add	r4, r7, #7
 548 0008 FFF7FEFF 		bl	CyEnterCriticalSection
 549 000c 031C     		mov	r3, r0
 550 000e 2370     		strb	r3, [r4]
 393:.\Generated_Source\PSoC4/cyPm.c **** 
 394:.\Generated_Source\PSoC4/cyPm.c ****         /* Preserve last reset reason and wakeup polarity. Then, unfreeze I/O:
 395:.\Generated_Source\PSoC4/cyPm.c ****          * write PWR_STOP.FREEZE=0, .UNLOCK=0x3A, .STOP=0, .TOKEN
 396:.\Generated_Source\PSoC4/cyPm.c ****          */
 397:.\Generated_Source\PSoC4/cyPm.c ****         CY_PM_PWR_STOP_REG = CY_PM_PWR_STOP_UNLOCK |
 551              		.loc 1 397 0
 552 0010 0C4B     		ldr	r3, .L33
 398:.\Generated_Source\PSoC4/cyPm.c ****                             (CY_PM_PWR_STOP_REG & (CY_PM_PWR_STOP_TOKEN_MASK | CY_PM_PWR_STOP_POLAR
 553              		.loc 1 398 0
 554 0012 0C4A     		ldr	r2, .L33
 555 0014 1168     		ldr	r1, [r2]
 556 0016 0C4A     		ldr	r2, .L33+4
 557 0018 0A40     		and	r2, r1
 397:.\Generated_Source\PSoC4/cyPm.c ****         CY_PM_PWR_STOP_REG = CY_PM_PWR_STOP_UNLOCK |
 558              		.loc 1 397 0
 559 001a E821     		mov	r1, #232
 560 001c 8901     		lsl	r1, r1, #6
 561 001e 0A43     		orr	r2, r1
 562 0020 1A60     		str	r2, [r3]
 399:.\Generated_Source\PSoC4/cyPm.c **** 
 400:.\Generated_Source\PSoC4/cyPm.c ****         /* PWR_STOP read after write must be delayed for 6 clock cycles to let internal nodes to se
 401:.\Generated_Source\PSoC4/cyPm.c ****         CyDelayCycles(6u);
 563              		.loc 1 401 0
ARM GAS  C:\Users\GLENNL~1\AppData\Local\Temp\ccZ2zzZc.s 			page 18


 564 0022 0620     		mov	r0, #6
 565 0024 FFF7FEFF 		bl	CyDelayCycles
 402:.\Generated_Source\PSoC4/cyPm.c **** 
 403:.\Generated_Source\PSoC4/cyPm.c ****         /* Lock STOP mode: write PWR_STOP.FREEZE=0, UNLOCK=0x00, STOP=0, .TOKEN */
 404:.\Generated_Source\PSoC4/cyPm.c ****         CY_PM_PWR_STOP_REG &= (CY_PM_PWR_STOP_TOKEN_MASK | CY_PM_PWR_STOP_POLARITY);
 566              		.loc 1 404 0
 567 0028 064B     		ldr	r3, .L33
 568 002a 064A     		ldr	r2, .L33
 569 002c 1168     		ldr	r1, [r2]
 570 002e 064A     		ldr	r2, .L33+4
 571 0030 0A40     		and	r2, r1
 572 0032 1A60     		str	r2, [r3]
 405:.\Generated_Source\PSoC4/cyPm.c **** 
 406:.\Generated_Source\PSoC4/cyPm.c ****         CyExitCriticalSection(interruptState);
 573              		.loc 1 406 0
 574 0034 FB1D     		add	r3, r7, #7
 575 0036 1B78     		ldrb	r3, [r3]
 576 0038 181C     		mov	r0, r3
 577 003a FFF7FEFF 		bl	CyExitCriticalSection
 407:.\Generated_Source\PSoC4/cyPm.c ****     }
 578              		.loc 1 407 0
 579 003e BD46     		mov	sp, r7
 580 0040 03B0     		add	sp, sp, #12
 581              		@ sp needed for prologue
 582 0042 90BD     		pop	{r4, r7, pc}
 583              	.L34:
 584              		.align	2
 585              	.L33:
 586 0044 2C000B40 		.word	1074462764
 587 0048 FF000100 		.word	65791
 588              		.cfi_endproc
 589              	.LFE7:
 590              		.size	CySysPmUnfreezeIo, .-CySysPmUnfreezeIo
 591              		.text
 592              	.Letext0:
 593              		.file 2 ".\\Generated_Source\\PSoC4\\cytypes.h"