ARM GAS  C:\Users\GLENNL~1\AppData\Local\Temp\ccfCrrO9.s 			page 1


   1              		.cpu cortex-m0
   2              		.fpu softvfp
   3              		.eabi_attribute 20, 1
   4              		.eabi_attribute 21, 1
   5              		.eabi_attribute 23, 3
   6              		.eabi_attribute 24, 1
   7              		.eabi_attribute 25, 1
   8              		.eabi_attribute 26, 1
   9              		.eabi_attribute 30, 6
  10              		.eabi_attribute 34, 0
  11              		.eabi_attribute 18, 4
  12              		.code	16
  13              		.file	"ADC_IRQ.c"
  14              		.text
  15              	.Ltext0:
  16              		.cfi_sections	.debug_frame
  17              		.section	.text.ADC_IRQ_Start,"ax",%progbits
  18              		.align	2
  19              		.global	ADC_IRQ_Start
  20              		.code	16
  21              		.thumb_func
  22              		.type	ADC_IRQ_Start, %function
  23              	ADC_IRQ_Start:
  24              	.LFB2:
  25              		.file 1 ".\\Generated_Source\\PSoC4\\ADC_IRQ.c"
   1:.\Generated_Source\PSoC4/ADC_IRQ.c **** /*******************************************************************************
   2:.\Generated_Source\PSoC4/ADC_IRQ.c **** * File Name: ADC_IRQ.c  
   3:.\Generated_Source\PSoC4/ADC_IRQ.c **** * Version 1.70
   4:.\Generated_Source\PSoC4/ADC_IRQ.c **** *
   5:.\Generated_Source\PSoC4/ADC_IRQ.c **** *  Description:
   6:.\Generated_Source\PSoC4/ADC_IRQ.c **** *   API for controlling the state of an interrupt.
   7:.\Generated_Source\PSoC4/ADC_IRQ.c **** *
   8:.\Generated_Source\PSoC4/ADC_IRQ.c **** *
   9:.\Generated_Source\PSoC4/ADC_IRQ.c **** *  Note:
  10:.\Generated_Source\PSoC4/ADC_IRQ.c **** *
  11:.\Generated_Source\PSoC4/ADC_IRQ.c **** ********************************************************************************
  12:.\Generated_Source\PSoC4/ADC_IRQ.c **** * Copyright 2008-2012, Cypress Semiconductor Corporation.  All rights reserved.
  13:.\Generated_Source\PSoC4/ADC_IRQ.c **** * You may use this file only in accordance with the license, terms, conditions, 
  14:.\Generated_Source\PSoC4/ADC_IRQ.c **** * disclaimers, and limitations in the end user license agreement accompanying 
  15:.\Generated_Source\PSoC4/ADC_IRQ.c **** * the software package with which this file was provided.
  16:.\Generated_Source\PSoC4/ADC_IRQ.c **** *******************************************************************************/
  17:.\Generated_Source\PSoC4/ADC_IRQ.c **** 
  18:.\Generated_Source\PSoC4/ADC_IRQ.c **** 
  19:.\Generated_Source\PSoC4/ADC_IRQ.c **** #include <cydevice_trm.h>
  20:.\Generated_Source\PSoC4/ADC_IRQ.c **** #include <CyLib.h>
  21:.\Generated_Source\PSoC4/ADC_IRQ.c **** #include <ADC_IRQ.h>
  22:.\Generated_Source\PSoC4/ADC_IRQ.c **** 
  23:.\Generated_Source\PSoC4/ADC_IRQ.c **** #if !defined(ADC_IRQ__REMOVED) /* Check for removal by optimization */
  24:.\Generated_Source\PSoC4/ADC_IRQ.c **** 
  25:.\Generated_Source\PSoC4/ADC_IRQ.c **** /*******************************************************************************
  26:.\Generated_Source\PSoC4/ADC_IRQ.c **** *  Place your includes, defines and code here 
  27:.\Generated_Source\PSoC4/ADC_IRQ.c **** ********************************************************************************/
  28:.\Generated_Source\PSoC4/ADC_IRQ.c **** /* `#START ADC_IRQ_intc` */
  29:.\Generated_Source\PSoC4/ADC_IRQ.c **** 
  30:.\Generated_Source\PSoC4/ADC_IRQ.c **** /* `#END` */
  31:.\Generated_Source\PSoC4/ADC_IRQ.c **** 
  32:.\Generated_Source\PSoC4/ADC_IRQ.c **** extern cyisraddress CyRamVectors[CYINT_IRQ_BASE + CY_NUM_INTERRUPTS];
ARM GAS  C:\Users\GLENNL~1\AppData\Local\Temp\ccfCrrO9.s 			page 2


  33:.\Generated_Source\PSoC4/ADC_IRQ.c **** 
  34:.\Generated_Source\PSoC4/ADC_IRQ.c **** /* Declared in startup, used to set unused interrupts to. */
  35:.\Generated_Source\PSoC4/ADC_IRQ.c **** CY_ISR_PROTO(IntDefaultHandler);
  36:.\Generated_Source\PSoC4/ADC_IRQ.c **** 
  37:.\Generated_Source\PSoC4/ADC_IRQ.c **** 
  38:.\Generated_Source\PSoC4/ADC_IRQ.c **** /*******************************************************************************
  39:.\Generated_Source\PSoC4/ADC_IRQ.c **** * Function Name: ADC_IRQ_Start
  40:.\Generated_Source\PSoC4/ADC_IRQ.c **** ********************************************************************************
  41:.\Generated_Source\PSoC4/ADC_IRQ.c **** *
  42:.\Generated_Source\PSoC4/ADC_IRQ.c **** * Summary:
  43:.\Generated_Source\PSoC4/ADC_IRQ.c **** *  Set up the interrupt and enable it.
  44:.\Generated_Source\PSoC4/ADC_IRQ.c **** *
  45:.\Generated_Source\PSoC4/ADC_IRQ.c **** * Parameters:  
  46:.\Generated_Source\PSoC4/ADC_IRQ.c **** *   None
  47:.\Generated_Source\PSoC4/ADC_IRQ.c **** *
  48:.\Generated_Source\PSoC4/ADC_IRQ.c **** * Return:
  49:.\Generated_Source\PSoC4/ADC_IRQ.c **** *   None
  50:.\Generated_Source\PSoC4/ADC_IRQ.c **** *
  51:.\Generated_Source\PSoC4/ADC_IRQ.c **** *******************************************************************************/
  52:.\Generated_Source\PSoC4/ADC_IRQ.c **** void ADC_IRQ_Start(void)
  53:.\Generated_Source\PSoC4/ADC_IRQ.c **** {
  26              		.loc 1 53 0
  27              		.cfi_startproc
  28 0000 80B5     		push	{r7, lr}
  29              		.cfi_def_cfa_offset 8
  30              		.cfi_offset 7, -8
  31              		.cfi_offset 14, -4
  32 0002 00AF     		add	r7, sp, #0
  33              		.cfi_def_cfa_register 7
  54:.\Generated_Source\PSoC4/ADC_IRQ.c ****     /* For all we know the interrupt is active. */
  55:.\Generated_Source\PSoC4/ADC_IRQ.c ****     ADC_IRQ_Disable();
  34              		.loc 1 55 0
  35 0004 FFF7FEFF 		bl	ADC_IRQ_Disable
  56:.\Generated_Source\PSoC4/ADC_IRQ.c **** 
  57:.\Generated_Source\PSoC4/ADC_IRQ.c ****     /* Set the ISR to point to the ADC_IRQ Interrupt. */
  58:.\Generated_Source\PSoC4/ADC_IRQ.c ****     ADC_IRQ_SetVector(&ADC_IRQ_Interrupt);
  36              		.loc 1 58 0
  37 0008 054B     		ldr	r3, .L2
  38 000a 181C     		mov	r0, r3
  39 000c FFF7FEFF 		bl	ADC_IRQ_SetVector
  59:.\Generated_Source\PSoC4/ADC_IRQ.c **** 
  60:.\Generated_Source\PSoC4/ADC_IRQ.c ****     /* Set the priority. */
  61:.\Generated_Source\PSoC4/ADC_IRQ.c ****     ADC_IRQ_SetPriority((uint8)ADC_IRQ_INTC_PRIOR_NUMBER);
  40              		.loc 1 61 0
  41 0010 0320     		mov	r0, #3
  42 0012 FFF7FEFF 		bl	ADC_IRQ_SetPriority
  62:.\Generated_Source\PSoC4/ADC_IRQ.c **** 
  63:.\Generated_Source\PSoC4/ADC_IRQ.c ****     /* Enable it. */
  64:.\Generated_Source\PSoC4/ADC_IRQ.c ****     ADC_IRQ_Enable();
  43              		.loc 1 64 0
  44 0016 FFF7FEFF 		bl	ADC_IRQ_Enable
  65:.\Generated_Source\PSoC4/ADC_IRQ.c **** }
  45              		.loc 1 65 0
  46 001a BD46     		mov	sp, r7
  47              		@ sp needed
  48 001c 80BD     		pop	{r7, pc}
  49              	.L3:
ARM GAS  C:\Users\GLENNL~1\AppData\Local\Temp\ccfCrrO9.s 			page 3


  50 001e C046     		.align	2
  51              	.L2:
  52 0020 00000000 		.word	ADC_IRQ_Interrupt
  53              		.cfi_endproc
  54              	.LFE2:
  55              		.size	ADC_IRQ_Start, .-ADC_IRQ_Start
  56              		.section	.text.ADC_IRQ_StartEx,"ax",%progbits
  57              		.align	2
  58              		.global	ADC_IRQ_StartEx
  59              		.code	16
  60              		.thumb_func
  61              		.type	ADC_IRQ_StartEx, %function
  62              	ADC_IRQ_StartEx:
  63              	.LFB3:
  66:.\Generated_Source\PSoC4/ADC_IRQ.c **** 
  67:.\Generated_Source\PSoC4/ADC_IRQ.c **** 
  68:.\Generated_Source\PSoC4/ADC_IRQ.c **** /*******************************************************************************
  69:.\Generated_Source\PSoC4/ADC_IRQ.c **** * Function Name: ADC_IRQ_StartEx
  70:.\Generated_Source\PSoC4/ADC_IRQ.c **** ********************************************************************************
  71:.\Generated_Source\PSoC4/ADC_IRQ.c **** *
  72:.\Generated_Source\PSoC4/ADC_IRQ.c **** * Summary:
  73:.\Generated_Source\PSoC4/ADC_IRQ.c **** *  Set up the interrupt and enable it.
  74:.\Generated_Source\PSoC4/ADC_IRQ.c **** *
  75:.\Generated_Source\PSoC4/ADC_IRQ.c **** * Parameters:  
  76:.\Generated_Source\PSoC4/ADC_IRQ.c **** *   address: Address of the ISR to set in the interrupt vector table.
  77:.\Generated_Source\PSoC4/ADC_IRQ.c **** *
  78:.\Generated_Source\PSoC4/ADC_IRQ.c **** * Return:
  79:.\Generated_Source\PSoC4/ADC_IRQ.c **** *   None
  80:.\Generated_Source\PSoC4/ADC_IRQ.c **** *
  81:.\Generated_Source\PSoC4/ADC_IRQ.c **** *******************************************************************************/
  82:.\Generated_Source\PSoC4/ADC_IRQ.c **** void ADC_IRQ_StartEx(cyisraddress address)
  83:.\Generated_Source\PSoC4/ADC_IRQ.c **** {
  64              		.loc 1 83 0
  65              		.cfi_startproc
  66 0000 80B5     		push	{r7, lr}
  67              		.cfi_def_cfa_offset 8
  68              		.cfi_offset 7, -8
  69              		.cfi_offset 14, -4
  70 0002 82B0     		sub	sp, sp, #8
  71              		.cfi_def_cfa_offset 16
  72 0004 00AF     		add	r7, sp, #0
  73              		.cfi_def_cfa_register 7
  74 0006 7860     		str	r0, [r7, #4]
  84:.\Generated_Source\PSoC4/ADC_IRQ.c ****     /* For all we know the interrupt is active. */
  85:.\Generated_Source\PSoC4/ADC_IRQ.c ****     ADC_IRQ_Disable();
  75              		.loc 1 85 0
  76 0008 FFF7FEFF 		bl	ADC_IRQ_Disable
  86:.\Generated_Source\PSoC4/ADC_IRQ.c **** 
  87:.\Generated_Source\PSoC4/ADC_IRQ.c ****     /* Set the ISR to point to the ADC_IRQ Interrupt. */
  88:.\Generated_Source\PSoC4/ADC_IRQ.c ****     ADC_IRQ_SetVector(address);
  77              		.loc 1 88 0
  78 000c 7B68     		ldr	r3, [r7, #4]
  79 000e 181C     		mov	r0, r3
  80 0010 FFF7FEFF 		bl	ADC_IRQ_SetVector
  89:.\Generated_Source\PSoC4/ADC_IRQ.c **** 
  90:.\Generated_Source\PSoC4/ADC_IRQ.c ****     /* Set the priority. */
  91:.\Generated_Source\PSoC4/ADC_IRQ.c ****     ADC_IRQ_SetPriority((uint8)ADC_IRQ_INTC_PRIOR_NUMBER);
ARM GAS  C:\Users\GLENNL~1\AppData\Local\Temp\ccfCrrO9.s 			page 4


  81              		.loc 1 91 0
  82 0014 0320     		mov	r0, #3
  83 0016 FFF7FEFF 		bl	ADC_IRQ_SetPriority
  92:.\Generated_Source\PSoC4/ADC_IRQ.c **** 
  93:.\Generated_Source\PSoC4/ADC_IRQ.c ****     /* Enable it. */
  94:.\Generated_Source\PSoC4/ADC_IRQ.c ****     ADC_IRQ_Enable();
  84              		.loc 1 94 0
  85 001a FFF7FEFF 		bl	ADC_IRQ_Enable
  95:.\Generated_Source\PSoC4/ADC_IRQ.c **** }
  86              		.loc 1 95 0
  87 001e BD46     		mov	sp, r7
  88 0020 02B0     		add	sp, sp, #8
  89              		@ sp needed
  90 0022 80BD     		pop	{r7, pc}
  91              		.cfi_endproc
  92              	.LFE3:
  93              		.size	ADC_IRQ_StartEx, .-ADC_IRQ_StartEx
  94              		.section	.text.ADC_IRQ_Stop,"ax",%progbits
  95              		.align	2
  96              		.global	ADC_IRQ_Stop
  97              		.code	16
  98              		.thumb_func
  99              		.type	ADC_IRQ_Stop, %function
 100              	ADC_IRQ_Stop:
 101              	.LFB4:
  96:.\Generated_Source\PSoC4/ADC_IRQ.c **** 
  97:.\Generated_Source\PSoC4/ADC_IRQ.c **** 
  98:.\Generated_Source\PSoC4/ADC_IRQ.c **** /*******************************************************************************
  99:.\Generated_Source\PSoC4/ADC_IRQ.c **** * Function Name: ADC_IRQ_Stop
 100:.\Generated_Source\PSoC4/ADC_IRQ.c **** ********************************************************************************
 101:.\Generated_Source\PSoC4/ADC_IRQ.c **** *
 102:.\Generated_Source\PSoC4/ADC_IRQ.c **** * Summary:
 103:.\Generated_Source\PSoC4/ADC_IRQ.c **** *   Disables and removes the interrupt.
 104:.\Generated_Source\PSoC4/ADC_IRQ.c **** *
 105:.\Generated_Source\PSoC4/ADC_IRQ.c **** * Parameters:  
 106:.\Generated_Source\PSoC4/ADC_IRQ.c **** *
 107:.\Generated_Source\PSoC4/ADC_IRQ.c **** * Return:
 108:.\Generated_Source\PSoC4/ADC_IRQ.c **** *   None
 109:.\Generated_Source\PSoC4/ADC_IRQ.c **** *
 110:.\Generated_Source\PSoC4/ADC_IRQ.c **** *******************************************************************************/
 111:.\Generated_Source\PSoC4/ADC_IRQ.c **** void ADC_IRQ_Stop(void)
 112:.\Generated_Source\PSoC4/ADC_IRQ.c **** {
 102              		.loc 1 112 0
 103              		.cfi_startproc
 104 0000 80B5     		push	{r7, lr}
 105              		.cfi_def_cfa_offset 8
 106              		.cfi_offset 7, -8
 107              		.cfi_offset 14, -4
 108 0002 00AF     		add	r7, sp, #0
 109              		.cfi_def_cfa_register 7
 113:.\Generated_Source\PSoC4/ADC_IRQ.c ****     /* Disable this interrupt. */
 114:.\Generated_Source\PSoC4/ADC_IRQ.c ****     ADC_IRQ_Disable();
 110              		.loc 1 114 0
 111 0004 FFF7FEFF 		bl	ADC_IRQ_Disable
 115:.\Generated_Source\PSoC4/ADC_IRQ.c **** 
 116:.\Generated_Source\PSoC4/ADC_IRQ.c ****     /* Set the ISR to point to the passive one. */
 117:.\Generated_Source\PSoC4/ADC_IRQ.c ****     ADC_IRQ_SetVector(&IntDefaultHandler);
ARM GAS  C:\Users\GLENNL~1\AppData\Local\Temp\ccfCrrO9.s 			page 5


 112              		.loc 1 117 0
 113 0008 024B     		ldr	r3, .L6
 114 000a 181C     		mov	r0, r3
 115 000c FFF7FEFF 		bl	ADC_IRQ_SetVector
 118:.\Generated_Source\PSoC4/ADC_IRQ.c **** }
 116              		.loc 1 118 0
 117 0010 BD46     		mov	sp, r7
 118              		@ sp needed
 119 0012 80BD     		pop	{r7, pc}
 120              	.L7:
 121              		.align	2
 122              	.L6:
 123 0014 00000000 		.word	IntDefaultHandler
 124              		.cfi_endproc
 125              	.LFE4:
 126              		.size	ADC_IRQ_Stop, .-ADC_IRQ_Stop
 127              		.section	.text.ADC_IRQ_Interrupt,"ax",%progbits
 128              		.align	2
 129              		.global	ADC_IRQ_Interrupt
 130              		.code	16
 131              		.thumb_func
 132              		.type	ADC_IRQ_Interrupt, %function
 133              	ADC_IRQ_Interrupt:
 134              	.LFB5:
 119:.\Generated_Source\PSoC4/ADC_IRQ.c **** 
 120:.\Generated_Source\PSoC4/ADC_IRQ.c **** 
 121:.\Generated_Source\PSoC4/ADC_IRQ.c **** /*******************************************************************************
 122:.\Generated_Source\PSoC4/ADC_IRQ.c **** * Function Name: ADC_IRQ_Interrupt
 123:.\Generated_Source\PSoC4/ADC_IRQ.c **** ********************************************************************************
 124:.\Generated_Source\PSoC4/ADC_IRQ.c **** *
 125:.\Generated_Source\PSoC4/ADC_IRQ.c **** * Summary:
 126:.\Generated_Source\PSoC4/ADC_IRQ.c **** *   The default Interrupt Service Routine for ADC_IRQ.
 127:.\Generated_Source\PSoC4/ADC_IRQ.c **** *
 128:.\Generated_Source\PSoC4/ADC_IRQ.c **** *   Add custom code between the coments to keep the next version of this file
 129:.\Generated_Source\PSoC4/ADC_IRQ.c **** *   from over writting your code.
 130:.\Generated_Source\PSoC4/ADC_IRQ.c **** *
 131:.\Generated_Source\PSoC4/ADC_IRQ.c **** * Parameters:  
 132:.\Generated_Source\PSoC4/ADC_IRQ.c **** *   None
 133:.\Generated_Source\PSoC4/ADC_IRQ.c **** *
 134:.\Generated_Source\PSoC4/ADC_IRQ.c **** * Return:
 135:.\Generated_Source\PSoC4/ADC_IRQ.c **** *   None
 136:.\Generated_Source\PSoC4/ADC_IRQ.c **** *
 137:.\Generated_Source\PSoC4/ADC_IRQ.c **** *******************************************************************************/
 138:.\Generated_Source\PSoC4/ADC_IRQ.c **** CY_ISR(ADC_IRQ_Interrupt)
 139:.\Generated_Source\PSoC4/ADC_IRQ.c **** {
 135              		.loc 1 139 0
 136              		.cfi_startproc
 137 0000 80B5     		push	{r7, lr}
 138              		.cfi_def_cfa_offset 8
 139              		.cfi_offset 7, -8
 140              		.cfi_offset 14, -4
 141 0002 00AF     		add	r7, sp, #0
 142              		.cfi_def_cfa_register 7
 140:.\Generated_Source\PSoC4/ADC_IRQ.c ****     /*  Place your Interrupt code here. */
 141:.\Generated_Source\PSoC4/ADC_IRQ.c ****     /* `#START ADC_IRQ_Interrupt` */
 142:.\Generated_Source\PSoC4/ADC_IRQ.c **** 
 143:.\Generated_Source\PSoC4/ADC_IRQ.c ****     /* `#END` */
ARM GAS  C:\Users\GLENNL~1\AppData\Local\Temp\ccfCrrO9.s 			page 6


 144:.\Generated_Source\PSoC4/ADC_IRQ.c **** }
 143              		.loc 1 144 0
 144 0004 BD46     		mov	sp, r7
 145              		@ sp needed
 146 0006 80BD     		pop	{r7, pc}
 147              		.cfi_endproc
 148              	.LFE5:
 149              		.size	ADC_IRQ_Interrupt, .-ADC_IRQ_Interrupt
 150              		.section	.text.ADC_IRQ_SetVector,"ax",%progbits
 151              		.align	2
 152              		.global	ADC_IRQ_SetVector
 153              		.code	16
 154              		.thumb_func
 155              		.type	ADC_IRQ_SetVector, %function
 156              	ADC_IRQ_SetVector:
 157              	.LFB6:
 145:.\Generated_Source\PSoC4/ADC_IRQ.c **** 
 146:.\Generated_Source\PSoC4/ADC_IRQ.c **** 
 147:.\Generated_Source\PSoC4/ADC_IRQ.c **** /*******************************************************************************
 148:.\Generated_Source\PSoC4/ADC_IRQ.c **** * Function Name: ADC_IRQ_SetVector
 149:.\Generated_Source\PSoC4/ADC_IRQ.c **** ********************************************************************************
 150:.\Generated_Source\PSoC4/ADC_IRQ.c **** *
 151:.\Generated_Source\PSoC4/ADC_IRQ.c **** * Summary:
 152:.\Generated_Source\PSoC4/ADC_IRQ.c **** *   Change the ISR vector for the Interrupt. Note calling ADC_IRQ_Start
 153:.\Generated_Source\PSoC4/ADC_IRQ.c **** *   will override any effect this method would have had. To set the vector 
 154:.\Generated_Source\PSoC4/ADC_IRQ.c **** *   before the component has been started use ADC_IRQ_StartEx instead.
 155:.\Generated_Source\PSoC4/ADC_IRQ.c **** *
 156:.\Generated_Source\PSoC4/ADC_IRQ.c **** * Parameters:
 157:.\Generated_Source\PSoC4/ADC_IRQ.c **** *   address: Address of the ISR to set in the interrupt vector table.
 158:.\Generated_Source\PSoC4/ADC_IRQ.c **** *
 159:.\Generated_Source\PSoC4/ADC_IRQ.c **** * Return:
 160:.\Generated_Source\PSoC4/ADC_IRQ.c **** *   None
 161:.\Generated_Source\PSoC4/ADC_IRQ.c **** *
 162:.\Generated_Source\PSoC4/ADC_IRQ.c **** *******************************************************************************/
 163:.\Generated_Source\PSoC4/ADC_IRQ.c **** void ADC_IRQ_SetVector(cyisraddress address)
 164:.\Generated_Source\PSoC4/ADC_IRQ.c **** {
 158              		.loc 1 164 0
 159              		.cfi_startproc
 160 0000 80B5     		push	{r7, lr}
 161              		.cfi_def_cfa_offset 8
 162              		.cfi_offset 7, -8
 163              		.cfi_offset 14, -4
 164 0002 82B0     		sub	sp, sp, #8
 165              		.cfi_def_cfa_offset 16
 166 0004 00AF     		add	r7, sp, #0
 167              		.cfi_def_cfa_register 7
 168 0006 7860     		str	r0, [r7, #4]
 165:.\Generated_Source\PSoC4/ADC_IRQ.c ****     CyRamVectors[CYINT_IRQ_BASE + ADC_IRQ__INTC_NUMBER] = address;
 169              		.loc 1 165 0
 170 0008 024B     		ldr	r3, .L10
 171 000a 7A68     		ldr	r2, [r7, #4]
 172 000c DA67     		str	r2, [r3, #124]
 166:.\Generated_Source\PSoC4/ADC_IRQ.c **** }
 173              		.loc 1 166 0
 174 000e BD46     		mov	sp, r7
 175 0010 02B0     		add	sp, sp, #8
 176              		@ sp needed
ARM GAS  C:\Users\GLENNL~1\AppData\Local\Temp\ccfCrrO9.s 			page 7


 177 0012 80BD     		pop	{r7, pc}
 178              	.L11:
 179              		.align	2
 180              	.L10:
 181 0014 00000000 		.word	CyRamVectors
 182              		.cfi_endproc
 183              	.LFE6:
 184              		.size	ADC_IRQ_SetVector, .-ADC_IRQ_SetVector
 185              		.section	.text.ADC_IRQ_GetVector,"ax",%progbits
 186              		.align	2
 187              		.global	ADC_IRQ_GetVector
 188              		.code	16
 189              		.thumb_func
 190              		.type	ADC_IRQ_GetVector, %function
 191              	ADC_IRQ_GetVector:
 192              	.LFB7:
 167:.\Generated_Source\PSoC4/ADC_IRQ.c **** 
 168:.\Generated_Source\PSoC4/ADC_IRQ.c **** 
 169:.\Generated_Source\PSoC4/ADC_IRQ.c **** /*******************************************************************************
 170:.\Generated_Source\PSoC4/ADC_IRQ.c **** * Function Name: ADC_IRQ_GetVector
 171:.\Generated_Source\PSoC4/ADC_IRQ.c **** ********************************************************************************
 172:.\Generated_Source\PSoC4/ADC_IRQ.c **** *
 173:.\Generated_Source\PSoC4/ADC_IRQ.c **** * Summary:
 174:.\Generated_Source\PSoC4/ADC_IRQ.c **** *   Gets the "address" of the current ISR vector for the Interrupt.
 175:.\Generated_Source\PSoC4/ADC_IRQ.c **** *
 176:.\Generated_Source\PSoC4/ADC_IRQ.c **** * Parameters:
 177:.\Generated_Source\PSoC4/ADC_IRQ.c **** *   None
 178:.\Generated_Source\PSoC4/ADC_IRQ.c **** *
 179:.\Generated_Source\PSoC4/ADC_IRQ.c **** * Return:
 180:.\Generated_Source\PSoC4/ADC_IRQ.c **** *   Address of the ISR in the interrupt vector table.
 181:.\Generated_Source\PSoC4/ADC_IRQ.c **** *
 182:.\Generated_Source\PSoC4/ADC_IRQ.c **** *******************************************************************************/
 183:.\Generated_Source\PSoC4/ADC_IRQ.c **** cyisraddress ADC_IRQ_GetVector(void)
 184:.\Generated_Source\PSoC4/ADC_IRQ.c **** {
 193              		.loc 1 184 0
 194              		.cfi_startproc
 195 0000 80B5     		push	{r7, lr}
 196              		.cfi_def_cfa_offset 8
 197              		.cfi_offset 7, -8
 198              		.cfi_offset 14, -4
 199 0002 00AF     		add	r7, sp, #0
 200              		.cfi_def_cfa_register 7
 185:.\Generated_Source\PSoC4/ADC_IRQ.c ****     return CyRamVectors[CYINT_IRQ_BASE + ADC_IRQ__INTC_NUMBER];
 201              		.loc 1 185 0
 202 0004 024B     		ldr	r3, .L14
 203 0006 DB6F     		ldr	r3, [r3, #124]
 186:.\Generated_Source\PSoC4/ADC_IRQ.c **** }
 204              		.loc 1 186 0
 205 0008 181C     		mov	r0, r3
 206 000a BD46     		mov	sp, r7
 207              		@ sp needed
 208 000c 80BD     		pop	{r7, pc}
 209              	.L15:
 210 000e C046     		.align	2
 211              	.L14:
 212 0010 00000000 		.word	CyRamVectors
 213              		.cfi_endproc
ARM GAS  C:\Users\GLENNL~1\AppData\Local\Temp\ccfCrrO9.s 			page 8


 214              	.LFE7:
 215              		.size	ADC_IRQ_GetVector, .-ADC_IRQ_GetVector
 216              		.section	.text.ADC_IRQ_SetPriority,"ax",%progbits
 217              		.align	2
 218              		.global	ADC_IRQ_SetPriority
 219              		.code	16
 220              		.thumb_func
 221              		.type	ADC_IRQ_SetPriority, %function
 222              	ADC_IRQ_SetPriority:
 223              	.LFB8:
 187:.\Generated_Source\PSoC4/ADC_IRQ.c **** 
 188:.\Generated_Source\PSoC4/ADC_IRQ.c **** 
 189:.\Generated_Source\PSoC4/ADC_IRQ.c **** /*******************************************************************************
 190:.\Generated_Source\PSoC4/ADC_IRQ.c **** * Function Name: ADC_IRQ_SetPriority
 191:.\Generated_Source\PSoC4/ADC_IRQ.c **** ********************************************************************************
 192:.\Generated_Source\PSoC4/ADC_IRQ.c **** *
 193:.\Generated_Source\PSoC4/ADC_IRQ.c **** * Summary:
 194:.\Generated_Source\PSoC4/ADC_IRQ.c **** *   Sets the Priority of the Interrupt. Note calling ADC_IRQ_Start
 195:.\Generated_Source\PSoC4/ADC_IRQ.c **** *   or ADC_IRQ_StartEx will override any effect this method would 
 196:.\Generated_Source\PSoC4/ADC_IRQ.c **** *   have had. This method should only be called after ADC_IRQ_Start or 
 197:.\Generated_Source\PSoC4/ADC_IRQ.c **** *   ADC_IRQ_StartEx has been called. To set the initial
 198:.\Generated_Source\PSoC4/ADC_IRQ.c **** *   priority for the component use the cydwr file in the tool.
 199:.\Generated_Source\PSoC4/ADC_IRQ.c **** *
 200:.\Generated_Source\PSoC4/ADC_IRQ.c **** * Parameters:
 201:.\Generated_Source\PSoC4/ADC_IRQ.c **** *   priority: Priority of the interrupt. 0 - 3, 0 being the highest.
 202:.\Generated_Source\PSoC4/ADC_IRQ.c **** *
 203:.\Generated_Source\PSoC4/ADC_IRQ.c **** * Return:
 204:.\Generated_Source\PSoC4/ADC_IRQ.c **** *   None
 205:.\Generated_Source\PSoC4/ADC_IRQ.c **** *
 206:.\Generated_Source\PSoC4/ADC_IRQ.c **** *******************************************************************************/
 207:.\Generated_Source\PSoC4/ADC_IRQ.c **** void ADC_IRQ_SetPriority(uint8 priority)
 208:.\Generated_Source\PSoC4/ADC_IRQ.c **** {
 224              		.loc 1 208 0
 225              		.cfi_startproc
 226 0000 90B5     		push	{r4, r7, lr}
 227              		.cfi_def_cfa_offset 12
 228              		.cfi_offset 4, -12
 229              		.cfi_offset 7, -8
 230              		.cfi_offset 14, -4
 231 0002 85B0     		sub	sp, sp, #20
 232              		.cfi_def_cfa_offset 32
 233 0004 00AF     		add	r7, sp, #0
 234              		.cfi_def_cfa_register 7
 235 0006 021C     		mov	r2, r0
 236 0008 FB1D     		add	r3, r7, #7
 237 000a 1A70     		strb	r2, [r3]
 209:.\Generated_Source\PSoC4/ADC_IRQ.c **** 	uint8 interruptState;
 210:.\Generated_Source\PSoC4/ADC_IRQ.c ****     uint32 priorityOffset = ((ADC_IRQ__INTC_NUMBER % 4u) * 8u) + 6u;
 238              		.loc 1 210 0
 239 000c 1E23     		mov	r3, #30
 240 000e FB60     		str	r3, [r7, #12]
 211:.\Generated_Source\PSoC4/ADC_IRQ.c ****     
 212:.\Generated_Source\PSoC4/ADC_IRQ.c **** 	interruptState = CyEnterCriticalSection();
 241              		.loc 1 212 0
 242 0010 3C1C     		mov	r4, r7
 243 0012 0B34     		add	r4, r4, #11
 244 0014 FFF7FEFF 		bl	CyEnterCriticalSection
ARM GAS  C:\Users\GLENNL~1\AppData\Local\Temp\ccfCrrO9.s 			page 9


 245 0018 031C     		mov	r3, r0
 246 001a 2370     		strb	r3, [r4]
 213:.\Generated_Source\PSoC4/ADC_IRQ.c ****     *ADC_IRQ_INTC_PRIOR = (*ADC_IRQ_INTC_PRIOR & (uint32)(~ADC_IRQ__INTC_PRIOR_MASK)) |
 247              		.loc 1 213 0
 248 001c 0A4B     		ldr	r3, .L17
 249 001e 0A4A     		ldr	r2, .L17
 250 0020 1268     		ldr	r2, [r2]
 251 0022 9200     		lsl	r2, r2, #2
 252 0024 9108     		lsr	r1, r2, #2
 214:.\Generated_Source\PSoC4/ADC_IRQ.c ****                                     ((uint32)priority << priorityOffset);
 253              		.loc 1 214 0
 254 0026 FA1D     		add	r2, r7, #7
 255 0028 1078     		ldrb	r0, [r2]
 256 002a FA68     		ldr	r2, [r7, #12]
 257 002c 041C     		mov	r4, r0
 258 002e 9440     		lsl	r4, r4, r2
 259 0030 221C     		mov	r2, r4
 213:.\Generated_Source\PSoC4/ADC_IRQ.c ****     *ADC_IRQ_INTC_PRIOR = (*ADC_IRQ_INTC_PRIOR & (uint32)(~ADC_IRQ__INTC_PRIOR_MASK)) |
 260              		.loc 1 213 0
 261 0032 0A43     		orr	r2, r1
 262 0034 1A60     		str	r2, [r3]
 215:.\Generated_Source\PSoC4/ADC_IRQ.c **** 	CyExitCriticalSection(interruptState);
 263              		.loc 1 215 0
 264 0036 3B1C     		mov	r3, r7
 265 0038 0B33     		add	r3, r3, #11
 266 003a 1B78     		ldrb	r3, [r3]
 267 003c 181C     		mov	r0, r3
 268 003e FFF7FEFF 		bl	CyExitCriticalSection
 216:.\Generated_Source\PSoC4/ADC_IRQ.c **** }
 269              		.loc 1 216 0
 270 0042 BD46     		mov	sp, r7
 271 0044 05B0     		add	sp, sp, #20
 272              		@ sp needed
 273 0046 90BD     		pop	{r4, r7, pc}
 274              	.L18:
 275              		.align	2
 276              	.L17:
 277 0048 0CE400E0 		.word	-536812532
 278              		.cfi_endproc
 279              	.LFE8:
 280              		.size	ADC_IRQ_SetPriority, .-ADC_IRQ_SetPriority
 281              		.section	.text.ADC_IRQ_GetPriority,"ax",%progbits
 282              		.align	2
 283              		.global	ADC_IRQ_GetPriority
 284              		.code	16
 285              		.thumb_func
 286              		.type	ADC_IRQ_GetPriority, %function
 287              	ADC_IRQ_GetPriority:
 288              	.LFB9:
 217:.\Generated_Source\PSoC4/ADC_IRQ.c **** 
 218:.\Generated_Source\PSoC4/ADC_IRQ.c **** 
 219:.\Generated_Source\PSoC4/ADC_IRQ.c **** /*******************************************************************************
 220:.\Generated_Source\PSoC4/ADC_IRQ.c **** * Function Name: ADC_IRQ_GetPriority
 221:.\Generated_Source\PSoC4/ADC_IRQ.c **** ********************************************************************************
 222:.\Generated_Source\PSoC4/ADC_IRQ.c **** *
 223:.\Generated_Source\PSoC4/ADC_IRQ.c **** * Summary:
 224:.\Generated_Source\PSoC4/ADC_IRQ.c **** *   Gets the Priority of the Interrupt.
ARM GAS  C:\Users\GLENNL~1\AppData\Local\Temp\ccfCrrO9.s 			page 10


 225:.\Generated_Source\PSoC4/ADC_IRQ.c **** *
 226:.\Generated_Source\PSoC4/ADC_IRQ.c **** * Parameters:
 227:.\Generated_Source\PSoC4/ADC_IRQ.c **** *   None
 228:.\Generated_Source\PSoC4/ADC_IRQ.c **** *
 229:.\Generated_Source\PSoC4/ADC_IRQ.c **** * Return:
 230:.\Generated_Source\PSoC4/ADC_IRQ.c **** *   Priority of the interrupt. 0 - 3, 0 being the highest.
 231:.\Generated_Source\PSoC4/ADC_IRQ.c **** *
 232:.\Generated_Source\PSoC4/ADC_IRQ.c **** *******************************************************************************/
 233:.\Generated_Source\PSoC4/ADC_IRQ.c **** uint8 ADC_IRQ_GetPriority(void)
 234:.\Generated_Source\PSoC4/ADC_IRQ.c **** {
 289              		.loc 1 234 0
 290              		.cfi_startproc
 291 0000 80B5     		push	{r7, lr}
 292              		.cfi_def_cfa_offset 8
 293              		.cfi_offset 7, -8
 294              		.cfi_offset 14, -4
 295 0002 82B0     		sub	sp, sp, #8
 296              		.cfi_def_cfa_offset 16
 297 0004 00AF     		add	r7, sp, #0
 298              		.cfi_def_cfa_register 7
 235:.\Generated_Source\PSoC4/ADC_IRQ.c ****     uint32 priority;
 236:.\Generated_Source\PSoC4/ADC_IRQ.c **** 	uint32 priorityOffset = ((ADC_IRQ__INTC_NUMBER % 4u) * 8u) + 6u;
 299              		.loc 1 236 0
 300 0006 1E23     		mov	r3, #30
 301 0008 7B60     		str	r3, [r7, #4]
 237:.\Generated_Source\PSoC4/ADC_IRQ.c **** 
 238:.\Generated_Source\PSoC4/ADC_IRQ.c ****     priority = (*ADC_IRQ_INTC_PRIOR & ADC_IRQ__INTC_PRIOR_MASK) >> priorityOffset;
 302              		.loc 1 238 0
 303 000a 074B     		ldr	r3, .L21
 304 000c 1B68     		ldr	r3, [r3]
 305 000e 9B0F     		lsr	r3, r3, #30
 306 0010 9A07     		lsl	r2, r3, #30
 307 0012 7B68     		ldr	r3, [r7, #4]
 308 0014 111C     		mov	r1, r2
 309 0016 D940     		lsr	r1, r1, r3
 310 0018 0B1C     		mov	r3, r1
 311 001a 3B60     		str	r3, [r7]
 239:.\Generated_Source\PSoC4/ADC_IRQ.c **** 
 240:.\Generated_Source\PSoC4/ADC_IRQ.c ****     return (uint8)priority;
 312              		.loc 1 240 0
 313 001c 3B68     		ldr	r3, [r7]
 314 001e DBB2     		uxtb	r3, r3
 241:.\Generated_Source\PSoC4/ADC_IRQ.c **** }
 315              		.loc 1 241 0
 316 0020 181C     		mov	r0, r3
 317 0022 BD46     		mov	sp, r7
 318 0024 02B0     		add	sp, sp, #8
 319              		@ sp needed
 320 0026 80BD     		pop	{r7, pc}
 321              	.L22:
 322              		.align	2
 323              	.L21:
 324 0028 0CE400E0 		.word	-536812532
 325              		.cfi_endproc
 326              	.LFE9:
 327              		.size	ADC_IRQ_GetPriority, .-ADC_IRQ_GetPriority
 328              		.section	.text.ADC_IRQ_Enable,"ax",%progbits
ARM GAS  C:\Users\GLENNL~1\AppData\Local\Temp\ccfCrrO9.s 			page 11


 329              		.align	2
 330              		.global	ADC_IRQ_Enable
 331              		.code	16
 332              		.thumb_func
 333              		.type	ADC_IRQ_Enable, %function
 334              	ADC_IRQ_Enable:
 335              	.LFB10:
 242:.\Generated_Source\PSoC4/ADC_IRQ.c **** 
 243:.\Generated_Source\PSoC4/ADC_IRQ.c **** 
 244:.\Generated_Source\PSoC4/ADC_IRQ.c **** /*******************************************************************************
 245:.\Generated_Source\PSoC4/ADC_IRQ.c **** * Function Name: ADC_IRQ_Enable
 246:.\Generated_Source\PSoC4/ADC_IRQ.c **** ********************************************************************************
 247:.\Generated_Source\PSoC4/ADC_IRQ.c **** *
 248:.\Generated_Source\PSoC4/ADC_IRQ.c **** * Summary:
 249:.\Generated_Source\PSoC4/ADC_IRQ.c **** *   Enables the interrupt.
 250:.\Generated_Source\PSoC4/ADC_IRQ.c **** *
 251:.\Generated_Source\PSoC4/ADC_IRQ.c **** * Parameters:
 252:.\Generated_Source\PSoC4/ADC_IRQ.c **** *   None
 253:.\Generated_Source\PSoC4/ADC_IRQ.c **** *
 254:.\Generated_Source\PSoC4/ADC_IRQ.c **** * Return:
 255:.\Generated_Source\PSoC4/ADC_IRQ.c **** *   None
 256:.\Generated_Source\PSoC4/ADC_IRQ.c **** *
 257:.\Generated_Source\PSoC4/ADC_IRQ.c **** *******************************************************************************/
 258:.\Generated_Source\PSoC4/ADC_IRQ.c **** void ADC_IRQ_Enable(void)
 259:.\Generated_Source\PSoC4/ADC_IRQ.c **** {
 336              		.loc 1 259 0
 337              		.cfi_startproc
 338 0000 80B5     		push	{r7, lr}
 339              		.cfi_def_cfa_offset 8
 340              		.cfi_offset 7, -8
 341              		.cfi_offset 14, -4
 342 0002 00AF     		add	r7, sp, #0
 343              		.cfi_def_cfa_register 7
 260:.\Generated_Source\PSoC4/ADC_IRQ.c ****     /* Enable the general interrupt. */
 261:.\Generated_Source\PSoC4/ADC_IRQ.c ****     *ADC_IRQ_INTC_SET_EN = ADC_IRQ__INTC_MASK;
 344              		.loc 1 261 0
 345 0004 024B     		ldr	r3, .L24
 346 0006 8022     		mov	r2, #128
 347 0008 1202     		lsl	r2, r2, #8
 348 000a 1A60     		str	r2, [r3]
 262:.\Generated_Source\PSoC4/ADC_IRQ.c **** }
 349              		.loc 1 262 0
 350 000c BD46     		mov	sp, r7
 351              		@ sp needed
 352 000e 80BD     		pop	{r7, pc}
 353              	.L25:
 354              		.align	2
 355              	.L24:
 356 0010 00E100E0 		.word	-536813312
 357              		.cfi_endproc
 358              	.LFE10:
 359              		.size	ADC_IRQ_Enable, .-ADC_IRQ_Enable
 360              		.section	.text.ADC_IRQ_GetState,"ax",%progbits
 361              		.align	2
 362              		.global	ADC_IRQ_GetState
 363              		.code	16
 364              		.thumb_func
ARM GAS  C:\Users\GLENNL~1\AppData\Local\Temp\ccfCrrO9.s 			page 12


 365              		.type	ADC_IRQ_GetState, %function
 366              	ADC_IRQ_GetState:
 367              	.LFB11:
 263:.\Generated_Source\PSoC4/ADC_IRQ.c **** 
 264:.\Generated_Source\PSoC4/ADC_IRQ.c **** 
 265:.\Generated_Source\PSoC4/ADC_IRQ.c **** /*******************************************************************************
 266:.\Generated_Source\PSoC4/ADC_IRQ.c **** * Function Name: ADC_IRQ_GetState
 267:.\Generated_Source\PSoC4/ADC_IRQ.c **** ********************************************************************************
 268:.\Generated_Source\PSoC4/ADC_IRQ.c **** *
 269:.\Generated_Source\PSoC4/ADC_IRQ.c **** * Summary:
 270:.\Generated_Source\PSoC4/ADC_IRQ.c **** *   Gets the state (enabled, disabled) of the Interrupt.
 271:.\Generated_Source\PSoC4/ADC_IRQ.c **** *
 272:.\Generated_Source\PSoC4/ADC_IRQ.c **** * Parameters:
 273:.\Generated_Source\PSoC4/ADC_IRQ.c **** *   None
 274:.\Generated_Source\PSoC4/ADC_IRQ.c **** *
 275:.\Generated_Source\PSoC4/ADC_IRQ.c **** * Return:
 276:.\Generated_Source\PSoC4/ADC_IRQ.c **** *   1 if enabled, 0 if disabled.
 277:.\Generated_Source\PSoC4/ADC_IRQ.c **** *
 278:.\Generated_Source\PSoC4/ADC_IRQ.c **** *******************************************************************************/
 279:.\Generated_Source\PSoC4/ADC_IRQ.c **** uint8 ADC_IRQ_GetState(void)
 280:.\Generated_Source\PSoC4/ADC_IRQ.c **** {
 368              		.loc 1 280 0
 369              		.cfi_startproc
 370 0000 80B5     		push	{r7, lr}
 371              		.cfi_def_cfa_offset 8
 372              		.cfi_offset 7, -8
 373              		.cfi_offset 14, -4
 374 0002 00AF     		add	r7, sp, #0
 375              		.cfi_def_cfa_register 7
 281:.\Generated_Source\PSoC4/ADC_IRQ.c ****     /* Get the state of the general interrupt. */
 282:.\Generated_Source\PSoC4/ADC_IRQ.c ****     return ((*ADC_IRQ_INTC_SET_EN & (uint32)ADC_IRQ__INTC_MASK) != 0u) ? 1u:0u;
 376              		.loc 1 282 0
 377 0004 054B     		ldr	r3, .L30
 378 0006 1A68     		ldr	r2, [r3]
 379 0008 8023     		mov	r3, #128
 380 000a 1B02     		lsl	r3, r3, #8
 381 000c 1340     		and	r3, r2
 382 000e 01D0     		beq	.L27
 383              		.loc 1 282 0 is_stmt 0 discriminator 1
 384 0010 0123     		mov	r3, #1
 385 0012 00E0     		b	.L28
 386              	.L27:
 387              		.loc 1 282 0 discriminator 2
 388 0014 0023     		mov	r3, #0
 389              	.L28:
 283:.\Generated_Source\PSoC4/ADC_IRQ.c **** }
 390              		.loc 1 283 0 is_stmt 1 discriminator 3
 391 0016 181C     		mov	r0, r3
 392 0018 BD46     		mov	sp, r7
 393              		@ sp needed
 394 001a 80BD     		pop	{r7, pc}
 395              	.L31:
 396              		.align	2
 397              	.L30:
 398 001c 00E100E0 		.word	-536813312
 399              		.cfi_endproc
 400              	.LFE11:
ARM GAS  C:\Users\GLENNL~1\AppData\Local\Temp\ccfCrrO9.s 			page 13


 401              		.size	ADC_IRQ_GetState, .-ADC_IRQ_GetState
 402              		.section	.text.ADC_IRQ_Disable,"ax",%progbits
 403              		.align	2
 404              		.global	ADC_IRQ_Disable
 405              		.code	16
 406              		.thumb_func
 407              		.type	ADC_IRQ_Disable, %function
 408              	ADC_IRQ_Disable:
 409              	.LFB12:
 284:.\Generated_Source\PSoC4/ADC_IRQ.c **** 
 285:.\Generated_Source\PSoC4/ADC_IRQ.c **** 
 286:.\Generated_Source\PSoC4/ADC_IRQ.c **** /*******************************************************************************
 287:.\Generated_Source\PSoC4/ADC_IRQ.c **** * Function Name: ADC_IRQ_Disable
 288:.\Generated_Source\PSoC4/ADC_IRQ.c **** ********************************************************************************
 289:.\Generated_Source\PSoC4/ADC_IRQ.c **** *
 290:.\Generated_Source\PSoC4/ADC_IRQ.c **** * Summary:
 291:.\Generated_Source\PSoC4/ADC_IRQ.c **** *   Disables the Interrupt.
 292:.\Generated_Source\PSoC4/ADC_IRQ.c **** *
 293:.\Generated_Source\PSoC4/ADC_IRQ.c **** * Parameters:
 294:.\Generated_Source\PSoC4/ADC_IRQ.c **** *   None
 295:.\Generated_Source\PSoC4/ADC_IRQ.c **** *
 296:.\Generated_Source\PSoC4/ADC_IRQ.c **** * Return:
 297:.\Generated_Source\PSoC4/ADC_IRQ.c **** *   None
 298:.\Generated_Source\PSoC4/ADC_IRQ.c **** *
 299:.\Generated_Source\PSoC4/ADC_IRQ.c **** *******************************************************************************/
 300:.\Generated_Source\PSoC4/ADC_IRQ.c **** void ADC_IRQ_Disable(void)
 301:.\Generated_Source\PSoC4/ADC_IRQ.c **** {
 410              		.loc 1 301 0
 411              		.cfi_startproc
 412 0000 80B5     		push	{r7, lr}
 413              		.cfi_def_cfa_offset 8
 414              		.cfi_offset 7, -8
 415              		.cfi_offset 14, -4
 416 0002 00AF     		add	r7, sp, #0
 417              		.cfi_def_cfa_register 7
 302:.\Generated_Source\PSoC4/ADC_IRQ.c ****     /* Disable the general interrupt. */
 303:.\Generated_Source\PSoC4/ADC_IRQ.c ****     *ADC_IRQ_INTC_CLR_EN = ADC_IRQ__INTC_MASK;
 418              		.loc 1 303 0
 419 0004 024B     		ldr	r3, .L33
 420 0006 8022     		mov	r2, #128
 421 0008 1202     		lsl	r2, r2, #8
 422 000a 1A60     		str	r2, [r3]
 304:.\Generated_Source\PSoC4/ADC_IRQ.c **** }
 423              		.loc 1 304 0
 424 000c BD46     		mov	sp, r7
 425              		@ sp needed
 426 000e 80BD     		pop	{r7, pc}
 427              	.L34:
 428              		.align	2
 429              	.L33:
 430 0010 80E100E0 		.word	-536813184
 431              		.cfi_endproc
 432              	.LFE12:
 433              		.size	ADC_IRQ_Disable, .-ADC_IRQ_Disable
 434              		.section	.text.ADC_IRQ_SetPending,"ax",%progbits
 435              		.align	2
 436              		.global	ADC_IRQ_SetPending
ARM GAS  C:\Users\GLENNL~1\AppData\Local\Temp\ccfCrrO9.s 			page 14


 437              		.code	16
 438              		.thumb_func
 439              		.type	ADC_IRQ_SetPending, %function
 440              	ADC_IRQ_SetPending:
 441              	.LFB13:
 305:.\Generated_Source\PSoC4/ADC_IRQ.c **** 
 306:.\Generated_Source\PSoC4/ADC_IRQ.c **** 
 307:.\Generated_Source\PSoC4/ADC_IRQ.c **** /*******************************************************************************
 308:.\Generated_Source\PSoC4/ADC_IRQ.c **** * Function Name: ADC_IRQ_SetPending
 309:.\Generated_Source\PSoC4/ADC_IRQ.c **** ********************************************************************************
 310:.\Generated_Source\PSoC4/ADC_IRQ.c **** *
 311:.\Generated_Source\PSoC4/ADC_IRQ.c **** * Summary:
 312:.\Generated_Source\PSoC4/ADC_IRQ.c **** *   Causes the Interrupt to enter the pending state, a software method of
 313:.\Generated_Source\PSoC4/ADC_IRQ.c **** *   generating the interrupt.
 314:.\Generated_Source\PSoC4/ADC_IRQ.c **** *
 315:.\Generated_Source\PSoC4/ADC_IRQ.c **** * Parameters:
 316:.\Generated_Source\PSoC4/ADC_IRQ.c **** *   None
 317:.\Generated_Source\PSoC4/ADC_IRQ.c **** *
 318:.\Generated_Source\PSoC4/ADC_IRQ.c **** * Return:
 319:.\Generated_Source\PSoC4/ADC_IRQ.c **** *   None
 320:.\Generated_Source\PSoC4/ADC_IRQ.c **** *
 321:.\Generated_Source\PSoC4/ADC_IRQ.c **** *******************************************************************************/
 322:.\Generated_Source\PSoC4/ADC_IRQ.c **** void ADC_IRQ_SetPending(void)
 323:.\Generated_Source\PSoC4/ADC_IRQ.c **** {
 442              		.loc 1 323 0
 443              		.cfi_startproc
 444 0000 80B5     		push	{r7, lr}
 445              		.cfi_def_cfa_offset 8
 446              		.cfi_offset 7, -8
 447              		.cfi_offset 14, -4
 448 0002 00AF     		add	r7, sp, #0
 449              		.cfi_def_cfa_register 7
 324:.\Generated_Source\PSoC4/ADC_IRQ.c ****     *ADC_IRQ_INTC_SET_PD = ADC_IRQ__INTC_MASK;
 450              		.loc 1 324 0
 451 0004 024B     		ldr	r3, .L36
 452 0006 8022     		mov	r2, #128
 453 0008 1202     		lsl	r2, r2, #8
 454 000a 1A60     		str	r2, [r3]
 325:.\Generated_Source\PSoC4/ADC_IRQ.c **** }
 455              		.loc 1 325 0
 456 000c BD46     		mov	sp, r7
 457              		@ sp needed
 458 000e 80BD     		pop	{r7, pc}
 459              	.L37:
 460              		.align	2
 461              	.L36:
 462 0010 00E200E0 		.word	-536813056
 463              		.cfi_endproc
 464              	.LFE13:
 465              		.size	ADC_IRQ_SetPending, .-ADC_IRQ_SetPending
 466              		.section	.text.ADC_IRQ_ClearPending,"ax",%progbits
 467              		.align	2
 468              		.global	ADC_IRQ_ClearPending
 469              		.code	16
 470              		.thumb_func
 471              		.type	ADC_IRQ_ClearPending, %function
 472              	ADC_IRQ_ClearPending:
ARM GAS  C:\Users\GLENNL~1\AppData\Local\Temp\ccfCrrO9.s 			page 15


 473              	.LFB14:
 326:.\Generated_Source\PSoC4/ADC_IRQ.c **** 
 327:.\Generated_Source\PSoC4/ADC_IRQ.c **** 
 328:.\Generated_Source\PSoC4/ADC_IRQ.c **** /*******************************************************************************
 329:.\Generated_Source\PSoC4/ADC_IRQ.c **** * Function Name: ADC_IRQ_ClearPending
 330:.\Generated_Source\PSoC4/ADC_IRQ.c **** ********************************************************************************
 331:.\Generated_Source\PSoC4/ADC_IRQ.c **** *
 332:.\Generated_Source\PSoC4/ADC_IRQ.c **** * Summary:
 333:.\Generated_Source\PSoC4/ADC_IRQ.c **** *   Clears a pending interrupt.
 334:.\Generated_Source\PSoC4/ADC_IRQ.c **** *
 335:.\Generated_Source\PSoC4/ADC_IRQ.c **** * Parameters:
 336:.\Generated_Source\PSoC4/ADC_IRQ.c **** *   None
 337:.\Generated_Source\PSoC4/ADC_IRQ.c **** *
 338:.\Generated_Source\PSoC4/ADC_IRQ.c **** * Return:
 339:.\Generated_Source\PSoC4/ADC_IRQ.c **** *   None
 340:.\Generated_Source\PSoC4/ADC_IRQ.c **** *
 341:.\Generated_Source\PSoC4/ADC_IRQ.c **** *******************************************************************************/
 342:.\Generated_Source\PSoC4/ADC_IRQ.c **** void ADC_IRQ_ClearPending(void)
 343:.\Generated_Source\PSoC4/ADC_IRQ.c **** {
 474              		.loc 1 343 0
 475              		.cfi_startproc
 476 0000 80B5     		push	{r7, lr}
 477              		.cfi_def_cfa_offset 8
 478              		.cfi_offset 7, -8
 479              		.cfi_offset 14, -4
 480 0002 00AF     		add	r7, sp, #0
 481              		.cfi_def_cfa_register 7
 344:.\Generated_Source\PSoC4/ADC_IRQ.c ****     *ADC_IRQ_INTC_CLR_PD = ADC_IRQ__INTC_MASK;
 482              		.loc 1 344 0
 483 0004 024B     		ldr	r3, .L39
 484 0006 8022     		mov	r2, #128
 485 0008 1202     		lsl	r2, r2, #8
 486 000a 1A60     		str	r2, [r3]
 345:.\Generated_Source\PSoC4/ADC_IRQ.c **** }
 487              		.loc 1 345 0
 488 000c BD46     		mov	sp, r7
 489              		@ sp needed
 490 000e 80BD     		pop	{r7, pc}
 491              	.L40:
 492              		.align	2
 493              	.L39:
 494 0010 80E200E0 		.word	-536812928
 495              		.cfi_endproc
 496              	.LFE14:
 497              		.size	ADC_IRQ_ClearPending, .-ADC_IRQ_ClearPending
 498              		.text
 499              	.Letext0:
 500              		.file 2 ".\\Generated_Source\\PSoC4/cytypes.h"