ARM GAS  C:\Users\GLENNL~1\AppData\Local\Temp\cckvOcXV.s 			page 1


   1              		.cpu cortex-m0
   2              		.fpu softvfp
   3              		.eabi_attribute 20, 1
   4              		.eabi_attribute 21, 1
   5              		.eabi_attribute 23, 3
   6              		.eabi_attribute 24, 1
   7              		.eabi_attribute 25, 1
   8              		.eabi_attribute 26, 1
   9              		.eabi_attribute 30, 6
  10              		.eabi_attribute 34, 0
  11              		.eabi_attribute 18, 4
  12              		.code	16
  13              		.file	"ADC_PM.c"
  14              		.text
  15              	.Ltext0:
  16              		.cfi_sections	.debug_frame
  17              		.bss
  18              		.align	2
  19              	ADC_backup:
  20 0000 00       		.space	1
  21 0001 000000   		.section	.text.ADC_SaveConfig,"ax",%progbits
  22              		.align	2
  23              		.global	ADC_SaveConfig
  24              		.code	16
  25              		.thumb_func
  26              		.type	ADC_SaveConfig, %function
  27              	ADC_SaveConfig:
  28              	.LFB2:
  29              		.file 1 ".\\Generated_Source\\PSoC4\\ADC_PM.c"
   1:.\Generated_Source\PSoC4/ADC_PM.c **** /*******************************************************************************
   2:.\Generated_Source\PSoC4/ADC_PM.c **** * File Name: ADC_PM.c
   3:.\Generated_Source\PSoC4/ADC_PM.c **** * Version 2.0
   4:.\Generated_Source\PSoC4/ADC_PM.c **** *
   5:.\Generated_Source\PSoC4/ADC_PM.c **** * Description:
   6:.\Generated_Source\PSoC4/ADC_PM.c **** *  This file provides Sleep/WakeUp APIs functionality.
   7:.\Generated_Source\PSoC4/ADC_PM.c **** *
   8:.\Generated_Source\PSoC4/ADC_PM.c **** * Note:
   9:.\Generated_Source\PSoC4/ADC_PM.c **** *
  10:.\Generated_Source\PSoC4/ADC_PM.c **** ********************************************************************************
  11:.\Generated_Source\PSoC4/ADC_PM.c **** * Copyright 2008-2014, Cypress Semiconductor Corporation.  All rights reserved.
  12:.\Generated_Source\PSoC4/ADC_PM.c **** * You may use this file only in accordance with the license, terms, conditions,
  13:.\Generated_Source\PSoC4/ADC_PM.c **** * disclaimers, and limitations in the end user license agreement accompanying
  14:.\Generated_Source\PSoC4/ADC_PM.c **** * the software package with which this file was provided.
  15:.\Generated_Source\PSoC4/ADC_PM.c **** *******************************************************************************/
  16:.\Generated_Source\PSoC4/ADC_PM.c **** 
  17:.\Generated_Source\PSoC4/ADC_PM.c **** #include "ADC.h"
  18:.\Generated_Source\PSoC4/ADC_PM.c **** 
  19:.\Generated_Source\PSoC4/ADC_PM.c **** 
  20:.\Generated_Source\PSoC4/ADC_PM.c **** /***************************************
  21:.\Generated_Source\PSoC4/ADC_PM.c **** * Local data allocation
  22:.\Generated_Source\PSoC4/ADC_PM.c **** ***************************************/
  23:.\Generated_Source\PSoC4/ADC_PM.c **** 
  24:.\Generated_Source\PSoC4/ADC_PM.c **** static ADC_BACKUP_STRUCT  ADC_backup =
  25:.\Generated_Source\PSoC4/ADC_PM.c **** {
  26:.\Generated_Source\PSoC4/ADC_PM.c ****     ADC_DISABLED
  27:.\Generated_Source\PSoC4/ADC_PM.c **** };
  28:.\Generated_Source\PSoC4/ADC_PM.c **** 
ARM GAS  C:\Users\GLENNL~1\AppData\Local\Temp\cckvOcXV.s 			page 2


  29:.\Generated_Source\PSoC4/ADC_PM.c **** 
  30:.\Generated_Source\PSoC4/ADC_PM.c **** /*******************************************************************************
  31:.\Generated_Source\PSoC4/ADC_PM.c **** * Function Name: ADC_SaveConfig
  32:.\Generated_Source\PSoC4/ADC_PM.c **** ********************************************************************************
  33:.\Generated_Source\PSoC4/ADC_PM.c **** *
  34:.\Generated_Source\PSoC4/ADC_PM.c **** * Summary:
  35:.\Generated_Source\PSoC4/ADC_PM.c **** *  Saves the current user configuration.
  36:.\Generated_Source\PSoC4/ADC_PM.c **** *
  37:.\Generated_Source\PSoC4/ADC_PM.c **** * Parameters:
  38:.\Generated_Source\PSoC4/ADC_PM.c **** *  None.
  39:.\Generated_Source\PSoC4/ADC_PM.c **** *
  40:.\Generated_Source\PSoC4/ADC_PM.c **** * Return:
  41:.\Generated_Source\PSoC4/ADC_PM.c **** *  None.
  42:.\Generated_Source\PSoC4/ADC_PM.c **** *
  43:.\Generated_Source\PSoC4/ADC_PM.c **** *******************************************************************************/
  44:.\Generated_Source\PSoC4/ADC_PM.c **** void ADC_SaveConfig(void)
  45:.\Generated_Source\PSoC4/ADC_PM.c **** {
  30              		.loc 1 45 0
  31              		.cfi_startproc
  32 0000 80B5     		push	{r7, lr}
  33              		.cfi_def_cfa_offset 8
  34              		.cfi_offset 7, -8
  35              		.cfi_offset 14, -4
  36 0002 00AF     		add	r7, sp, #0
  37              		.cfi_def_cfa_register 7
  46:.\Generated_Source\PSoC4/ADC_PM.c ****     /* All configuration registers are marked as [reset_all_retention] */
  47:.\Generated_Source\PSoC4/ADC_PM.c **** }
  38              		.loc 1 47 0
  39 0004 BD46     		mov	sp, r7
  40              		@ sp needed
  41 0006 80BD     		pop	{r7, pc}
  42              		.cfi_endproc
  43              	.LFE2:
  44              		.size	ADC_SaveConfig, .-ADC_SaveConfig
  45              		.section	.text.ADC_RestoreConfig,"ax",%progbits
  46              		.align	2
  47              		.global	ADC_RestoreConfig
  48              		.code	16
  49              		.thumb_func
  50              		.type	ADC_RestoreConfig, %function
  51              	ADC_RestoreConfig:
  52              	.LFB3:
  48:.\Generated_Source\PSoC4/ADC_PM.c **** 
  49:.\Generated_Source\PSoC4/ADC_PM.c **** 
  50:.\Generated_Source\PSoC4/ADC_PM.c **** /*******************************************************************************
  51:.\Generated_Source\PSoC4/ADC_PM.c **** * Function Name: ADC_RestoreConfig
  52:.\Generated_Source\PSoC4/ADC_PM.c **** ********************************************************************************
  53:.\Generated_Source\PSoC4/ADC_PM.c **** *
  54:.\Generated_Source\PSoC4/ADC_PM.c **** * Summary:
  55:.\Generated_Source\PSoC4/ADC_PM.c **** *  Restores the current user configuration.
  56:.\Generated_Source\PSoC4/ADC_PM.c **** *
  57:.\Generated_Source\PSoC4/ADC_PM.c **** * Parameters:
  58:.\Generated_Source\PSoC4/ADC_PM.c **** *  None.
  59:.\Generated_Source\PSoC4/ADC_PM.c **** *
  60:.\Generated_Source\PSoC4/ADC_PM.c **** * Return:
  61:.\Generated_Source\PSoC4/ADC_PM.c **** *  None.
  62:.\Generated_Source\PSoC4/ADC_PM.c **** *
ARM GAS  C:\Users\GLENNL~1\AppData\Local\Temp\cckvOcXV.s 			page 3


  63:.\Generated_Source\PSoC4/ADC_PM.c **** *******************************************************************************/
  64:.\Generated_Source\PSoC4/ADC_PM.c **** void ADC_RestoreConfig(void)
  65:.\Generated_Source\PSoC4/ADC_PM.c **** {
  53              		.loc 1 65 0
  54              		.cfi_startproc
  55 0000 80B5     		push	{r7, lr}
  56              		.cfi_def_cfa_offset 8
  57              		.cfi_offset 7, -8
  58              		.cfi_offset 14, -4
  59 0002 00AF     		add	r7, sp, #0
  60              		.cfi_def_cfa_register 7
  66:.\Generated_Source\PSoC4/ADC_PM.c ****     /* All congiguration registers are marked as [reset_all_retention] */
  67:.\Generated_Source\PSoC4/ADC_PM.c **** }
  61              		.loc 1 67 0
  62 0004 BD46     		mov	sp, r7
  63              		@ sp needed
  64 0006 80BD     		pop	{r7, pc}
  65              		.cfi_endproc
  66              	.LFE3:
  67              		.size	ADC_RestoreConfig, .-ADC_RestoreConfig
  68              		.section	.text.ADC_Sleep,"ax",%progbits
  69              		.align	2
  70              		.global	ADC_Sleep
  71              		.code	16
  72              		.thumb_func
  73              		.type	ADC_Sleep, %function
  74              	ADC_Sleep:
  75              	.LFB4:
  68:.\Generated_Source\PSoC4/ADC_PM.c **** 
  69:.\Generated_Source\PSoC4/ADC_PM.c **** 
  70:.\Generated_Source\PSoC4/ADC_PM.c **** /*******************************************************************************
  71:.\Generated_Source\PSoC4/ADC_PM.c **** * Function Name: ADC_Sleep
  72:.\Generated_Source\PSoC4/ADC_PM.c **** ********************************************************************************
  73:.\Generated_Source\PSoC4/ADC_PM.c **** *
  74:.\Generated_Source\PSoC4/ADC_PM.c **** * Summary:
  75:.\Generated_Source\PSoC4/ADC_PM.c **** *  Stops the ADC operation and saves the configuration registers and component
  76:.\Generated_Source\PSoC4/ADC_PM.c **** *  enable state. Should be called just prior to entering sleep.
  77:.\Generated_Source\PSoC4/ADC_PM.c **** *
  78:.\Generated_Source\PSoC4/ADC_PM.c **** * Parameters:
  79:.\Generated_Source\PSoC4/ADC_PM.c **** *  None.
  80:.\Generated_Source\PSoC4/ADC_PM.c **** *
  81:.\Generated_Source\PSoC4/ADC_PM.c **** * Return:
  82:.\Generated_Source\PSoC4/ADC_PM.c **** *  None.
  83:.\Generated_Source\PSoC4/ADC_PM.c **** *
  84:.\Generated_Source\PSoC4/ADC_PM.c **** * Global Variables:
  85:.\Generated_Source\PSoC4/ADC_PM.c **** *  ADC_backup - modified.
  86:.\Generated_Source\PSoC4/ADC_PM.c **** *
  87:.\Generated_Source\PSoC4/ADC_PM.c **** *******************************************************************************/
  88:.\Generated_Source\PSoC4/ADC_PM.c **** void ADC_Sleep(void)
  89:.\Generated_Source\PSoC4/ADC_PM.c **** {
  76              		.loc 1 89 0
  77              		.cfi_startproc
  78 0000 80B5     		push	{r7, lr}
  79              		.cfi_def_cfa_offset 8
  80              		.cfi_offset 7, -8
  81              		.cfi_offset 14, -4
  82 0002 00AF     		add	r7, sp, #0
ARM GAS  C:\Users\GLENNL~1\AppData\Local\Temp\cckvOcXV.s 			page 4


  83              		.cfi_def_cfa_register 7
  90:.\Generated_Source\PSoC4/ADC_PM.c ****     /* During deepsleep/ hibernate mode keep SARMUX active, i.e. do not open
  91:.\Generated_Source\PSoC4/ADC_PM.c ****     *   all switches (disconnect), to be used for ADFT
  92:.\Generated_Source\PSoC4/ADC_PM.c ****     */
  93:.\Generated_Source\PSoC4/ADC_PM.c ****     ADC_SAR_DFT_CTRL_REG |= ADC_ADFT_OVERRIDE;
  84              		.loc 1 93 0
  85 0004 104B     		ldr	r3, .L8
  86 0006 104A     		ldr	r2, .L8
  87 0008 1268     		ldr	r2, [r2]
  88 000a 8021     		mov	r1, #128
  89 000c 0906     		lsl	r1, r1, #24
  90 000e 0A43     		orr	r2, r1
  91 0010 1A60     		str	r2, [r3]
  94:.\Generated_Source\PSoC4/ADC_PM.c ****     if((ADC_SAR_CTRL_REG  & ADC_ENABLE) != 0u)
  92              		.loc 1 94 0
  93 0012 0E4B     		ldr	r3, .L8+4
  94 0014 1B68     		ldr	r3, [r3]
  95 0016 002B     		cmp	r3, #0
  96 0018 11DA     		bge	.L4
  95:.\Generated_Source\PSoC4/ADC_PM.c ****     {
  96:.\Generated_Source\PSoC4/ADC_PM.c ****         if((ADC_SAR_SAMPLE_CTRL_REG & ADC_CONTINUOUS_EN) != 0u)
  97              		.loc 1 96 0
  98 001a 0D4B     		ldr	r3, .L8+8
  99 001c 1A68     		ldr	r2, [r3]
 100 001e 8023     		mov	r3, #128
 101 0020 5B02     		lsl	r3, r3, #9
 102 0022 1340     		and	r3, r2
 103 0024 03D0     		beq	.L5
  97:.\Generated_Source\PSoC4/ADC_PM.c ****         {
  98:.\Generated_Source\PSoC4/ADC_PM.c ****             ADC_backup.enableState = ADC_ENABLED | ADC_STARTED;
 104              		.loc 1 98 0
 105 0026 0B4B     		ldr	r3, .L8+12
 106 0028 0322     		mov	r2, #3
 107 002a 1A70     		strb	r2, [r3]
 108 002c 02E0     		b	.L6
 109              	.L5:
  99:.\Generated_Source\PSoC4/ADC_PM.c ****         }
 100:.\Generated_Source\PSoC4/ADC_PM.c ****         else
 101:.\Generated_Source\PSoC4/ADC_PM.c ****         {
 102:.\Generated_Source\PSoC4/ADC_PM.c ****             ADC_backup.enableState = ADC_ENABLED;
 110              		.loc 1 102 0
 111 002e 094B     		ldr	r3, .L8+12
 112 0030 0122     		mov	r2, #1
 113 0032 1A70     		strb	r2, [r3]
 114              	.L6:
 103:.\Generated_Source\PSoC4/ADC_PM.c ****         }
 104:.\Generated_Source\PSoC4/ADC_PM.c ****         ADC_StopConvert();
 115              		.loc 1 104 0 discriminator 1
 116 0034 FFF7FEFF 		bl	ADC_StopConvert
 105:.\Generated_Source\PSoC4/ADC_PM.c ****         ADC_Stop();
 117              		.loc 1 105 0 discriminator 1
 118 0038 FFF7FEFF 		bl	ADC_Stop
 119 003c 02E0     		b	.L3
 120              	.L4:
 106:.\Generated_Source\PSoC4/ADC_PM.c ****     }
 107:.\Generated_Source\PSoC4/ADC_PM.c ****     else
 108:.\Generated_Source\PSoC4/ADC_PM.c ****     {
ARM GAS  C:\Users\GLENNL~1\AppData\Local\Temp\cckvOcXV.s 			page 5


 109:.\Generated_Source\PSoC4/ADC_PM.c ****         ADC_backup.enableState = ADC_DISABLED;
 121              		.loc 1 109 0
 122 003e 054B     		ldr	r3, .L8+12
 123 0040 0022     		mov	r2, #0
 124 0042 1A70     		strb	r2, [r3]
 125              	.L3:
 110:.\Generated_Source\PSoC4/ADC_PM.c ****     }
 111:.\Generated_Source\PSoC4/ADC_PM.c **** }
 126              		.loc 1 111 0
 127 0044 BD46     		mov	sp, r7
 128              		@ sp needed
 129 0046 80BD     		pop	{r7, pc}
 130              	.L9:
 131              		.align	2
 132              	.L8:
 133 0048 30003A40 		.word	1077542960
 134 004c 00003A40 		.word	1077542912
 135 0050 04003A40 		.word	1077542916
 136 0054 00000000 		.word	ADC_backup
 137              		.cfi_endproc
 138              	.LFE4:
 139              		.size	ADC_Sleep, .-ADC_Sleep
 140              		.section	.text.ADC_Wakeup,"ax",%progbits
 141              		.align	2
 142              		.global	ADC_Wakeup
 143              		.code	16
 144              		.thumb_func
 145              		.type	ADC_Wakeup, %function
 146              	ADC_Wakeup:
 147              	.LFB5:
 112:.\Generated_Source\PSoC4/ADC_PM.c **** 
 113:.\Generated_Source\PSoC4/ADC_PM.c **** 
 114:.\Generated_Source\PSoC4/ADC_PM.c **** /*******************************************************************************
 115:.\Generated_Source\PSoC4/ADC_PM.c **** * Function Name: ADC_Wakeup
 116:.\Generated_Source\PSoC4/ADC_PM.c **** ********************************************************************************
 117:.\Generated_Source\PSoC4/ADC_PM.c **** *
 118:.\Generated_Source\PSoC4/ADC_PM.c **** * Summary:
 119:.\Generated_Source\PSoC4/ADC_PM.c **** *  Restores the component enable state and configuration registers.
 120:.\Generated_Source\PSoC4/ADC_PM.c **** *  This should be called just after awaking from sleep mode.
 121:.\Generated_Source\PSoC4/ADC_PM.c **** *
 122:.\Generated_Source\PSoC4/ADC_PM.c **** * Parameters:
 123:.\Generated_Source\PSoC4/ADC_PM.c **** *  None.
 124:.\Generated_Source\PSoC4/ADC_PM.c **** *
 125:.\Generated_Source\PSoC4/ADC_PM.c **** * Return:
 126:.\Generated_Source\PSoC4/ADC_PM.c **** *  None.
 127:.\Generated_Source\PSoC4/ADC_PM.c **** *
 128:.\Generated_Source\PSoC4/ADC_PM.c **** * Global Variables:
 129:.\Generated_Source\PSoC4/ADC_PM.c **** *  ADC_backup - used.
 130:.\Generated_Source\PSoC4/ADC_PM.c **** *
 131:.\Generated_Source\PSoC4/ADC_PM.c **** *******************************************************************************/
 132:.\Generated_Source\PSoC4/ADC_PM.c **** void ADC_Wakeup(void)
 133:.\Generated_Source\PSoC4/ADC_PM.c **** {
 148              		.loc 1 133 0
 149              		.cfi_startproc
 150 0000 80B5     		push	{r7, lr}
 151              		.cfi_def_cfa_offset 8
 152              		.cfi_offset 7, -8
ARM GAS  C:\Users\GLENNL~1\AppData\Local\Temp\cckvOcXV.s 			page 6


 153              		.cfi_offset 14, -4
 154 0002 00AF     		add	r7, sp, #0
 155              		.cfi_def_cfa_register 7
 134:.\Generated_Source\PSoC4/ADC_PM.c ****     ADC_SAR_DFT_CTRL_REG &= (uint32)~ADC_ADFT_OVERRIDE;
 156              		.loc 1 134 0
 157 0004 0A4B     		ldr	r3, .L12
 158 0006 0A4A     		ldr	r2, .L12
 159 0008 1268     		ldr	r2, [r2]
 160 000a 5200     		lsl	r2, r2, #1
 161 000c 5208     		lsr	r2, r2, #1
 162 000e 1A60     		str	r2, [r3]
 135:.\Generated_Source\PSoC4/ADC_PM.c ****     if(ADC_backup.enableState != ADC_DISABLED)
 163              		.loc 1 135 0
 164 0010 084B     		ldr	r3, .L12+4
 165 0012 1B78     		ldrb	r3, [r3]
 166 0014 002B     		cmp	r3, #0
 167 0016 09D0     		beq	.L10
 136:.\Generated_Source\PSoC4/ADC_PM.c ****     {
 137:.\Generated_Source\PSoC4/ADC_PM.c ****         ADC_Enable();
 168              		.loc 1 137 0
 169 0018 FFF7FEFF 		bl	ADC_Enable
 138:.\Generated_Source\PSoC4/ADC_PM.c ****         if((ADC_backup.enableState & ADC_STARTED) != 0u)
 170              		.loc 1 138 0
 171 001c 054B     		ldr	r3, .L12+4
 172 001e 1B78     		ldrb	r3, [r3]
 173 0020 1A1C     		mov	r2, r3
 174 0022 0223     		mov	r3, #2
 175 0024 1340     		and	r3, r2
 176 0026 01D0     		beq	.L10
 139:.\Generated_Source\PSoC4/ADC_PM.c ****         {
 140:.\Generated_Source\PSoC4/ADC_PM.c ****             ADC_StartConvert();
 177              		.loc 1 140 0
 178 0028 FFF7FEFF 		bl	ADC_StartConvert
 179              	.L10:
 141:.\Generated_Source\PSoC4/ADC_PM.c ****         }
 142:.\Generated_Source\PSoC4/ADC_PM.c ****     }
 143:.\Generated_Source\PSoC4/ADC_PM.c **** }
 180              		.loc 1 143 0
 181 002c BD46     		mov	sp, r7
 182              		@ sp needed
 183 002e 80BD     		pop	{r7, pc}
 184              	.L13:
 185              		.align	2
 186              	.L12:
 187 0030 30003A40 		.word	1077542960
 188 0034 00000000 		.word	ADC_backup
 189              		.cfi_endproc
 190              	.LFE5:
 191              		.size	ADC_Wakeup, .-ADC_Wakeup
 192              		.text
 193              	.Letext0:
 194              		.file 2 ".\\Generated_Source\\PSoC4\\cytypes.h"
 195              		.file 3 ".\\Generated_Source\\PSoC4\\ADC.h"