ARM GAS  C:\Users\GLENNL~1\AppData\Local\Temp\ccLyd2aw.s 			page 1


   1              		.cpu cortex-m0
   2              		.fpu softvfp
   3              		.eabi_attribute 20, 1
   4              		.eabi_attribute 21, 1
   5              		.eabi_attribute 23, 3
   6              		.eabi_attribute 24, 1
   7              		.eabi_attribute 25, 1
   8              		.eabi_attribute 26, 1
   9              		.eabi_attribute 30, 6
  10              		.eabi_attribute 34, 0
  11              		.eabi_attribute 18, 4
  12              		.code	16
  13              		.file	"ADC_INT.c"
  14              		.text
  15              	.Ltext0:
  16              		.cfi_sections	.debug_frame
  17              		.section	.text.ADC_ISR,"ax",%progbits
  18              		.align	2
  19              		.global	ADC_ISR
  20              		.code	16
  21              		.thumb_func
  22              		.type	ADC_ISR, %function
  23              	ADC_ISR:
  24              	.LFB2:
  25              		.file 1 ".\\Generated_Source\\PSoC4\\ADC_INT.c"
   1:.\Generated_Source\PSoC4/ADC_INT.c **** /*******************************************************************************
   2:.\Generated_Source\PSoC4/ADC_INT.c **** * File Name: ADC_INT.c
   3:.\Generated_Source\PSoC4/ADC_INT.c **** * Version 2.0
   4:.\Generated_Source\PSoC4/ADC_INT.c **** *
   5:.\Generated_Source\PSoC4/ADC_INT.c **** *  Description:
   6:.\Generated_Source\PSoC4/ADC_INT.c **** *    This file contains the code that operates during the ADC_SAR interrupt
   7:.\Generated_Source\PSoC4/ADC_INT.c **** *    service routine.
   8:.\Generated_Source\PSoC4/ADC_INT.c **** *
   9:.\Generated_Source\PSoC4/ADC_INT.c **** *   Note:
  10:.\Generated_Source\PSoC4/ADC_INT.c **** *
  11:.\Generated_Source\PSoC4/ADC_INT.c **** ********************************************************************************
  12:.\Generated_Source\PSoC4/ADC_INT.c **** * Copyright 2008-2014, Cypress Semiconductor Corporation.  All rights reserved.
  13:.\Generated_Source\PSoC4/ADC_INT.c **** * You may use this file only in accordance with the license, terms, conditions,
  14:.\Generated_Source\PSoC4/ADC_INT.c **** * disclaimers, and limitations in the end user license agreement accompanying
  15:.\Generated_Source\PSoC4/ADC_INT.c **** * the software package with which this file was provided.
  16:.\Generated_Source\PSoC4/ADC_INT.c **** *******************************************************************************/
  17:.\Generated_Source\PSoC4/ADC_INT.c **** 
  18:.\Generated_Source\PSoC4/ADC_INT.c **** #include "ADC.h"
  19:.\Generated_Source\PSoC4/ADC_INT.c **** 
  20:.\Generated_Source\PSoC4/ADC_INT.c **** 
  21:.\Generated_Source\PSoC4/ADC_INT.c **** /******************************************************************************
  22:.\Generated_Source\PSoC4/ADC_INT.c **** * Custom Declarations and Variables
  23:.\Generated_Source\PSoC4/ADC_INT.c **** * - add user inlcude files, prototypes and variables between the following
  24:.\Generated_Source\PSoC4/ADC_INT.c **** *   #START and #END tags
  25:.\Generated_Source\PSoC4/ADC_INT.c **** ******************************************************************************/
  26:.\Generated_Source\PSoC4/ADC_INT.c **** /* `#START ADC_SYS_VAR`  */
  27:.\Generated_Source\PSoC4/ADC_INT.c **** 
  28:.\Generated_Source\PSoC4/ADC_INT.c **** /* `#END`  */
  29:.\Generated_Source\PSoC4/ADC_INT.c **** 
  30:.\Generated_Source\PSoC4/ADC_INT.c **** #if(ADC_IRQ_REMOVE == 0u)
  31:.\Generated_Source\PSoC4/ADC_INT.c **** 
  32:.\Generated_Source\PSoC4/ADC_INT.c **** 
ARM GAS  C:\Users\GLENNL~1\AppData\Local\Temp\ccLyd2aw.s 			page 2


  33:.\Generated_Source\PSoC4/ADC_INT.c ****     /******************************************************************************
  34:.\Generated_Source\PSoC4/ADC_INT.c ****     * Function Name: ADC_ISR
  35:.\Generated_Source\PSoC4/ADC_INT.c ****     *******************************************************************************
  36:.\Generated_Source\PSoC4/ADC_INT.c ****     *
  37:.\Generated_Source\PSoC4/ADC_INT.c ****     * Summary:
  38:.\Generated_Source\PSoC4/ADC_INT.c ****     *  Handle Interrupt Service Routine.
  39:.\Generated_Source\PSoC4/ADC_INT.c ****     *
  40:.\Generated_Source\PSoC4/ADC_INT.c ****     * Parameters:
  41:.\Generated_Source\PSoC4/ADC_INT.c ****     *  None.
  42:.\Generated_Source\PSoC4/ADC_INT.c ****     *
  43:.\Generated_Source\PSoC4/ADC_INT.c ****     * Return:
  44:.\Generated_Source\PSoC4/ADC_INT.c ****     *  None.
  45:.\Generated_Source\PSoC4/ADC_INT.c ****     *
  46:.\Generated_Source\PSoC4/ADC_INT.c ****     * Reentrant:
  47:.\Generated_Source\PSoC4/ADC_INT.c ****     *  No.
  48:.\Generated_Source\PSoC4/ADC_INT.c ****     *
  49:.\Generated_Source\PSoC4/ADC_INT.c ****     ******************************************************************************/
  50:.\Generated_Source\PSoC4/ADC_INT.c ****     CY_ISR( ADC_ISR )
  51:.\Generated_Source\PSoC4/ADC_INT.c ****     {
  26              		.loc 1 51 0
  27              		.cfi_startproc
  28 0000 80B5     		push	{r7, lr}
  29              		.cfi_def_cfa_offset 8
  30              		.cfi_offset 7, -8
  31              		.cfi_offset 14, -4
  32 0002 82B0     		sub	sp, sp, #8
  33              		.cfi_def_cfa_offset 16
  34 0004 00AF     		add	r7, sp, #0
  35              		.cfi_def_cfa_register 7
  52:.\Generated_Source\PSoC4/ADC_INT.c ****         uint32 intr_status;
  53:.\Generated_Source\PSoC4/ADC_INT.c **** 
  54:.\Generated_Source\PSoC4/ADC_INT.c ****         /* Read interrupt status register */
  55:.\Generated_Source\PSoC4/ADC_INT.c ****         intr_status = ADC_SAR_INTR_REG;
  36              		.loc 1 55 0
  37 0006 044B     		ldr	r3, .L2
  38 0008 1B68     		ldr	r3, [r3]
  39 000a 7B60     		str	r3, [r7, #4]
  56:.\Generated_Source\PSoC4/ADC_INT.c **** 
  57:.\Generated_Source\PSoC4/ADC_INT.c ****         /************************************************************************
  58:.\Generated_Source\PSoC4/ADC_INT.c ****         *  Custom Code
  59:.\Generated_Source\PSoC4/ADC_INT.c ****         *  - add user ISR code between the following #START and #END tags
  60:.\Generated_Source\PSoC4/ADC_INT.c ****         *************************************************************************/
  61:.\Generated_Source\PSoC4/ADC_INT.c ****         /* `#START MAIN_ADC_ISR`  */
  62:.\Generated_Source\PSoC4/ADC_INT.c **** 
  63:.\Generated_Source\PSoC4/ADC_INT.c ****         /* `#END`  */
  64:.\Generated_Source\PSoC4/ADC_INT.c **** 
  65:.\Generated_Source\PSoC4/ADC_INT.c ****         /* Clear handled interrupt */
  66:.\Generated_Source\PSoC4/ADC_INT.c ****         ADC_SAR_INTR_REG = intr_status;
  40              		.loc 1 66 0
  41 000c 024B     		ldr	r3, .L2
  42 000e 7A68     		ldr	r2, [r7, #4]
  43 0010 1A60     		str	r2, [r3]
  67:.\Generated_Source\PSoC4/ADC_INT.c ****     }
  44              		.loc 1 67 0
  45 0012 BD46     		mov	sp, r7
  46 0014 02B0     		add	sp, sp, #8
  47              		@ sp needed
ARM GAS  C:\Users\GLENNL~1\AppData\Local\Temp\ccLyd2aw.s 			page 3


  48 0016 80BD     		pop	{r7, pc}
  49              	.L3:
  50              		.align	2
  51              	.L2:
  52 0018 10023A40 		.word	1077543440
  53              		.cfi_endproc
  54              	.LFE2:
  55              		.size	ADC_ISR, .-ADC_ISR
  56              		.text
  57              	.Letext0:
  58              		.file 2 ".\\Generated_Source\\PSoC4\\cytypes.h"