ARM GAS  C:\Users\GLENNL~1\AppData\Local\Temp\ccm0YKOI.s 			page 1


   1              		.cpu cortex-m0
   2              		.fpu softvfp
   3              		.eabi_attribute 20, 1
   4              		.eabi_attribute 21, 1
   5              		.eabi_attribute 23, 3
   6              		.eabi_attribute 24, 1
   7              		.eabi_attribute 25, 1
   8              		.eabi_attribute 26, 1
   9              		.eabi_attribute 30, 6
  10              		.eabi_attribute 34, 0
  11              		.eabi_attribute 18, 4
  12              		.code	16
  13              		.file	"LED_D.c"
  14              		.text
  15              	.Ltext0:
  16              		.cfi_sections	.debug_frame
  17              		.section	.text.LED_D_Write,"ax",%progbits
  18              		.align	2
  19              		.global	LED_D_Write
  20              		.code	16
  21              		.thumb_func
  22              		.type	LED_D_Write, %function
  23              	LED_D_Write:
  24              	.LFB0:
  25              		.file 1 ".\\Generated_Source\\PSoC4\\LED_D.c"
   1:.\Generated_Source\PSoC4/LED_D.c **** /*******************************************************************************
   2:.\Generated_Source\PSoC4/LED_D.c **** * File Name: LED_D.c  
   3:.\Generated_Source\PSoC4/LED_D.c **** * Version 2.10
   4:.\Generated_Source\PSoC4/LED_D.c **** *
   5:.\Generated_Source\PSoC4/LED_D.c **** * Description:
   6:.\Generated_Source\PSoC4/LED_D.c **** *  This file contains API to enable firmware control of a Pins component.
   7:.\Generated_Source\PSoC4/LED_D.c **** *
   8:.\Generated_Source\PSoC4/LED_D.c **** * Note:
   9:.\Generated_Source\PSoC4/LED_D.c **** *
  10:.\Generated_Source\PSoC4/LED_D.c **** ********************************************************************************
  11:.\Generated_Source\PSoC4/LED_D.c **** * Copyright 2008-2014, Cypress Semiconductor Corporation.  All rights reserved.
  12:.\Generated_Source\PSoC4/LED_D.c **** * You may use this file only in accordance with the license, terms, conditions, 
  13:.\Generated_Source\PSoC4/LED_D.c **** * disclaimers, and limitations in the end user license agreement accompanying 
  14:.\Generated_Source\PSoC4/LED_D.c **** * the software package with which this file was provided.
  15:.\Generated_Source\PSoC4/LED_D.c **** *******************************************************************************/
  16:.\Generated_Source\PSoC4/LED_D.c **** 
  17:.\Generated_Source\PSoC4/LED_D.c **** #include "cytypes.h"
  18:.\Generated_Source\PSoC4/LED_D.c **** #include "LED_D.h"
  19:.\Generated_Source\PSoC4/LED_D.c **** 
  20:.\Generated_Source\PSoC4/LED_D.c **** #define SetP4PinDriveMode(shift, mode)  \
  21:.\Generated_Source\PSoC4/LED_D.c ****     do { \
  22:.\Generated_Source\PSoC4/LED_D.c ****         LED_D_PC =   (LED_D_PC & \
  23:.\Generated_Source\PSoC4/LED_D.c ****                                 (uint32)(~(uint32)(LED_D_DRIVE_MODE_IND_MASK << (LED_D_DRIVE_MODE_B
  24:.\Generated_Source\PSoC4/LED_D.c ****                                 (uint32)((uint32)(mode) << (LED_D_DRIVE_MODE_BITS * (shift))); \
  25:.\Generated_Source\PSoC4/LED_D.c ****     } while (0)
  26:.\Generated_Source\PSoC4/LED_D.c **** 
  27:.\Generated_Source\PSoC4/LED_D.c **** 
  28:.\Generated_Source\PSoC4/LED_D.c **** /*******************************************************************************
  29:.\Generated_Source\PSoC4/LED_D.c **** * Function Name: LED_D_Write
  30:.\Generated_Source\PSoC4/LED_D.c **** ********************************************************************************
  31:.\Generated_Source\PSoC4/LED_D.c **** *
  32:.\Generated_Source\PSoC4/LED_D.c **** * Summary:
ARM GAS  C:\Users\GLENNL~1\AppData\Local\Temp\ccm0YKOI.s 			page 2


  33:.\Generated_Source\PSoC4/LED_D.c **** *  Assign a new value to the digital port's data output register.  
  34:.\Generated_Source\PSoC4/LED_D.c **** *
  35:.\Generated_Source\PSoC4/LED_D.c **** * Parameters:  
  36:.\Generated_Source\PSoC4/LED_D.c **** *  prtValue:  The value to be assigned to the Digital Port. 
  37:.\Generated_Source\PSoC4/LED_D.c **** *
  38:.\Generated_Source\PSoC4/LED_D.c **** * Return: 
  39:.\Generated_Source\PSoC4/LED_D.c **** *  None 
  40:.\Generated_Source\PSoC4/LED_D.c **** *  
  41:.\Generated_Source\PSoC4/LED_D.c **** *******************************************************************************/
  42:.\Generated_Source\PSoC4/LED_D.c **** void LED_D_Write(uint8 value) 
  43:.\Generated_Source\PSoC4/LED_D.c **** {
  26              		.loc 1 43 0
  27              		.cfi_startproc
  28 0000 80B5     		push	{r7, lr}
  29              		.cfi_def_cfa_offset 8
  30              		.cfi_offset 7, -8
  31              		.cfi_offset 14, -4
  32 0002 84B0     		sub	sp, sp, #16
  33              		.cfi_def_cfa_offset 24
  34 0004 00AF     		add	r7, sp, #0
  35              		.cfi_def_cfa_register 7
  36 0006 021C     		mov	r2, r0
  37 0008 FB1D     		add	r3, r7, #7
  38 000a 1A70     		strb	r2, [r3]
  44:.\Generated_Source\PSoC4/LED_D.c ****     uint8 drVal = (uint8)(LED_D_DR & (uint8)(~LED_D_MASK));
  39              		.loc 1 44 0
  40 000c 0D4B     		ldr	r3, .L2
  41 000e 1B68     		ldr	r3, [r3]
  42 0010 DAB2     		uxtb	r2, r3
  43 0012 3B1C     		mov	r3, r7
  44 0014 0F33     		add	r3, r3, #15
  45 0016 0121     		mov	r1, #1
  46 0018 8A43     		bic	r2, r1
  47 001a 1A70     		strb	r2, [r3]
  45:.\Generated_Source\PSoC4/LED_D.c ****     drVal = (drVal | ((uint8)(value << LED_D_SHIFT) & LED_D_MASK));
  48              		.loc 1 45 0
  49 001c FB1D     		add	r3, r7, #7
  50 001e 1A78     		ldrb	r2, [r3]
  51 0020 0123     		mov	r3, #1
  52 0022 1340     		and	r3, r2
  53 0024 D9B2     		uxtb	r1, r3
  54 0026 3B1C     		mov	r3, r7
  55 0028 0F33     		add	r3, r3, #15
  56 002a 3A1C     		mov	r2, r7
  57 002c 0F32     		add	r2, r2, #15
  58 002e 1278     		ldrb	r2, [r2]
  59 0030 0A43     		orr	r2, r1
  60 0032 1A70     		strb	r2, [r3]
  46:.\Generated_Source\PSoC4/LED_D.c ****     LED_D_DR = (uint32)drVal;
  61              		.loc 1 46 0
  62 0034 034B     		ldr	r3, .L2
  63 0036 3A1C     		mov	r2, r7
  64 0038 0F32     		add	r2, r2, #15
  65 003a 1278     		ldrb	r2, [r2]
  66 003c 1A60     		str	r2, [r3]
  47:.\Generated_Source\PSoC4/LED_D.c **** }
  67              		.loc 1 47 0
ARM GAS  C:\Users\GLENNL~1\AppData\Local\Temp\ccm0YKOI.s 			page 3


  68 003e BD46     		mov	sp, r7
  69 0040 04B0     		add	sp, sp, #16
  70              		@ sp needed
  71 0042 80BD     		pop	{r7, pc}
  72              	.L3:
  73              		.align	2
  74              	.L2:
  75 0044 00030440 		.word	1074004736
  76              		.cfi_endproc
  77              	.LFE0:
  78              		.size	LED_D_Write, .-LED_D_Write
  79              		.section	.text.LED_D_SetDriveMode,"ax",%progbits
  80              		.align	2
  81              		.global	LED_D_SetDriveMode
  82              		.code	16
  83              		.thumb_func
  84              		.type	LED_D_SetDriveMode, %function
  85              	LED_D_SetDriveMode:
  86              	.LFB1:
  48:.\Generated_Source\PSoC4/LED_D.c **** 
  49:.\Generated_Source\PSoC4/LED_D.c **** 
  50:.\Generated_Source\PSoC4/LED_D.c **** /*******************************************************************************
  51:.\Generated_Source\PSoC4/LED_D.c **** * Function Name: LED_D_SetDriveMode
  52:.\Generated_Source\PSoC4/LED_D.c **** ********************************************************************************
  53:.\Generated_Source\PSoC4/LED_D.c **** *
  54:.\Generated_Source\PSoC4/LED_D.c **** * Summary:
  55:.\Generated_Source\PSoC4/LED_D.c **** *  Change the drive mode on the pins of the port.
  56:.\Generated_Source\PSoC4/LED_D.c **** * 
  57:.\Generated_Source\PSoC4/LED_D.c **** * Parameters:  
  58:.\Generated_Source\PSoC4/LED_D.c **** *  mode:  Change the pins to one of the following drive modes.
  59:.\Generated_Source\PSoC4/LED_D.c **** *
  60:.\Generated_Source\PSoC4/LED_D.c **** *  LED_D_DM_STRONG     Strong Drive 
  61:.\Generated_Source\PSoC4/LED_D.c **** *  LED_D_DM_OD_HI      Open Drain, Drives High 
  62:.\Generated_Source\PSoC4/LED_D.c **** *  LED_D_DM_OD_LO      Open Drain, Drives Low 
  63:.\Generated_Source\PSoC4/LED_D.c **** *  LED_D_DM_RES_UP     Resistive Pull Up 
  64:.\Generated_Source\PSoC4/LED_D.c **** *  LED_D_DM_RES_DWN    Resistive Pull Down 
  65:.\Generated_Source\PSoC4/LED_D.c **** *  LED_D_DM_RES_UPDWN  Resistive Pull Up/Down 
  66:.\Generated_Source\PSoC4/LED_D.c **** *  LED_D_DM_DIG_HIZ    High Impedance Digital 
  67:.\Generated_Source\PSoC4/LED_D.c **** *  LED_D_DM_ALG_HIZ    High Impedance Analog 
  68:.\Generated_Source\PSoC4/LED_D.c **** *
  69:.\Generated_Source\PSoC4/LED_D.c **** * Return: 
  70:.\Generated_Source\PSoC4/LED_D.c **** *  None
  71:.\Generated_Source\PSoC4/LED_D.c **** *
  72:.\Generated_Source\PSoC4/LED_D.c **** *******************************************************************************/
  73:.\Generated_Source\PSoC4/LED_D.c **** void LED_D_SetDriveMode(uint8 mode) 
  74:.\Generated_Source\PSoC4/LED_D.c **** {
  87              		.loc 1 74 0
  88              		.cfi_startproc
  89 0000 80B5     		push	{r7, lr}
  90              		.cfi_def_cfa_offset 8
  91              		.cfi_offset 7, -8
  92              		.cfi_offset 14, -4
  93 0002 82B0     		sub	sp, sp, #8
  94              		.cfi_def_cfa_offset 16
  95 0004 00AF     		add	r7, sp, #0
  96              		.cfi_def_cfa_register 7
  97 0006 021C     		mov	r2, r0
ARM GAS  C:\Users\GLENNL~1\AppData\Local\Temp\ccm0YKOI.s 			page 4


  98 0008 FB1D     		add	r3, r7, #7
  99 000a 1A70     		strb	r2, [r3]
  75:.\Generated_Source\PSoC4/LED_D.c **** 	SetP4PinDriveMode(LED_D__0__SHIFT, mode);
 100              		.loc 1 75 0
 101 000c 064B     		ldr	r3, .L5
 102 000e 064A     		ldr	r2, .L5
 103 0010 1268     		ldr	r2, [r2]
 104 0012 0721     		mov	r1, #7
 105 0014 101C     		mov	r0, r2
 106 0016 8843     		bic	r0, r1
 107 0018 011C     		mov	r1, r0
 108 001a FA1D     		add	r2, r7, #7
 109 001c 1278     		ldrb	r2, [r2]
 110 001e 0A43     		orr	r2, r1
 111 0020 1A60     		str	r2, [r3]
  76:.\Generated_Source\PSoC4/LED_D.c **** }
 112              		.loc 1 76 0
 113 0022 BD46     		mov	sp, r7
 114 0024 02B0     		add	sp, sp, #8
 115              		@ sp needed
 116 0026 80BD     		pop	{r7, pc}
 117              	.L6:
 118              		.align	2
 119              	.L5:
 120 0028 08030440 		.word	1074004744
 121              		.cfi_endproc
 122              	.LFE1:
 123              		.size	LED_D_SetDriveMode, .-LED_D_SetDriveMode
 124              		.section	.text.LED_D_Read,"ax",%progbits
 125              		.align	2
 126              		.global	LED_D_Read
 127              		.code	16
 128              		.thumb_func
 129              		.type	LED_D_Read, %function
 130              	LED_D_Read:
 131              	.LFB2:
  77:.\Generated_Source\PSoC4/LED_D.c **** 
  78:.\Generated_Source\PSoC4/LED_D.c **** 
  79:.\Generated_Source\PSoC4/LED_D.c **** /*******************************************************************************
  80:.\Generated_Source\PSoC4/LED_D.c **** * Function Name: LED_D_Read
  81:.\Generated_Source\PSoC4/LED_D.c **** ********************************************************************************
  82:.\Generated_Source\PSoC4/LED_D.c **** *
  83:.\Generated_Source\PSoC4/LED_D.c **** * Summary:
  84:.\Generated_Source\PSoC4/LED_D.c **** *  Read the current value on the pins of the Digital Port in right justified 
  85:.\Generated_Source\PSoC4/LED_D.c **** *  form.
  86:.\Generated_Source\PSoC4/LED_D.c **** *
  87:.\Generated_Source\PSoC4/LED_D.c **** * Parameters:  
  88:.\Generated_Source\PSoC4/LED_D.c **** *  None 
  89:.\Generated_Source\PSoC4/LED_D.c **** *
  90:.\Generated_Source\PSoC4/LED_D.c **** * Return: 
  91:.\Generated_Source\PSoC4/LED_D.c **** *  Returns the current value of the Digital Port as a right justified number
  92:.\Generated_Source\PSoC4/LED_D.c **** *  
  93:.\Generated_Source\PSoC4/LED_D.c **** * Note:
  94:.\Generated_Source\PSoC4/LED_D.c **** *  Macro LED_D_ReadPS calls this function. 
  95:.\Generated_Source\PSoC4/LED_D.c **** *  
  96:.\Generated_Source\PSoC4/LED_D.c **** *******************************************************************************/
  97:.\Generated_Source\PSoC4/LED_D.c **** uint8 LED_D_Read(void) 
ARM GAS  C:\Users\GLENNL~1\AppData\Local\Temp\ccm0YKOI.s 			page 5


  98:.\Generated_Source\PSoC4/LED_D.c **** {
 132              		.loc 1 98 0
 133              		.cfi_startproc
 134 0000 80B5     		push	{r7, lr}
 135              		.cfi_def_cfa_offset 8
 136              		.cfi_offset 7, -8
 137              		.cfi_offset 14, -4
 138 0002 00AF     		add	r7, sp, #0
 139              		.cfi_def_cfa_register 7
  99:.\Generated_Source\PSoC4/LED_D.c ****     return (uint8)((LED_D_PS & LED_D_MASK) >> LED_D_SHIFT);
 140              		.loc 1 99 0
 141 0004 044B     		ldr	r3, .L9
 142 0006 1B68     		ldr	r3, [r3]
 143 0008 DAB2     		uxtb	r2, r3
 144 000a 0123     		mov	r3, #1
 145 000c 1340     		and	r3, r2
 146 000e DBB2     		uxtb	r3, r3
 100:.\Generated_Source\PSoC4/LED_D.c **** }
 147              		.loc 1 100 0
 148 0010 181C     		mov	r0, r3
 149 0012 BD46     		mov	sp, r7
 150              		@ sp needed
 151 0014 80BD     		pop	{r7, pc}
 152              	.L10:
 153 0016 C046     		.align	2
 154              	.L9:
 155 0018 04030440 		.word	1074004740
 156              		.cfi_endproc
 157              	.LFE2:
 158              		.size	LED_D_Read, .-LED_D_Read
 159              		.section	.text.LED_D_ReadDataReg,"ax",%progbits
 160              		.align	2
 161              		.global	LED_D_ReadDataReg
 162              		.code	16
 163              		.thumb_func
 164              		.type	LED_D_ReadDataReg, %function
 165              	LED_D_ReadDataReg:
 166              	.LFB3:
 101:.\Generated_Source\PSoC4/LED_D.c **** 
 102:.\Generated_Source\PSoC4/LED_D.c **** 
 103:.\Generated_Source\PSoC4/LED_D.c **** /*******************************************************************************
 104:.\Generated_Source\PSoC4/LED_D.c **** * Function Name: LED_D_ReadDataReg
 105:.\Generated_Source\PSoC4/LED_D.c **** ********************************************************************************
 106:.\Generated_Source\PSoC4/LED_D.c **** *
 107:.\Generated_Source\PSoC4/LED_D.c **** * Summary:
 108:.\Generated_Source\PSoC4/LED_D.c **** *  Read the current value assigned to a Digital Port's data output register
 109:.\Generated_Source\PSoC4/LED_D.c **** *
 110:.\Generated_Source\PSoC4/LED_D.c **** * Parameters:  
 111:.\Generated_Source\PSoC4/LED_D.c **** *  None 
 112:.\Generated_Source\PSoC4/LED_D.c **** *
 113:.\Generated_Source\PSoC4/LED_D.c **** * Return: 
 114:.\Generated_Source\PSoC4/LED_D.c **** *  Returns the current value assigned to the Digital Port's data output register
 115:.\Generated_Source\PSoC4/LED_D.c **** *  
 116:.\Generated_Source\PSoC4/LED_D.c **** *******************************************************************************/
 117:.\Generated_Source\PSoC4/LED_D.c **** uint8 LED_D_ReadDataReg(void) 
 118:.\Generated_Source\PSoC4/LED_D.c **** {
 167              		.loc 1 118 0
ARM GAS  C:\Users\GLENNL~1\AppData\Local\Temp\ccm0YKOI.s 			page 6


 168              		.cfi_startproc
 169 0000 80B5     		push	{r7, lr}
 170              		.cfi_def_cfa_offset 8
 171              		.cfi_offset 7, -8
 172              		.cfi_offset 14, -4
 173 0002 00AF     		add	r7, sp, #0
 174              		.cfi_def_cfa_register 7
 119:.\Generated_Source\PSoC4/LED_D.c ****     return (uint8)((LED_D_DR & LED_D_MASK) >> LED_D_SHIFT);
 175              		.loc 1 119 0
 176 0004 044B     		ldr	r3, .L13
 177 0006 1B68     		ldr	r3, [r3]
 178 0008 DAB2     		uxtb	r2, r3
 179 000a 0123     		mov	r3, #1
 180 000c 1340     		and	r3, r2
 181 000e DBB2     		uxtb	r3, r3
 120:.\Generated_Source\PSoC4/LED_D.c **** }
 182              		.loc 1 120 0
 183 0010 181C     		mov	r0, r3
 184 0012 BD46     		mov	sp, r7
 185              		@ sp needed
 186 0014 80BD     		pop	{r7, pc}
 187              	.L14:
 188 0016 C046     		.align	2
 189              	.L13:
 190 0018 00030440 		.word	1074004736
 191              		.cfi_endproc
 192              	.LFE3:
 193              		.size	LED_D_ReadDataReg, .-LED_D_ReadDataReg
 194              		.section	.text.LED_D_ClearInterrupt,"ax",%progbits
 195              		.align	2
 196              		.global	LED_D_ClearInterrupt
 197              		.code	16
 198              		.thumb_func
 199              		.type	LED_D_ClearInterrupt, %function
 200              	LED_D_ClearInterrupt:
 201              	.LFB4:
 121:.\Generated_Source\PSoC4/LED_D.c **** 
 122:.\Generated_Source\PSoC4/LED_D.c **** 
 123:.\Generated_Source\PSoC4/LED_D.c **** /* If Interrupts Are Enabled for this Pins component */ 
 124:.\Generated_Source\PSoC4/LED_D.c **** #if defined(LED_D_INTSTAT) 
 125:.\Generated_Source\PSoC4/LED_D.c **** 
 126:.\Generated_Source\PSoC4/LED_D.c ****     /*******************************************************************************
 127:.\Generated_Source\PSoC4/LED_D.c ****     * Function Name: LED_D_ClearInterrupt
 128:.\Generated_Source\PSoC4/LED_D.c ****     ********************************************************************************
 129:.\Generated_Source\PSoC4/LED_D.c ****     *
 130:.\Generated_Source\PSoC4/LED_D.c ****     * Summary:
 131:.\Generated_Source\PSoC4/LED_D.c ****     *  Clears any active interrupts attached to port and returns the value of the 
 132:.\Generated_Source\PSoC4/LED_D.c ****     *  interrupt status register.
 133:.\Generated_Source\PSoC4/LED_D.c ****     *
 134:.\Generated_Source\PSoC4/LED_D.c ****     * Parameters:  
 135:.\Generated_Source\PSoC4/LED_D.c ****     *  None 
 136:.\Generated_Source\PSoC4/LED_D.c ****     *
 137:.\Generated_Source\PSoC4/LED_D.c ****     * Return: 
 138:.\Generated_Source\PSoC4/LED_D.c ****     *  Returns the value of the interrupt status register
 139:.\Generated_Source\PSoC4/LED_D.c ****     *  
 140:.\Generated_Source\PSoC4/LED_D.c ****     *******************************************************************************/
 141:.\Generated_Source\PSoC4/LED_D.c ****     uint8 LED_D_ClearInterrupt(void) 
ARM GAS  C:\Users\GLENNL~1\AppData\Local\Temp\ccm0YKOI.s 			page 7


 142:.\Generated_Source\PSoC4/LED_D.c ****     {
 202              		.loc 1 142 0
 203              		.cfi_startproc
 204 0000 80B5     		push	{r7, lr}
 205              		.cfi_def_cfa_offset 8
 206              		.cfi_offset 7, -8
 207              		.cfi_offset 14, -4
 208 0002 82B0     		sub	sp, sp, #8
 209              		.cfi_def_cfa_offset 16
 210 0004 00AF     		add	r7, sp, #0
 211              		.cfi_def_cfa_register 7
 143:.\Generated_Source\PSoC4/LED_D.c **** 		uint8 maskedStatus = (uint8)(LED_D_INTSTAT & LED_D_MASK);
 212              		.loc 1 143 0
 213 0006 084B     		ldr	r3, .L17
 214 0008 1B68     		ldr	r3, [r3]
 215 000a D9B2     		uxtb	r1, r3
 216 000c FB1D     		add	r3, r7, #7
 217 000e 0122     		mov	r2, #1
 218 0010 0A40     		and	r2, r1
 219 0012 1A70     		strb	r2, [r3]
 144:.\Generated_Source\PSoC4/LED_D.c **** 		LED_D_INTSTAT = maskedStatus;
 220              		.loc 1 144 0
 221 0014 044B     		ldr	r3, .L17
 222 0016 FA1D     		add	r2, r7, #7
 223 0018 1278     		ldrb	r2, [r2]
 224 001a 1A60     		str	r2, [r3]
 145:.\Generated_Source\PSoC4/LED_D.c ****         return maskedStatus >> LED_D_SHIFT;
 225              		.loc 1 145 0
 226 001c FB1D     		add	r3, r7, #7
 227 001e 1B78     		ldrb	r3, [r3]
 146:.\Generated_Source\PSoC4/LED_D.c ****     }
 228              		.loc 1 146 0
 229 0020 181C     		mov	r0, r3
 230 0022 BD46     		mov	sp, r7
 231 0024 02B0     		add	sp, sp, #8
 232              		@ sp needed
 233 0026 80BD     		pop	{r7, pc}
 234              	.L18:
 235              		.align	2
 236              	.L17:
 237 0028 10030440 		.word	1074004752
 238              		.cfi_endproc
 239              	.LFE4:
 240              		.size	LED_D_ClearInterrupt, .-LED_D_ClearInterrupt
 241              		.text
 242              	.Letext0:
 243              		.file 2 ".\\Generated_Source\\PSoC4\\cytypes.h"