ARM GAS  C:\Users\GLENNL~1\AppData\Local\Temp\ccfMYzbm.s 			page 1


   1              		.cpu cortex-m0
   2              		.fpu softvfp
   3              		.eabi_attribute 20, 1
   4              		.eabi_attribute 21, 1
   5              		.eabi_attribute 23, 3
   6              		.eabi_attribute 24, 1
   7              		.eabi_attribute 25, 1
   8              		.eabi_attribute 26, 1
   9              		.eabi_attribute 30, 6
  10              		.eabi_attribute 34, 0
  11              		.eabi_attribute 18, 4
  12              		.code	16
  13              		.file	"LED_E.c"
  14              		.text
  15              	.Ltext0:
  16              		.cfi_sections	.debug_frame
  17              		.section	.text.LED_E_Write,"ax",%progbits
  18              		.align	2
  19              		.global	LED_E_Write
  20              		.code	16
  21              		.thumb_func
  22              		.type	LED_E_Write, %function
  23              	LED_E_Write:
  24              	.LFB0:
  25              		.file 1 ".\\Generated_Source\\PSoC4\\LED_E.c"
   1:.\Generated_Source\PSoC4/LED_E.c **** /*******************************************************************************
   2:.\Generated_Source\PSoC4/LED_E.c **** * File Name: LED_E.c  
   3:.\Generated_Source\PSoC4/LED_E.c **** * Version 2.10
   4:.\Generated_Source\PSoC4/LED_E.c **** *
   5:.\Generated_Source\PSoC4/LED_E.c **** * Description:
   6:.\Generated_Source\PSoC4/LED_E.c **** *  This file contains API to enable firmware control of a Pins component.
   7:.\Generated_Source\PSoC4/LED_E.c **** *
   8:.\Generated_Source\PSoC4/LED_E.c **** * Note:
   9:.\Generated_Source\PSoC4/LED_E.c **** *
  10:.\Generated_Source\PSoC4/LED_E.c **** ********************************************************************************
  11:.\Generated_Source\PSoC4/LED_E.c **** * Copyright 2008-2014, Cypress Semiconductor Corporation.  All rights reserved.
  12:.\Generated_Source\PSoC4/LED_E.c **** * You may use this file only in accordance with the license, terms, conditions, 
  13:.\Generated_Source\PSoC4/LED_E.c **** * disclaimers, and limitations in the end user license agreement accompanying 
  14:.\Generated_Source\PSoC4/LED_E.c **** * the software package with which this file was provided.
  15:.\Generated_Source\PSoC4/LED_E.c **** *******************************************************************************/
  16:.\Generated_Source\PSoC4/LED_E.c **** 
  17:.\Generated_Source\PSoC4/LED_E.c **** #include "cytypes.h"
  18:.\Generated_Source\PSoC4/LED_E.c **** #include "LED_E.h"
  19:.\Generated_Source\PSoC4/LED_E.c **** 
  20:.\Generated_Source\PSoC4/LED_E.c **** #define SetP4PinDriveMode(shift, mode)  \
  21:.\Generated_Source\PSoC4/LED_E.c ****     do { \
  22:.\Generated_Source\PSoC4/LED_E.c ****         LED_E_PC =   (LED_E_PC & \
  23:.\Generated_Source\PSoC4/LED_E.c ****                                 (uint32)(~(uint32)(LED_E_DRIVE_MODE_IND_MASK << (LED_E_DRIVE_MODE_B
  24:.\Generated_Source\PSoC4/LED_E.c ****                                 (uint32)((uint32)(mode) << (LED_E_DRIVE_MODE_BITS * (shift))); \
  25:.\Generated_Source\PSoC4/LED_E.c ****     } while (0)
  26:.\Generated_Source\PSoC4/LED_E.c **** 
  27:.\Generated_Source\PSoC4/LED_E.c **** 
  28:.\Generated_Source\PSoC4/LED_E.c **** /*******************************************************************************
  29:.\Generated_Source\PSoC4/LED_E.c **** * Function Name: LED_E_Write
  30:.\Generated_Source\PSoC4/LED_E.c **** ********************************************************************************
  31:.\Generated_Source\PSoC4/LED_E.c **** *
  32:.\Generated_Source\PSoC4/LED_E.c **** * Summary:
ARM GAS  C:\Users\GLENNL~1\AppData\Local\Temp\ccfMYzbm.s 			page 2


  33:.\Generated_Source\PSoC4/LED_E.c **** *  Assign a new value to the digital port's data output register.  
  34:.\Generated_Source\PSoC4/LED_E.c **** *
  35:.\Generated_Source\PSoC4/LED_E.c **** * Parameters:  
  36:.\Generated_Source\PSoC4/LED_E.c **** *  prtValue:  The value to be assigned to the Digital Port. 
  37:.\Generated_Source\PSoC4/LED_E.c **** *
  38:.\Generated_Source\PSoC4/LED_E.c **** * Return: 
  39:.\Generated_Source\PSoC4/LED_E.c **** *  None 
  40:.\Generated_Source\PSoC4/LED_E.c **** *  
  41:.\Generated_Source\PSoC4/LED_E.c **** *******************************************************************************/
  42:.\Generated_Source\PSoC4/LED_E.c **** void LED_E_Write(uint8 value) 
  43:.\Generated_Source\PSoC4/LED_E.c **** {
  26              		.loc 1 43 0
  27              		.cfi_startproc
  28 0000 80B5     		push	{r7, lr}
  29              		.cfi_def_cfa_offset 8
  30              		.cfi_offset 7, -8
  31              		.cfi_offset 14, -4
  32 0002 84B0     		sub	sp, sp, #16
  33              		.cfi_def_cfa_offset 24
  34 0004 00AF     		add	r7, sp, #0
  35              		.cfi_def_cfa_register 7
  36 0006 021C     		mov	r2, r0
  37 0008 FB1D     		add	r3, r7, #7
  38 000a 1A70     		strb	r2, [r3]
  44:.\Generated_Source\PSoC4/LED_E.c ****     uint8 drVal = (uint8)(LED_E_DR & (uint8)(~LED_E_MASK));
  39              		.loc 1 44 0
  40 000c 0E4B     		ldr	r3, .L2
  41 000e 1B68     		ldr	r3, [r3]
  42 0010 DAB2     		uxtb	r2, r3
  43 0012 3B1C     		mov	r3, r7
  44 0014 0F33     		add	r3, r3, #15
  45 0016 0221     		mov	r1, #2
  46 0018 8A43     		bic	r2, r1
  47 001a 1A70     		strb	r2, [r3]
  45:.\Generated_Source\PSoC4/LED_E.c ****     drVal = (drVal | ((uint8)(value << LED_E_SHIFT) & LED_E_MASK));
  48              		.loc 1 45 0
  49 001c FB1D     		add	r3, r7, #7
  50 001e 1B78     		ldrb	r3, [r3]
  51 0020 DB18     		add	r3, r3, r3
  52 0022 DAB2     		uxtb	r2, r3
  53 0024 0223     		mov	r3, #2
  54 0026 1340     		and	r3, r2
  55 0028 D9B2     		uxtb	r1, r3
  56 002a 3B1C     		mov	r3, r7
  57 002c 0F33     		add	r3, r3, #15
  58 002e 3A1C     		mov	r2, r7
  59 0030 0F32     		add	r2, r2, #15
  60 0032 1278     		ldrb	r2, [r2]
  61 0034 0A43     		orr	r2, r1
  62 0036 1A70     		strb	r2, [r3]
  46:.\Generated_Source\PSoC4/LED_E.c ****     LED_E_DR = (uint32)drVal;
  63              		.loc 1 46 0
  64 0038 034B     		ldr	r3, .L2
  65 003a 3A1C     		mov	r2, r7
  66 003c 0F32     		add	r2, r2, #15
  67 003e 1278     		ldrb	r2, [r2]
  68 0040 1A60     		str	r2, [r3]
ARM GAS  C:\Users\GLENNL~1\AppData\Local\Temp\ccfMYzbm.s 			page 3


  47:.\Generated_Source\PSoC4/LED_E.c **** }
  69              		.loc 1 47 0
  70 0042 BD46     		mov	sp, r7
  71 0044 04B0     		add	sp, sp, #16
  72              		@ sp needed
  73 0046 80BD     		pop	{r7, pc}
  74              	.L3:
  75              		.align	2
  76              	.L2:
  77 0048 00030440 		.word	1074004736
  78              		.cfi_endproc
  79              	.LFE0:
  80              		.size	LED_E_Write, .-LED_E_Write
  81              		.section	.text.LED_E_SetDriveMode,"ax",%progbits
  82              		.align	2
  83              		.global	LED_E_SetDriveMode
  84              		.code	16
  85              		.thumb_func
  86              		.type	LED_E_SetDriveMode, %function
  87              	LED_E_SetDriveMode:
  88              	.LFB1:
  48:.\Generated_Source\PSoC4/LED_E.c **** 
  49:.\Generated_Source\PSoC4/LED_E.c **** 
  50:.\Generated_Source\PSoC4/LED_E.c **** /*******************************************************************************
  51:.\Generated_Source\PSoC4/LED_E.c **** * Function Name: LED_E_SetDriveMode
  52:.\Generated_Source\PSoC4/LED_E.c **** ********************************************************************************
  53:.\Generated_Source\PSoC4/LED_E.c **** *
  54:.\Generated_Source\PSoC4/LED_E.c **** * Summary:
  55:.\Generated_Source\PSoC4/LED_E.c **** *  Change the drive mode on the pins of the port.
  56:.\Generated_Source\PSoC4/LED_E.c **** * 
  57:.\Generated_Source\PSoC4/LED_E.c **** * Parameters:  
  58:.\Generated_Source\PSoC4/LED_E.c **** *  mode:  Change the pins to one of the following drive modes.
  59:.\Generated_Source\PSoC4/LED_E.c **** *
  60:.\Generated_Source\PSoC4/LED_E.c **** *  LED_E_DM_STRONG     Strong Drive 
  61:.\Generated_Source\PSoC4/LED_E.c **** *  LED_E_DM_OD_HI      Open Drain, Drives High 
  62:.\Generated_Source\PSoC4/LED_E.c **** *  LED_E_DM_OD_LO      Open Drain, Drives Low 
  63:.\Generated_Source\PSoC4/LED_E.c **** *  LED_E_DM_RES_UP     Resistive Pull Up 
  64:.\Generated_Source\PSoC4/LED_E.c **** *  LED_E_DM_RES_DWN    Resistive Pull Down 
  65:.\Generated_Source\PSoC4/LED_E.c **** *  LED_E_DM_RES_UPDWN  Resistive Pull Up/Down 
  66:.\Generated_Source\PSoC4/LED_E.c **** *  LED_E_DM_DIG_HIZ    High Impedance Digital 
  67:.\Generated_Source\PSoC4/LED_E.c **** *  LED_E_DM_ALG_HIZ    High Impedance Analog 
  68:.\Generated_Source\PSoC4/LED_E.c **** *
  69:.\Generated_Source\PSoC4/LED_E.c **** * Return: 
  70:.\Generated_Source\PSoC4/LED_E.c **** *  None
  71:.\Generated_Source\PSoC4/LED_E.c **** *
  72:.\Generated_Source\PSoC4/LED_E.c **** *******************************************************************************/
  73:.\Generated_Source\PSoC4/LED_E.c **** void LED_E_SetDriveMode(uint8 mode) 
  74:.\Generated_Source\PSoC4/LED_E.c **** {
  89              		.loc 1 74 0
  90              		.cfi_startproc
  91 0000 80B5     		push	{r7, lr}
  92              		.cfi_def_cfa_offset 8
  93              		.cfi_offset 7, -8
  94              		.cfi_offset 14, -4
  95 0002 82B0     		sub	sp, sp, #8
  96              		.cfi_def_cfa_offset 16
  97 0004 00AF     		add	r7, sp, #0
ARM GAS  C:\Users\GLENNL~1\AppData\Local\Temp\ccfMYzbm.s 			page 4


  98              		.cfi_def_cfa_register 7
  99 0006 021C     		mov	r2, r0
 100 0008 FB1D     		add	r3, r7, #7
 101 000a 1A70     		strb	r2, [r3]
  75:.\Generated_Source\PSoC4/LED_E.c **** 	SetP4PinDriveMode(LED_E__0__SHIFT, mode);
 102              		.loc 1 75 0
 103 000c 074B     		ldr	r3, .L5
 104 000e 074A     		ldr	r2, .L5
 105 0010 1268     		ldr	r2, [r2]
 106 0012 3821     		mov	r1, #56
 107 0014 101C     		mov	r0, r2
 108 0016 8843     		bic	r0, r1
 109 0018 011C     		mov	r1, r0
 110 001a FA1D     		add	r2, r7, #7
 111 001c 1278     		ldrb	r2, [r2]
 112 001e D200     		lsl	r2, r2, #3
 113 0020 0A43     		orr	r2, r1
 114 0022 1A60     		str	r2, [r3]
  76:.\Generated_Source\PSoC4/LED_E.c **** }
 115              		.loc 1 76 0
 116 0024 BD46     		mov	sp, r7
 117 0026 02B0     		add	sp, sp, #8
 118              		@ sp needed
 119 0028 80BD     		pop	{r7, pc}
 120              	.L6:
 121 002a C046     		.align	2
 122              	.L5:
 123 002c 08030440 		.word	1074004744
 124              		.cfi_endproc
 125              	.LFE1:
 126              		.size	LED_E_SetDriveMode, .-LED_E_SetDriveMode
 127              		.section	.text.LED_E_Read,"ax",%progbits
 128              		.align	2
 129              		.global	LED_E_Read
 130              		.code	16
 131              		.thumb_func
 132              		.type	LED_E_Read, %function
 133              	LED_E_Read:
 134              	.LFB2:
  77:.\Generated_Source\PSoC4/LED_E.c **** 
  78:.\Generated_Source\PSoC4/LED_E.c **** 
  79:.\Generated_Source\PSoC4/LED_E.c **** /*******************************************************************************
  80:.\Generated_Source\PSoC4/LED_E.c **** * Function Name: LED_E_Read
  81:.\Generated_Source\PSoC4/LED_E.c **** ********************************************************************************
  82:.\Generated_Source\PSoC4/LED_E.c **** *
  83:.\Generated_Source\PSoC4/LED_E.c **** * Summary:
  84:.\Generated_Source\PSoC4/LED_E.c **** *  Read the current value on the pins of the Digital Port in right justified 
  85:.\Generated_Source\PSoC4/LED_E.c **** *  form.
  86:.\Generated_Source\PSoC4/LED_E.c **** *
  87:.\Generated_Source\PSoC4/LED_E.c **** * Parameters:  
  88:.\Generated_Source\PSoC4/LED_E.c **** *  None 
  89:.\Generated_Source\PSoC4/LED_E.c **** *
  90:.\Generated_Source\PSoC4/LED_E.c **** * Return: 
  91:.\Generated_Source\PSoC4/LED_E.c **** *  Returns the current value of the Digital Port as a right justified number
  92:.\Generated_Source\PSoC4/LED_E.c **** *  
  93:.\Generated_Source\PSoC4/LED_E.c **** * Note:
  94:.\Generated_Source\PSoC4/LED_E.c **** *  Macro LED_E_ReadPS calls this function. 
ARM GAS  C:\Users\GLENNL~1\AppData\Local\Temp\ccfMYzbm.s 			page 5


  95:.\Generated_Source\PSoC4/LED_E.c **** *  
  96:.\Generated_Source\PSoC4/LED_E.c **** *******************************************************************************/
  97:.\Generated_Source\PSoC4/LED_E.c **** uint8 LED_E_Read(void) 
  98:.\Generated_Source\PSoC4/LED_E.c **** {
 135              		.loc 1 98 0
 136              		.cfi_startproc
 137 0000 80B5     		push	{r7, lr}
 138              		.cfi_def_cfa_offset 8
 139              		.cfi_offset 7, -8
 140              		.cfi_offset 14, -4
 141 0002 00AF     		add	r7, sp, #0
 142              		.cfi_def_cfa_register 7
  99:.\Generated_Source\PSoC4/LED_E.c ****     return (uint8)((LED_E_PS & LED_E_MASK) >> LED_E_SHIFT);
 143              		.loc 1 99 0
 144 0004 044B     		ldr	r3, .L9
 145 0006 1A68     		ldr	r2, [r3]
 146 0008 0223     		mov	r3, #2
 147 000a 1340     		and	r3, r2
 148 000c 5B08     		lsr	r3, r3, #1
 149 000e DBB2     		uxtb	r3, r3
 100:.\Generated_Source\PSoC4/LED_E.c **** }
 150              		.loc 1 100 0
 151 0010 181C     		mov	r0, r3
 152 0012 BD46     		mov	sp, r7
 153              		@ sp needed
 154 0014 80BD     		pop	{r7, pc}
 155              	.L10:
 156 0016 C046     		.align	2
 157              	.L9:
 158 0018 04030440 		.word	1074004740
 159              		.cfi_endproc
 160              	.LFE2:
 161              		.size	LED_E_Read, .-LED_E_Read
 162              		.section	.text.LED_E_ReadDataReg,"ax",%progbits
 163              		.align	2
 164              		.global	LED_E_ReadDataReg
 165              		.code	16
 166              		.thumb_func
 167              		.type	LED_E_ReadDataReg, %function
 168              	LED_E_ReadDataReg:
 169              	.LFB3:
 101:.\Generated_Source\PSoC4/LED_E.c **** 
 102:.\Generated_Source\PSoC4/LED_E.c **** 
 103:.\Generated_Source\PSoC4/LED_E.c **** /*******************************************************************************
 104:.\Generated_Source\PSoC4/LED_E.c **** * Function Name: LED_E_ReadDataReg
 105:.\Generated_Source\PSoC4/LED_E.c **** ********************************************************************************
 106:.\Generated_Source\PSoC4/LED_E.c **** *
 107:.\Generated_Source\PSoC4/LED_E.c **** * Summary:
 108:.\Generated_Source\PSoC4/LED_E.c **** *  Read the current value assigned to a Digital Port's data output register
 109:.\Generated_Source\PSoC4/LED_E.c **** *
 110:.\Generated_Source\PSoC4/LED_E.c **** * Parameters:  
 111:.\Generated_Source\PSoC4/LED_E.c **** *  None 
 112:.\Generated_Source\PSoC4/LED_E.c **** *
 113:.\Generated_Source\PSoC4/LED_E.c **** * Return: 
 114:.\Generated_Source\PSoC4/LED_E.c **** *  Returns the current value assigned to the Digital Port's data output register
 115:.\Generated_Source\PSoC4/LED_E.c **** *  
 116:.\Generated_Source\PSoC4/LED_E.c **** *******************************************************************************/
ARM GAS  C:\Users\GLENNL~1\AppData\Local\Temp\ccfMYzbm.s 			page 6


 117:.\Generated_Source\PSoC4/LED_E.c **** uint8 LED_E_ReadDataReg(void) 
 118:.\Generated_Source\PSoC4/LED_E.c **** {
 170              		.loc 1 118 0
 171              		.cfi_startproc
 172 0000 80B5     		push	{r7, lr}
 173              		.cfi_def_cfa_offset 8
 174              		.cfi_offset 7, -8
 175              		.cfi_offset 14, -4
 176 0002 00AF     		add	r7, sp, #0
 177              		.cfi_def_cfa_register 7
 119:.\Generated_Source\PSoC4/LED_E.c ****     return (uint8)((LED_E_DR & LED_E_MASK) >> LED_E_SHIFT);
 178              		.loc 1 119 0
 179 0004 044B     		ldr	r3, .L13
 180 0006 1A68     		ldr	r2, [r3]
 181 0008 0223     		mov	r3, #2
 182 000a 1340     		and	r3, r2
 183 000c 5B08     		lsr	r3, r3, #1
 184 000e DBB2     		uxtb	r3, r3
 120:.\Generated_Source\PSoC4/LED_E.c **** }
 185              		.loc 1 120 0
 186 0010 181C     		mov	r0, r3
 187 0012 BD46     		mov	sp, r7
 188              		@ sp needed
 189 0014 80BD     		pop	{r7, pc}
 190              	.L14:
 191 0016 C046     		.align	2
 192              	.L13:
 193 0018 00030440 		.word	1074004736
 194              		.cfi_endproc
 195              	.LFE3:
 196              		.size	LED_E_ReadDataReg, .-LED_E_ReadDataReg
 197              		.section	.text.LED_E_ClearInterrupt,"ax",%progbits
 198              		.align	2
 199              		.global	LED_E_ClearInterrupt
 200              		.code	16
 201              		.thumb_func
 202              		.type	LED_E_ClearInterrupt, %function
 203              	LED_E_ClearInterrupt:
 204              	.LFB4:
 121:.\Generated_Source\PSoC4/LED_E.c **** 
 122:.\Generated_Source\PSoC4/LED_E.c **** 
 123:.\Generated_Source\PSoC4/LED_E.c **** /* If Interrupts Are Enabled for this Pins component */ 
 124:.\Generated_Source\PSoC4/LED_E.c **** #if defined(LED_E_INTSTAT) 
 125:.\Generated_Source\PSoC4/LED_E.c **** 
 126:.\Generated_Source\PSoC4/LED_E.c ****     /*******************************************************************************
 127:.\Generated_Source\PSoC4/LED_E.c ****     * Function Name: LED_E_ClearInterrupt
 128:.\Generated_Source\PSoC4/LED_E.c ****     ********************************************************************************
 129:.\Generated_Source\PSoC4/LED_E.c ****     *
 130:.\Generated_Source\PSoC4/LED_E.c ****     * Summary:
 131:.\Generated_Source\PSoC4/LED_E.c ****     *  Clears any active interrupts attached to port and returns the value of the 
 132:.\Generated_Source\PSoC4/LED_E.c ****     *  interrupt status register.
 133:.\Generated_Source\PSoC4/LED_E.c ****     *
 134:.\Generated_Source\PSoC4/LED_E.c ****     * Parameters:  
 135:.\Generated_Source\PSoC4/LED_E.c ****     *  None 
 136:.\Generated_Source\PSoC4/LED_E.c ****     *
 137:.\Generated_Source\PSoC4/LED_E.c ****     * Return: 
 138:.\Generated_Source\PSoC4/LED_E.c ****     *  Returns the value of the interrupt status register
ARM GAS  C:\Users\GLENNL~1\AppData\Local\Temp\ccfMYzbm.s 			page 7


 139:.\Generated_Source\PSoC4/LED_E.c ****     *  
 140:.\Generated_Source\PSoC4/LED_E.c ****     *******************************************************************************/
 141:.\Generated_Source\PSoC4/LED_E.c ****     uint8 LED_E_ClearInterrupt(void) 
 142:.\Generated_Source\PSoC4/LED_E.c ****     {
 205              		.loc 1 142 0
 206              		.cfi_startproc
 207 0000 80B5     		push	{r7, lr}
 208              		.cfi_def_cfa_offset 8
 209              		.cfi_offset 7, -8
 210              		.cfi_offset 14, -4
 211 0002 82B0     		sub	sp, sp, #8
 212              		.cfi_def_cfa_offset 16
 213 0004 00AF     		add	r7, sp, #0
 214              		.cfi_def_cfa_register 7
 143:.\Generated_Source\PSoC4/LED_E.c **** 		uint8 maskedStatus = (uint8)(LED_E_INTSTAT & LED_E_MASK);
 215              		.loc 1 143 0
 216 0006 094B     		ldr	r3, .L17
 217 0008 1B68     		ldr	r3, [r3]
 218 000a D9B2     		uxtb	r1, r3
 219 000c FB1D     		add	r3, r7, #7
 220 000e 0222     		mov	r2, #2
 221 0010 0A40     		and	r2, r1
 222 0012 1A70     		strb	r2, [r3]
 144:.\Generated_Source\PSoC4/LED_E.c **** 		LED_E_INTSTAT = maskedStatus;
 223              		.loc 1 144 0
 224 0014 054B     		ldr	r3, .L17
 225 0016 FA1D     		add	r2, r7, #7
 226 0018 1278     		ldrb	r2, [r2]
 227 001a 1A60     		str	r2, [r3]
 145:.\Generated_Source\PSoC4/LED_E.c ****         return maskedStatus >> LED_E_SHIFT;
 228              		.loc 1 145 0
 229 001c FB1D     		add	r3, r7, #7
 230 001e 1B78     		ldrb	r3, [r3]
 231 0020 5B08     		lsr	r3, r3, #1
 232 0022 DBB2     		uxtb	r3, r3
 146:.\Generated_Source\PSoC4/LED_E.c ****     }
 233              		.loc 1 146 0
 234 0024 181C     		mov	r0, r3
 235 0026 BD46     		mov	sp, r7
 236 0028 02B0     		add	sp, sp, #8
 237              		@ sp needed
 238 002a 80BD     		pop	{r7, pc}
 239              	.L18:
 240              		.align	2
 241              	.L17:
 242 002c 10030440 		.word	1074004752
 243              		.cfi_endproc
 244              	.LFE4:
 245              		.size	LED_E_ClearInterrupt, .-LED_E_ClearInterrupt
 246              		.text
 247              	.Letext0:
 248              		.file 2 ".\\Generated_Source\\PSoC4\\cytypes.h"