ARM GAS  C:\Users\GLENNL~1\AppData\Local\Temp\ccTF1Ucm.s 			page 1


   1              		.cpu cortex-m0
   2              		.fpu softvfp
   3              		.eabi_attribute 20, 1
   4              		.eabi_attribute 21, 1
   5              		.eabi_attribute 23, 3
   6              		.eabi_attribute 24, 1
   7              		.eabi_attribute 25, 1
   8              		.eabi_attribute 26, 1
   9              		.eabi_attribute 30, 6
  10              		.eabi_attribute 34, 0
  11              		.eabi_attribute 18, 4
  12              		.code	16
  13              		.file	"main.c"
  14              		.text
  15              	.Ltext0:
  16              		.cfi_sections	.debug_frame
  17              		.comm	i,4,4
  18              		.section	.text.count,"ax",%progbits
  19              		.align	2
  20              		.global	count
  21              		.code	16
  22              		.thumb_func
  23              		.type	count, %function
  24              	count:
  25              	.LFB35:
  26              		.file 1 ".\\main.c"
   1:.\main.c      **** #include <project.h>
   2:.\main.c      **** int i;
   3:.\main.c      **** 
   4:.\main.c      **** /* [] BINARY COUNTER FUNCTION */
   5:.\main.c      **** void count (int j)
   6:.\main.c      ****     {
  27              		.loc 1 6 0
  28              		.cfi_startproc
  29 0000 80B5     		push	{r7, lr}
  30              		.cfi_def_cfa_offset 8
  31              		.cfi_offset 7, -8
  32              		.cfi_offset 14, -4
  33 0002 82B0     		sub	sp, sp, #8
  34              		.cfi_def_cfa_offset 16
  35 0004 00AF     		add	r7, sp, #0
  36              		.cfi_def_cfa_register 7
  37 0006 7860     		str	r0, [r7, #4]
   7:.\main.c      ****         switch(j)
  38              		.loc 1 7 0
  39 0008 7B68     		ldr	r3, [r7, #4]
  40 000a 092B     		cmp	r3, #9
  41 000c 2DD8     		bhi	.L1
  42 000e 7B68     		ldr	r3, [r7, #4]
  43 0010 9A00     		lsl	r2, r3, #2
  44 0012 174B     		ldr	r3, .L14
  45 0014 D318     		add	r3, r2, r3
  46 0016 1B68     		ldr	r3, [r3]
  47 0018 9F46     		mov	pc, r3
  48              		.section	.rodata
  49              		.align	2
  50              	.L4:
ARM GAS  C:\Users\GLENNL~1\AppData\Local\Temp\ccTF1Ucm.s 			page 2


  51 0000 1A000000 		.word	.L3
  52 0004 22000000 		.word	.L5
  53 0008 2A000000 		.word	.L6
  54 000c 32000000 		.word	.L7
  55 0010 3A000000 		.word	.L8
  56 0014 42000000 		.word	.L9
  57 0018 4A000000 		.word	.L10
  58 001c 52000000 		.word	.L11
  59 0020 5A000000 		.word	.L12
  60 0024 62000000 		.word	.L13
  61              		.section	.text.count
  62              	.L3:
   8:.\main.c      ****         {
   9:.\main.c      ****             case 0:{binReg_Write(0x09);
  63              		.loc 1 9 0
  64 001a 0920     		mov	r0, #9
  65 001c FFF7FEFF 		bl	binReg_Write
  10:.\main.c      ****             break;}
  66              		.loc 1 10 0
  67 0020 23E0     		b	.L1
  68              	.L5:
  11:.\main.c      ****            
  12:.\main.c      ****             case 1:{binReg_Write(0x08);
  69              		.loc 1 12 0
  70 0022 0820     		mov	r0, #8
  71 0024 FFF7FEFF 		bl	binReg_Write
  13:.\main.c      ****             break;}
  72              		.loc 1 13 0
  73 0028 1FE0     		b	.L1
  74              	.L6:
  14:.\main.c      ****             
  15:.\main.c      ****             case 2:{binReg_Write(0x07);
  75              		.loc 1 15 0
  76 002a 0720     		mov	r0, #7
  77 002c FFF7FEFF 		bl	binReg_Write
  16:.\main.c      ****             break;} 
  78              		.loc 1 16 0
  79 0030 1BE0     		b	.L1
  80              	.L7:
  17:.\main.c      ****             
  18:.\main.c      ****             case 3:{binReg_Write(0x06);
  81              		.loc 1 18 0
  82 0032 0620     		mov	r0, #6
  83 0034 FFF7FEFF 		bl	binReg_Write
  19:.\main.c      ****             break;}
  84              		.loc 1 19 0
  85 0038 17E0     		b	.L1
  86              	.L8:
  20:.\main.c      ****             
  21:.\main.c      ****             case 4:{binReg_Write(0x05);
  87              		.loc 1 21 0
  88 003a 0520     		mov	r0, #5
  89 003c FFF7FEFF 		bl	binReg_Write
  22:.\main.c      ****             break;}
  90              		.loc 1 22 0
  91 0040 13E0     		b	.L1
  92              	.L9:
ARM GAS  C:\Users\GLENNL~1\AppData\Local\Temp\ccTF1Ucm.s 			page 3


  23:.\main.c      ****             
  24:.\main.c      ****             case 5:{binReg_Write(0x04);
  93              		.loc 1 24 0
  94 0042 0420     		mov	r0, #4
  95 0044 FFF7FEFF 		bl	binReg_Write
  25:.\main.c      ****             break;}
  96              		.loc 1 25 0
  97 0048 0FE0     		b	.L1
  98              	.L10:
  26:.\main.c      ****            
  27:.\main.c      ****             case 6:{binReg_Write(0x03);
  99              		.loc 1 27 0
 100 004a 0320     		mov	r0, #3
 101 004c FFF7FEFF 		bl	binReg_Write
  28:.\main.c      ****             break;}
 102              		.loc 1 28 0
 103 0050 0BE0     		b	.L1
 104              	.L11:
  29:.\main.c      ****             
  30:.\main.c      ****             case 7:{binReg_Write(0x02);
 105              		.loc 1 30 0
 106 0052 0220     		mov	r0, #2
 107 0054 FFF7FEFF 		bl	binReg_Write
  31:.\main.c      ****             break;} 
 108              		.loc 1 31 0
 109 0058 07E0     		b	.L1
 110              	.L12:
  32:.\main.c      ****             
  33:.\main.c      ****             case 8:{binReg_Write(0x01);
 111              		.loc 1 33 0
 112 005a 0120     		mov	r0, #1
 113 005c FFF7FEFF 		bl	binReg_Write
  34:.\main.c      ****             break;}
 114              		.loc 1 34 0
 115 0060 03E0     		b	.L1
 116              	.L13:
  35:.\main.c      ****             
  36:.\main.c      ****             case 9:{binReg_Write(0x00);
 117              		.loc 1 36 0
 118 0062 0020     		mov	r0, #0
 119 0064 FFF7FEFF 		bl	binReg_Write
  37:.\main.c      ****             break;}          
 120              		.loc 1 37 0
 121 0068 C046     		mov	r8, r8
 122              	.L1:
  38:.\main.c      ****         }
  39:.\main.c      ****     }
 123              		.loc 1 39 0
 124 006a BD46     		mov	sp, r7
 125 006c 02B0     		add	sp, sp, #8
 126              		@ sp needed
 127 006e 80BD     		pop	{r7, pc}
 128              	.L15:
 129              		.align	2
 130              	.L14:
 131 0070 00000000 		.word	.L4
 132              		.cfi_endproc
ARM GAS  C:\Users\GLENNL~1\AppData\Local\Temp\ccTF1Ucm.s 			page 4


 133              	.LFE35:
 134              		.size	count, .-count
 135              		.global	__aeabi_uidiv
 136              		.section	.text.main,"ax",%progbits
 137              		.align	2
 138              		.global	main
 139              		.code	16
 140              		.thumb_func
 141              		.type	main, %function
 142              	main:
 143              	.LFB36:
  40:.\main.c      **** 
  41:.\main.c      ****     
  42:.\main.c      **** /* [] MAIN FUNCTION */
  43:.\main.c      **** int main()
  44:.\main.c      **** {
 144              		.loc 1 44 0
 145              		.cfi_startproc
 146 0000 80B5     		push	{r7, lr}
 147              		.cfi_def_cfa_offset 8
 148              		.cfi_offset 7, -8
 149              		.cfi_offset 14, -4
 150 0002 82B0     		sub	sp, sp, #8
 151              		.cfi_def_cfa_offset 16
 152 0004 00AF     		add	r7, sp, #0
 153              		.cfi_def_cfa_register 7
  45:.\main.c      ****     uint16 ADCResults;
  46:.\main.c      ****     
  47:.\main.c      ****     CyGlobalIntEnable;
 154              		.loc 1 47 0
 155              	@ 47 ".\main.c" 1
 156 0006 62B6     		CPSIE   i
 157              	@ 0 "" 2
  48:.\main.c      ****     
  49:.\main.c      ****     ADC_Start();
 158              		.loc 1 49 0
 159              		.code	16
 160 0008 FFF7FEFF 		bl	ADC_Start
  50:.\main.c      ****     ADC_StartConvert();
 161              		.loc 1 50 0
 162 000c FFF7FEFF 		bl	ADC_StartConvert
  51:.\main.c      ****     ADC_IsEndConversion(ADC_WAIT_FOR_RESULT);
 163              		.loc 1 51 0
 164 0010 0220     		mov	r0, #2
 165 0012 FFF7FEFF 		bl	ADC_IsEndConversion
 166              	.L17:
  52:.\main.c      ****     
  53:.\main.c      ****     
  54:.\main.c      ****     for(;;) // [] LOOP LIKE AN ARDUINO --->
  55:.\main.c      ****     {
  56:.\main.c      ****         ADCResults = ADC_GetResult16(0);
 167              		.loc 1 56 0 discriminator 1
 168 0016 0020     		mov	r0, #0
 169 0018 FFF7FEFF 		bl	ADC_GetResult16
 170 001c 031C     		mov	r3, r0
 171 001e 1A1C     		mov	r2, r3
 172 0020 BB1D     		add	r3, r7, #6
ARM GAS  C:\Users\GLENNL~1\AppData\Local\Temp\ccTF1Ucm.s 			page 5


 173 0022 1A80     		strh	r2, [r3]
  57:.\main.c      ****         count(ADCResults / 220);
 174              		.loc 1 57 0 discriminator 1
 175 0024 BB1D     		add	r3, r7, #6
 176 0026 1B88     		ldrh	r3, [r3]
 177 0028 181C     		mov	r0, r3
 178 002a DC21     		mov	r1, #220
 179 002c FFF7FEFF 		bl	__aeabi_uidiv
 180 0030 031C     		mov	r3, r0
 181 0032 9BB2     		uxth	r3, r3
 182 0034 181C     		mov	r0, r3
 183 0036 FFF7FEFF 		bl	count
  58:.\main.c      ****         CyDelay(50);
 184              		.loc 1 58 0 discriminator 1
 185 003a 3220     		mov	r0, #50
 186 003c FFF7FEFF 		bl	CyDelay
  59:.\main.c      ****         
  60:.\main.c      ****         /*------------------ FOR LOOP FOR TESTING 7 SEGMENT DISPLAY -----------
  61:.\main.c      ****         for(i=0;i<=9;i++) //this for loop adds +1 to variable i
  62:.\main.c      ****         {
  63:.\main.c      ****             count(i); //takes the value of i and puts it in "count( )" function
  64:.\main.c      ****             CyDelay(1000); // delays the next code to excecute
  65:.\main.c      ****         }
  66:.\main.c      ****         -----------------------------------------------------------------------*/
  67:.\main.c      **** 
  68:.\main.c      ****     }       // [] LOOP ENDS --->
 187              		.loc 1 68 0 discriminator 1
 188 0040 E9E7     		b	.L17
 189              		.cfi_endproc
 190              	.LFE36:
 191              		.size	main, .-main
 192 0042 C046     		.text
 193              	.Letext0:
 194              		.file 2 ".\\Generated_Source\\PSoC4/cytypes.h"