ARM GAS  C:\Users\GLENNL~1\AppData\Local\Temp\cczWlFJ5.s 			page 1


   1              		.cpu cortex-m0
   2              		.fpu softvfp
   3              		.eabi_attribute 20, 1
   4              		.eabi_attribute 21, 1
   5              		.eabi_attribute 23, 3
   6              		.eabi_attribute 24, 1
   7              		.eabi_attribute 25, 1
   8              		.eabi_attribute 26, 1
   9              		.eabi_attribute 30, 6
  10              		.eabi_attribute 34, 0
  11              		.eabi_attribute 18, 4
  12              		.code	16
  13              		.file	"UART_1_PM.c"
  14              		.text
  15              	.Ltext0:
  16              		.cfi_sections	.debug_frame
  17              		.global	UART_1_backup
  18              		.bss
  19              		.align	2
  20              		.type	UART_1_backup, %object
  21              		.size	UART_1_backup, 1
  22              	UART_1_backup:
  23 0000 00       		.space	1
  24 0001 000000   		.section	.text.UART_1_Sleep,"ax",%progbits
  25              		.align	2
  26              		.global	UART_1_Sleep
  27              		.code	16
  28              		.thumb_func
  29              		.type	UART_1_Sleep, %function
  30              	UART_1_Sleep:
  31              	.LFB2:
  32              		.file 1 ".\\Generated_Source\\PSoC4\\UART_1_PM.c"
   1:.\Generated_Source\PSoC4/UART_1_PM.c **** /*******************************************************************************
   2:.\Generated_Source\PSoC4/UART_1_PM.c **** * File Name: UART_1_PM.c
   3:.\Generated_Source\PSoC4/UART_1_PM.c **** * Version 2.0
   4:.\Generated_Source\PSoC4/UART_1_PM.c **** *
   5:.\Generated_Source\PSoC4/UART_1_PM.c **** * Description:
   6:.\Generated_Source\PSoC4/UART_1_PM.c **** *  This file provides the source code to the Power Management support for
   7:.\Generated_Source\PSoC4/UART_1_PM.c **** *  the SCB Component.
   8:.\Generated_Source\PSoC4/UART_1_PM.c **** *
   9:.\Generated_Source\PSoC4/UART_1_PM.c **** * Note:
  10:.\Generated_Source\PSoC4/UART_1_PM.c **** *
  11:.\Generated_Source\PSoC4/UART_1_PM.c **** ********************************************************************************
  12:.\Generated_Source\PSoC4/UART_1_PM.c **** * Copyright 2013-2014, Cypress Semiconductor Corporation.  All rights reserved.
  13:.\Generated_Source\PSoC4/UART_1_PM.c **** * You may use this file only in accordance with the license, terms, conditions,
  14:.\Generated_Source\PSoC4/UART_1_PM.c **** * disclaimers, and limitations in the end user license agreement accompanying
  15:.\Generated_Source\PSoC4/UART_1_PM.c **** * the software package with which this file was provided.
  16:.\Generated_Source\PSoC4/UART_1_PM.c **** *******************************************************************************/
  17:.\Generated_Source\PSoC4/UART_1_PM.c **** 
  18:.\Generated_Source\PSoC4/UART_1_PM.c **** #include "UART_1.h"
  19:.\Generated_Source\PSoC4/UART_1_PM.c **** #include "UART_1_PVT.h"
  20:.\Generated_Source\PSoC4/UART_1_PM.c **** 
  21:.\Generated_Source\PSoC4/UART_1_PM.c **** #if(UART_1_SCB_MODE_I2C_INC)
  22:.\Generated_Source\PSoC4/UART_1_PM.c ****     #include "UART_1_I2C_PVT.h"
  23:.\Generated_Source\PSoC4/UART_1_PM.c **** #endif /* (UART_1_SCB_MODE_I2C_INC) */
  24:.\Generated_Source\PSoC4/UART_1_PM.c **** 
  25:.\Generated_Source\PSoC4/UART_1_PM.c **** #if(UART_1_SCB_MODE_EZI2C_INC)
ARM GAS  C:\Users\GLENNL~1\AppData\Local\Temp\cczWlFJ5.s 			page 2


  26:.\Generated_Source\PSoC4/UART_1_PM.c ****     #include "UART_1_EZI2C_PVT.h"
  27:.\Generated_Source\PSoC4/UART_1_PM.c **** #endif /* (UART_1_SCB_MODE_EZI2C_INC) */
  28:.\Generated_Source\PSoC4/UART_1_PM.c **** 
  29:.\Generated_Source\PSoC4/UART_1_PM.c **** #if(UART_1_SCB_MODE_SPI_INC || UART_1_SCB_MODE_UART_INC)
  30:.\Generated_Source\PSoC4/UART_1_PM.c ****     #include "UART_1_SPI_UART_PVT.h"
  31:.\Generated_Source\PSoC4/UART_1_PM.c **** #endif /* (UART_1_SCB_MODE_SPI_INC || UART_1_SCB_MODE_UART_INC) */
  32:.\Generated_Source\PSoC4/UART_1_PM.c **** 
  33:.\Generated_Source\PSoC4/UART_1_PM.c **** 
  34:.\Generated_Source\PSoC4/UART_1_PM.c **** /***************************************
  35:.\Generated_Source\PSoC4/UART_1_PM.c **** *   Backup Structure declaration
  36:.\Generated_Source\PSoC4/UART_1_PM.c **** ***************************************/
  37:.\Generated_Source\PSoC4/UART_1_PM.c **** 
  38:.\Generated_Source\PSoC4/UART_1_PM.c **** #if(UART_1_SCB_MODE_UNCONFIG_CONST_CFG || \
  39:.\Generated_Source\PSoC4/UART_1_PM.c ****    (UART_1_SCB_MODE_I2C_CONST_CFG   && (!UART_1_I2C_WAKE_ENABLE_CONST))   || \
  40:.\Generated_Source\PSoC4/UART_1_PM.c ****    (UART_1_SCB_MODE_EZI2C_CONST_CFG && (!UART_1_EZI2C_WAKE_ENABLE_CONST)) || \
  41:.\Generated_Source\PSoC4/UART_1_PM.c ****    (UART_1_SCB_MODE_SPI_CONST_CFG   && (!UART_1_SPI_WAKE_ENABLE_CONST))   || \
  42:.\Generated_Source\PSoC4/UART_1_PM.c ****    (UART_1_SCB_MODE_UART_CONST_CFG  && (!UART_1_UART_WAKE_ENABLE_CONST)))
  43:.\Generated_Source\PSoC4/UART_1_PM.c **** 
  44:.\Generated_Source\PSoC4/UART_1_PM.c ****     UART_1_BACKUP_STRUCT UART_1_backup =
  45:.\Generated_Source\PSoC4/UART_1_PM.c ****     {
  46:.\Generated_Source\PSoC4/UART_1_PM.c ****         0u, /* enableState */
  47:.\Generated_Source\PSoC4/UART_1_PM.c ****     };
  48:.\Generated_Source\PSoC4/UART_1_PM.c **** #endif
  49:.\Generated_Source\PSoC4/UART_1_PM.c **** 
  50:.\Generated_Source\PSoC4/UART_1_PM.c **** 
  51:.\Generated_Source\PSoC4/UART_1_PM.c **** /*******************************************************************************
  52:.\Generated_Source\PSoC4/UART_1_PM.c **** * Function Name: UART_1_Sleep
  53:.\Generated_Source\PSoC4/UART_1_PM.c **** ********************************************************************************
  54:.\Generated_Source\PSoC4/UART_1_PM.c **** *
  55:.\Generated_Source\PSoC4/UART_1_PM.c **** * Summary:
  56:.\Generated_Source\PSoC4/UART_1_PM.c **** *  Prepares the component to enter Deep Sleep.
  57:.\Generated_Source\PSoC4/UART_1_PM.c **** *  The "Enable wakeup from Sleep Mode" selection has an influence on
  58:.\Generated_Source\PSoC4/UART_1_PM.c **** *  this function implementation.
  59:.\Generated_Source\PSoC4/UART_1_PM.c **** *
  60:.\Generated_Source\PSoC4/UART_1_PM.c **** * Parameters:
  61:.\Generated_Source\PSoC4/UART_1_PM.c **** *  None
  62:.\Generated_Source\PSoC4/UART_1_PM.c **** *
  63:.\Generated_Source\PSoC4/UART_1_PM.c **** * Return:
  64:.\Generated_Source\PSoC4/UART_1_PM.c **** *  None
  65:.\Generated_Source\PSoC4/UART_1_PM.c **** *
  66:.\Generated_Source\PSoC4/UART_1_PM.c **** *******************************************************************************/
  67:.\Generated_Source\PSoC4/UART_1_PM.c **** void UART_1_Sleep(void)
  68:.\Generated_Source\PSoC4/UART_1_PM.c **** {
  33              		.loc 1 68 0
  34              		.cfi_startproc
  35 0000 80B5     		push	{r7, lr}
  36              		.cfi_def_cfa_offset 8
  37              		.cfi_offset 7, -8
  38              		.cfi_offset 14, -4
  39 0002 00AF     		add	r7, sp, #0
  40              		.cfi_def_cfa_register 7
  69:.\Generated_Source\PSoC4/UART_1_PM.c **** #if(UART_1_SCB_MODE_UNCONFIG_CONST_CFG)
  70:.\Generated_Source\PSoC4/UART_1_PM.c **** 
  71:.\Generated_Source\PSoC4/UART_1_PM.c ****     if(UART_1_SCB_WAKE_ENABLE_CHECK)
  72:.\Generated_Source\PSoC4/UART_1_PM.c ****     {
  73:.\Generated_Source\PSoC4/UART_1_PM.c ****         if(UART_1_SCB_MODE_I2C_RUNTM_CFG)
  74:.\Generated_Source\PSoC4/UART_1_PM.c ****         {
ARM GAS  C:\Users\GLENNL~1\AppData\Local\Temp\cczWlFJ5.s 			page 3


  75:.\Generated_Source\PSoC4/UART_1_PM.c ****             UART_1_I2CSaveConfig();
  76:.\Generated_Source\PSoC4/UART_1_PM.c ****         }
  77:.\Generated_Source\PSoC4/UART_1_PM.c ****         else if(UART_1_SCB_MODE_EZI2C_RUNTM_CFG)
  78:.\Generated_Source\PSoC4/UART_1_PM.c ****         {
  79:.\Generated_Source\PSoC4/UART_1_PM.c ****             UART_1_EzI2CSaveConfig();
  80:.\Generated_Source\PSoC4/UART_1_PM.c ****         }
  81:.\Generated_Source\PSoC4/UART_1_PM.c ****     #if(!UART_1_CY_SCBIP_V1)
  82:.\Generated_Source\PSoC4/UART_1_PM.c ****         else if(UART_1_SCB_MODE_SPI_RUNTM_CFG)
  83:.\Generated_Source\PSoC4/UART_1_PM.c ****         {
  84:.\Generated_Source\PSoC4/UART_1_PM.c ****             UART_1_SpiSaveConfig();
  85:.\Generated_Source\PSoC4/UART_1_PM.c ****         }
  86:.\Generated_Source\PSoC4/UART_1_PM.c ****         else if(UART_1_SCB_MODE_UART_RUNTM_CFG)
  87:.\Generated_Source\PSoC4/UART_1_PM.c ****         {
  88:.\Generated_Source\PSoC4/UART_1_PM.c ****             UART_1_UartSaveConfig();
  89:.\Generated_Source\PSoC4/UART_1_PM.c ****         }
  90:.\Generated_Source\PSoC4/UART_1_PM.c ****     #endif /* (!UART_1_CY_SCBIP_V1) */
  91:.\Generated_Source\PSoC4/UART_1_PM.c ****         else
  92:.\Generated_Source\PSoC4/UART_1_PM.c ****         {
  93:.\Generated_Source\PSoC4/UART_1_PM.c ****             /* Unknown mode */
  94:.\Generated_Source\PSoC4/UART_1_PM.c ****         }
  95:.\Generated_Source\PSoC4/UART_1_PM.c ****     }
  96:.\Generated_Source\PSoC4/UART_1_PM.c ****     else
  97:.\Generated_Source\PSoC4/UART_1_PM.c ****     {
  98:.\Generated_Source\PSoC4/UART_1_PM.c ****         UART_1_backup.enableState = (uint8) UART_1_GET_CTRL_ENABLED;
  99:.\Generated_Source\PSoC4/UART_1_PM.c **** 
 100:.\Generated_Source\PSoC4/UART_1_PM.c ****         if(0u != UART_1_backup.enableState)
 101:.\Generated_Source\PSoC4/UART_1_PM.c ****         {
 102:.\Generated_Source\PSoC4/UART_1_PM.c ****             UART_1_Stop();
 103:.\Generated_Source\PSoC4/UART_1_PM.c ****         }
 104:.\Generated_Source\PSoC4/UART_1_PM.c ****     }
 105:.\Generated_Source\PSoC4/UART_1_PM.c **** 
 106:.\Generated_Source\PSoC4/UART_1_PM.c **** #else
 107:.\Generated_Source\PSoC4/UART_1_PM.c **** 
 108:.\Generated_Source\PSoC4/UART_1_PM.c ****     #if (UART_1_SCB_MODE_I2C_CONST_CFG && UART_1_I2C_WAKE_ENABLE_CONST)
 109:.\Generated_Source\PSoC4/UART_1_PM.c ****         UART_1_I2CSaveConfig();
 110:.\Generated_Source\PSoC4/UART_1_PM.c **** 
 111:.\Generated_Source\PSoC4/UART_1_PM.c ****     #elif (UART_1_SCB_MODE_EZI2C_CONST_CFG && UART_1_EZI2C_WAKE_ENABLE_CONST)
 112:.\Generated_Source\PSoC4/UART_1_PM.c ****         UART_1_EzI2CSaveConfig();
 113:.\Generated_Source\PSoC4/UART_1_PM.c **** 
 114:.\Generated_Source\PSoC4/UART_1_PM.c ****     #elif (UART_1_SCB_MODE_SPI_CONST_CFG && UART_1_SPI_WAKE_ENABLE_CONST)
 115:.\Generated_Source\PSoC4/UART_1_PM.c ****         UART_1_SpiSaveConfig();
 116:.\Generated_Source\PSoC4/UART_1_PM.c **** 
 117:.\Generated_Source\PSoC4/UART_1_PM.c ****     #elif (UART_1_SCB_MODE_UART_CONST_CFG && UART_1_UART_WAKE_ENABLE_CONST)
 118:.\Generated_Source\PSoC4/UART_1_PM.c ****         UART_1_UartSaveConfig();
 119:.\Generated_Source\PSoC4/UART_1_PM.c **** 
 120:.\Generated_Source\PSoC4/UART_1_PM.c ****     #else
 121:.\Generated_Source\PSoC4/UART_1_PM.c **** 
 122:.\Generated_Source\PSoC4/UART_1_PM.c ****         UART_1_backup.enableState = (uint8) UART_1_GET_CTRL_ENABLED;
  41              		.loc 1 122 0
  42 0004 074B     		ldr	r3, .L3
  43 0006 1B68     		ldr	r3, [r3]
  44 0008 DB0F     		lsr	r3, r3, #31
  45 000a DBB2     		uxtb	r3, r3
  46 000c 1A1C     		mov	r2, r3
  47 000e 064B     		ldr	r3, .L3+4
  48 0010 1A70     		strb	r2, [r3]
 123:.\Generated_Source\PSoC4/UART_1_PM.c **** 
ARM GAS  C:\Users\GLENNL~1\AppData\Local\Temp\cczWlFJ5.s 			page 4


 124:.\Generated_Source\PSoC4/UART_1_PM.c ****         if(0u != UART_1_backup.enableState)
  49              		.loc 1 124 0
  50 0012 054B     		ldr	r3, .L3+4
  51 0014 1B78     		ldrb	r3, [r3]
  52 0016 002B     		cmp	r3, #0
  53 0018 01D0     		beq	.L1
 125:.\Generated_Source\PSoC4/UART_1_PM.c ****         {
 126:.\Generated_Source\PSoC4/UART_1_PM.c ****             UART_1_Stop();
  54              		.loc 1 126 0
  55 001a FFF7FEFF 		bl	UART_1_Stop
  56              	.L1:
 127:.\Generated_Source\PSoC4/UART_1_PM.c ****         }
 128:.\Generated_Source\PSoC4/UART_1_PM.c **** 
 129:.\Generated_Source\PSoC4/UART_1_PM.c ****     #endif /* defined (UART_1_SCB_MODE_I2C_CONST_CFG) && (UART_1_I2C_WAKE_ENABLE_CONST) */
 130:.\Generated_Source\PSoC4/UART_1_PM.c **** 
 131:.\Generated_Source\PSoC4/UART_1_PM.c **** #endif /* (UART_1_SCB_MODE_UNCONFIG_CONST_CFG) */
 132:.\Generated_Source\PSoC4/UART_1_PM.c **** }
  57              		.loc 1 132 0
  58 001e BD46     		mov	sp, r7
  59              		@ sp needed
  60 0020 80BD     		pop	{r7, pc}
  61              	.L4:
  62 0022 C046     		.align	2
  63              	.L3:
  64 0024 00002440 		.word	1076101120
  65 0028 00000000 		.word	UART_1_backup
  66              		.cfi_endproc
  67              	.LFE2:
  68              		.size	UART_1_Sleep, .-UART_1_Sleep
  69              		.section	.text.UART_1_Wakeup,"ax",%progbits
  70              		.align	2
  71              		.global	UART_1_Wakeup
  72              		.code	16
  73              		.thumb_func
  74              		.type	UART_1_Wakeup, %function
  75              	UART_1_Wakeup:
  76              	.LFB3:
 133:.\Generated_Source\PSoC4/UART_1_PM.c **** 
 134:.\Generated_Source\PSoC4/UART_1_PM.c **** 
 135:.\Generated_Source\PSoC4/UART_1_PM.c **** /*******************************************************************************
 136:.\Generated_Source\PSoC4/UART_1_PM.c **** * Function Name: UART_1_Wakeup
 137:.\Generated_Source\PSoC4/UART_1_PM.c **** ********************************************************************************
 138:.\Generated_Source\PSoC4/UART_1_PM.c **** *
 139:.\Generated_Source\PSoC4/UART_1_PM.c **** * Summary:
 140:.\Generated_Source\PSoC4/UART_1_PM.c **** *  Prepares the component for the Active mode operation after exiting
 141:.\Generated_Source\PSoC4/UART_1_PM.c **** *  Deep Sleep. The "Enable wakeup from Sleep Mode" option has an influence
 142:.\Generated_Source\PSoC4/UART_1_PM.c **** *  on this function implementation.
 143:.\Generated_Source\PSoC4/UART_1_PM.c **** *  This function should not be called after exiting Sleep.
 144:.\Generated_Source\PSoC4/UART_1_PM.c **** *
 145:.\Generated_Source\PSoC4/UART_1_PM.c **** * Parameters:
 146:.\Generated_Source\PSoC4/UART_1_PM.c **** *  None
 147:.\Generated_Source\PSoC4/UART_1_PM.c **** *
 148:.\Generated_Source\PSoC4/UART_1_PM.c **** * Return:
 149:.\Generated_Source\PSoC4/UART_1_PM.c **** *  None
 150:.\Generated_Source\PSoC4/UART_1_PM.c **** *
 151:.\Generated_Source\PSoC4/UART_1_PM.c **** *******************************************************************************/
 152:.\Generated_Source\PSoC4/UART_1_PM.c **** void UART_1_Wakeup(void)
ARM GAS  C:\Users\GLENNL~1\AppData\Local\Temp\cczWlFJ5.s 			page 5


 153:.\Generated_Source\PSoC4/UART_1_PM.c **** {
  77              		.loc 1 153 0
  78              		.cfi_startproc
  79 0000 80B5     		push	{r7, lr}
  80              		.cfi_def_cfa_offset 8
  81              		.cfi_offset 7, -8
  82              		.cfi_offset 14, -4
  83 0002 00AF     		add	r7, sp, #0
  84              		.cfi_def_cfa_register 7
 154:.\Generated_Source\PSoC4/UART_1_PM.c **** #if(UART_1_SCB_MODE_UNCONFIG_CONST_CFG)
 155:.\Generated_Source\PSoC4/UART_1_PM.c **** 
 156:.\Generated_Source\PSoC4/UART_1_PM.c ****     if(UART_1_SCB_WAKE_ENABLE_CHECK)
 157:.\Generated_Source\PSoC4/UART_1_PM.c ****     {
 158:.\Generated_Source\PSoC4/UART_1_PM.c ****         if(UART_1_SCB_MODE_I2C_RUNTM_CFG)
 159:.\Generated_Source\PSoC4/UART_1_PM.c ****         {
 160:.\Generated_Source\PSoC4/UART_1_PM.c ****             UART_1_I2CRestoreConfig();
 161:.\Generated_Source\PSoC4/UART_1_PM.c ****         }
 162:.\Generated_Source\PSoC4/UART_1_PM.c ****         else if(UART_1_SCB_MODE_EZI2C_RUNTM_CFG)
 163:.\Generated_Source\PSoC4/UART_1_PM.c ****         {
 164:.\Generated_Source\PSoC4/UART_1_PM.c ****             UART_1_EzI2CRestoreConfig();
 165:.\Generated_Source\PSoC4/UART_1_PM.c ****         }
 166:.\Generated_Source\PSoC4/UART_1_PM.c ****     #if(!UART_1_CY_SCBIP_V1)
 167:.\Generated_Source\PSoC4/UART_1_PM.c ****         else if(UART_1_SCB_MODE_SPI_RUNTM_CFG)
 168:.\Generated_Source\PSoC4/UART_1_PM.c ****         {
 169:.\Generated_Source\PSoC4/UART_1_PM.c ****             UART_1_SpiRestoreConfig();
 170:.\Generated_Source\PSoC4/UART_1_PM.c ****         }
 171:.\Generated_Source\PSoC4/UART_1_PM.c ****         else if(UART_1_SCB_MODE_UART_RUNTM_CFG)
 172:.\Generated_Source\PSoC4/UART_1_PM.c ****         {
 173:.\Generated_Source\PSoC4/UART_1_PM.c ****             UART_1_UartRestoreConfig();
 174:.\Generated_Source\PSoC4/UART_1_PM.c ****         }
 175:.\Generated_Source\PSoC4/UART_1_PM.c ****     #endif /* (!UART_1_CY_SCBIP_V1) */
 176:.\Generated_Source\PSoC4/UART_1_PM.c ****         else
 177:.\Generated_Source\PSoC4/UART_1_PM.c ****         {
 178:.\Generated_Source\PSoC4/UART_1_PM.c ****             /* Unknown mode */
 179:.\Generated_Source\PSoC4/UART_1_PM.c ****         }
 180:.\Generated_Source\PSoC4/UART_1_PM.c ****     }
 181:.\Generated_Source\PSoC4/UART_1_PM.c ****     else
 182:.\Generated_Source\PSoC4/UART_1_PM.c ****     {
 183:.\Generated_Source\PSoC4/UART_1_PM.c ****         if(0u != UART_1_backup.enableState)
 184:.\Generated_Source\PSoC4/UART_1_PM.c ****         {
 185:.\Generated_Source\PSoC4/UART_1_PM.c ****             UART_1_Enable();
 186:.\Generated_Source\PSoC4/UART_1_PM.c ****         }
 187:.\Generated_Source\PSoC4/UART_1_PM.c ****     }
 188:.\Generated_Source\PSoC4/UART_1_PM.c **** 
 189:.\Generated_Source\PSoC4/UART_1_PM.c **** #else
 190:.\Generated_Source\PSoC4/UART_1_PM.c **** 
 191:.\Generated_Source\PSoC4/UART_1_PM.c ****     #if (UART_1_SCB_MODE_I2C_CONST_CFG  && UART_1_I2C_WAKE_ENABLE_CONST)
 192:.\Generated_Source\PSoC4/UART_1_PM.c ****         UART_1_I2CRestoreConfig();
 193:.\Generated_Source\PSoC4/UART_1_PM.c **** 
 194:.\Generated_Source\PSoC4/UART_1_PM.c ****     #elif (UART_1_SCB_MODE_EZI2C_CONST_CFG && UART_1_EZI2C_WAKE_ENABLE_CONST)
 195:.\Generated_Source\PSoC4/UART_1_PM.c ****         UART_1_EzI2CRestoreConfig();
 196:.\Generated_Source\PSoC4/UART_1_PM.c **** 
 197:.\Generated_Source\PSoC4/UART_1_PM.c ****     #elif (UART_1_SCB_MODE_SPI_CONST_CFG && UART_1_SPI_WAKE_ENABLE_CONST)
 198:.\Generated_Source\PSoC4/UART_1_PM.c ****         UART_1_SpiRestoreConfig();
 199:.\Generated_Source\PSoC4/UART_1_PM.c **** 
 200:.\Generated_Source\PSoC4/UART_1_PM.c ****     #elif (UART_1_SCB_MODE_UART_CONST_CFG && UART_1_UART_WAKE_ENABLE_CONST)
 201:.\Generated_Source\PSoC4/UART_1_PM.c ****         UART_1_UartRestoreConfig();
ARM GAS  C:\Users\GLENNL~1\AppData\Local\Temp\cczWlFJ5.s 			page 6


 202:.\Generated_Source\PSoC4/UART_1_PM.c **** 
 203:.\Generated_Source\PSoC4/UART_1_PM.c ****     #else
 204:.\Generated_Source\PSoC4/UART_1_PM.c **** 
 205:.\Generated_Source\PSoC4/UART_1_PM.c ****         if(0u != UART_1_backup.enableState)
  85              		.loc 1 205 0
  86 0004 034B     		ldr	r3, .L7
  87 0006 1B78     		ldrb	r3, [r3]
  88 0008 002B     		cmp	r3, #0
  89 000a 01D0     		beq	.L5
 206:.\Generated_Source\PSoC4/UART_1_PM.c ****         {
 207:.\Generated_Source\PSoC4/UART_1_PM.c ****             UART_1_Enable();
  90              		.loc 1 207 0
  91 000c FFF7FEFF 		bl	UART_1_Enable
  92              	.L5:
 208:.\Generated_Source\PSoC4/UART_1_PM.c ****         }
 209:.\Generated_Source\PSoC4/UART_1_PM.c **** 
 210:.\Generated_Source\PSoC4/UART_1_PM.c ****     #endif /* (UART_1_I2C_WAKE_ENABLE_CONST) */
 211:.\Generated_Source\PSoC4/UART_1_PM.c **** 
 212:.\Generated_Source\PSoC4/UART_1_PM.c **** #endif /* (UART_1_SCB_MODE_UNCONFIG_CONST_CFG) */
 213:.\Generated_Source\PSoC4/UART_1_PM.c **** }
  93              		.loc 1 213 0
  94 0010 BD46     		mov	sp, r7
  95              		@ sp needed
  96 0012 80BD     		pop	{r7, pc}
  97              	.L8:
  98              		.align	2
  99              	.L7:
 100 0014 00000000 		.word	UART_1_backup
 101              		.cfi_endproc
 102              	.LFE3:
 103              		.size	UART_1_Wakeup, .-UART_1_Wakeup
 104              		.text
 105              	.Letext0:
 106              		.file 2 ".\\Generated_Source\\PSoC4/cytypes.h"
 107              		.file 3 ".\\Generated_Source\\PSoC4\\UART_1.h"